Archive member included because of file (symbol)

/home/berkeley/nacl_sdk/pepper_42/lib/newlib_x86_64/Release/libppapi_cpp.a(instance_x86_64.o)
                              newlib/Release/popcnt_x86_64.o (_ZN2pp8InstanceC2Ei)
/home/berkeley/nacl_sdk/pepper_42/lib/newlib_x86_64/Release/libppapi_cpp.a(module_x86_64.o)
                              newlib/Release/popcnt_x86_64.o (_ZN2pp6ModuleC2Ev)
/home/berkeley/nacl_sdk/pepper_42/lib/newlib_x86_64/Release/libppapi_cpp.a(ppp_entrypoints_x86_64.o)
                              /home/berkeley/nacl_sdk/pepper_42/lib/newlib_x86_64/Release/libppapi_cpp.a(instance_x86_64.o) (_ZN2pp6Module3GetEv)
/home/berkeley/nacl_sdk/pepper_42/lib/newlib_x86_64/Release/libppapi_cpp.a(resource_x86_64.o)
                              /home/berkeley/nacl_sdk/pepper_42/lib/newlib_x86_64/Release/libppapi_cpp.a(module_x86_64.o) (_ZN2pp8ResourceD2Ev)
/home/berkeley/nacl_sdk/pepper_42/lib/newlib_x86_64/Release/libppapi_cpp.a(url_loader_x86_64.o)
                              /home/berkeley/nacl_sdk/pepper_42/lib/newlib_x86_64/Release/libppapi_cpp.a(module_x86_64.o) (_ZN2pp9URLLoaderC1Ei)
/home/berkeley/nacl_sdk/pepper_42/lib/newlib_x86_64/Release/libppapi_cpp.a(url_response_info_x86_64.o)
                              /home/berkeley/nacl_sdk/pepper_42/lib/newlib_x86_64/Release/libppapi_cpp.a(url_loader_x86_64.o) (_ZN2pp15URLResponseInfoC1ENS_7PassRefEi)
/home/berkeley/nacl_sdk/pepper_42/lib/newlib_x86_64/Release/libppapi_cpp.a(var_x86_64.o)
                              /home/berkeley/nacl_sdk/pepper_42/lib/newlib_x86_64/Release/libppapi_cpp.a(module_x86_64.o) (_ZTVN2pp3VarE)
/home/berkeley/nacl_sdk/pepper_42/lib/newlib_x86_64/Release/libppapi_cpp.a(view_x86_64.o)
                              /home/berkeley/nacl_sdk/pepper_42/lib/newlib_x86_64/Release/libppapi_cpp.a(module_x86_64.o) (_ZN2pp4ViewC1Ei)
/home/berkeley/nacl_sdk/pepper_42/lib/newlib_x86_64/Release/libppapi_cpp.a(core_x86_64.o)
                              /home/berkeley/nacl_sdk/pepper_42/lib/newlib_x86_64/Release/libppapi_cpp.a(url_loader_x86_64.o) (_ZN2pp4Core16CallOnMainThreadEiRKNS_18CompletionCallbackEi)
/home/berkeley/nacl_sdk/pepper_42/lib/newlib_x86_64/Release/libppapi_cpp.a(file_ref_x86_64.o)
                              /home/berkeley/nacl_sdk/pepper_42/lib/newlib_x86_64/Release/libppapi_cpp.a(url_response_info_x86_64.o) (_ZN2pp7FileRefC1ENS_7PassRefEi)
/home/berkeley/nacl_sdk/pepper_42/lib/newlib_x86_64/Release/libppapi_cpp.a(input_event_x86_64.o)
                              /home/berkeley/nacl_sdk/pepper_42/lib/newlib_x86_64/Release/libppapi_cpp.a(module_x86_64.o) (_ZN2pp10InputEventD1Ev)
/home/berkeley/nacl_sdk/pepper_42/toolchain/linux_x86_newlib/bin/../lib/gcc/x86_64-nacl/4.4.3/../../../../x86_64-nacl/lib/../lib64/libppapi_stub.a(plugin_main_irt_21ce9d26.o)
                              (main)
/home/berkeley/nacl_sdk/pepper_42/toolchain/linux_x86_newlib/bin/../lib/gcc/x86_64-nacl/4.4.3/../../../../x86_64-nacl/lib/../lib64/libppapi_stub.a(ppapi_plugin_main_399d0cf7.o)
                              /home/berkeley/nacl_sdk/pepper_42/toolchain/linux_x86_newlib/bin/../lib/gcc/x86_64-nacl/4.4.3/../../../../x86_64-nacl/lib/../lib64/libppapi_stub.a(plugin_main_irt_21ce9d26.o) (PpapiPluginMain)
/home/berkeley/nacl_sdk/pepper_42/toolchain/linux_x86_newlib/bin/../lib/gcc/x86_64-nacl/4.4.3/../../../../x86_64-nacl/lib/../lib64/libppapi_stub.a(ppapi_plugin_start_8da67623.o)
                              /home/berkeley/nacl_sdk/pepper_42/toolchain/linux_x86_newlib/bin/../lib/gcc/x86_64-nacl/4.4.3/../../../../x86_64-nacl/lib/../lib64/libppapi_stub.a(ppapi_plugin_main_399d0cf7.o) (PpapiPluginStart)
/home/berkeley/nacl_sdk/pepper_42/toolchain/linux_x86_newlib/bin/../lib/gcc/x86_64-nacl/4.4.3/../../../../x86_64-nacl/lib/../lib64/libppapi_stub.a(thread_creator_ccf263e1.o)
                              /home/berkeley/nacl_sdk/pepper_42/toolchain/linux_x86_newlib/bin/../lib/gcc/x86_64-nacl/4.4.3/../../../../x86_64-nacl/lib/../lib64/libppapi_stub.a(ppapi_plugin_start_8da67623.o) (__nacl_register_thread_creator)
/home/berkeley/nacl_sdk/pepper_42/toolchain/linux_x86_newlib/bin/../lib/gcc/x86_64-nacl/4.4.3/../../../../x86_64-nacl/lib/../lib64/libpthread.a(nc_thread_7e478b15.o)
                              /home/berkeley/nacl_sdk/pepper_42/toolchain/linux_x86_newlib/bin/../lib/gcc/x86_64-nacl/4.4.3/../../../../x86_64-nacl/lib/../lib64/libppapi_stub.a(thread_creator_ccf263e1.o) (pthread_join)
/home/berkeley/nacl_sdk/pepper_42/toolchain/linux_x86_newlib/bin/../lib/gcc/x86_64-nacl/4.4.3/../../../../x86_64-nacl/lib/../lib64/libpthread.a(nc_condvar_305aa45a.o)
                              /home/berkeley/nacl_sdk/pepper_42/toolchain/linux_x86_newlib/bin/../lib/gcc/x86_64-nacl/4.4.3/../../../../x86_64-nacl/lib/../lib64/libpthread.a(nc_thread_7e478b15.o) (pthread_cond_init)
/home/berkeley/nacl_sdk/pepper_42/toolchain/linux_x86_newlib/bin/../lib/gcc/x86_64-nacl/4.4.3/../../../../x86_64-nacl/lib/../lib64/libpthread.a(dynamic_annotations_33ba59cc.o)
                              /home/berkeley/nacl_sdk/pepper_42/toolchain/linux_x86_newlib/bin/../lib/gcc/x86_64-nacl/4.4.3/../../../../x86_64-nacl/lib/../lib64/libpthread.a(nc_thread_7e478b15.o) (NACL_AnnotateCondVarWait)
/home/berkeley/nacl_sdk/pepper_42/toolchain/linux_x86_newlib/bin/../lib/gcc/x86_64-nacl/4.4.3/../../../../x86_64-nacl/lib/../lib64/libpthread.a(nc_mutex_86341ae1.o)
                              /home/berkeley/nacl_sdk/pepper_42/toolchain/linux_x86_newlib/bin/../lib/gcc/x86_64-nacl/4.4.3/../../../../x86_64-nacl/lib/../lib64/libpthread.a(nc_thread_7e478b15.o) (pthread_mutex_init)
/home/berkeley/nacl_sdk/pepper_42/toolchain/linux_x86_newlib/bin/../lib/gcc/x86_64-nacl/4.4.3/../../../../x86_64-nacl/lib/../lib64/libpthread.a(nc_init_irt_d3daafc0.o)
                              /home/berkeley/nacl_sdk/pepper_42/toolchain/linux_x86_newlib/bin/../lib/gcc/x86_64-nacl/4.4.3/../../../../x86_64-nacl/lib/../lib64/libpthread.a(nc_thread_7e478b15.o) (__nc_initialize_interfaces)
/home/berkeley/nacl_sdk/pepper_42/toolchain/linux_x86_newlib/bin/../lib/gcc/x86_64-nacl/4.4.3/../../../../x86_64-nacl/lib/../lib64/libstdc++.a(tree.o)
                              /home/berkeley/nacl_sdk/pepper_42/lib/newlib_x86_64/Release/libppapi_cpp.a(instance_x86_64.o) (_ZSt18_Rb_tree_incrementPKSt18_Rb_tree_node_base)
/home/berkeley/nacl_sdk/pepper_42/toolchain/linux_x86_newlib/bin/../lib/gcc/x86_64-nacl/4.4.3/../../../../x86_64-nacl/lib/../lib64/libstdc++.a(string-inst.o)
                              /home/berkeley/nacl_sdk/pepper_42/lib/newlib_x86_64/Release/libppapi_cpp.a(instance_x86_64.o) (_ZNSs4_Rep20_S_empty_rep_storageE)
/home/berkeley/nacl_sdk/pepper_42/toolchain/linux_x86_newlib/bin/../lib/gcc/x86_64-nacl/4.4.3/../../../../x86_64-nacl/lib/../lib64/libstdc++.a(eh_personality.o)
                              newlib/Release/popcnt_x86_64.o (__gxx_personality_v0)
/home/berkeley/nacl_sdk/pepper_42/toolchain/linux_x86_newlib/bin/../lib/gcc/x86_64-nacl/4.4.3/../../../../x86_64-nacl/lib/../lib64/libstdc++.a(eh_globals.o)
                              /home/berkeley/nacl_sdk/pepper_42/toolchain/linux_x86_newlib/bin/../lib/gcc/x86_64-nacl/4.4.3/../../../../x86_64-nacl/lib/../lib64/libstdc++.a(eh_personality.o) (__cxa_get_globals_fast)
/home/berkeley/nacl_sdk/pepper_42/toolchain/linux_x86_newlib/bin/../lib/gcc/x86_64-nacl/4.4.3/../../../../x86_64-nacl/lib/../lib64/libstdc++.a(eh_throw.o)
                              /home/berkeley/nacl_sdk/pepper_42/lib/newlib_x86_64/Release/libppapi_cpp.a(instance_x86_64.o) (__cxa_rethrow)
/home/berkeley/nacl_sdk/pepper_42/toolchain/linux_x86_newlib/bin/../lib/gcc/x86_64-nacl/4.4.3/../../../../x86_64-nacl/lib/../lib64/libstdc++.a(del_op.o)
                              newlib/Release/popcnt_x86_64.o (_ZdlPv)
/home/berkeley/nacl_sdk/pepper_42/toolchain/linux_x86_newlib/bin/../lib/gcc/x86_64-nacl/4.4.3/../../../../x86_64-nacl/lib/../lib64/libstdc++.a(eh_call.o)
                              /home/berkeley/nacl_sdk/pepper_42/toolchain/linux_x86_newlib/bin/../lib/gcc/x86_64-nacl/4.4.3/../../../../x86_64-nacl/lib/../lib64/libstdc++.a(eh_personality.o) (__cxa_call_terminate)
/home/berkeley/nacl_sdk/pepper_42/toolchain/linux_x86_newlib/bin/../lib/gcc/x86_64-nacl/4.4.3/../../../../x86_64-nacl/lib/../lib64/libstdc++.a(guard.o)
                              /home/berkeley/nacl_sdk/pepper_42/lib/newlib_x86_64/Release/libppapi_cpp.a(instance_x86_64.o) (__cxa_guard_abort)
/home/berkeley/nacl_sdk/pepper_42/toolchain/linux_x86_newlib/bin/../lib/gcc/x86_64-nacl/4.4.3/../../../../x86_64-nacl/lib/../lib64/libstdc++.a(si_class_type_info.o)
                              newlib/Release/popcnt_x86_64.o (_ZTVN10__cxxabiv120__si_class_type_infoE)
/home/berkeley/nacl_sdk/pepper_42/toolchain/linux_x86_newlib/bin/../lib/gcc/x86_64-nacl/4.4.3/../../../../x86_64-nacl/lib/../lib64/libstdc++.a(eh_terminate.o)
                              /home/berkeley/nacl_sdk/pepper_42/toolchain/linux_x86_newlib/bin/../lib/gcc/x86_64-nacl/4.4.3/../../../../x86_64-nacl/lib/../lib64/libstdc++.a(eh_personality.o) (_ZN10__cxxabiv111__terminateEPFvvE)
/home/berkeley/nacl_sdk/pepper_42/toolchain/linux_x86_newlib/bin/../lib/gcc/x86_64-nacl/4.4.3/../../../../x86_64-nacl/lib/../lib64/libstdc++.a(class_type_info.o)
                              /home/berkeley/nacl_sdk/pepper_42/toolchain/linux_x86_newlib/bin/../lib/gcc/x86_64-nacl/4.4.3/../../../../x86_64-nacl/lib/../lib64/libstdc++.a(si_class_type_info.o) (_ZNK10__cxxabiv117__class_type_info10__do_catchEPKSt9type_infoPPvj)
/home/berkeley/nacl_sdk/pepper_42/toolchain/linux_x86_newlib/bin/../lib/gcc/x86_64-nacl/4.4.3/../../../../x86_64-nacl/lib/../lib64/libstdc++.a(eh_alloc.o)
                              /home/berkeley/nacl_sdk/pepper_42/toolchain/linux_x86_newlib/bin/../lib/gcc/x86_64-nacl/4.4.3/../../../../x86_64-nacl/lib/../lib64/libstdc++.a(eh_throw.o) (__cxa_free_exception)
/home/berkeley/nacl_sdk/pepper_42/toolchain/linux_x86_newlib/bin/../lib/gcc/x86_64-nacl/4.4.3/../../../../x86_64-nacl/lib/../lib64/libstdc++.a(eh_catch.o)
                              /home/berkeley/nacl_sdk/pepper_42/lib/newlib_x86_64/Release/libppapi_cpp.a(instance_x86_64.o) (__cxa_end_catch)
/home/berkeley/nacl_sdk/pepper_42/toolchain/linux_x86_newlib/bin/../lib/gcc/x86_64-nacl/4.4.3/../../../../x86_64-nacl/lib/../lib64/libstdc++.a(eh_exception.o)
                              /home/berkeley/nacl_sdk/pepper_42/toolchain/linux_x86_newlib/bin/../lib/gcc/x86_64-nacl/4.4.3/../../../../x86_64-nacl/lib/../lib64/libstdc++.a(guard.o) (_ZNSt9exceptionD2Ev)
/home/berkeley/nacl_sdk/pepper_42/toolchain/linux_x86_newlib/bin/../lib/gcc/x86_64-nacl/4.4.3/../../../../x86_64-nacl/lib/../lib64/libstdc++.a(pure.o)
                              /home/berkeley/nacl_sdk/pepper_42/lib/newlib_x86_64/Release/libppapi_cpp.a(module_x86_64.o) (__cxa_pure_virtual)
/home/berkeley/nacl_sdk/pepper_42/toolchain/linux_x86_newlib/bin/../lib/gcc/x86_64-nacl/4.4.3/../../../../x86_64-nacl/lib/../lib64/libstdc++.a(new_op.o)
                              newlib/Release/popcnt_x86_64.o (_Znwj)
/home/berkeley/nacl_sdk/pepper_42/toolchain/linux_x86_newlib/bin/../lib/gcc/x86_64-nacl/4.4.3/../../../../x86_64-nacl/lib/../lib64/libstdc++.a(tinfo.o)
                              /home/berkeley/nacl_sdk/pepper_42/toolchain/linux_x86_newlib/bin/../lib/gcc/x86_64-nacl/4.4.3/../../../../x86_64-nacl/lib/../lib64/libstdc++.a(class_type_info.o) (_ZNSt9type_infoD2Ev)
/home/berkeley/nacl_sdk/pepper_42/toolchain/linux_x86_newlib/bin/../lib/gcc/x86_64-nacl/4.4.3/../../../../x86_64-nacl/lib/../lib64/libstdc++.a(functexcept.o)
                              /home/berkeley/nacl_sdk/pepper_42/toolchain/linux_x86_newlib/bin/../lib/gcc/x86_64-nacl/4.4.3/../../../../x86_64-nacl/lib/../lib64/libstdc++.a(string-inst.o) (_ZSt20__throw_out_of_rangePKc)
/home/berkeley/nacl_sdk/pepper_42/toolchain/linux_x86_newlib/bin/../lib/gcc/x86_64-nacl/4.4.3/../../../../x86_64-nacl/lib/../lib64/libstdc++.a(ios_failure.o)
                              /home/berkeley/nacl_sdk/pepper_42/toolchain/linux_x86_newlib/bin/../lib/gcc/x86_64-nacl/4.4.3/../../../../x86_64-nacl/lib/../lib64/libstdc++.a(functexcept.o) (_ZNSt8ios_base7failureC1ERKSs)
/home/berkeley/nacl_sdk/pepper_42/toolchain/linux_x86_newlib/bin/../lib/gcc/x86_64-nacl/4.4.3/../../../../x86_64-nacl/lib/../lib64/libstdc++.a(stdexcept.o)
                              /home/berkeley/nacl_sdk/pepper_42/toolchain/linux_x86_newlib/bin/../lib/gcc/x86_64-nacl/4.4.3/../../../../x86_64-nacl/lib/../lib64/libstdc++.a(functexcept.o) (_ZNKSt11logic_error4whatEv)
/home/berkeley/nacl_sdk/pepper_42/toolchain/linux_x86_newlib/bin/../lib/gcc/x86_64-nacl/4.4.3/../../../../x86_64-nacl/lib/../lib64/libstdc++.a(system_error.o)
                              /home/berkeley/nacl_sdk/pepper_42/toolchain/linux_x86_newlib/bin/../lib/gcc/x86_64-nacl/4.4.3/../../../../x86_64-nacl/lib/../lib64/libstdc++.a(functexcept.o) (_ZSt16generic_categoryv)
/home/berkeley/nacl_sdk/pepper_42/toolchain/linux_x86_newlib/bin/../lib/gcc/x86_64-nacl/4.4.3/../../../../x86_64-nacl/lib/../lib64/libstdc++.a(eh_unex_handler.o)
                              /home/berkeley/nacl_sdk/pepper_42/toolchain/linux_x86_newlib/bin/../lib/gcc/x86_64-nacl/4.4.3/../../../../x86_64-nacl/lib/../lib64/libstdc++.a(eh_throw.o) (_ZN10__cxxabiv120__unexpected_handlerE)
/home/berkeley/nacl_sdk/pepper_42/toolchain/linux_x86_newlib/bin/../lib/gcc/x86_64-nacl/4.4.3/../../../../x86_64-nacl/lib/../lib64/libstdc++.a(eh_term_handler.o)
                              /home/berkeley/nacl_sdk/pepper_42/toolchain/linux_x86_newlib/bin/../lib/gcc/x86_64-nacl/4.4.3/../../../../x86_64-nacl/lib/../lib64/libstdc++.a(eh_throw.o) (_ZN10__cxxabiv119__terminate_handlerE)
/home/berkeley/nacl_sdk/pepper_42/toolchain/linux_x86_newlib/bin/../lib/gcc/x86_64-nacl/4.4.3/../../../../x86_64-nacl/lib/../lib64/libstdc++.a(bad_typeid.o)
                              /home/berkeley/nacl_sdk/pepper_42/toolchain/linux_x86_newlib/bin/../lib/gcc/x86_64-nacl/4.4.3/../../../../x86_64-nacl/lib/../lib64/libstdc++.a(functexcept.o) (_ZNSt10bad_typeidD1Ev)
/home/berkeley/nacl_sdk/pepper_42/toolchain/linux_x86_newlib/bin/../lib/gcc/x86_64-nacl/4.4.3/../../../../x86_64-nacl/lib/../lib64/libstdc++.a(new_handler.o)
                              /home/berkeley/nacl_sdk/pepper_42/toolchain/linux_x86_newlib/bin/../lib/gcc/x86_64-nacl/4.4.3/../../../../x86_64-nacl/lib/../lib64/libstdc++.a(new_op.o) (__new_handler)
/home/berkeley/nacl_sdk/pepper_42/toolchain/linux_x86_newlib/bin/../lib/gcc/x86_64-nacl/4.4.3/../../../../x86_64-nacl/lib/../lib64/libstdc++.a(bad_cast.o)
                              /home/berkeley/nacl_sdk/pepper_42/toolchain/linux_x86_newlib/bin/../lib/gcc/x86_64-nacl/4.4.3/../../../../x86_64-nacl/lib/../lib64/libstdc++.a(functexcept.o) (_ZNSt8bad_castD1Ev)
/home/berkeley/nacl_sdk/pepper_42/toolchain/linux_x86_newlib/bin/../lib/gcc/x86_64-nacl/4.4.3/../../../../x86_64-nacl/lib/../lib64/libstdc++.a(vterminate.o)
                              /home/berkeley/nacl_sdk/pepper_42/toolchain/linux_x86_newlib/bin/../lib/gcc/x86_64-nacl/4.4.3/../../../../x86_64-nacl/lib/../lib64/libstdc++.a(eh_term_handler.o) (_ZN9__gnu_cxx27__verbose_terminate_handlerEv)
/home/berkeley/nacl_sdk/pepper_42/toolchain/linux_x86_newlib/bin/../lib/gcc/x86_64-nacl/4.4.3/../../../../x86_64-nacl/lib/../lib64/libstdc++.a(cp-demangle.o)
                              /home/berkeley/nacl_sdk/pepper_42/toolchain/linux_x86_newlib/bin/../lib/gcc/x86_64-nacl/4.4.3/../../../../x86_64-nacl/lib/../lib64/libstdc++.a(vterminate.o) (__cxa_demangle)
/home/berkeley/nacl_sdk/pepper_42/toolchain/linux_x86_newlib/bin/../lib/gcc/x86_64-nacl/4.4.3/../../../../x86_64-nacl/lib/../lib64/libstdc++.a(eh_type.o)
                              /home/berkeley/nacl_sdk/pepper_42/toolchain/linux_x86_newlib/bin/../lib/gcc/x86_64-nacl/4.4.3/../../../../x86_64-nacl/lib/../lib64/libstdc++.a(vterminate.o) (__cxa_current_exception_type)
/home/berkeley/nacl_sdk/pepper_42/toolchain/linux_x86_newlib/bin/../lib/gcc/x86_64-nacl/4.4.3/libgcc.a(unwind-dw2.o)
                              /home/berkeley/nacl_sdk/pepper_42/toolchain/linux_x86_newlib/bin/../lib/gcc/x86_64-nacl/4.4.3/../../../../x86_64-nacl/lib/../lib64/libstdc++.a(eh_personality.o) (_Unwind_GetIPInfo)
/home/berkeley/nacl_sdk/pepper_42/toolchain/linux_x86_newlib/bin/../lib/gcc/x86_64-nacl/4.4.3/libgcc.a(unwind-dw2-fde-glibc.o)
                              /home/berkeley/nacl_sdk/pepper_42/toolchain/linux_x86_newlib/bin/../lib/gcc/x86_64-nacl/4.4.3/libgcc.a(unwind-dw2.o) (_Unwind_Find_FDE)
/home/berkeley/nacl_sdk/pepper_42/toolchain/linux_x86_newlib/bin/../lib/gcc/x86_64-nacl/4.4.3/../../../../x86_64-nacl/lib/../lib64/libnacl.a(_exit_710c7d0d.o)
                              (_exit)
/home/berkeley/nacl_sdk/pepper_42/toolchain/linux_x86_newlib/bin/../lib/gcc/x86_64-nacl/4.4.3/../../../../x86_64-nacl/lib/../lib64/libnacl.a(abort_9f6b5845.o)
                              /home/berkeley/nacl_sdk/pepper_42/toolchain/linux_x86_newlib/bin/../lib/gcc/x86_64-nacl/4.4.3/../../../../x86_64-nacl/lib/../lib64/libstdc++.a(eh_personality.o) (abort)
/home/berkeley/nacl_sdk/pepper_42/toolchain/linux_x86_newlib/bin/../lib/gcc/x86_64-nacl/4.4.3/../../../../x86_64-nacl/lib/../lib64/libnacl.a(environ_25cd24d8.o)
                              /home/berkeley/nacl_sdk/pepper_42/toolchain/linux_x86_newlib/bin/../lib/gcc/x86_64-nacl/4.4.3/../../../../x86_64-nacl/lib/../lib64/libppapi_stub.a(ppapi_plugin_start_8da67623.o) (environ)
/home/berkeley/nacl_sdk/pepper_42/toolchain/linux_x86_newlib/bin/../lib/gcc/x86_64-nacl/4.4.3/../../../../x86_64-nacl/lib/../lib64/libnacl.a(start_fa9ef7de.o)
                              (_start)
/home/berkeley/nacl_sdk/pepper_42/toolchain/linux_x86_newlib/bin/../lib/gcc/x86_64-nacl/4.4.3/../../../../x86_64-nacl/lib/../lib64/libnacl.a(malloc_222c4a1e.o)
                              /home/berkeley/nacl_sdk/pepper_42/toolchain/linux_x86_newlib/bin/../lib/gcc/x86_64-nacl/4.4.3/../../../../x86_64-nacl/lib/../lib64/libpthread.a(nc_thread_7e478b15.o) (free)
/home/berkeley/nacl_sdk/pepper_42/toolchain/linux_x86_newlib/bin/../lib/gcc/x86_64-nacl/4.4.3/../../../../x86_64-nacl/lib/../lib64/libnacl.a(nacl_irt_6de1d53f.o)
                              /home/berkeley/nacl_sdk/pepper_42/toolchain/linux_x86_newlib/bin/../lib/gcc/x86_64-nacl/4.4.3/../../../../x86_64-nacl/lib/../lib64/libpthread.a(nc_init_irt_d3daafc0.o) (__libnacl_mandatory_irt_query)
/home/berkeley/nacl_sdk/pepper_42/toolchain/linux_x86_newlib/bin/../lib/gcc/x86_64-nacl/4.4.3/../../../../x86_64-nacl/lib/../lib64/libnacl.a(pthread_initialize_minimal_4b6e776b.o)
                              /home/berkeley/nacl_sdk/pepper_42/toolchain/linux_x86_newlib/bin/../lib/gcc/x86_64-nacl/4.4.3/../../../../x86_64-nacl/lib/../lib64/libpthread.a(nc_thread_7e478b15.o) (__pthread_initialize_minimal)
/home/berkeley/nacl_sdk/pepper_42/toolchain/linux_x86_newlib/bin/../lib/gcc/x86_64-nacl/4.4.3/../../../../x86_64-nacl/lib/../lib64/libnacl.a(nacl_read_tp_5748ac47.o)
                              newlib/Release/part2_unstripped_x86_64.nexe (__nacl_read_tp)
/home/berkeley/nacl_sdk/pepper_42/toolchain/linux_x86_newlib/bin/../lib/gcc/x86_64-nacl/4.4.3/../../../../x86_64-nacl/lib/../lib64/libnacl.a(nacl_add_tp_7312c7c4.o)
                              newlib/Release/part2_unstripped_x86_64.nexe (__nacl_add_tp)
/home/berkeley/nacl_sdk/pepper_42/toolchain/linux_x86_newlib/bin/../lib/gcc/x86_64-nacl/4.4.3/../../../../x86_64-nacl/lib/../lib64/libnacl.a(mmap_767fb080.o)
                              /home/berkeley/nacl_sdk/pepper_42/toolchain/linux_x86_newlib/bin/../lib/gcc/x86_64-nacl/4.4.3/../../../../x86_64-nacl/lib/../lib64/libnacl.a(malloc_222c4a1e.o) (mmap)
/home/berkeley/nacl_sdk/pepper_42/toolchain/linux_x86_newlib/bin/../lib/gcc/x86_64-nacl/4.4.3/../../../../x86_64-nacl/lib/../lib64/libnacl.a(sched_yield_56c375be.o)
                              /home/berkeley/nacl_sdk/pepper_42/toolchain/linux_x86_newlib/bin/../lib/gcc/x86_64-nacl/4.4.3/../../../../x86_64-nacl/lib/../lib64/libnacl.a(malloc_222c4a1e.o) (sched_yield)
/home/berkeley/nacl_sdk/pepper_42/toolchain/linux_x86_newlib/bin/../lib/gcc/x86_64-nacl/4.4.3/../../../../x86_64-nacl/lib/../lib64/libnacl.a(munmap_d4f09867.o)
                              /home/berkeley/nacl_sdk/pepper_42/toolchain/linux_x86_newlib/bin/../lib/gcc/x86_64-nacl/4.4.3/../../../../x86_64-nacl/lib/../lib64/libnacl.a(malloc_222c4a1e.o) (munmap)
/home/berkeley/nacl_sdk/pepper_42/toolchain/linux_x86_newlib/bin/../lib/gcc/x86_64-nacl/4.4.3/../../../../x86_64-nacl/lib/../lib64/libnacl.a(tls_bba1975b.o)
                              /home/berkeley/nacl_sdk/pepper_42/toolchain/linux_x86_newlib/bin/../lib/gcc/x86_64-nacl/4.4.3/../../../../x86_64-nacl/lib/../lib64/libpthread.a(nc_thread_7e478b15.o) (__nacl_tls_combined_size)
/home/berkeley/nacl_sdk/pepper_42/toolchain/linux_x86_newlib/bin/../lib/gcc/x86_64-nacl/4.4.3/../../../../x86_64-nacl/lib/../lib64/libnacl.a(write_fb49787f.o)
                              /home/berkeley/nacl_sdk/pepper_42/toolchain/linux_x86_newlib/bin/../lib/gcc/x86_64-nacl/4.4.3/../../../../x86_64-nacl/lib/../lib64/libppapi_stub.a(ppapi_plugin_start_8da67623.o) (write)
/home/berkeley/nacl_sdk/pepper_42/toolchain/linux_x86_newlib/bin/../lib/gcc/x86_64-nacl/4.4.3/../../../../x86_64-nacl/lib/../lib64/libnacl.a(nacl_tls_get_d2f842b5.o)
                              /home/berkeley/nacl_sdk/pepper_42/toolchain/linux_x86_newlib/bin/../lib/gcc/x86_64-nacl/4.4.3/../../../../x86_64-nacl/lib/../lib64/libnacl.a(nacl_read_tp_5748ac47.o) (nacl_tls_get)
/home/berkeley/nacl_sdk/pepper_42/toolchain/linux_x86_newlib/bin/../lib/gcc/x86_64-nacl/4.4.3/../../../../x86_64-nacl/lib/../lib64/libnacl.a(nacl_irt_init_7b4f826e.o)
                              /home/berkeley/nacl_sdk/pepper_42/toolchain/linux_x86_newlib/bin/../lib/gcc/x86_64-nacl/4.4.3/../../../../x86_64-nacl/lib/../lib64/libnacl.a(start_fa9ef7de.o) (__libnacl_irt_init)
/home/berkeley/nacl_sdk/pepper_42/toolchain/linux_x86_newlib/bin/../lib/gcc/x86_64-nacl/4.4.3/../../../../x86_64-nacl/lib/../lib64/libnacl.a(sysconf_ad295ea2.o)
                              /home/berkeley/nacl_sdk/pepper_42/toolchain/linux_x86_newlib/bin/../lib/gcc/x86_64-nacl/4.4.3/../../../../x86_64-nacl/lib/../lib64/libnacl.a(malloc_222c4a1e.o) (sysconf)
/home/berkeley/nacl_sdk/pepper_42/toolchain/linux_x86_newlib/bin/../lib/gcc/x86_64-nacl/4.4.3/../../../../x86_64-nacl/lib/../lib64/libnacl.a(nacl_tls_init_eb0cd232.o)
                              /home/berkeley/nacl_sdk/pepper_42/toolchain/linux_x86_newlib/bin/../lib/gcc/x86_64-nacl/4.4.3/../../../../x86_64-nacl/lib/../lib64/libnacl.a(pthread_initialize_minimal_4b6e776b.o) (nacl_tls_init)
/home/berkeley/nacl_sdk/pepper_42/toolchain/linux_x86_newlib/bin/../lib/gcc/x86_64-nacl/4.4.3/../../../../x86_64-nacl/lib/../lib64/libcrt_common.a(lib_a-atexit.o)
                              /home/berkeley/nacl_sdk/pepper_42/toolchain/linux_x86_newlib/bin/../lib/gcc/x86_64-nacl/4.4.3/../../../../x86_64-nacl/lib/../lib64/libnacl.a(start_fa9ef7de.o) (atexit)
/home/berkeley/nacl_sdk/pepper_42/toolchain/linux_x86_newlib/bin/../lib/gcc/x86_64-nacl/4.4.3/../../../../x86_64-nacl/lib/../lib64/libcrt_common.a(lib_a-cxa_atexit.o)
                              /home/berkeley/nacl_sdk/pepper_42/toolchain/linux_x86_newlib/bin/../lib/gcc/x86_64-nacl/4.4.3/../../../../x86_64-nacl/lib/../lib64/libstdc++.a(eh_globals.o) (__cxa_atexit)
/home/berkeley/nacl_sdk/pepper_42/toolchain/linux_x86_newlib/bin/../lib/gcc/x86_64-nacl/4.4.3/../../../../x86_64-nacl/lib/../lib64/libcrt_common.a(lib_a-errno.o)
                              /home/berkeley/nacl_sdk/pepper_42/toolchain/linux_x86_newlib/bin/../lib/gcc/x86_64-nacl/4.4.3/../../../../x86_64-nacl/lib/../lib64/libnacl.a(malloc_222c4a1e.o) (__errno)
/home/berkeley/nacl_sdk/pepper_42/toolchain/linux_x86_newlib/bin/../lib/gcc/x86_64-nacl/4.4.3/../../../../x86_64-nacl/lib/../lib64/libcrt_common.a(lib_a-exit.o)
                              (exit)
/home/berkeley/nacl_sdk/pepper_42/toolchain/linux_x86_newlib/bin/../lib/gcc/x86_64-nacl/4.4.3/../../../../x86_64-nacl/lib/../lib64/libcrt_common.a(lib_a-fini.o)
                              /home/berkeley/nacl_sdk/pepper_42/toolchain/linux_x86_newlib/bin/../lib/gcc/x86_64-nacl/4.4.3/../../../../x86_64-nacl/lib/../lib64/libnacl.a(start_fa9ef7de.o) (__libc_fini_array)
/home/berkeley/nacl_sdk/pepper_42/toolchain/linux_x86_newlib/bin/../lib/gcc/x86_64-nacl/4.4.3/../../../../x86_64-nacl/lib/../lib64/libcrt_common.a(lib_a-fprintf.o)
                              /home/berkeley/nacl_sdk/pepper_42/toolchain/linux_x86_newlib/bin/../lib/gcc/x86_64-nacl/4.4.3/../../../../x86_64-nacl/lib/../lib64/libnacl.a(malloc_222c4a1e.o) (fprintf)
/home/berkeley/nacl_sdk/pepper_42/toolchain/linux_x86_newlib/bin/../lib/gcc/x86_64-nacl/4.4.3/../../../../x86_64-nacl/lib/../lib64/libcrt_common.a(lib_a-fputc.o)
                              /home/berkeley/nacl_sdk/pepper_42/toolchain/linux_x86_newlib/bin/../lib/gcc/x86_64-nacl/4.4.3/../../../../x86_64-nacl/lib/../lib64/libstdc++.a(vterminate.o) (fputc)
/home/berkeley/nacl_sdk/pepper_42/toolchain/linux_x86_newlib/bin/../lib/gcc/x86_64-nacl/4.4.3/../../../../x86_64-nacl/lib/../lib64/libcrt_common.a(lib_a-fputs.o)
                              /home/berkeley/nacl_sdk/pepper_42/toolchain/linux_x86_newlib/bin/../lib/gcc/x86_64-nacl/4.4.3/../../../../x86_64-nacl/lib/../lib64/libstdc++.a(vterminate.o) (fputs)
/home/berkeley/nacl_sdk/pepper_42/toolchain/linux_x86_newlib/bin/../lib/gcc/x86_64-nacl/4.4.3/../../../../x86_64-nacl/lib/../lib64/libcrt_common.a(lib_a-fvwrite.o)
                              /home/berkeley/nacl_sdk/pepper_42/toolchain/linux_x86_newlib/bin/../lib/gcc/x86_64-nacl/4.4.3/../../../../x86_64-nacl/lib/../lib64/libcrt_common.a(lib_a-fputs.o) (__sfvwrite_r)
/home/berkeley/nacl_sdk/pepper_42/toolchain/linux_x86_newlib/bin/../lib/gcc/x86_64-nacl/4.4.3/../../../../x86_64-nacl/lib/../lib64/libcrt_common.a(lib_a-fwrite.o)
                              /home/berkeley/nacl_sdk/pepper_42/toolchain/linux_x86_newlib/bin/../lib/gcc/x86_64-nacl/4.4.3/../../../../x86_64-nacl/lib/../lib64/libstdc++.a(vterminate.o) (fwrite)
/home/berkeley/nacl_sdk/pepper_42/toolchain/linux_x86_newlib/bin/../lib/gcc/x86_64-nacl/4.4.3/../../../../x86_64-nacl/lib/../lib64/libcrt_common.a(lib_a-getenv.o)
                              /home/berkeley/nacl_sdk/pepper_42/toolchain/linux_x86_newlib/bin/../lib/gcc/x86_64-nacl/4.4.3/../../../../x86_64-nacl/lib/../lib64/libpthread.a(dynamic_annotations_33ba59cc.o) (getenv)
/home/berkeley/nacl_sdk/pepper_42/toolchain/linux_x86_newlib/bin/../lib/gcc/x86_64-nacl/4.4.3/../../../../x86_64-nacl/lib/../lib64/libcrt_common.a(lib_a-getenv_r.o)
                              /home/berkeley/nacl_sdk/pepper_42/toolchain/linux_x86_newlib/bin/../lib/gcc/x86_64-nacl/4.4.3/../../../../x86_64-nacl/lib/../lib64/libcrt_common.a(lib_a-getenv.o) (_findenv_r)
/home/berkeley/nacl_sdk/pepper_42/toolchain/linux_x86_newlib/bin/../lib/gcc/x86_64-nacl/4.4.3/../../../../x86_64-nacl/lib/../lib64/libcrt_common.a(lib_a-impure.o)
                              /home/berkeley/nacl_sdk/pepper_42/toolchain/linux_x86_newlib/bin/../lib/gcc/x86_64-nacl/4.4.3/../../../../x86_64-nacl/lib/../lib64/libpthread.a(nc_thread_7e478b15.o) (__newlib_thread_init)
/home/berkeley/nacl_sdk/pepper_42/toolchain/linux_x86_newlib/bin/../lib/gcc/x86_64-nacl/4.4.3/../../../../x86_64-nacl/lib/../lib64/libcrt_common.a(lib_a-init.o)
                              /home/berkeley/nacl_sdk/pepper_42/toolchain/linux_x86_newlib/bin/../lib/gcc/x86_64-nacl/4.4.3/../../../../x86_64-nacl/lib/../lib64/libnacl.a(start_fa9ef7de.o) (__libc_init_array)
/home/berkeley/nacl_sdk/pepper_42/toolchain/linux_x86_newlib/bin/../lib/gcc/x86_64-nacl/4.4.3/../../../../x86_64-nacl/lib/../lib64/libcrt_common.a(lib_a-memchr.o)
                              /home/berkeley/nacl_sdk/pepper_42/toolchain/linux_x86_newlib/bin/../lib/gcc/x86_64-nacl/4.4.3/../../../../x86_64-nacl/lib/../lib64/libstdc++.a(string-inst.o) (memchr)
/home/berkeley/nacl_sdk/pepper_42/toolchain/linux_x86_newlib/bin/../lib/gcc/x86_64-nacl/4.4.3/../../../../x86_64-nacl/lib/../lib64/libcrt_common.a(lib_a-memcpy.o)
                              /home/berkeley/nacl_sdk/pepper_42/toolchain/linux_x86_newlib/bin/../lib/gcc/x86_64-nacl/4.4.3/../../../../x86_64-nacl/lib/../lib64/libstdc++.a(string-inst.o) (memcpy)
/home/berkeley/nacl_sdk/pepper_42/toolchain/linux_x86_newlib/bin/../lib/gcc/x86_64-nacl/4.4.3/../../../../x86_64-nacl/lib/../lib64/libcrt_common.a(lib_a-memmove.o)
                              /home/berkeley/nacl_sdk/pepper_42/toolchain/linux_x86_newlib/bin/../lib/gcc/x86_64-nacl/4.4.3/../../../../x86_64-nacl/lib/../lib64/libstdc++.a(string-inst.o) (memmove)
/home/berkeley/nacl_sdk/pepper_42/toolchain/linux_x86_newlib/bin/../lib/gcc/x86_64-nacl/4.4.3/../../../../x86_64-nacl/lib/../lib64/libcrt_common.a(lib_a-memset.o)
                              /home/berkeley/nacl_sdk/pepper_42/toolchain/linux_x86_newlib/bin/../lib/gcc/x86_64-nacl/4.4.3/../../../../x86_64-nacl/lib/../lib64/libstdc++.a(string-inst.o) (memset)
/home/berkeley/nacl_sdk/pepper_42/toolchain/linux_x86_newlib/bin/../lib/gcc/x86_64-nacl/4.4.3/../../../../x86_64-nacl/lib/../lib64/libcrt_common.a(lib_a-putc.o)
                              /home/berkeley/nacl_sdk/pepper_42/toolchain/linux_x86_newlib/bin/../lib/gcc/x86_64-nacl/4.4.3/../../../../x86_64-nacl/lib/../lib64/libcrt_common.a(lib_a-fputc.o) (_putc_r)
/home/berkeley/nacl_sdk/pepper_42/toolchain/linux_x86_newlib/bin/../lib/gcc/x86_64-nacl/4.4.3/../../../../x86_64-nacl/lib/../lib64/libcrt_common.a(lib_a-snprintf.o)
                              /home/berkeley/nacl_sdk/pepper_42/lib/newlib_x86_64/Release/libppapi_cpp.a(var_x86_64.o) (snprintf)
/home/berkeley/nacl_sdk/pepper_42/toolchain/linux_x86_newlib/bin/../lib/gcc/x86_64-nacl/4.4.3/../../../../x86_64-nacl/lib/../lib64/libcrt_common.a(lib_a-sprintf.o)
                              /home/berkeley/nacl_sdk/pepper_42/toolchain/linux_x86_newlib/bin/../lib/gcc/x86_64-nacl/4.4.3/../../../../x86_64-nacl/lib/../lib64/libstdc++.a(cp-demangle.o) (sprintf)
/home/berkeley/nacl_sdk/pepper_42/toolchain/linux_x86_newlib/bin/../lib/gcc/x86_64-nacl/4.4.3/../../../../x86_64-nacl/lib/../lib64/libcrt_common.a(lib_a-strcpy.o)
                              /home/berkeley/nacl_sdk/pepper_42/toolchain/linux_x86_newlib/bin/../lib/gcc/x86_64-nacl/4.4.3/../../../../x86_64-nacl/lib/../lib64/libstdc++.a(cp-demangle.o) (strcpy)
/home/berkeley/nacl_sdk/pepper_42/toolchain/linux_x86_newlib/bin/../lib/gcc/x86_64-nacl/4.4.3/../../../../x86_64-nacl/lib/../lib64/libcrt_common.a(lib_a-strerror.o)
                              /home/berkeley/nacl_sdk/pepper_42/toolchain/linux_x86_newlib/bin/../lib/gcc/x86_64-nacl/4.4.3/../../../../x86_64-nacl/lib/../lib64/libstdc++.a(system_error.o) (strerror)
/home/berkeley/nacl_sdk/pepper_42/toolchain/linux_x86_newlib/bin/../lib/gcc/x86_64-nacl/4.4.3/../../../../x86_64-nacl/lib/../lib64/libcrt_common.a(lib_a-strlen.o)
                              /home/berkeley/nacl_sdk/pepper_42/lib/newlib_x86_64/Release/libppapi_cpp.a(var_x86_64.o) (strlen)
/home/berkeley/nacl_sdk/pepper_42/toolchain/linux_x86_newlib/bin/../lib/gcc/x86_64-nacl/4.4.3/../../../../x86_64-nacl/lib/../lib64/libcrt_common.a(lib_a-strncmp.o)
                              /home/berkeley/nacl_sdk/pepper_42/toolchain/linux_x86_newlib/bin/../lib/gcc/x86_64-nacl/4.4.3/../../../../x86_64-nacl/lib/../lib64/libcrt_common.a(lib_a-getenv_r.o) (strncmp)
/home/berkeley/nacl_sdk/pepper_42/toolchain/linux_x86_newlib/bin/../lib/gcc/x86_64-nacl/4.4.3/../../../../x86_64-nacl/lib/../lib64/libcrt_common.a(lib_a-svfprintf.o)
                              /home/berkeley/nacl_sdk/pepper_42/toolchain/linux_x86_newlib/bin/../lib/gcc/x86_64-nacl/4.4.3/../../../../x86_64-nacl/lib/../lib64/libcrt_common.a(lib_a-snprintf.o) (_svfprintf_r)
/home/berkeley/nacl_sdk/pepper_42/toolchain/linux_x86_newlib/bin/../lib/gcc/x86_64-nacl/4.4.3/../../../../x86_64-nacl/lib/../lib64/libcrt_common.a(lib_a-u_strerr.o)
                              /home/berkeley/nacl_sdk/pepper_42/toolchain/linux_x86_newlib/bin/../lib/gcc/x86_64-nacl/4.4.3/../../../../x86_64-nacl/lib/../lib64/libcrt_common.a(lib_a-strerror.o) (_user_strerror)
/home/berkeley/nacl_sdk/pepper_42/toolchain/linux_x86_newlib/bin/../lib/gcc/x86_64-nacl/4.4.3/../../../../x86_64-nacl/lib/../lib64/libcrt_common.a(lib_a-vfprintf.o)
                              /home/berkeley/nacl_sdk/pepper_42/toolchain/linux_x86_newlib/bin/../lib/gcc/x86_64-nacl/4.4.3/../../../../x86_64-nacl/lib/../lib64/libcrt_common.a(lib_a-fprintf.o) (_vfprintf_r)
/home/berkeley/nacl_sdk/pepper_42/toolchain/linux_x86_newlib/bin/../lib/gcc/x86_64-nacl/4.4.3/../../../../x86_64-nacl/lib/../lib64/libcrt_common.a(lib_a-wbuf.o)
                              /home/berkeley/nacl_sdk/pepper_42/toolchain/linux_x86_newlib/bin/../lib/gcc/x86_64-nacl/4.4.3/../../../../x86_64-nacl/lib/../lib64/libcrt_common.a(lib_a-putc.o) (__swbuf_r)
/home/berkeley/nacl_sdk/pepper_42/toolchain/linux_x86_newlib/bin/../lib/gcc/x86_64-nacl/4.4.3/../../../../x86_64-nacl/lib/../lib64/libcrt_common.a(lib_a-wcrtomb.o)
                              /home/berkeley/nacl_sdk/pepper_42/toolchain/linux_x86_newlib/bin/../lib/gcc/x86_64-nacl/4.4.3/../../../../x86_64-nacl/lib/../lib64/libcrt_common.a(lib_a-svfprintf.o) (_wcrtomb_r)
/home/berkeley/nacl_sdk/pepper_42/toolchain/linux_x86_newlib/bin/../lib/gcc/x86_64-nacl/4.4.3/../../../../x86_64-nacl/lib/../lib64/libcrt_common.a(lib_a-wcsrtombs.o)
                              /home/berkeley/nacl_sdk/pepper_42/toolchain/linux_x86_newlib/bin/../lib/gcc/x86_64-nacl/4.4.3/../../../../x86_64-nacl/lib/../lib64/libcrt_common.a(lib_a-svfprintf.o) (_wcsrtombs_r)
/home/berkeley/nacl_sdk/pepper_42/toolchain/linux_x86_newlib/bin/../lib/gcc/x86_64-nacl/4.4.3/../../../../x86_64-nacl/lib/../lib64/libcrt_common.a(lib_a-wctomb_r.o)
                              /home/berkeley/nacl_sdk/pepper_42/toolchain/linux_x86_newlib/bin/../lib/gcc/x86_64-nacl/4.4.3/../../../../x86_64-nacl/lib/../lib64/libcrt_common.a(lib_a-wcrtomb.o) (__wctomb)
/home/berkeley/nacl_sdk/pepper_42/toolchain/linux_x86_newlib/bin/../lib/gcc/x86_64-nacl/4.4.3/../../../../x86_64-nacl/lib/../lib64/libcrt_common.a(lib_a-wsetup.o)
                              /home/berkeley/nacl_sdk/pepper_42/toolchain/linux_x86_newlib/bin/../lib/gcc/x86_64-nacl/4.4.3/../../../../x86_64-nacl/lib/../lib64/libcrt_common.a(lib_a-fvwrite.o) (__swsetup_r)
/home/berkeley/nacl_sdk/pepper_42/toolchain/linux_x86_newlib/bin/../lib/gcc/x86_64-nacl/4.4.3/../../../../x86_64-nacl/lib/../lib64/libcrt_common.a(lib_a-__atexit.o)
                              /home/berkeley/nacl_sdk/pepper_42/toolchain/linux_x86_newlib/bin/../lib/gcc/x86_64-nacl/4.4.3/../../../../x86_64-nacl/lib/../lib64/libcrt_common.a(lib_a-atexit.o) (__register_exitproc)
/home/berkeley/nacl_sdk/pepper_42/toolchain/linux_x86_newlib/bin/../lib/gcc/x86_64-nacl/4.4.3/../../../../x86_64-nacl/lib/../lib64/libcrt_common.a(lib_a-__call_atexit.o)
                              /home/berkeley/nacl_sdk/pepper_42/toolchain/linux_x86_newlib/bin/../lib/gcc/x86_64-nacl/4.4.3/../../../../x86_64-nacl/lib/../lib64/libcrt_common.a(lib_a-exit.o) (__call_exitprocs)
/home/berkeley/nacl_sdk/pepper_42/toolchain/linux_x86_newlib/bin/../lib/gcc/x86_64-nacl/4.4.3/../../../../x86_64-nacl/lib/../lib64/libcrt_common.a(lib_a-dtoa.o)
                              /home/berkeley/nacl_sdk/pepper_42/toolchain/linux_x86_newlib/bin/../lib/gcc/x86_64-nacl/4.4.3/../../../../x86_64-nacl/lib/../lib64/libcrt_common.a(lib_a-svfprintf.o) (_dtoa_r)
/home/berkeley/nacl_sdk/pepper_42/toolchain/linux_x86_newlib/bin/../lib/gcc/x86_64-nacl/4.4.3/../../../../x86_64-nacl/lib/../lib64/libcrt_common.a(lib_a-envlock.o)
                              /home/berkeley/nacl_sdk/pepper_42/toolchain/linux_x86_newlib/bin/../lib/gcc/x86_64-nacl/4.4.3/../../../../x86_64-nacl/lib/../lib64/libcrt_common.a(lib_a-getenv_r.o) (__env_unlock)
/home/berkeley/nacl_sdk/pepper_42/toolchain/linux_x86_newlib/bin/../lib/gcc/x86_64-nacl/4.4.3/../../../../x86_64-nacl/lib/../lib64/libcrt_common.a(lib_a-fflush.o)
                              /home/berkeley/nacl_sdk/pepper_42/toolchain/linux_x86_newlib/bin/../lib/gcc/x86_64-nacl/4.4.3/../../../../x86_64-nacl/lib/../lib64/libcrt_common.a(lib_a-fvwrite.o) (_fflush_r)
/home/berkeley/nacl_sdk/pepper_42/toolchain/linux_x86_newlib/bin/../lib/gcc/x86_64-nacl/4.4.3/../../../../x86_64-nacl/lib/../lib64/libcrt_common.a(lib_a-findfp.o)
                              /home/berkeley/nacl_sdk/pepper_42/toolchain/linux_x86_newlib/bin/../lib/gcc/x86_64-nacl/4.4.3/../../../../x86_64-nacl/lib/../lib64/libcrt_common.a(lib_a-fputc.o) (__sinit)
/home/berkeley/nacl_sdk/pepper_42/toolchain/linux_x86_newlib/bin/../lib/gcc/x86_64-nacl/4.4.3/../../../../x86_64-nacl/lib/../lib64/libcrt_common.a(lib_a-fwalk.o)
                              /home/berkeley/nacl_sdk/pepper_42/toolchain/linux_x86_newlib/bin/../lib/gcc/x86_64-nacl/4.4.3/../../../../x86_64-nacl/lib/../lib64/libcrt_common.a(lib_a-fflush.o) (_fwalk_reent)
/home/berkeley/nacl_sdk/pepper_42/toolchain/linux_x86_newlib/bin/../lib/gcc/x86_64-nacl/4.4.3/../../../../x86_64-nacl/lib/../lib64/libcrt_common.a(lib_a-locale.o)
                              /home/berkeley/nacl_sdk/pepper_42/toolchain/linux_x86_newlib/bin/../lib/gcc/x86_64-nacl/4.4.3/../../../../x86_64-nacl/lib/../lib64/libcrt_common.a(lib_a-svfprintf.o) (__locale_charset)
/home/berkeley/nacl_sdk/pepper_42/toolchain/linux_x86_newlib/bin/../lib/gcc/x86_64-nacl/4.4.3/../../../../x86_64-nacl/lib/../lib64/libcrt_common.a(lib_a-makebuf.o)
                              /home/berkeley/nacl_sdk/pepper_42/toolchain/linux_x86_newlib/bin/../lib/gcc/x86_64-nacl/4.4.3/../../../../x86_64-nacl/lib/../lib64/libcrt_common.a(lib_a-wsetup.o) (__smakebuf_r)
/home/berkeley/nacl_sdk/pepper_42/toolchain/linux_x86_newlib/bin/../lib/gcc/x86_64-nacl/4.4.3/../../../../x86_64-nacl/lib/../lib64/libcrt_common.a(lib_a-mbtowc_r.o)
                              /home/berkeley/nacl_sdk/pepper_42/toolchain/linux_x86_newlib/bin/../lib/gcc/x86_64-nacl/4.4.3/../../../../x86_64-nacl/lib/../lib64/libcrt_common.a(lib_a-locale.o) (__ascii_mbtowc)
/home/berkeley/nacl_sdk/pepper_42/toolchain/linux_x86_newlib/bin/../lib/gcc/x86_64-nacl/4.4.3/../../../../x86_64-nacl/lib/../lib64/libcrt_common.a(lib_a-mprec.o)
                              /home/berkeley/nacl_sdk/pepper_42/toolchain/linux_x86_newlib/bin/../lib/gcc/x86_64-nacl/4.4.3/../../../../x86_64-nacl/lib/../lib64/libcrt_common.a(lib_a-dtoa.o) (_Bfree)
/home/berkeley/nacl_sdk/pepper_42/toolchain/linux_x86_newlib/bin/../lib/gcc/x86_64-nacl/4.4.3/../../../../x86_64-nacl/lib/../lib64/libcrt_common.a(lib_a-s_fpclassify.o)
                              /home/berkeley/nacl_sdk/pepper_42/toolchain/linux_x86_newlib/bin/../lib/gcc/x86_64-nacl/4.4.3/../../../../x86_64-nacl/lib/../lib64/libcrt_common.a(lib_a-svfprintf.o) (__fpclassifyd)
/home/berkeley/nacl_sdk/pepper_42/toolchain/linux_x86_newlib/bin/../lib/gcc/x86_64-nacl/4.4.3/../../../../x86_64-nacl/lib/../lib64/libcrt_common.a(lib_a-s_frexp.o)
                              /home/berkeley/nacl_sdk/pepper_42/toolchain/linux_x86_newlib/bin/../lib/gcc/x86_64-nacl/4.4.3/../../../../x86_64-nacl/lib/../lib64/libcrt_common.a(lib_a-svfprintf.o) (frexp)
/home/berkeley/nacl_sdk/pepper_42/toolchain/linux_x86_newlib/bin/../lib/gcc/x86_64-nacl/4.4.3/../../../../x86_64-nacl/lib/../lib64/libcrt_common.a(lib_a-stdio.o)
                              /home/berkeley/nacl_sdk/pepper_42/toolchain/linux_x86_newlib/bin/../lib/gcc/x86_64-nacl/4.4.3/../../../../x86_64-nacl/lib/../lib64/libcrt_common.a(lib_a-findfp.o) (__sclose)
/home/berkeley/nacl_sdk/pepper_42/toolchain/linux_x86_newlib/bin/../lib/gcc/x86_64-nacl/4.4.3/../../../../x86_64-nacl/lib/../lib64/libcrt_common.a(lib_a-strcasecmp.o)
                              /home/berkeley/nacl_sdk/pepper_42/toolchain/linux_x86_newlib/bin/../lib/gcc/x86_64-nacl/4.4.3/../../../../x86_64-nacl/lib/../lib64/libcrt_common.a(lib_a-locale.o) (strcasecmp)
/home/berkeley/nacl_sdk/pepper_42/toolchain/linux_x86_newlib/bin/../lib/gcc/x86_64-nacl/4.4.3/../../../../x86_64-nacl/lib/../lib64/libcrt_common.a(lib_a-strcat.o)
                              /home/berkeley/nacl_sdk/pepper_42/toolchain/linux_x86_newlib/bin/../lib/gcc/x86_64-nacl/4.4.3/../../../../x86_64-nacl/lib/../lib64/libcrt_common.a(lib_a-locale.o) (strcat)
/home/berkeley/nacl_sdk/pepper_42/toolchain/linux_x86_newlib/bin/../lib/gcc/x86_64-nacl/4.4.3/../../../../x86_64-nacl/lib/../lib64/libcrt_common.a(lib_a-strchr.o)
                              /home/berkeley/nacl_sdk/pepper_42/toolchain/linux_x86_newlib/bin/../lib/gcc/x86_64-nacl/4.4.3/../../../../x86_64-nacl/lib/../lib64/libcrt_common.a(lib_a-locale.o) (strchr)
/home/berkeley/nacl_sdk/pepper_42/toolchain/linux_x86_newlib/bin/../lib/gcc/x86_64-nacl/4.4.3/../../../../x86_64-nacl/lib/../lib64/libcrt_common.a(lib_a-strcmp.o)
                              /home/berkeley/nacl_sdk/pepper_42/toolchain/linux_x86_newlib/bin/../lib/gcc/x86_64-nacl/4.4.3/../../../../x86_64-nacl/lib/../lib64/libcrt_common.a(lib_a-locale.o) (strcmp)
/home/berkeley/nacl_sdk/pepper_42/toolchain/linux_x86_newlib/bin/../lib/gcc/x86_64-nacl/4.4.3/../../../../x86_64-nacl/lib/../lib64/libcrt_common.a(lib_a-strlcpy.o)
                              /home/berkeley/nacl_sdk/pepper_42/toolchain/linux_x86_newlib/bin/../lib/gcc/x86_64-nacl/4.4.3/../../../../x86_64-nacl/lib/../lib64/libcrt_common.a(lib_a-locale.o) (strlcpy)
/home/berkeley/nacl_sdk/pepper_42/toolchain/linux_x86_newlib/bin/../lib/gcc/x86_64-nacl/4.4.3/../../../../x86_64-nacl/lib/../lib64/libcrt_common.a(lib_a-strncasecmp.o)
                              /home/berkeley/nacl_sdk/pepper_42/toolchain/linux_x86_newlib/bin/../lib/gcc/x86_64-nacl/4.4.3/../../../../x86_64-nacl/lib/../lib64/libcrt_common.a(lib_a-locale.o) (strncasecmp)
/home/berkeley/nacl_sdk/pepper_42/toolchain/linux_x86_newlib/bin/../lib/gcc/x86_64-nacl/4.4.3/../../../../x86_64-nacl/lib/../lib64/libcrt_common.a(lib_a-strncpy.o)
                              /home/berkeley/nacl_sdk/pepper_42/toolchain/linux_x86_newlib/bin/../lib/gcc/x86_64-nacl/4.4.3/../../../../x86_64-nacl/lib/../lib64/libcrt_common.a(lib_a-svfprintf.o) (strncpy)
/home/berkeley/nacl_sdk/pepper_42/toolchain/linux_x86_newlib/bin/../lib/gcc/x86_64-nacl/4.4.3/../../../../x86_64-nacl/lib/../lib64/libcrt_common.a(lib_a-strtol.o)
                              /home/berkeley/nacl_sdk/pepper_42/toolchain/linux_x86_newlib/bin/../lib/gcc/x86_64-nacl/4.4.3/../../../../x86_64-nacl/lib/../lib64/libcrt_common.a(lib_a-locale.o) (_strtol_r)
/home/berkeley/nacl_sdk/pepper_42/toolchain/linux_x86_newlib/bin/../lib/gcc/x86_64-nacl/4.4.3/../../../../x86_64-nacl/lib/../lib64/libcrt_common.a(lib_a-svfiprintf.o)
                              /home/berkeley/nacl_sdk/pepper_42/toolchain/linux_x86_newlib/bin/../lib/gcc/x86_64-nacl/4.4.3/../../../../x86_64-nacl/lib/../lib64/libcrt_common.a(lib_a-svfprintf.o) (__ssprint_r)
/home/berkeley/nacl_sdk/pepper_42/toolchain/linux_x86_newlib/bin/../lib/gcc/x86_64-nacl/4.4.3/../../../../x86_64-nacl/lib/../lib64/libcrt_common.a(lib_a-vfiprintf.o)
                              /home/berkeley/nacl_sdk/pepper_42/toolchain/linux_x86_newlib/bin/../lib/gcc/x86_64-nacl/4.4.3/../../../../x86_64-nacl/lib/../lib64/libcrt_common.a(lib_a-vfprintf.o) (__sprint_r)
/home/berkeley/nacl_sdk/pepper_42/toolchain/linux_x86_newlib/bin/../lib/gcc/x86_64-nacl/4.4.3/../../../../x86_64-nacl/lib/../lib64/libcrt_common.a(lib_a-wcsnrtombs.o)
                              /home/berkeley/nacl_sdk/pepper_42/toolchain/linux_x86_newlib/bin/../lib/gcc/x86_64-nacl/4.4.3/../../../../x86_64-nacl/lib/../lib64/libcrt_common.a(lib_a-wcsrtombs.o) (_wcsnrtombs_r)
/home/berkeley/nacl_sdk/pepper_42/toolchain/linux_x86_newlib/bin/../lib/gcc/x86_64-nacl/4.4.3/../../../../x86_64-nacl/lib/../lib64/libcrt_common.a(lib_a-ctype_.o)
                              /home/berkeley/nacl_sdk/pepper_42/toolchain/linux_x86_newlib/bin/../lib/gcc/x86_64-nacl/4.4.3/../../../../x86_64-nacl/lib/../lib64/libcrt_common.a(lib_a-locale.o) (__set_ctype)
/home/berkeley/nacl_sdk/pepper_42/toolchain/linux_x86_newlib/bin/../lib/gcc/x86_64-nacl/4.4.3/../../../../x86_64-nacl/lib/../lib64/libcrt_common.a(lib_a-fclose.o)
                              /home/berkeley/nacl_sdk/pepper_42/toolchain/linux_x86_newlib/bin/../lib/gcc/x86_64-nacl/4.4.3/../../../../x86_64-nacl/lib/../lib64/libcrt_common.a(lib_a-findfp.o) (_fclose_r)
/home/berkeley/nacl_sdk/pepper_42/toolchain/linux_x86_newlib/bin/../lib/gcc/x86_64-nacl/4.4.3/../../../../x86_64-nacl/lib/../lib64/libcrt_common.a(lib_a-fputwc.o)
                              /home/berkeley/nacl_sdk/pepper_42/toolchain/linux_x86_newlib/bin/../lib/gcc/x86_64-nacl/4.4.3/../../../../x86_64-nacl/lib/../lib64/libcrt_common.a(lib_a-vfiprintf.o) (_fputwc_r)
/home/berkeley/nacl_sdk/pepper_42/toolchain/linux_x86_newlib/bin/../lib/gcc/x86_64-nacl/4.4.3/../../../../x86_64-nacl/lib/../lib64/libnacl.a(close_e9b92fbd.o)
                              /home/berkeley/nacl_sdk/pepper_42/toolchain/linux_x86_newlib/bin/../lib/gcc/x86_64-nacl/4.4.3/../../../../x86_64-nacl/lib/../lib64/libcrt_common.a(lib_a-stdio.o) (close)
/home/berkeley/nacl_sdk/pepper_42/toolchain/linux_x86_newlib/bin/../lib/gcc/x86_64-nacl/4.4.3/../../../../x86_64-nacl/lib/../lib64/libnacl.a(isatty_02f56e94.o)
                              /home/berkeley/nacl_sdk/pepper_42/toolchain/linux_x86_newlib/bin/../lib/gcc/x86_64-nacl/4.4.3/../../../../x86_64-nacl/lib/../lib64/libcrt_common.a(lib_a-makebuf.o) (isatty)
/home/berkeley/nacl_sdk/pepper_42/toolchain/linux_x86_newlib/bin/../lib/gcc/x86_64-nacl/4.4.3/../../../../x86_64-nacl/lib/../lib64/libnacl.a(nacl_irt_fdio_b571b5e7.o)
                              /home/berkeley/nacl_sdk/pepper_42/toolchain/linux_x86_newlib/bin/../lib/gcc/x86_64-nacl/4.4.3/../../../../x86_64-nacl/lib/../lib64/libnacl.a(isatty_02f56e94.o) (__libnacl_irt_dev_fdio_init)
/home/berkeley/nacl_sdk/pepper_42/toolchain/linux_x86_newlib/bin/../lib/gcc/x86_64-nacl/4.4.3/../../../../x86_64-nacl/lib/../lib64/libnacl.a(fstat_0540ff63.o)
                              /home/berkeley/nacl_sdk/pepper_42/toolchain/linux_x86_newlib/bin/../lib/gcc/x86_64-nacl/4.4.3/../../../../x86_64-nacl/lib/../lib64/libcrt_common.a(lib_a-makebuf.o) (fstat)
/home/berkeley/nacl_sdk/pepper_42/toolchain/linux_x86_newlib/bin/../lib/gcc/x86_64-nacl/4.4.3/../../../../x86_64-nacl/lib/../lib64/libnacl.a(lseek_64d2d05c.o)
                              /home/berkeley/nacl_sdk/pepper_42/toolchain/linux_x86_newlib/bin/../lib/gcc/x86_64-nacl/4.4.3/../../../../x86_64-nacl/lib/../lib64/libcrt_common.a(lib_a-stdio.o) (lseek)
/home/berkeley/nacl_sdk/pepper_42/toolchain/linux_x86_newlib/bin/../lib/gcc/x86_64-nacl/4.4.3/../../../../x86_64-nacl/lib/../lib64/libnacl.a(read_df872e10.o)
                              /home/berkeley/nacl_sdk/pepper_42/toolchain/linux_x86_newlib/bin/../lib/gcc/x86_64-nacl/4.4.3/../../../../x86_64-nacl/lib/../lib64/libcrt_common.a(lib_a-stdio.o) (read)

Allocating common symbols
Common symbol       size              file

__nacl_irt_query    0x4               /home/berkeley/nacl_sdk/pepper_42/toolchain/linux_x86_newlib/bin/../lib/gcc/x86_64-nacl/4.4.3/../../../../x86_64-nacl/lib/../lib64/libnacl.a(nacl_irt_6de1d53f.o)
__libnacl_irt_dev_filename
                    0x40              /home/berkeley/nacl_sdk/pepper_42/toolchain/linux_x86_newlib/bin/../lib/gcc/x86_64-nacl/4.4.3/../../../../x86_64-nacl/lib/../lib64/libnacl.a(nacl_irt_6de1d53f.o)
__nc_thread_initialized
                    0x4               /home/berkeley/nacl_sdk/pepper_42/toolchain/linux_x86_newlib/bin/../lib/gcc/x86_64-nacl/4.4.3/../../../../x86_64-nacl/lib/../lib64/libpthread.a(nc_thread_7e478b15.o)
__libnacl_irt_clock
                    0x8               /home/berkeley/nacl_sdk/pepper_42/toolchain/linux_x86_newlib/bin/../lib/gcc/x86_64-nacl/4.4.3/../../../../x86_64-nacl/lib/../lib64/libnacl.a(nacl_irt_6de1d53f.o)
__nc_thread_management_lock
                    0x14              /home/berkeley/nacl_sdk/pepper_42/toolchain/linux_x86_newlib/bin/../lib/gcc/x86_64-nacl/4.4.3/../../../../x86_64-nacl/lib/../lib64/libpthread.a(nc_thread_7e478b15.o)
__libnacl_irt_futex
                    0x8               /home/berkeley/nacl_sdk/pepper_42/toolchain/linux_x86_newlib/bin/../lib/gcc/x86_64-nacl/4.4.3/../../../../x86_64-nacl/lib/../lib64/libpthread.a(nc_init_irt_d3daafc0.o)
__nc_memory_block_counter
                    0x8               /home/berkeley/nacl_sdk/pepper_42/toolchain/linux_x86_newlib/bin/../lib/gcc/x86_64-nacl/4.4.3/../../../../x86_64-nacl/lib/../lib64/libpthread.a(nc_thread_7e478b15.o)
__nacl_initial_thread_stack_end
                    0x4               /home/berkeley/nacl_sdk/pepper_42/toolchain/linux_x86_newlib/bin/../lib/gcc/x86_64-nacl/4.4.3/../../../../x86_64-nacl/lib/../lib64/libnacl.a(start_fa9ef7de.o)
__libnacl_irt_memory
                    0xc               /home/berkeley/nacl_sdk/pepper_42/toolchain/linux_x86_newlib/bin/../lib/gcc/x86_64-nacl/4.4.3/../../../../x86_64-nacl/lib/../lib64/libnacl.a(nacl_irt_6de1d53f.o)
__nc_initial_thread_id
                    0x4               /home/berkeley/nacl_sdk/pepper_42/toolchain/linux_x86_newlib/bin/../lib/gcc/x86_64-nacl/4.4.3/../../../../x86_64-nacl/lib/../lib64/libpthread.a(nc_thread_7e478b15.o)
__libnacl_irt_dev_fdio
                    0x38              /home/berkeley/nacl_sdk/pepper_42/toolchain/linux_x86_newlib/bin/../lib/gcc/x86_64-nacl/4.4.3/../../../../x86_64-nacl/lib/../lib64/libnacl.a(nacl_irt_6de1d53f.o)
__libnacl_irt_basic
                    0x18              /home/berkeley/nacl_sdk/pepper_42/toolchain/linux_x86_newlib/bin/../lib/gcc/x86_64-nacl/4.4.3/../../../../x86_64-nacl/lib/../lib64/libnacl.a(nacl_irt_6de1d53f.o)
__nc_thread_memory_blocks
                    0x10              /home/berkeley/nacl_sdk/pepper_42/toolchain/linux_x86_newlib/bin/../lib/gcc/x86_64-nacl/4.4.3/../../../../x86_64-nacl/lib/../lib64/libpthread.a(nc_thread_7e478b15.o)
__libnacl_irt_thread
                    0xc               /home/berkeley/nacl_sdk/pepper_42/toolchain/linux_x86_newlib/bin/../lib/gcc/x86_64-nacl/4.4.3/../../../../x86_64-nacl/lib/../lib64/libpthread.a(nc_thread_7e478b15.o)
__libnacl_irt_tls   0x8               /home/berkeley/nacl_sdk/pepper_42/toolchain/linux_x86_newlib/bin/../lib/gcc/x86_64-nacl/4.4.3/../../../../x86_64-nacl/lib/../lib64/libnacl.a(nacl_irt_6de1d53f.o)
__libnacl_irt_dev_getpid
                    0x4               /home/berkeley/nacl_sdk/pepper_42/toolchain/linux_x86_newlib/bin/../lib/gcc/x86_64-nacl/4.4.3/../../../../x86_64-nacl/lib/../lib64/libnacl.a(nacl_irt_6de1d53f.o)

Discarded input sections

 .note.GNU-stack
                0x0000000000000000        0x0 /home/berkeley/nacl_sdk/pepper_42/toolchain/linux_x86_newlib/bin/../lib/gcc/x86_64-nacl/4.4.3/crtbegin.o
 .group         0x0000000000000000        0x8 newlib/Release/popcnt_x86_64.o
 .group         0x0000000000000000        0x8 newlib/Release/popcnt_x86_64.o
 .group         0x0000000000000000        0x8 newlib/Release/popcnt_x86_64.o
 .group         0x0000000000000000        0x8 newlib/Release/popcnt_x86_64.o
 .group         0x0000000000000000        0x8 newlib/Release/popcnt_x86_64.o
 .group         0x0000000000000000        0x8 newlib/Release/popcnt_x86_64.o
 .group         0x0000000000000000        0x8 newlib/Release/popcnt_x86_64.o
 .group         0x0000000000000000        0x8 newlib/Release/popcnt_x86_64.o
 .group         0x0000000000000000        0x8 newlib/Release/popcnt_x86_64.o
 .group         0x0000000000000000        0x8 newlib/Release/popcnt_x86_64.o
 .group         0x0000000000000000        0x8 newlib/Release/popcnt_x86_64.o
 .group         0x0000000000000000        0x8 newlib/Release/popcnt_x86_64.o
 .note.GNU-stack
                0x0000000000000000        0x0 newlib/Release/popcnt_x86_64.o
 .group         0x0000000000000000        0x8 /home/berkeley/nacl_sdk/pepper_42/lib/newlib_x86_64/Release/libppapi_cpp.a(instance_x86_64.o)
 .group         0x0000000000000000        0x8 /home/berkeley/nacl_sdk/pepper_42/lib/newlib_x86_64/Release/libppapi_cpp.a(instance_x86_64.o)
 .group         0x0000000000000000        0x8 /home/berkeley/nacl_sdk/pepper_42/lib/newlib_x86_64/Release/libppapi_cpp.a(instance_x86_64.o)
 .group         0x0000000000000000        0x8 /home/berkeley/nacl_sdk/pepper_42/lib/newlib_x86_64/Release/libppapi_cpp.a(instance_x86_64.o)
 .group         0x0000000000000000        0x8 /home/berkeley/nacl_sdk/pepper_42/lib/newlib_x86_64/Release/libppapi_cpp.a(instance_x86_64.o)
 .group         0x0000000000000000        0x8 /home/berkeley/nacl_sdk/pepper_42/lib/newlib_x86_64/Release/libppapi_cpp.a(instance_x86_64.o)
 .group         0x0000000000000000        0x8 /home/berkeley/nacl_sdk/pepper_42/lib/newlib_x86_64/Release/libppapi_cpp.a(instance_x86_64.o)
 .note.GNU-stack
                0x0000000000000000        0x0 /home/berkeley/nacl_sdk/pepper_42/lib/newlib_x86_64/Release/libppapi_cpp.a(instance_x86_64.o)
 .group         0x0000000000000000        0x8 /home/berkeley/nacl_sdk/pepper_42/lib/newlib_x86_64/Release/libppapi_cpp.a(module_x86_64.o)
 .group         0x0000000000000000        0x8 /home/berkeley/nacl_sdk/pepper_42/lib/newlib_x86_64/Release/libppapi_cpp.a(module_x86_64.o)
 .group         0x0000000000000000        0x8 /home/berkeley/nacl_sdk/pepper_42/lib/newlib_x86_64/Release/libppapi_cpp.a(module_x86_64.o)
 .group         0x0000000000000000        0x8 /home/berkeley/nacl_sdk/pepper_42/lib/newlib_x86_64/Release/libppapi_cpp.a(module_x86_64.o)
 .group         0x0000000000000000        0x8 /home/berkeley/nacl_sdk/pepper_42/lib/newlib_x86_64/Release/libppapi_cpp.a(module_x86_64.o)
 .group         0x0000000000000000        0x8 /home/berkeley/nacl_sdk/pepper_42/lib/newlib_x86_64/Release/libppapi_cpp.a(module_x86_64.o)
 .group         0x0000000000000000        0x8 /home/berkeley/nacl_sdk/pepper_42/lib/newlib_x86_64/Release/libppapi_cpp.a(module_x86_64.o)
 .group         0x0000000000000000        0x8 /home/berkeley/nacl_sdk/pepper_42/lib/newlib_x86_64/Release/libppapi_cpp.a(module_x86_64.o)
 .group         0x0000000000000000        0x8 /home/berkeley/nacl_sdk/pepper_42/lib/newlib_x86_64/Release/libppapi_cpp.a(module_x86_64.o)
 .group         0x0000000000000000        0x8 /home/berkeley/nacl_sdk/pepper_42/lib/newlib_x86_64/Release/libppapi_cpp.a(module_x86_64.o)
 .group         0x0000000000000000        0x8 /home/berkeley/nacl_sdk/pepper_42/lib/newlib_x86_64/Release/libppapi_cpp.a(module_x86_64.o)
 .group         0x0000000000000000        0x8 /home/berkeley/nacl_sdk/pepper_42/lib/newlib_x86_64/Release/libppapi_cpp.a(module_x86_64.o)
 .group         0x0000000000000000        0x8 /home/berkeley/nacl_sdk/pepper_42/lib/newlib_x86_64/Release/libppapi_cpp.a(module_x86_64.o)
 .group         0x0000000000000000        0x8 /home/berkeley/nacl_sdk/pepper_42/lib/newlib_x86_64/Release/libppapi_cpp.a(module_x86_64.o)
 .group         0x0000000000000000        0x8 /home/berkeley/nacl_sdk/pepper_42/lib/newlib_x86_64/Release/libppapi_cpp.a(module_x86_64.o)
 .group         0x0000000000000000        0x8 /home/berkeley/nacl_sdk/pepper_42/lib/newlib_x86_64/Release/libppapi_cpp.a(module_x86_64.o)
 .group         0x0000000000000000        0x8 /home/berkeley/nacl_sdk/pepper_42/lib/newlib_x86_64/Release/libppapi_cpp.a(module_x86_64.o)
 .group         0x0000000000000000        0x8 /home/berkeley/nacl_sdk/pepper_42/lib/newlib_x86_64/Release/libppapi_cpp.a(module_x86_64.o)
 .group         0x0000000000000000        0x8 /home/berkeley/nacl_sdk/pepper_42/lib/newlib_x86_64/Release/libppapi_cpp.a(module_x86_64.o)
 .group         0x0000000000000000        0x8 /home/berkeley/nacl_sdk/pepper_42/lib/newlib_x86_64/Release/libppapi_cpp.a(module_x86_64.o)
 .group         0x0000000000000000        0x8 /home/berkeley/nacl_sdk/pepper_42/lib/newlib_x86_64/Release/libppapi_cpp.a(module_x86_64.o)
 .note.GNU-stack
                0x0000000000000000        0x0 /home/berkeley/nacl_sdk/pepper_42/lib/newlib_x86_64/Release/libppapi_cpp.a(module_x86_64.o)
 .note.GNU-stack
                0x0000000000000000        0x0 /home/berkeley/nacl_sdk/pepper_42/lib/newlib_x86_64/Release/libppapi_cpp.a(ppp_entrypoints_x86_64.o)
 .group         0x0000000000000000        0x8 /home/berkeley/nacl_sdk/pepper_42/lib/newlib_x86_64/Release/libppapi_cpp.a(resource_x86_64.o)
 .group         0x0000000000000000        0x8 /home/berkeley/nacl_sdk/pepper_42/lib/newlib_x86_64/Release/libppapi_cpp.a(resource_x86_64.o)
 .group         0x0000000000000000        0x8 /home/berkeley/nacl_sdk/pepper_42/lib/newlib_x86_64/Release/libppapi_cpp.a(resource_x86_64.o)
 .note.GNU-stack
                0x0000000000000000        0x0 /home/berkeley/nacl_sdk/pepper_42/lib/newlib_x86_64/Release/libppapi_cpp.a(resource_x86_64.o)
 .group         0x0000000000000000        0x8 /home/berkeley/nacl_sdk/pepper_42/lib/newlib_x86_64/Release/libppapi_cpp.a(url_loader_x86_64.o)
 .group         0x0000000000000000        0x8 /home/berkeley/nacl_sdk/pepper_42/lib/newlib_x86_64/Release/libppapi_cpp.a(url_loader_x86_64.o)
 .group         0x0000000000000000        0x8 /home/berkeley/nacl_sdk/pepper_42/lib/newlib_x86_64/Release/libppapi_cpp.a(url_loader_x86_64.o)
 .group         0x0000000000000000        0x8 /home/berkeley/nacl_sdk/pepper_42/lib/newlib_x86_64/Release/libppapi_cpp.a(url_loader_x86_64.o)
 .group         0x0000000000000000        0x8 /home/berkeley/nacl_sdk/pepper_42/lib/newlib_x86_64/Release/libppapi_cpp.a(url_loader_x86_64.o)
 .group         0x0000000000000000        0x8 /home/berkeley/nacl_sdk/pepper_42/lib/newlib_x86_64/Release/libppapi_cpp.a(url_loader_x86_64.o)
 .group         0x0000000000000000        0x8 /home/berkeley/nacl_sdk/pepper_42/lib/newlib_x86_64/Release/libppapi_cpp.a(url_loader_x86_64.o)
 .group         0x0000000000000000        0x8 /home/berkeley/nacl_sdk/pepper_42/lib/newlib_x86_64/Release/libppapi_cpp.a(url_loader_x86_64.o)
 .group         0x0000000000000000        0x8 /home/berkeley/nacl_sdk/pepper_42/lib/newlib_x86_64/Release/libppapi_cpp.a(url_loader_x86_64.o)
 .group         0x0000000000000000        0x8 /home/berkeley/nacl_sdk/pepper_42/lib/newlib_x86_64/Release/libppapi_cpp.a(url_loader_x86_64.o)
 .text._ZN2pp9URLLoaderD1Ev
                0x0000000000000000       0x20 /home/berkeley/nacl_sdk/pepper_42/lib/newlib_x86_64/Release/libppapi_cpp.a(url_loader_x86_64.o)
 .text._ZN2pp9URLLoaderD0Ev
                0x0000000000000000       0x40 /home/berkeley/nacl_sdk/pepper_42/lib/newlib_x86_64/Release/libppapi_cpp.a(url_loader_x86_64.o)
 .rodata._ZTVN2pp9URLLoaderE
                0x0000000000000000       0x10 /home/berkeley/nacl_sdk/pepper_42/lib/newlib_x86_64/Release/libppapi_cpp.a(url_loader_x86_64.o)
 .rodata._ZTIN2pp9URLLoaderE
                0x0000000000000000        0xc /home/berkeley/nacl_sdk/pepper_42/lib/newlib_x86_64/Release/libppapi_cpp.a(url_loader_x86_64.o)
 .rodata._ZTSN2pp9URLLoaderE
                0x0000000000000000       0x10 /home/berkeley/nacl_sdk/pepper_42/lib/newlib_x86_64/Release/libppapi_cpp.a(url_loader_x86_64.o)
 .note.GNU-stack
                0x0000000000000000        0x0 /home/berkeley/nacl_sdk/pepper_42/lib/newlib_x86_64/Release/libppapi_cpp.a(url_loader_x86_64.o)
 .group         0x0000000000000000        0x8 /home/berkeley/nacl_sdk/pepper_42/lib/newlib_x86_64/Release/libppapi_cpp.a(url_response_info_x86_64.o)
 .group         0x0000000000000000        0x8 /home/berkeley/nacl_sdk/pepper_42/lib/newlib_x86_64/Release/libppapi_cpp.a(url_response_info_x86_64.o)
 .group         0x0000000000000000        0x8 /home/berkeley/nacl_sdk/pepper_42/lib/newlib_x86_64/Release/libppapi_cpp.a(url_response_info_x86_64.o)
 .group         0x0000000000000000        0x8 /home/berkeley/nacl_sdk/pepper_42/lib/newlib_x86_64/Release/libppapi_cpp.a(url_response_info_x86_64.o)
 .group         0x0000000000000000        0x8 /home/berkeley/nacl_sdk/pepper_42/lib/newlib_x86_64/Release/libppapi_cpp.a(url_response_info_x86_64.o)
 .group         0x0000000000000000        0x8 /home/berkeley/nacl_sdk/pepper_42/lib/newlib_x86_64/Release/libppapi_cpp.a(url_response_info_x86_64.o)
 .group         0x0000000000000000        0x8 /home/berkeley/nacl_sdk/pepper_42/lib/newlib_x86_64/Release/libppapi_cpp.a(url_response_info_x86_64.o)
 .group         0x0000000000000000        0x8 /home/berkeley/nacl_sdk/pepper_42/lib/newlib_x86_64/Release/libppapi_cpp.a(url_response_info_x86_64.o)
 .group         0x0000000000000000        0x8 /home/berkeley/nacl_sdk/pepper_42/lib/newlib_x86_64/Release/libppapi_cpp.a(url_response_info_x86_64.o)
 .group         0x0000000000000000        0x8 /home/berkeley/nacl_sdk/pepper_42/lib/newlib_x86_64/Release/libppapi_cpp.a(url_response_info_x86_64.o)
 .text._ZN2pp15URLResponseInfoD1Ev
                0x0000000000000000       0x20 /home/berkeley/nacl_sdk/pepper_42/lib/newlib_x86_64/Release/libppapi_cpp.a(url_response_info_x86_64.o)
 .text._ZN2pp15URLResponseInfoD0Ev
                0x0000000000000000       0x40 /home/berkeley/nacl_sdk/pepper_42/lib/newlib_x86_64/Release/libppapi_cpp.a(url_response_info_x86_64.o)
 .rodata._ZTVN2pp15URLResponseInfoE
                0x0000000000000000       0x10 /home/berkeley/nacl_sdk/pepper_42/lib/newlib_x86_64/Release/libppapi_cpp.a(url_response_info_x86_64.o)
 .rodata._ZTIN2pp15URLResponseInfoE
                0x0000000000000000        0xc /home/berkeley/nacl_sdk/pepper_42/lib/newlib_x86_64/Release/libppapi_cpp.a(url_response_info_x86_64.o)
 .rodata._ZTSN2pp15URLResponseInfoE
                0x0000000000000000       0x17 /home/berkeley/nacl_sdk/pepper_42/lib/newlib_x86_64/Release/libppapi_cpp.a(url_response_info_x86_64.o)
 .note.GNU-stack
                0x0000000000000000        0x0 /home/berkeley/nacl_sdk/pepper_42/lib/newlib_x86_64/Release/libppapi_cpp.a(url_response_info_x86_64.o)
 .group         0x0000000000000000        0x8 /home/berkeley/nacl_sdk/pepper_42/lib/newlib_x86_64/Release/libppapi_cpp.a(var_x86_64.o)
 .group         0x0000000000000000        0x8 /home/berkeley/nacl_sdk/pepper_42/lib/newlib_x86_64/Release/libppapi_cpp.a(var_x86_64.o)
 .group         0x0000000000000000        0x8 /home/berkeley/nacl_sdk/pepper_42/lib/newlib_x86_64/Release/libppapi_cpp.a(var_x86_64.o)
 .note.GNU-stack
                0x0000000000000000        0x0 /home/berkeley/nacl_sdk/pepper_42/lib/newlib_x86_64/Release/libppapi_cpp.a(var_x86_64.o)
 .group         0x0000000000000000        0x8 /home/berkeley/nacl_sdk/pepper_42/lib/newlib_x86_64/Release/libppapi_cpp.a(view_x86_64.o)
 .group         0x0000000000000000        0x8 /home/berkeley/nacl_sdk/pepper_42/lib/newlib_x86_64/Release/libppapi_cpp.a(view_x86_64.o)
 .group         0x0000000000000000        0x8 /home/berkeley/nacl_sdk/pepper_42/lib/newlib_x86_64/Release/libppapi_cpp.a(view_x86_64.o)
 .group         0x0000000000000000        0x8 /home/berkeley/nacl_sdk/pepper_42/lib/newlib_x86_64/Release/libppapi_cpp.a(view_x86_64.o)
 .group         0x0000000000000000        0x8 /home/berkeley/nacl_sdk/pepper_42/lib/newlib_x86_64/Release/libppapi_cpp.a(view_x86_64.o)
 .text._ZN2pp4ViewD1Ev
                0x0000000000000000       0x20 /home/berkeley/nacl_sdk/pepper_42/lib/newlib_x86_64/Release/libppapi_cpp.a(view_x86_64.o)
 .text._ZN2pp4ViewD0Ev
                0x0000000000000000       0x40 /home/berkeley/nacl_sdk/pepper_42/lib/newlib_x86_64/Release/libppapi_cpp.a(view_x86_64.o)
 .rodata._ZTVN2pp4ViewE
                0x0000000000000000       0x10 /home/berkeley/nacl_sdk/pepper_42/lib/newlib_x86_64/Release/libppapi_cpp.a(view_x86_64.o)
 .rodata._ZTIN2pp4ViewE
                0x0000000000000000        0xc /home/berkeley/nacl_sdk/pepper_42/lib/newlib_x86_64/Release/libppapi_cpp.a(view_x86_64.o)
 .rodata._ZTSN2pp4ViewE
                0x0000000000000000        0xb /home/berkeley/nacl_sdk/pepper_42/lib/newlib_x86_64/Release/libppapi_cpp.a(view_x86_64.o)
 .note.GNU-stack
                0x0000000000000000        0x0 /home/berkeley/nacl_sdk/pepper_42/lib/newlib_x86_64/Release/libppapi_cpp.a(view_x86_64.o)
 .note.GNU-stack
                0x0000000000000000        0x0 /home/berkeley/nacl_sdk/pepper_42/lib/newlib_x86_64/Release/libppapi_cpp.a(core_x86_64.o)
 .group         0x0000000000000000        0x8 /home/berkeley/nacl_sdk/pepper_42/lib/newlib_x86_64/Release/libppapi_cpp.a(file_ref_x86_64.o)
 .group         0x0000000000000000        0x8 /home/berkeley/nacl_sdk/pepper_42/lib/newlib_x86_64/Release/libppapi_cpp.a(file_ref_x86_64.o)
 .group         0x0000000000000000        0x8 /home/berkeley/nacl_sdk/pepper_42/lib/newlib_x86_64/Release/libppapi_cpp.a(file_ref_x86_64.o)
 .group         0x0000000000000000        0x8 /home/berkeley/nacl_sdk/pepper_42/lib/newlib_x86_64/Release/libppapi_cpp.a(file_ref_x86_64.o)
 .group         0x0000000000000000        0x8 /home/berkeley/nacl_sdk/pepper_42/lib/newlib_x86_64/Release/libppapi_cpp.a(file_ref_x86_64.o)
 .group         0x0000000000000000        0x8 /home/berkeley/nacl_sdk/pepper_42/lib/newlib_x86_64/Release/libppapi_cpp.a(file_ref_x86_64.o)
 .text._ZN2pp7FileRefD1Ev
                0x0000000000000000       0x20 /home/berkeley/nacl_sdk/pepper_42/lib/newlib_x86_64/Release/libppapi_cpp.a(file_ref_x86_64.o)
 .text._ZN2pp7FileRefD0Ev
                0x0000000000000000       0x40 /home/berkeley/nacl_sdk/pepper_42/lib/newlib_x86_64/Release/libppapi_cpp.a(file_ref_x86_64.o)
 .rodata._ZTVN2pp7FileRefE
                0x0000000000000000       0x10 /home/berkeley/nacl_sdk/pepper_42/lib/newlib_x86_64/Release/libppapi_cpp.a(file_ref_x86_64.o)
 .rodata._ZTIN2pp7FileRefE
                0x0000000000000000        0xc /home/berkeley/nacl_sdk/pepper_42/lib/newlib_x86_64/Release/libppapi_cpp.a(file_ref_x86_64.o)
 .rodata._ZTSN2pp7FileRefE
                0x0000000000000000        0xe /home/berkeley/nacl_sdk/pepper_42/lib/newlib_x86_64/Release/libppapi_cpp.a(file_ref_x86_64.o)
 .note.GNU-stack
                0x0000000000000000        0x0 /home/berkeley/nacl_sdk/pepper_42/lib/newlib_x86_64/Release/libppapi_cpp.a(file_ref_x86_64.o)
 .group         0x0000000000000000        0x8 /home/berkeley/nacl_sdk/pepper_42/lib/newlib_x86_64/Release/libppapi_cpp.a(input_event_x86_64.o)
 .group         0x0000000000000000        0x8 /home/berkeley/nacl_sdk/pepper_42/lib/newlib_x86_64/Release/libppapi_cpp.a(input_event_x86_64.o)
 .group         0x0000000000000000        0x8 /home/berkeley/nacl_sdk/pepper_42/lib/newlib_x86_64/Release/libppapi_cpp.a(input_event_x86_64.o)
 .group         0x0000000000000000        0x8 /home/berkeley/nacl_sdk/pepper_42/lib/newlib_x86_64/Release/libppapi_cpp.a(input_event_x86_64.o)
 .group         0x0000000000000000        0x8 /home/berkeley/nacl_sdk/pepper_42/lib/newlib_x86_64/Release/libppapi_cpp.a(input_event_x86_64.o)
 .group         0x0000000000000000        0x8 /home/berkeley/nacl_sdk/pepper_42/lib/newlib_x86_64/Release/libppapi_cpp.a(input_event_x86_64.o)
 .group         0x0000000000000000        0x8 /home/berkeley/nacl_sdk/pepper_42/lib/newlib_x86_64/Release/libppapi_cpp.a(input_event_x86_64.o)
 .group         0x0000000000000000        0x8 /home/berkeley/nacl_sdk/pepper_42/lib/newlib_x86_64/Release/libppapi_cpp.a(input_event_x86_64.o)
 .group         0x0000000000000000        0x8 /home/berkeley/nacl_sdk/pepper_42/lib/newlib_x86_64/Release/libppapi_cpp.a(input_event_x86_64.o)
 .group         0x0000000000000000        0x8 /home/berkeley/nacl_sdk/pepper_42/lib/newlib_x86_64/Release/libppapi_cpp.a(input_event_x86_64.o)
 .group         0x0000000000000000        0x8 /home/berkeley/nacl_sdk/pepper_42/lib/newlib_x86_64/Release/libppapi_cpp.a(input_event_x86_64.o)
 .group         0x0000000000000000        0x8 /home/berkeley/nacl_sdk/pepper_42/lib/newlib_x86_64/Release/libppapi_cpp.a(input_event_x86_64.o)
 .group         0x0000000000000000        0x8 /home/berkeley/nacl_sdk/pepper_42/lib/newlib_x86_64/Release/libppapi_cpp.a(input_event_x86_64.o)
 .group         0x0000000000000000        0x8 /home/berkeley/nacl_sdk/pepper_42/lib/newlib_x86_64/Release/libppapi_cpp.a(input_event_x86_64.o)
 .group         0x0000000000000000        0x8 /home/berkeley/nacl_sdk/pepper_42/lib/newlib_x86_64/Release/libppapi_cpp.a(input_event_x86_64.o)
 .group         0x0000000000000000        0x8 /home/berkeley/nacl_sdk/pepper_42/lib/newlib_x86_64/Release/libppapi_cpp.a(input_event_x86_64.o)
 .group         0x0000000000000000        0x8 /home/berkeley/nacl_sdk/pepper_42/lib/newlib_x86_64/Release/libppapi_cpp.a(input_event_x86_64.o)
 .group         0x0000000000000000        0x8 /home/berkeley/nacl_sdk/pepper_42/lib/newlib_x86_64/Release/libppapi_cpp.a(input_event_x86_64.o)
 .group         0x0000000000000000        0x8 /home/berkeley/nacl_sdk/pepper_42/lib/newlib_x86_64/Release/libppapi_cpp.a(input_event_x86_64.o)
 .group         0x0000000000000000        0x8 /home/berkeley/nacl_sdk/pepper_42/lib/newlib_x86_64/Release/libppapi_cpp.a(input_event_x86_64.o)
 .group         0x0000000000000000        0x8 /home/berkeley/nacl_sdk/pepper_42/lib/newlib_x86_64/Release/libppapi_cpp.a(input_event_x86_64.o)
 .group         0x0000000000000000        0x8 /home/berkeley/nacl_sdk/pepper_42/lib/newlib_x86_64/Release/libppapi_cpp.a(input_event_x86_64.o)
 .group         0x0000000000000000        0x8 /home/berkeley/nacl_sdk/pepper_42/lib/newlib_x86_64/Release/libppapi_cpp.a(input_event_x86_64.o)
 .group         0x0000000000000000        0x8 /home/berkeley/nacl_sdk/pepper_42/lib/newlib_x86_64/Release/libppapi_cpp.a(input_event_x86_64.o)
 .group         0x0000000000000000        0x8 /home/berkeley/nacl_sdk/pepper_42/lib/newlib_x86_64/Release/libppapi_cpp.a(input_event_x86_64.o)
 .group         0x0000000000000000        0x8 /home/berkeley/nacl_sdk/pepper_42/lib/newlib_x86_64/Release/libppapi_cpp.a(input_event_x86_64.o)
 .group         0x0000000000000000        0x8 /home/berkeley/nacl_sdk/pepper_42/lib/newlib_x86_64/Release/libppapi_cpp.a(input_event_x86_64.o)
 .group         0x0000000000000000        0x8 /home/berkeley/nacl_sdk/pepper_42/lib/newlib_x86_64/Release/libppapi_cpp.a(input_event_x86_64.o)
 .note.GNU-stack
                0x0000000000000000        0x0 /home/berkeley/nacl_sdk/pepper_42/lib/newlib_x86_64/Release/libppapi_cpp.a(input_event_x86_64.o)
 .note.GNU-stack
                0x0000000000000000        0x0 /home/berkeley/nacl_sdk/pepper_42/toolchain/linux_x86_newlib/bin/../lib/gcc/x86_64-nacl/4.4.3/../../../../x86_64-nacl/lib/../lib64/libppapi_stub.a(plugin_main_irt_21ce9d26.o)
 .note.GNU-stack
                0x0000000000000000        0x0 /home/berkeley/nacl_sdk/pepper_42/toolchain/linux_x86_newlib/bin/../lib/gcc/x86_64-nacl/4.4.3/../../../../x86_64-nacl/lib/../lib64/libppapi_stub.a(ppapi_plugin_main_399d0cf7.o)
 .note.GNU-stack
                0x0000000000000000        0x0 /home/berkeley/nacl_sdk/pepper_42/toolchain/linux_x86_newlib/bin/../lib/gcc/x86_64-nacl/4.4.3/../../../../x86_64-nacl/lib/../lib64/libppapi_stub.a(ppapi_plugin_start_8da67623.o)
 .note.GNU-stack
                0x0000000000000000        0x0 /home/berkeley/nacl_sdk/pepper_42/toolchain/linux_x86_newlib/bin/../lib/gcc/x86_64-nacl/4.4.3/../../../../x86_64-nacl/lib/../lib64/libppapi_stub.a(thread_creator_ccf263e1.o)
 .note.GNU-stack
                0x0000000000000000        0x0 /home/berkeley/nacl_sdk/pepper_42/toolchain/linux_x86_newlib/bin/../lib/gcc/x86_64-nacl/4.4.3/../../../../x86_64-nacl/lib/../lib64/libpthread.a(nc_thread_7e478b15.o)
 .note.GNU-stack
                0x0000000000000000        0x0 /home/berkeley/nacl_sdk/pepper_42/toolchain/linux_x86_newlib/bin/../lib/gcc/x86_64-nacl/4.4.3/../../../../x86_64-nacl/lib/../lib64/libpthread.a(nc_condvar_305aa45a.o)
 .note.GNU-stack
                0x0000000000000000        0x0 /home/berkeley/nacl_sdk/pepper_42/toolchain/linux_x86_newlib/bin/../lib/gcc/x86_64-nacl/4.4.3/../../../../x86_64-nacl/lib/../lib64/libpthread.a(dynamic_annotations_33ba59cc.o)
 .note.GNU-stack
                0x0000000000000000        0x0 /home/berkeley/nacl_sdk/pepper_42/toolchain/linux_x86_newlib/bin/../lib/gcc/x86_64-nacl/4.4.3/../../../../x86_64-nacl/lib/../lib64/libpthread.a(nc_mutex_86341ae1.o)
 .note.GNU-stack
                0x0000000000000000        0x0 /home/berkeley/nacl_sdk/pepper_42/toolchain/linux_x86_newlib/bin/../lib/gcc/x86_64-nacl/4.4.3/../../../../x86_64-nacl/lib/../lib64/libpthread.a(nc_init_irt_d3daafc0.o)
 .note.GNU-stack
                0x0000000000000000        0x0 /home/berkeley/nacl_sdk/pepper_42/toolchain/linux_x86_newlib/bin/../lib/gcc/x86_64-nacl/4.4.3/../../../../x86_64-nacl/lib/../lib64/libstdc++.a(tree.o)
 .group         0x0000000000000000        0x8 /home/berkeley/nacl_sdk/pepper_42/toolchain/linux_x86_newlib/bin/../lib/gcc/x86_64-nacl/4.4.3/../../../../x86_64-nacl/lib/../lib64/libstdc++.a(string-inst.o)
 .group         0x0000000000000000        0x8 /home/berkeley/nacl_sdk/pepper_42/toolchain/linux_x86_newlib/bin/../lib/gcc/x86_64-nacl/4.4.3/../../../../x86_64-nacl/lib/../lib64/libstdc++.a(string-inst.o)
 .group         0x0000000000000000        0x8 /home/berkeley/nacl_sdk/pepper_42/toolchain/linux_x86_newlib/bin/../lib/gcc/x86_64-nacl/4.4.3/../../../../x86_64-nacl/lib/../lib64/libstdc++.a(string-inst.o)
 .group         0x0000000000000000        0x8 /home/berkeley/nacl_sdk/pepper_42/toolchain/linux_x86_newlib/bin/../lib/gcc/x86_64-nacl/4.4.3/../../../../x86_64-nacl/lib/../lib64/libstdc++.a(string-inst.o)
 .group         0x0000000000000000        0x8 /home/berkeley/nacl_sdk/pepper_42/toolchain/linux_x86_newlib/bin/../lib/gcc/x86_64-nacl/4.4.3/../../../../x86_64-nacl/lib/../lib64/libstdc++.a(string-inst.o)
 .group         0x0000000000000000        0x8 /home/berkeley/nacl_sdk/pepper_42/toolchain/linux_x86_newlib/bin/../lib/gcc/x86_64-nacl/4.4.3/../../../../x86_64-nacl/lib/../lib64/libstdc++.a(string-inst.o)
 .group         0x0000000000000000        0x8 /home/berkeley/nacl_sdk/pepper_42/toolchain/linux_x86_newlib/bin/../lib/gcc/x86_64-nacl/4.4.3/../../../../x86_64-nacl/lib/../lib64/libstdc++.a(string-inst.o)
 .group         0x0000000000000000        0x8 /home/berkeley/nacl_sdk/pepper_42/toolchain/linux_x86_newlib/bin/../lib/gcc/x86_64-nacl/4.4.3/../../../../x86_64-nacl/lib/../lib64/libstdc++.a(string-inst.o)
 .group         0x0000000000000000        0x8 /home/berkeley/nacl_sdk/pepper_42/toolchain/linux_x86_newlib/bin/../lib/gcc/x86_64-nacl/4.4.3/../../../../x86_64-nacl/lib/../lib64/libstdc++.a(string-inst.o)
 .group         0x0000000000000000        0x8 /home/berkeley/nacl_sdk/pepper_42/toolchain/linux_x86_newlib/bin/../lib/gcc/x86_64-nacl/4.4.3/../../../../x86_64-nacl/lib/../lib64/libstdc++.a(string-inst.o)
 .group         0x0000000000000000        0x8 /home/berkeley/nacl_sdk/pepper_42/toolchain/linux_x86_newlib/bin/../lib/gcc/x86_64-nacl/4.4.3/../../../../x86_64-nacl/lib/../lib64/libstdc++.a(string-inst.o)
 .group         0x0000000000000000        0x8 /home/berkeley/nacl_sdk/pepper_42/toolchain/linux_x86_newlib/bin/../lib/gcc/x86_64-nacl/4.4.3/../../../../x86_64-nacl/lib/../lib64/libstdc++.a(string-inst.o)
 .group         0x0000000000000000        0x8 /home/berkeley/nacl_sdk/pepper_42/toolchain/linux_x86_newlib/bin/../lib/gcc/x86_64-nacl/4.4.3/../../../../x86_64-nacl/lib/../lib64/libstdc++.a(string-inst.o)
 .group         0x0000000000000000        0x8 /home/berkeley/nacl_sdk/pepper_42/toolchain/linux_x86_newlib/bin/../lib/gcc/x86_64-nacl/4.4.3/../../../../x86_64-nacl/lib/../lib64/libstdc++.a(string-inst.o)
 .group         0x0000000000000000        0x8 /home/berkeley/nacl_sdk/pepper_42/toolchain/linux_x86_newlib/bin/../lib/gcc/x86_64-nacl/4.4.3/../../../../x86_64-nacl/lib/../lib64/libstdc++.a(string-inst.o)
 .group         0x0000000000000000        0x8 /home/berkeley/nacl_sdk/pepper_42/toolchain/linux_x86_newlib/bin/../lib/gcc/x86_64-nacl/4.4.3/../../../../x86_64-nacl/lib/../lib64/libstdc++.a(string-inst.o)
 .group         0x0000000000000000        0x8 /home/berkeley/nacl_sdk/pepper_42/toolchain/linux_x86_newlib/bin/../lib/gcc/x86_64-nacl/4.4.3/../../../../x86_64-nacl/lib/../lib64/libstdc++.a(string-inst.o)
 .group         0x0000000000000000        0x8 /home/berkeley/nacl_sdk/pepper_42/toolchain/linux_x86_newlib/bin/../lib/gcc/x86_64-nacl/4.4.3/../../../../x86_64-nacl/lib/../lib64/libstdc++.a(string-inst.o)
 .group         0x0000000000000000        0x8 /home/berkeley/nacl_sdk/pepper_42/toolchain/linux_x86_newlib/bin/../lib/gcc/x86_64-nacl/4.4.3/../../../../x86_64-nacl/lib/../lib64/libstdc++.a(string-inst.o)
 .group         0x0000000000000000        0x8 /home/berkeley/nacl_sdk/pepper_42/toolchain/linux_x86_newlib/bin/../lib/gcc/x86_64-nacl/4.4.3/../../../../x86_64-nacl/lib/../lib64/libstdc++.a(string-inst.o)
 .group         0x0000000000000000        0x8 /home/berkeley/nacl_sdk/pepper_42/toolchain/linux_x86_newlib/bin/../lib/gcc/x86_64-nacl/4.4.3/../../../../x86_64-nacl/lib/../lib64/libstdc++.a(string-inst.o)
 .group         0x0000000000000000        0x8 /home/berkeley/nacl_sdk/pepper_42/toolchain/linux_x86_newlib/bin/../lib/gcc/x86_64-nacl/4.4.3/../../../../x86_64-nacl/lib/../lib64/libstdc++.a(string-inst.o)
 .group         0x0000000000000000        0x8 /home/berkeley/nacl_sdk/pepper_42/toolchain/linux_x86_newlib/bin/../lib/gcc/x86_64-nacl/4.4.3/../../../../x86_64-nacl/lib/../lib64/libstdc++.a(string-inst.o)
 .group         0x0000000000000000        0x8 /home/berkeley/nacl_sdk/pepper_42/toolchain/linux_x86_newlib/bin/../lib/gcc/x86_64-nacl/4.4.3/../../../../x86_64-nacl/lib/../lib64/libstdc++.a(string-inst.o)
 .group         0x0000000000000000        0x8 /home/berkeley/nacl_sdk/pepper_42/toolchain/linux_x86_newlib/bin/../lib/gcc/x86_64-nacl/4.4.3/../../../../x86_64-nacl/lib/../lib64/libstdc++.a(string-inst.o)
 .group         0x0000000000000000        0x8 /home/berkeley/nacl_sdk/pepper_42/toolchain/linux_x86_newlib/bin/../lib/gcc/x86_64-nacl/4.4.3/../../../../x86_64-nacl/lib/../lib64/libstdc++.a(string-inst.o)
 .group         0x0000000000000000        0x8 /home/berkeley/nacl_sdk/pepper_42/toolchain/linux_x86_newlib/bin/../lib/gcc/x86_64-nacl/4.4.3/../../../../x86_64-nacl/lib/../lib64/libstdc++.a(string-inst.o)
 .group         0x0000000000000000        0x8 /home/berkeley/nacl_sdk/pepper_42/toolchain/linux_x86_newlib/bin/../lib/gcc/x86_64-nacl/4.4.3/../../../../x86_64-nacl/lib/../lib64/libstdc++.a(string-inst.o)
 .group         0x0000000000000000        0x8 /home/berkeley/nacl_sdk/pepper_42/toolchain/linux_x86_newlib/bin/../lib/gcc/x86_64-nacl/4.4.3/../../../../x86_64-nacl/lib/../lib64/libstdc++.a(string-inst.o)
 .group         0x0000000000000000        0x8 /home/berkeley/nacl_sdk/pepper_42/toolchain/linux_x86_newlib/bin/../lib/gcc/x86_64-nacl/4.4.3/../../../../x86_64-nacl/lib/../lib64/libstdc++.a(string-inst.o)
 .group         0x0000000000000000        0x8 /home/berkeley/nacl_sdk/pepper_42/toolchain/linux_x86_newlib/bin/../lib/gcc/x86_64-nacl/4.4.3/../../../../x86_64-nacl/lib/../lib64/libstdc++.a(string-inst.o)
 .group         0x0000000000000000        0x8 /home/berkeley/nacl_sdk/pepper_42/toolchain/linux_x86_newlib/bin/../lib/gcc/x86_64-nacl/4.4.3/../../../../x86_64-nacl/lib/../lib64/libstdc++.a(string-inst.o)
 .group         0x0000000000000000        0x8 /home/berkeley/nacl_sdk/pepper_42/toolchain/linux_x86_newlib/bin/../lib/gcc/x86_64-nacl/4.4.3/../../../../x86_64-nacl/lib/../lib64/libstdc++.a(string-inst.o)
 .group         0x0000000000000000        0x8 /home/berkeley/nacl_sdk/pepper_42/toolchain/linux_x86_newlib/bin/../lib/gcc/x86_64-nacl/4.4.3/../../../../x86_64-nacl/lib/../lib64/libstdc++.a(string-inst.o)
 .group         0x0000000000000000        0x8 /home/berkeley/nacl_sdk/pepper_42/toolchain/linux_x86_newlib/bin/../lib/gcc/x86_64-nacl/4.4.3/../../../../x86_64-nacl/lib/../lib64/libstdc++.a(string-inst.o)
 .group         0x0000000000000000        0x8 /home/berkeley/nacl_sdk/pepper_42/toolchain/linux_x86_newlib/bin/../lib/gcc/x86_64-nacl/4.4.3/../../../../x86_64-nacl/lib/../lib64/libstdc++.a(string-inst.o)
 .group         0x0000000000000000        0x8 /home/berkeley/nacl_sdk/pepper_42/toolchain/linux_x86_newlib/bin/../lib/gcc/x86_64-nacl/4.4.3/../../../../x86_64-nacl/lib/../lib64/libstdc++.a(string-inst.o)
 .group         0x0000000000000000        0x8 /home/berkeley/nacl_sdk/pepper_42/toolchain/linux_x86_newlib/bin/../lib/gcc/x86_64-nacl/4.4.3/../../../../x86_64-nacl/lib/../lib64/libstdc++.a(string-inst.o)
 .group         0x0000000000000000        0x8 /home/berkeley/nacl_sdk/pepper_42/toolchain/linux_x86_newlib/bin/../lib/gcc/x86_64-nacl/4.4.3/../../../../x86_64-nacl/lib/../lib64/libstdc++.a(string-inst.o)
 .group         0x0000000000000000        0x8 /home/berkeley/nacl_sdk/pepper_42/toolchain/linux_x86_newlib/bin/../lib/gcc/x86_64-nacl/4.4.3/../../../../x86_64-nacl/lib/../lib64/libstdc++.a(string-inst.o)
 .group         0x0000000000000000        0x8 /home/berkeley/nacl_sdk/pepper_42/toolchain/linux_x86_newlib/bin/../lib/gcc/x86_64-nacl/4.4.3/../../../../x86_64-nacl/lib/../lib64/libstdc++.a(string-inst.o)
 .group         0x0000000000000000        0x8 /home/berkeley/nacl_sdk/pepper_42/toolchain/linux_x86_newlib/bin/../lib/gcc/x86_64-nacl/4.4.3/../../../../x86_64-nacl/lib/../lib64/libstdc++.a(string-inst.o)
 .group         0x0000000000000000        0x8 /home/berkeley/nacl_sdk/pepper_42/toolchain/linux_x86_newlib/bin/../lib/gcc/x86_64-nacl/4.4.3/../../../../x86_64-nacl/lib/../lib64/libstdc++.a(string-inst.o)
 .group         0x0000000000000000        0x8 /home/berkeley/nacl_sdk/pepper_42/toolchain/linux_x86_newlib/bin/../lib/gcc/x86_64-nacl/4.4.3/../../../../x86_64-nacl/lib/../lib64/libstdc++.a(string-inst.o)
 .group         0x0000000000000000        0x8 /home/berkeley/nacl_sdk/pepper_42/toolchain/linux_x86_newlib/bin/../lib/gcc/x86_64-nacl/4.4.3/../../../../x86_64-nacl/lib/../lib64/libstdc++.a(string-inst.o)
 .group         0x0000000000000000        0x8 /home/berkeley/nacl_sdk/pepper_42/toolchain/linux_x86_newlib/bin/../lib/gcc/x86_64-nacl/4.4.3/../../../../x86_64-nacl/lib/../lib64/libstdc++.a(string-inst.o)
 .group         0x0000000000000000        0x8 /home/berkeley/nacl_sdk/pepper_42/toolchain/linux_x86_newlib/bin/../lib/gcc/x86_64-nacl/4.4.3/../../../../x86_64-nacl/lib/../lib64/libstdc++.a(string-inst.o)
 .group         0x0000000000000000        0x8 /home/berkeley/nacl_sdk/pepper_42/toolchain/linux_x86_newlib/bin/../lib/gcc/x86_64-nacl/4.4.3/../../../../x86_64-nacl/lib/../lib64/libstdc++.a(string-inst.o)
 .group         0x0000000000000000        0x8 /home/berkeley/nacl_sdk/pepper_42/toolchain/linux_x86_newlib/bin/../lib/gcc/x86_64-nacl/4.4.3/../../../../x86_64-nacl/lib/../lib64/libstdc++.a(string-inst.o)
 .group         0x0000000000000000        0x8 /home/berkeley/nacl_sdk/pepper_42/toolchain/linux_x86_newlib/bin/../lib/gcc/x86_64-nacl/4.4.3/../../../../x86_64-nacl/lib/../lib64/libstdc++.a(string-inst.o)
 .group         0x0000000000000000        0x8 /home/berkeley/nacl_sdk/pepper_42/toolchain/linux_x86_newlib/bin/../lib/gcc/x86_64-nacl/4.4.3/../../../../x86_64-nacl/lib/../lib64/libstdc++.a(string-inst.o)
 .group         0x0000000000000000        0x8 /home/berkeley/nacl_sdk/pepper_42/toolchain/linux_x86_newlib/bin/../lib/gcc/x86_64-nacl/4.4.3/../../../../x86_64-nacl/lib/../lib64/libstdc++.a(string-inst.o)
 .group         0x0000000000000000        0x8 /home/berkeley/nacl_sdk/pepper_42/toolchain/linux_x86_newlib/bin/../lib/gcc/x86_64-nacl/4.4.3/../../../../x86_64-nacl/lib/../lib64/libstdc++.a(string-inst.o)
 .group         0x0000000000000000        0x8 /home/berkeley/nacl_sdk/pepper_42/toolchain/linux_x86_newlib/bin/../lib/gcc/x86_64-nacl/4.4.3/../../../../x86_64-nacl/lib/../lib64/libstdc++.a(string-inst.o)
 .group         0x0000000000000000        0x8 /home/berkeley/nacl_sdk/pepper_42/toolchain/linux_x86_newlib/bin/../lib/gcc/x86_64-nacl/4.4.3/../../../../x86_64-nacl/lib/../lib64/libstdc++.a(string-inst.o)
 .group         0x0000000000000000        0x8 /home/berkeley/nacl_sdk/pepper_42/toolchain/linux_x86_newlib/bin/../lib/gcc/x86_64-nacl/4.4.3/../../../../x86_64-nacl/lib/../lib64/libstdc++.a(string-inst.o)
 .group         0x0000000000000000        0x8 /home/berkeley/nacl_sdk/pepper_42/toolchain/linux_x86_newlib/bin/../lib/gcc/x86_64-nacl/4.4.3/../../../../x86_64-nacl/lib/../lib64/libstdc++.a(string-inst.o)
 .group         0x0000000000000000        0x8 /home/berkeley/nacl_sdk/pepper_42/toolchain/linux_x86_newlib/bin/../lib/gcc/x86_64-nacl/4.4.3/../../../../x86_64-nacl/lib/../lib64/libstdc++.a(string-inst.o)
 .group         0x0000000000000000        0x8 /home/berkeley/nacl_sdk/pepper_42/toolchain/linux_x86_newlib/bin/../lib/gcc/x86_64-nacl/4.4.3/../../../../x86_64-nacl/lib/../lib64/libstdc++.a(string-inst.o)
 .group         0x0000000000000000        0x8 /home/berkeley/nacl_sdk/pepper_42/toolchain/linux_x86_newlib/bin/../lib/gcc/x86_64-nacl/4.4.3/../../../../x86_64-nacl/lib/../lib64/libstdc++.a(string-inst.o)
 .group         0x0000000000000000        0x8 /home/berkeley/nacl_sdk/pepper_42/toolchain/linux_x86_newlib/bin/../lib/gcc/x86_64-nacl/4.4.3/../../../../x86_64-nacl/lib/../lib64/libstdc++.a(string-inst.o)
 .group         0x0000000000000000        0x8 /home/berkeley/nacl_sdk/pepper_42/toolchain/linux_x86_newlib/bin/../lib/gcc/x86_64-nacl/4.4.3/../../../../x86_64-nacl/lib/../lib64/libstdc++.a(string-inst.o)
 .group         0x0000000000000000        0x8 /home/berkeley/nacl_sdk/pepper_42/toolchain/linux_x86_newlib/bin/../lib/gcc/x86_64-nacl/4.4.3/../../../../x86_64-nacl/lib/../lib64/libstdc++.a(string-inst.o)
 .group         0x0000000000000000        0x8 /home/berkeley/nacl_sdk/pepper_42/toolchain/linux_x86_newlib/bin/../lib/gcc/x86_64-nacl/4.4.3/../../../../x86_64-nacl/lib/../lib64/libstdc++.a(string-inst.o)
 .group         0x0000000000000000        0x8 /home/berkeley/nacl_sdk/pepper_42/toolchain/linux_x86_newlib/bin/../lib/gcc/x86_64-nacl/4.4.3/../../../../x86_64-nacl/lib/../lib64/libstdc++.a(string-inst.o)
 .group         0x0000000000000000        0x8 /home/berkeley/nacl_sdk/pepper_42/toolchain/linux_x86_newlib/bin/../lib/gcc/x86_64-nacl/4.4.3/../../../../x86_64-nacl/lib/../lib64/libstdc++.a(string-inst.o)
 .group         0x0000000000000000        0x8 /home/berkeley/nacl_sdk/pepper_42/toolchain/linux_x86_newlib/bin/../lib/gcc/x86_64-nacl/4.4.3/../../../../x86_64-nacl/lib/../lib64/libstdc++.a(string-inst.o)
 .group         0x0000000000000000        0x8 /home/berkeley/nacl_sdk/pepper_42/toolchain/linux_x86_newlib/bin/../lib/gcc/x86_64-nacl/4.4.3/../../../../x86_64-nacl/lib/../lib64/libstdc++.a(string-inst.o)
 .group         0x0000000000000000        0x8 /home/berkeley/nacl_sdk/pepper_42/toolchain/linux_x86_newlib/bin/../lib/gcc/x86_64-nacl/4.4.3/../../../../x86_64-nacl/lib/../lib64/libstdc++.a(string-inst.o)
 .group         0x0000000000000000        0x8 /home/berkeley/nacl_sdk/pepper_42/toolchain/linux_x86_newlib/bin/../lib/gcc/x86_64-nacl/4.4.3/../../../../x86_64-nacl/lib/../lib64/libstdc++.a(string-inst.o)
 .group         0x0000000000000000        0x8 /home/berkeley/nacl_sdk/pepper_42/toolchain/linux_x86_newlib/bin/../lib/gcc/x86_64-nacl/4.4.3/../../../../x86_64-nacl/lib/../lib64/libstdc++.a(string-inst.o)
 .group         0x0000000000000000        0x8 /home/berkeley/nacl_sdk/pepper_42/toolchain/linux_x86_newlib/bin/../lib/gcc/x86_64-nacl/4.4.3/../../../../x86_64-nacl/lib/../lib64/libstdc++.a(string-inst.o)
 .group         0x0000000000000000        0x8 /home/berkeley/nacl_sdk/pepper_42/toolchain/linux_x86_newlib/bin/../lib/gcc/x86_64-nacl/4.4.3/../../../../x86_64-nacl/lib/../lib64/libstdc++.a(string-inst.o)
 .group         0x0000000000000000        0x8 /home/berkeley/nacl_sdk/pepper_42/toolchain/linux_x86_newlib/bin/../lib/gcc/x86_64-nacl/4.4.3/../../../../x86_64-nacl/lib/../lib64/libstdc++.a(string-inst.o)
 .group         0x0000000000000000        0x8 /home/berkeley/nacl_sdk/pepper_42/toolchain/linux_x86_newlib/bin/../lib/gcc/x86_64-nacl/4.4.3/../../../../x86_64-nacl/lib/../lib64/libstdc++.a(string-inst.o)
 .group         0x0000000000000000        0x8 /home/berkeley/nacl_sdk/pepper_42/toolchain/linux_x86_newlib/bin/../lib/gcc/x86_64-nacl/4.4.3/../../../../x86_64-nacl/lib/../lib64/libstdc++.a(string-inst.o)
 .group         0x0000000000000000        0x8 /home/berkeley/nacl_sdk/pepper_42/toolchain/linux_x86_newlib/bin/../lib/gcc/x86_64-nacl/4.4.3/../../../../x86_64-nacl/lib/../lib64/libstdc++.a(string-inst.o)
 .group         0x0000000000000000        0x8 /home/berkeley/nacl_sdk/pepper_42/toolchain/linux_x86_newlib/bin/../lib/gcc/x86_64-nacl/4.4.3/../../../../x86_64-nacl/lib/../lib64/libstdc++.a(string-inst.o)
 .group         0x0000000000000000        0x8 /home/berkeley/nacl_sdk/pepper_42/toolchain/linux_x86_newlib/bin/../lib/gcc/x86_64-nacl/4.4.3/../../../../x86_64-nacl/lib/../lib64/libstdc++.a(string-inst.o)
 .group         0x0000000000000000        0x8 /home/berkeley/nacl_sdk/pepper_42/toolchain/linux_x86_newlib/bin/../lib/gcc/x86_64-nacl/4.4.3/../../../../x86_64-nacl/lib/../lib64/libstdc++.a(string-inst.o)
 .group         0x0000000000000000        0x8 /home/berkeley/nacl_sdk/pepper_42/toolchain/linux_x86_newlib/bin/../lib/gcc/x86_64-nacl/4.4.3/../../../../x86_64-nacl/lib/../lib64/libstdc++.a(string-inst.o)
 .group         0x0000000000000000        0x8 /home/berkeley/nacl_sdk/pepper_42/toolchain/linux_x86_newlib/bin/../lib/gcc/x86_64-nacl/4.4.3/../../../../x86_64-nacl/lib/../lib64/libstdc++.a(string-inst.o)
 .group         0x0000000000000000        0x8 /home/berkeley/nacl_sdk/pepper_42/toolchain/linux_x86_newlib/bin/../lib/gcc/x86_64-nacl/4.4.3/../../../../x86_64-nacl/lib/../lib64/libstdc++.a(string-inst.o)
 .group         0x0000000000000000        0x8 /home/berkeley/nacl_sdk/pepper_42/toolchain/linux_x86_newlib/bin/../lib/gcc/x86_64-nacl/4.4.3/../../../../x86_64-nacl/lib/../lib64/libstdc++.a(string-inst.o)
 .group         0x0000000000000000        0x8 /home/berkeley/nacl_sdk/pepper_42/toolchain/linux_x86_newlib/bin/../lib/gcc/x86_64-nacl/4.4.3/../../../../x86_64-nacl/lib/../lib64/libstdc++.a(string-inst.o)
 .group         0x0000000000000000        0x8 /home/berkeley/nacl_sdk/pepper_42/toolchain/linux_x86_newlib/bin/../lib/gcc/x86_64-nacl/4.4.3/../../../../x86_64-nacl/lib/../lib64/libstdc++.a(string-inst.o)
 .group         0x0000000000000000        0x8 /home/berkeley/nacl_sdk/pepper_42/toolchain/linux_x86_newlib/bin/../lib/gcc/x86_64-nacl/4.4.3/../../../../x86_64-nacl/lib/../lib64/libstdc++.a(string-inst.o)
 .group         0x0000000000000000        0x8 /home/berkeley/nacl_sdk/pepper_42/toolchain/linux_x86_newlib/bin/../lib/gcc/x86_64-nacl/4.4.3/../../../../x86_64-nacl/lib/../lib64/libstdc++.a(string-inst.o)
 .group         0x0000000000000000        0x8 /home/berkeley/nacl_sdk/pepper_42/toolchain/linux_x86_newlib/bin/../lib/gcc/x86_64-nacl/4.4.3/../../../../x86_64-nacl/lib/../lib64/libstdc++.a(string-inst.o)
 .group         0x0000000000000000        0x8 /home/berkeley/nacl_sdk/pepper_42/toolchain/linux_x86_newlib/bin/../lib/gcc/x86_64-nacl/4.4.3/../../../../x86_64-nacl/lib/../lib64/libstdc++.a(string-inst.o)
 .group         0x0000000000000000        0x8 /home/berkeley/nacl_sdk/pepper_42/toolchain/linux_x86_newlib/bin/../lib/gcc/x86_64-nacl/4.4.3/../../../../x86_64-nacl/lib/../lib64/libstdc++.a(string-inst.o)
 .group         0x0000000000000000        0x8 /home/berkeley/nacl_sdk/pepper_42/toolchain/linux_x86_newlib/bin/../lib/gcc/x86_64-nacl/4.4.3/../../../../x86_64-nacl/lib/../lib64/libstdc++.a(string-inst.o)
 .group         0x0000000000000000        0x8 /home/berkeley/nacl_sdk/pepper_42/toolchain/linux_x86_newlib/bin/../lib/gcc/x86_64-nacl/4.4.3/../../../../x86_64-nacl/lib/../lib64/libstdc++.a(string-inst.o)
 .group         0x0000000000000000        0x8 /home/berkeley/nacl_sdk/pepper_42/toolchain/linux_x86_newlib/bin/../lib/gcc/x86_64-nacl/4.4.3/../../../../x86_64-nacl/lib/../lib64/libstdc++.a(string-inst.o)
 .group         0x0000000000000000        0x8 /home/berkeley/nacl_sdk/pepper_42/toolchain/linux_x86_newlib/bin/../lib/gcc/x86_64-nacl/4.4.3/../../../../x86_64-nacl/lib/../lib64/libstdc++.a(string-inst.o)
 .group         0x0000000000000000        0x8 /home/berkeley/nacl_sdk/pepper_42/toolchain/linux_x86_newlib/bin/../lib/gcc/x86_64-nacl/4.4.3/../../../../x86_64-nacl/lib/../lib64/libstdc++.a(string-inst.o)
 .group         0x0000000000000000        0x8 /home/berkeley/nacl_sdk/pepper_42/toolchain/linux_x86_newlib/bin/../lib/gcc/x86_64-nacl/4.4.3/../../../../x86_64-nacl/lib/../lib64/libstdc++.a(string-inst.o)
 .group         0x0000000000000000        0x8 /home/berkeley/nacl_sdk/pepper_42/toolchain/linux_x86_newlib/bin/../lib/gcc/x86_64-nacl/4.4.3/../../../../x86_64-nacl/lib/../lib64/libstdc++.a(string-inst.o)
 .group         0x0000000000000000        0x8 /home/berkeley/nacl_sdk/pepper_42/toolchain/linux_x86_newlib/bin/../lib/gcc/x86_64-nacl/4.4.3/../../../../x86_64-nacl/lib/../lib64/libstdc++.a(string-inst.o)
 .group         0x0000000000000000        0x8 /home/berkeley/nacl_sdk/pepper_42/toolchain/linux_x86_newlib/bin/../lib/gcc/x86_64-nacl/4.4.3/../../../../x86_64-nacl/lib/../lib64/libstdc++.a(string-inst.o)
 .group         0x0000000000000000        0x8 /home/berkeley/nacl_sdk/pepper_42/toolchain/linux_x86_newlib/bin/../lib/gcc/x86_64-nacl/4.4.3/../../../../x86_64-nacl/lib/../lib64/libstdc++.a(string-inst.o)
 .group         0x0000000000000000        0x8 /home/berkeley/nacl_sdk/pepper_42/toolchain/linux_x86_newlib/bin/../lib/gcc/x86_64-nacl/4.4.3/../../../../x86_64-nacl/lib/../lib64/libstdc++.a(string-inst.o)
 .group         0x0000000000000000        0x8 /home/berkeley/nacl_sdk/pepper_42/toolchain/linux_x86_newlib/bin/../lib/gcc/x86_64-nacl/4.4.3/../../../../x86_64-nacl/lib/../lib64/libstdc++.a(string-inst.o)
 .group         0x0000000000000000        0x8 /home/berkeley/nacl_sdk/pepper_42/toolchain/linux_x86_newlib/bin/../lib/gcc/x86_64-nacl/4.4.3/../../../../x86_64-nacl/lib/../lib64/libstdc++.a(string-inst.o)
 .group         0x0000000000000000        0x8 /home/berkeley/nacl_sdk/pepper_42/toolchain/linux_x86_newlib/bin/../lib/gcc/x86_64-nacl/4.4.3/../../../../x86_64-nacl/lib/../lib64/libstdc++.a(string-inst.o)
 .group         0x0000000000000000        0x8 /home/berkeley/nacl_sdk/pepper_42/toolchain/linux_x86_newlib/bin/../lib/gcc/x86_64-nacl/4.4.3/../../../../x86_64-nacl/lib/../lib64/libstdc++.a(string-inst.o)
 .group         0x0000000000000000        0x8 /home/berkeley/nacl_sdk/pepper_42/toolchain/linux_x86_newlib/bin/../lib/gcc/x86_64-nacl/4.4.3/../../../../x86_64-nacl/lib/../lib64/libstdc++.a(string-inst.o)
 .group         0x0000000000000000        0x8 /home/berkeley/nacl_sdk/pepper_42/toolchain/linux_x86_newlib/bin/../lib/gcc/x86_64-nacl/4.4.3/../../../../x86_64-nacl/lib/../lib64/libstdc++.a(string-inst.o)
 .group         0x0000000000000000        0x8 /home/berkeley/nacl_sdk/pepper_42/toolchain/linux_x86_newlib/bin/../lib/gcc/x86_64-nacl/4.4.3/../../../../x86_64-nacl/lib/../lib64/libstdc++.a(string-inst.o)
 .group         0x0000000000000000        0x8 /home/berkeley/nacl_sdk/pepper_42/toolchain/linux_x86_newlib/bin/../lib/gcc/x86_64-nacl/4.4.3/../../../../x86_64-nacl/lib/../lib64/libstdc++.a(string-inst.o)
 .group         0x0000000000000000        0x8 /home/berkeley/nacl_sdk/pepper_42/toolchain/linux_x86_newlib/bin/../lib/gcc/x86_64-nacl/4.4.3/../../../../x86_64-nacl/lib/../lib64/libstdc++.a(string-inst.o)
 .group         0x0000000000000000        0x8 /home/berkeley/nacl_sdk/pepper_42/toolchain/linux_x86_newlib/bin/../lib/gcc/x86_64-nacl/4.4.3/../../../../x86_64-nacl/lib/../lib64/libstdc++.a(string-inst.o)
 .group         0x0000000000000000        0x8 /home/berkeley/nacl_sdk/pepper_42/toolchain/linux_x86_newlib/bin/../lib/gcc/x86_64-nacl/4.4.3/../../../../x86_64-nacl/lib/../lib64/libstdc++.a(string-inst.o)
 .group         0x0000000000000000        0x8 /home/berkeley/nacl_sdk/pepper_42/toolchain/linux_x86_newlib/bin/../lib/gcc/x86_64-nacl/4.4.3/../../../../x86_64-nacl/lib/../lib64/libstdc++.a(string-inst.o)
 .group         0x0000000000000000        0x8 /home/berkeley/nacl_sdk/pepper_42/toolchain/linux_x86_newlib/bin/../lib/gcc/x86_64-nacl/4.4.3/../../../../x86_64-nacl/lib/../lib64/libstdc++.a(string-inst.o)
 .group         0x0000000000000000        0x8 /home/berkeley/nacl_sdk/pepper_42/toolchain/linux_x86_newlib/bin/../lib/gcc/x86_64-nacl/4.4.3/../../../../x86_64-nacl/lib/../lib64/libstdc++.a(string-inst.o)
 .group         0x0000000000000000        0x8 /home/berkeley/nacl_sdk/pepper_42/toolchain/linux_x86_newlib/bin/../lib/gcc/x86_64-nacl/4.4.3/../../../../x86_64-nacl/lib/../lib64/libstdc++.a(string-inst.o)
 .group         0x0000000000000000        0x8 /home/berkeley/nacl_sdk/pepper_42/toolchain/linux_x86_newlib/bin/../lib/gcc/x86_64-nacl/4.4.3/../../../../x86_64-nacl/lib/../lib64/libstdc++.a(string-inst.o)
 .group         0x0000000000000000        0x8 /home/berkeley/nacl_sdk/pepper_42/toolchain/linux_x86_newlib/bin/../lib/gcc/x86_64-nacl/4.4.3/../../../../x86_64-nacl/lib/../lib64/libstdc++.a(string-inst.o)
 .group         0x0000000000000000        0x8 /home/berkeley/nacl_sdk/pepper_42/toolchain/linux_x86_newlib/bin/../lib/gcc/x86_64-nacl/4.4.3/../../../../x86_64-nacl/lib/../lib64/libstdc++.a(string-inst.o)
 .group         0x0000000000000000        0x8 /home/berkeley/nacl_sdk/pepper_42/toolchain/linux_x86_newlib/bin/../lib/gcc/x86_64-nacl/4.4.3/../../../../x86_64-nacl/lib/../lib64/libstdc++.a(string-inst.o)
 .group         0x0000000000000000        0x8 /home/berkeley/nacl_sdk/pepper_42/toolchain/linux_x86_newlib/bin/../lib/gcc/x86_64-nacl/4.4.3/../../../../x86_64-nacl/lib/../lib64/libstdc++.a(string-inst.o)
 .group         0x0000000000000000        0x8 /home/berkeley/nacl_sdk/pepper_42/toolchain/linux_x86_newlib/bin/../lib/gcc/x86_64-nacl/4.4.3/../../../../x86_64-nacl/lib/../lib64/libstdc++.a(string-inst.o)
 .group         0x0000000000000000        0x8 /home/berkeley/nacl_sdk/pepper_42/toolchain/linux_x86_newlib/bin/../lib/gcc/x86_64-nacl/4.4.3/../../../../x86_64-nacl/lib/../lib64/libstdc++.a(string-inst.o)
 .group         0x0000000000000000        0x8 /home/berkeley/nacl_sdk/pepper_42/toolchain/linux_x86_newlib/bin/../lib/gcc/x86_64-nacl/4.4.3/../../../../x86_64-nacl/lib/../lib64/libstdc++.a(string-inst.o)
 .group         0x0000000000000000        0x8 /home/berkeley/nacl_sdk/pepper_42/toolchain/linux_x86_newlib/bin/../lib/gcc/x86_64-nacl/4.4.3/../../../../x86_64-nacl/lib/../lib64/libstdc++.a(string-inst.o)
 .group         0x0000000000000000        0x8 /home/berkeley/nacl_sdk/pepper_42/toolchain/linux_x86_newlib/bin/../lib/gcc/x86_64-nacl/4.4.3/../../../../x86_64-nacl/lib/../lib64/libstdc++.a(string-inst.o)
 .group         0x0000000000000000        0x8 /home/berkeley/nacl_sdk/pepper_42/toolchain/linux_x86_newlib/bin/../lib/gcc/x86_64-nacl/4.4.3/../../../../x86_64-nacl/lib/../lib64/libstdc++.a(string-inst.o)
 .group         0x0000000000000000        0x8 /home/berkeley/nacl_sdk/pepper_42/toolchain/linux_x86_newlib/bin/../lib/gcc/x86_64-nacl/4.4.3/../../../../x86_64-nacl/lib/../lib64/libstdc++.a(string-inst.o)
 .group         0x0000000000000000        0x8 /home/berkeley/nacl_sdk/pepper_42/toolchain/linux_x86_newlib/bin/../lib/gcc/x86_64-nacl/4.4.3/../../../../x86_64-nacl/lib/../lib64/libstdc++.a(string-inst.o)
 .group         0x0000000000000000        0x8 /home/berkeley/nacl_sdk/pepper_42/toolchain/linux_x86_newlib/bin/../lib/gcc/x86_64-nacl/4.4.3/../../../../x86_64-nacl/lib/../lib64/libstdc++.a(string-inst.o)
 .group         0x0000000000000000        0x8 /home/berkeley/nacl_sdk/pepper_42/toolchain/linux_x86_newlib/bin/../lib/gcc/x86_64-nacl/4.4.3/../../../../x86_64-nacl/lib/../lib64/libstdc++.a(string-inst.o)
 .group         0x0000000000000000        0x8 /home/berkeley/nacl_sdk/pepper_42/toolchain/linux_x86_newlib/bin/../lib/gcc/x86_64-nacl/4.4.3/../../../../x86_64-nacl/lib/../lib64/libstdc++.a(string-inst.o)
 .group         0x0000000000000000        0x8 /home/berkeley/nacl_sdk/pepper_42/toolchain/linux_x86_newlib/bin/../lib/gcc/x86_64-nacl/4.4.3/../../../../x86_64-nacl/lib/../lib64/libstdc++.a(string-inst.o)
 .group         0x0000000000000000        0x8 /home/berkeley/nacl_sdk/pepper_42/toolchain/linux_x86_newlib/bin/../lib/gcc/x86_64-nacl/4.4.3/../../../../x86_64-nacl/lib/../lib64/libstdc++.a(string-inst.o)
 .group         0x0000000000000000        0x8 /home/berkeley/nacl_sdk/pepper_42/toolchain/linux_x86_newlib/bin/../lib/gcc/x86_64-nacl/4.4.3/../../../../x86_64-nacl/lib/../lib64/libstdc++.a(string-inst.o)
 .group         0x0000000000000000        0x8 /home/berkeley/nacl_sdk/pepper_42/toolchain/linux_x86_newlib/bin/../lib/gcc/x86_64-nacl/4.4.3/../../../../x86_64-nacl/lib/../lib64/libstdc++.a(string-inst.o)
 .group         0x0000000000000000        0x8 /home/berkeley/nacl_sdk/pepper_42/toolchain/linux_x86_newlib/bin/../lib/gcc/x86_64-nacl/4.4.3/../../../../x86_64-nacl/lib/../lib64/libstdc++.a(string-inst.o)
 .group         0x0000000000000000        0x8 /home/berkeley/nacl_sdk/pepper_42/toolchain/linux_x86_newlib/bin/../lib/gcc/x86_64-nacl/4.4.3/../../../../x86_64-nacl/lib/../lib64/libstdc++.a(string-inst.o)
 .group         0x0000000000000000        0x8 /home/berkeley/nacl_sdk/pepper_42/toolchain/linux_x86_newlib/bin/../lib/gcc/x86_64-nacl/4.4.3/../../../../x86_64-nacl/lib/../lib64/libstdc++.a(string-inst.o)
 .group         0x0000000000000000        0x8 /home/berkeley/nacl_sdk/pepper_42/toolchain/linux_x86_newlib/bin/../lib/gcc/x86_64-nacl/4.4.3/../../../../x86_64-nacl/lib/../lib64/libstdc++.a(string-inst.o)
 .group         0x0000000000000000        0x8 /home/berkeley/nacl_sdk/pepper_42/toolchain/linux_x86_newlib/bin/../lib/gcc/x86_64-nacl/4.4.3/../../../../x86_64-nacl/lib/../lib64/libstdc++.a(string-inst.o)
 .group         0x0000000000000000        0x8 /home/berkeley/nacl_sdk/pepper_42/toolchain/linux_x86_newlib/bin/../lib/gcc/x86_64-nacl/4.4.3/../../../../x86_64-nacl/lib/../lib64/libstdc++.a(string-inst.o)
 .group         0x0000000000000000        0x8 /home/berkeley/nacl_sdk/pepper_42/toolchain/linux_x86_newlib/bin/../lib/gcc/x86_64-nacl/4.4.3/../../../../x86_64-nacl/lib/../lib64/libstdc++.a(string-inst.o)
 .group         0x0000000000000000        0x8 /home/berkeley/nacl_sdk/pepper_42/toolchain/linux_x86_newlib/bin/../lib/gcc/x86_64-nacl/4.4.3/../../../../x86_64-nacl/lib/../lib64/libstdc++.a(string-inst.o)
 .group         0x0000000000000000        0x8 /home/berkeley/nacl_sdk/pepper_42/toolchain/linux_x86_newlib/bin/../lib/gcc/x86_64-nacl/4.4.3/../../../../x86_64-nacl/lib/../lib64/libstdc++.a(string-inst.o)
 .group         0x0000000000000000        0x8 /home/berkeley/nacl_sdk/pepper_42/toolchain/linux_x86_newlib/bin/../lib/gcc/x86_64-nacl/4.4.3/../../../../x86_64-nacl/lib/../lib64/libstdc++.a(string-inst.o)
 .group         0x0000000000000000        0x8 /home/berkeley/nacl_sdk/pepper_42/toolchain/linux_x86_newlib/bin/../lib/gcc/x86_64-nacl/4.4.3/../../../../x86_64-nacl/lib/../lib64/libstdc++.a(string-inst.o)
 .group         0x0000000000000000        0x8 /home/berkeley/nacl_sdk/pepper_42/toolchain/linux_x86_newlib/bin/../lib/gcc/x86_64-nacl/4.4.3/../../../../x86_64-nacl/lib/../lib64/libstdc++.a(string-inst.o)
 .group         0x0000000000000000        0x8 /home/berkeley/nacl_sdk/pepper_42/toolchain/linux_x86_newlib/bin/../lib/gcc/x86_64-nacl/4.4.3/../../../../x86_64-nacl/lib/../lib64/libstdc++.a(string-inst.o)
 .group         0x0000000000000000        0x8 /home/berkeley/nacl_sdk/pepper_42/toolchain/linux_x86_newlib/bin/../lib/gcc/x86_64-nacl/4.4.3/../../../../x86_64-nacl/lib/../lib64/libstdc++.a(string-inst.o)
 .group         0x0000000000000000        0x8 /home/berkeley/nacl_sdk/pepper_42/toolchain/linux_x86_newlib/bin/../lib/gcc/x86_64-nacl/4.4.3/../../../../x86_64-nacl/lib/../lib64/libstdc++.a(string-inst.o)
 .group         0x0000000000000000        0x8 /home/berkeley/nacl_sdk/pepper_42/toolchain/linux_x86_newlib/bin/../lib/gcc/x86_64-nacl/4.4.3/../../../../x86_64-nacl/lib/../lib64/libstdc++.a(string-inst.o)
 .group         0x0000000000000000        0x8 /home/berkeley/nacl_sdk/pepper_42/toolchain/linux_x86_newlib/bin/../lib/gcc/x86_64-nacl/4.4.3/../../../../x86_64-nacl/lib/../lib64/libstdc++.a(string-inst.o)
 .group         0x0000000000000000        0x8 /home/berkeley/nacl_sdk/pepper_42/toolchain/linux_x86_newlib/bin/../lib/gcc/x86_64-nacl/4.4.3/../../../../x86_64-nacl/lib/../lib64/libstdc++.a(string-inst.o)
 .group         0x0000000000000000        0x8 /home/berkeley/nacl_sdk/pepper_42/toolchain/linux_x86_newlib/bin/../lib/gcc/x86_64-nacl/4.4.3/../../../../x86_64-nacl/lib/../lib64/libstdc++.a(string-inst.o)
 .group         0x0000000000000000        0x8 /home/berkeley/nacl_sdk/pepper_42/toolchain/linux_x86_newlib/bin/../lib/gcc/x86_64-nacl/4.4.3/../../../../x86_64-nacl/lib/../lib64/libstdc++.a(string-inst.o)
 .group         0x0000000000000000        0x8 /home/berkeley/nacl_sdk/pepper_42/toolchain/linux_x86_newlib/bin/../lib/gcc/x86_64-nacl/4.4.3/../../../../x86_64-nacl/lib/../lib64/libstdc++.a(string-inst.o)
 .group         0x0000000000000000        0x8 /home/berkeley/nacl_sdk/pepper_42/toolchain/linux_x86_newlib/bin/../lib/gcc/x86_64-nacl/4.4.3/../../../../x86_64-nacl/lib/../lib64/libstdc++.a(string-inst.o)
 .group         0x0000000000000000        0x8 /home/berkeley/nacl_sdk/pepper_42/toolchain/linux_x86_newlib/bin/../lib/gcc/x86_64-nacl/4.4.3/../../../../x86_64-nacl/lib/../lib64/libstdc++.a(string-inst.o)
 .group         0x0000000000000000        0x8 /home/berkeley/nacl_sdk/pepper_42/toolchain/linux_x86_newlib/bin/../lib/gcc/x86_64-nacl/4.4.3/../../../../x86_64-nacl/lib/../lib64/libstdc++.a(string-inst.o)
 .group         0x0000000000000000        0x8 /home/berkeley/nacl_sdk/pepper_42/toolchain/linux_x86_newlib/bin/../lib/gcc/x86_64-nacl/4.4.3/../../../../x86_64-nacl/lib/../lib64/libstdc++.a(string-inst.o)
 .group         0x0000000000000000        0x8 /home/berkeley/nacl_sdk/pepper_42/toolchain/linux_x86_newlib/bin/../lib/gcc/x86_64-nacl/4.4.3/../../../../x86_64-nacl/lib/../lib64/libstdc++.a(string-inst.o)
 .group         0x0000000000000000        0x8 /home/berkeley/nacl_sdk/pepper_42/toolchain/linux_x86_newlib/bin/../lib/gcc/x86_64-nacl/4.4.3/../../../../x86_64-nacl/lib/../lib64/libstdc++.a(string-inst.o)
 .group         0x0000000000000000        0x8 /home/berkeley/nacl_sdk/pepper_42/toolchain/linux_x86_newlib/bin/../lib/gcc/x86_64-nacl/4.4.3/../../../../x86_64-nacl/lib/../lib64/libstdc++.a(string-inst.o)
 .group         0x0000000000000000        0x8 /home/berkeley/nacl_sdk/pepper_42/toolchain/linux_x86_newlib/bin/../lib/gcc/x86_64-nacl/4.4.3/../../../../x86_64-nacl/lib/../lib64/libstdc++.a(string-inst.o)
 .group         0x0000000000000000        0x8 /home/berkeley/nacl_sdk/pepper_42/toolchain/linux_x86_newlib/bin/../lib/gcc/x86_64-nacl/4.4.3/../../../../x86_64-nacl/lib/../lib64/libstdc++.a(string-inst.o)
 .group         0x0000000000000000        0x8 /home/berkeley/nacl_sdk/pepper_42/toolchain/linux_x86_newlib/bin/../lib/gcc/x86_64-nacl/4.4.3/../../../../x86_64-nacl/lib/../lib64/libstdc++.a(string-inst.o)
 .group         0x0000000000000000        0x8 /home/berkeley/nacl_sdk/pepper_42/toolchain/linux_x86_newlib/bin/../lib/gcc/x86_64-nacl/4.4.3/../../../../x86_64-nacl/lib/../lib64/libstdc++.a(string-inst.o)
 .group         0x0000000000000000        0x8 /home/berkeley/nacl_sdk/pepper_42/toolchain/linux_x86_newlib/bin/../lib/gcc/x86_64-nacl/4.4.3/../../../../x86_64-nacl/lib/../lib64/libstdc++.a(string-inst.o)
 .group         0x0000000000000000        0x8 /home/berkeley/nacl_sdk/pepper_42/toolchain/linux_x86_newlib/bin/../lib/gcc/x86_64-nacl/4.4.3/../../../../x86_64-nacl/lib/../lib64/libstdc++.a(string-inst.o)
 .group         0x0000000000000000        0x8 /home/berkeley/nacl_sdk/pepper_42/toolchain/linux_x86_newlib/bin/../lib/gcc/x86_64-nacl/4.4.3/../../../../x86_64-nacl/lib/../lib64/libstdc++.a(string-inst.o)
 .group         0x0000000000000000        0x8 /home/berkeley/nacl_sdk/pepper_42/toolchain/linux_x86_newlib/bin/../lib/gcc/x86_64-nacl/4.4.3/../../../../x86_64-nacl/lib/../lib64/libstdc++.a(string-inst.o)
 .group         0x0000000000000000        0x8 /home/berkeley/nacl_sdk/pepper_42/toolchain/linux_x86_newlib/bin/../lib/gcc/x86_64-nacl/4.4.3/../../../../x86_64-nacl/lib/../lib64/libstdc++.a(string-inst.o)
 .group         0x0000000000000000        0x8 /home/berkeley/nacl_sdk/pepper_42/toolchain/linux_x86_newlib/bin/../lib/gcc/x86_64-nacl/4.4.3/../../../../x86_64-nacl/lib/../lib64/libstdc++.a(string-inst.o)
 .group         0x0000000000000000        0x8 /home/berkeley/nacl_sdk/pepper_42/toolchain/linux_x86_newlib/bin/../lib/gcc/x86_64-nacl/4.4.3/../../../../x86_64-nacl/lib/../lib64/libstdc++.a(string-inst.o)
 .group         0x0000000000000000        0x8 /home/berkeley/nacl_sdk/pepper_42/toolchain/linux_x86_newlib/bin/../lib/gcc/x86_64-nacl/4.4.3/../../../../x86_64-nacl/lib/../lib64/libstdc++.a(string-inst.o)
 .group         0x0000000000000000        0x8 /home/berkeley/nacl_sdk/pepper_42/toolchain/linux_x86_newlib/bin/../lib/gcc/x86_64-nacl/4.4.3/../../../../x86_64-nacl/lib/../lib64/libstdc++.a(string-inst.o)
 .group         0x0000000000000000        0x8 /home/berkeley/nacl_sdk/pepper_42/toolchain/linux_x86_newlib/bin/../lib/gcc/x86_64-nacl/4.4.3/../../../../x86_64-nacl/lib/../lib64/libstdc++.a(string-inst.o)
 .group         0x0000000000000000        0x8 /home/berkeley/nacl_sdk/pepper_42/toolchain/linux_x86_newlib/bin/../lib/gcc/x86_64-nacl/4.4.3/../../../../x86_64-nacl/lib/../lib64/libstdc++.a(string-inst.o)
 .note.GNU-stack
                0x0000000000000000        0x0 /home/berkeley/nacl_sdk/pepper_42/toolchain/linux_x86_newlib/bin/../lib/gcc/x86_64-nacl/4.4.3/../../../../x86_64-nacl/lib/../lib64/libstdc++.a(string-inst.o)
 .note.GNU-stack
                0x0000000000000000        0x0 /home/berkeley/nacl_sdk/pepper_42/toolchain/linux_x86_newlib/bin/../lib/gcc/x86_64-nacl/4.4.3/../../../../x86_64-nacl/lib/../lib64/libstdc++.a(eh_personality.o)
 .group         0x0000000000000000        0x8 /home/berkeley/nacl_sdk/pepper_42/toolchain/linux_x86_newlib/bin/../lib/gcc/x86_64-nacl/4.4.3/../../../../x86_64-nacl/lib/../lib64/libstdc++.a(eh_globals.o)
 .note.GNU-stack
                0x0000000000000000        0x0 /home/berkeley/nacl_sdk/pepper_42/toolchain/linux_x86_newlib/bin/../lib/gcc/x86_64-nacl/4.4.3/../../../../x86_64-nacl/lib/../lib64/libstdc++.a(eh_globals.o)
 .note.GNU-stack
                0x0000000000000000        0x0 /home/berkeley/nacl_sdk/pepper_42/toolchain/linux_x86_newlib/bin/../lib/gcc/x86_64-nacl/4.4.3/../../../../x86_64-nacl/lib/../lib64/libstdc++.a(eh_throw.o)
 .note.GNU-stack
                0x0000000000000000        0x0 /home/berkeley/nacl_sdk/pepper_42/toolchain/linux_x86_newlib/bin/../lib/gcc/x86_64-nacl/4.4.3/../../../../x86_64-nacl/lib/../lib64/libstdc++.a(del_op.o)
 .note.GNU-stack
                0x0000000000000000        0x0 /home/berkeley/nacl_sdk/pepper_42/toolchain/linux_x86_newlib/bin/../lib/gcc/x86_64-nacl/4.4.3/../../../../x86_64-nacl/lib/../lib64/libstdc++.a(eh_call.o)
 .group         0x0000000000000000        0x8 /home/berkeley/nacl_sdk/pepper_42/toolchain/linux_x86_newlib/bin/../lib/gcc/x86_64-nacl/4.4.3/../../../../x86_64-nacl/lib/../lib64/libstdc++.a(guard.o)
 .group         0x0000000000000000        0x8 /home/berkeley/nacl_sdk/pepper_42/toolchain/linux_x86_newlib/bin/../lib/gcc/x86_64-nacl/4.4.3/../../../../x86_64-nacl/lib/../lib64/libstdc++.a(guard.o)
 .group         0x0000000000000000        0x8 /home/berkeley/nacl_sdk/pepper_42/toolchain/linux_x86_newlib/bin/../lib/gcc/x86_64-nacl/4.4.3/../../../../x86_64-nacl/lib/../lib64/libstdc++.a(guard.o)
 .group         0x0000000000000000        0x8 /home/berkeley/nacl_sdk/pepper_42/toolchain/linux_x86_newlib/bin/../lib/gcc/x86_64-nacl/4.4.3/../../../../x86_64-nacl/lib/../lib64/libstdc++.a(guard.o)
 .group         0x0000000000000000        0x8 /home/berkeley/nacl_sdk/pepper_42/toolchain/linux_x86_newlib/bin/../lib/gcc/x86_64-nacl/4.4.3/../../../../x86_64-nacl/lib/../lib64/libstdc++.a(guard.o)
 .group         0x0000000000000000        0x8 /home/berkeley/nacl_sdk/pepper_42/toolchain/linux_x86_newlib/bin/../lib/gcc/x86_64-nacl/4.4.3/../../../../x86_64-nacl/lib/../lib64/libstdc++.a(guard.o)
 .group         0x0000000000000000        0x8 /home/berkeley/nacl_sdk/pepper_42/toolchain/linux_x86_newlib/bin/../lib/gcc/x86_64-nacl/4.4.3/../../../../x86_64-nacl/lib/../lib64/libstdc++.a(guard.o)
 .group         0x0000000000000000        0x8 /home/berkeley/nacl_sdk/pepper_42/toolchain/linux_x86_newlib/bin/../lib/gcc/x86_64-nacl/4.4.3/../../../../x86_64-nacl/lib/../lib64/libstdc++.a(guard.o)
 .group         0x0000000000000000        0x8 /home/berkeley/nacl_sdk/pepper_42/toolchain/linux_x86_newlib/bin/../lib/gcc/x86_64-nacl/4.4.3/../../../../x86_64-nacl/lib/../lib64/libstdc++.a(guard.o)
 .group         0x0000000000000000        0x8 /home/berkeley/nacl_sdk/pepper_42/toolchain/linux_x86_newlib/bin/../lib/gcc/x86_64-nacl/4.4.3/../../../../x86_64-nacl/lib/../lib64/libstdc++.a(guard.o)
 .group         0x0000000000000000        0x8 /home/berkeley/nacl_sdk/pepper_42/toolchain/linux_x86_newlib/bin/../lib/gcc/x86_64-nacl/4.4.3/../../../../x86_64-nacl/lib/../lib64/libstdc++.a(guard.o)
 .group         0x0000000000000000        0x8 /home/berkeley/nacl_sdk/pepper_42/toolchain/linux_x86_newlib/bin/../lib/gcc/x86_64-nacl/4.4.3/../../../../x86_64-nacl/lib/../lib64/libstdc++.a(guard.o)
 .group         0x0000000000000000        0x8 /home/berkeley/nacl_sdk/pepper_42/toolchain/linux_x86_newlib/bin/../lib/gcc/x86_64-nacl/4.4.3/../../../../x86_64-nacl/lib/../lib64/libstdc++.a(guard.o)
 .group         0x0000000000000000        0x8 /home/berkeley/nacl_sdk/pepper_42/toolchain/linux_x86_newlib/bin/../lib/gcc/x86_64-nacl/4.4.3/../../../../x86_64-nacl/lib/../lib64/libstdc++.a(guard.o)
 .group         0x0000000000000000        0x8 /home/berkeley/nacl_sdk/pepper_42/toolchain/linux_x86_newlib/bin/../lib/gcc/x86_64-nacl/4.4.3/../../../../x86_64-nacl/lib/../lib64/libstdc++.a(guard.o)
 .note.GNU-stack
                0x0000000000000000        0x0 /home/berkeley/nacl_sdk/pepper_42/toolchain/linux_x86_newlib/bin/../lib/gcc/x86_64-nacl/4.4.3/../../../../x86_64-nacl/lib/../lib64/libstdc++.a(guard.o)
 .group         0x0000000000000000        0x8 /home/berkeley/nacl_sdk/pepper_42/toolchain/linux_x86_newlib/bin/../lib/gcc/x86_64-nacl/4.4.3/../../../../x86_64-nacl/lib/../lib64/libstdc++.a(si_class_type_info.o)
 .group         0x0000000000000000        0x8 /home/berkeley/nacl_sdk/pepper_42/toolchain/linux_x86_newlib/bin/../lib/gcc/x86_64-nacl/4.4.3/../../../../x86_64-nacl/lib/../lib64/libstdc++.a(si_class_type_info.o)
 .group         0x0000000000000000        0x8 /home/berkeley/nacl_sdk/pepper_42/toolchain/linux_x86_newlib/bin/../lib/gcc/x86_64-nacl/4.4.3/../../../../x86_64-nacl/lib/../lib64/libstdc++.a(si_class_type_info.o)
 .note.GNU-stack
                0x0000000000000000        0x0 /home/berkeley/nacl_sdk/pepper_42/toolchain/linux_x86_newlib/bin/../lib/gcc/x86_64-nacl/4.4.3/../../../../x86_64-nacl/lib/../lib64/libstdc++.a(si_class_type_info.o)
 .note.GNU-stack
                0x0000000000000000        0x0 /home/berkeley/nacl_sdk/pepper_42/toolchain/linux_x86_newlib/bin/../lib/gcc/x86_64-nacl/4.4.3/../../../../x86_64-nacl/lib/../lib64/libstdc++.a(eh_terminate.o)
 .group         0x0000000000000000        0x8 /home/berkeley/nacl_sdk/pepper_42/toolchain/linux_x86_newlib/bin/../lib/gcc/x86_64-nacl/4.4.3/../../../../x86_64-nacl/lib/../lib64/libstdc++.a(class_type_info.o)
 .group         0x0000000000000000        0x8 /home/berkeley/nacl_sdk/pepper_42/toolchain/linux_x86_newlib/bin/../lib/gcc/x86_64-nacl/4.4.3/../../../../x86_64-nacl/lib/../lib64/libstdc++.a(class_type_info.o)
 .group         0x0000000000000000        0x8 /home/berkeley/nacl_sdk/pepper_42/toolchain/linux_x86_newlib/bin/../lib/gcc/x86_64-nacl/4.4.3/../../../../x86_64-nacl/lib/../lib64/libstdc++.a(class_type_info.o)
 .note.GNU-stack
                0x0000000000000000        0x0 /home/berkeley/nacl_sdk/pepper_42/toolchain/linux_x86_newlib/bin/../lib/gcc/x86_64-nacl/4.4.3/../../../../x86_64-nacl/lib/../lib64/libstdc++.a(class_type_info.o)
 .group         0x0000000000000000        0x8 /home/berkeley/nacl_sdk/pepper_42/toolchain/linux_x86_newlib/bin/../lib/gcc/x86_64-nacl/4.4.3/../../../../x86_64-nacl/lib/../lib64/libstdc++.a(eh_alloc.o)
 .group         0x0000000000000000        0x8 /home/berkeley/nacl_sdk/pepper_42/toolchain/linux_x86_newlib/bin/../lib/gcc/x86_64-nacl/4.4.3/../../../../x86_64-nacl/lib/../lib64/libstdc++.a(eh_alloc.o)
 .group         0x0000000000000000        0x8 /home/berkeley/nacl_sdk/pepper_42/toolchain/linux_x86_newlib/bin/../lib/gcc/x86_64-nacl/4.4.3/../../../../x86_64-nacl/lib/../lib64/libstdc++.a(eh_alloc.o)
 .group         0x0000000000000000        0x8 /home/berkeley/nacl_sdk/pepper_42/toolchain/linux_x86_newlib/bin/../lib/gcc/x86_64-nacl/4.4.3/../../../../x86_64-nacl/lib/../lib64/libstdc++.a(eh_alloc.o)
 .group         0x0000000000000000        0x8 /home/berkeley/nacl_sdk/pepper_42/toolchain/linux_x86_newlib/bin/../lib/gcc/x86_64-nacl/4.4.3/../../../../x86_64-nacl/lib/../lib64/libstdc++.a(eh_alloc.o)
 .group         0x0000000000000000        0x8 /home/berkeley/nacl_sdk/pepper_42/toolchain/linux_x86_newlib/bin/../lib/gcc/x86_64-nacl/4.4.3/../../../../x86_64-nacl/lib/../lib64/libstdc++.a(eh_alloc.o)
 .group         0x0000000000000000        0x8 /home/berkeley/nacl_sdk/pepper_42/toolchain/linux_x86_newlib/bin/../lib/gcc/x86_64-nacl/4.4.3/../../../../x86_64-nacl/lib/../lib64/libstdc++.a(eh_alloc.o)
 .group         0x0000000000000000        0x8 /home/berkeley/nacl_sdk/pepper_42/toolchain/linux_x86_newlib/bin/../lib/gcc/x86_64-nacl/4.4.3/../../../../x86_64-nacl/lib/../lib64/libstdc++.a(eh_alloc.o)
 .group         0x0000000000000000        0x8 /home/berkeley/nacl_sdk/pepper_42/toolchain/linux_x86_newlib/bin/../lib/gcc/x86_64-nacl/4.4.3/../../../../x86_64-nacl/lib/../lib64/libstdc++.a(eh_alloc.o)
 .group         0x0000000000000000        0x8 /home/berkeley/nacl_sdk/pepper_42/toolchain/linux_x86_newlib/bin/../lib/gcc/x86_64-nacl/4.4.3/../../../../x86_64-nacl/lib/../lib64/libstdc++.a(eh_alloc.o)
 .group         0x0000000000000000        0x8 /home/berkeley/nacl_sdk/pepper_42/toolchain/linux_x86_newlib/bin/../lib/gcc/x86_64-nacl/4.4.3/../../../../x86_64-nacl/lib/../lib64/libstdc++.a(eh_alloc.o)
 .group         0x0000000000000000        0x8 /home/berkeley/nacl_sdk/pepper_42/toolchain/linux_x86_newlib/bin/../lib/gcc/x86_64-nacl/4.4.3/../../../../x86_64-nacl/lib/../lib64/libstdc++.a(eh_alloc.o)
 .text._ZNK9__gnu_cxx24__concurrence_lock_error4whatEv
                0x0000000000000000       0x20 /home/berkeley/nacl_sdk/pepper_42/toolchain/linux_x86_newlib/bin/../lib/gcc/x86_64-nacl/4.4.3/../../../../x86_64-nacl/lib/../lib64/libstdc++.a(eh_alloc.o)
 .text._ZNK9__gnu_cxx26__concurrence_unlock_error4whatEv
                0x0000000000000000       0x20 /home/berkeley/nacl_sdk/pepper_42/toolchain/linux_x86_newlib/bin/../lib/gcc/x86_64-nacl/4.4.3/../../../../x86_64-nacl/lib/../lib64/libstdc++.a(eh_alloc.o)
 .text._ZN9__gnu_cxx24__concurrence_lock_errorD1Ev
                0x0000000000000000       0x20 /home/berkeley/nacl_sdk/pepper_42/toolchain/linux_x86_newlib/bin/../lib/gcc/x86_64-nacl/4.4.3/../../../../x86_64-nacl/lib/../lib64/libstdc++.a(eh_alloc.o)
 .text._ZN9__gnu_cxx26__concurrence_unlock_errorD1Ev
                0x0000000000000000       0x20 /home/berkeley/nacl_sdk/pepper_42/toolchain/linux_x86_newlib/bin/../lib/gcc/x86_64-nacl/4.4.3/../../../../x86_64-nacl/lib/../lib64/libstdc++.a(eh_alloc.o)
 .text._ZN9__gnu_cxx24__concurrence_lock_errorD0Ev
                0x0000000000000000       0x40 /home/berkeley/nacl_sdk/pepper_42/toolchain/linux_x86_newlib/bin/../lib/gcc/x86_64-nacl/4.4.3/../../../../x86_64-nacl/lib/../lib64/libstdc++.a(eh_alloc.o)
 .text._ZN9__gnu_cxx26__concurrence_unlock_errorD0Ev
                0x0000000000000000       0x40 /home/berkeley/nacl_sdk/pepper_42/toolchain/linux_x86_newlib/bin/../lib/gcc/x86_64-nacl/4.4.3/../../../../x86_64-nacl/lib/../lib64/libstdc++.a(eh_alloc.o)
 .rodata._ZTIN9__gnu_cxx24__concurrence_lock_errorE
                0x0000000000000000        0xc /home/berkeley/nacl_sdk/pepper_42/toolchain/linux_x86_newlib/bin/../lib/gcc/x86_64-nacl/4.4.3/../../../../x86_64-nacl/lib/../lib64/libstdc++.a(eh_alloc.o)
 .rodata._ZTSN9__gnu_cxx24__concurrence_lock_errorE
                0x0000000000000000       0x27 /home/berkeley/nacl_sdk/pepper_42/toolchain/linux_x86_newlib/bin/../lib/gcc/x86_64-nacl/4.4.3/../../../../x86_64-nacl/lib/../lib64/libstdc++.a(eh_alloc.o)
 .rodata._ZTVN9__gnu_cxx24__concurrence_lock_errorE
                0x0000000000000000       0x14 /home/berkeley/nacl_sdk/pepper_42/toolchain/linux_x86_newlib/bin/../lib/gcc/x86_64-nacl/4.4.3/../../../../x86_64-nacl/lib/../lib64/libstdc++.a(eh_alloc.o)
 .rodata._ZTIN9__gnu_cxx26__concurrence_unlock_errorE
                0x0000000000000000        0xc /home/berkeley/nacl_sdk/pepper_42/toolchain/linux_x86_newlib/bin/../lib/gcc/x86_64-nacl/4.4.3/../../../../x86_64-nacl/lib/../lib64/libstdc++.a(eh_alloc.o)
 .rodata._ZTSN9__gnu_cxx26__concurrence_unlock_errorE
                0x0000000000000000       0x29 /home/berkeley/nacl_sdk/pepper_42/toolchain/linux_x86_newlib/bin/../lib/gcc/x86_64-nacl/4.4.3/../../../../x86_64-nacl/lib/../lib64/libstdc++.a(eh_alloc.o)
 .rodata._ZTVN9__gnu_cxx26__concurrence_unlock_errorE
                0x0000000000000000       0x14 /home/berkeley/nacl_sdk/pepper_42/toolchain/linux_x86_newlib/bin/../lib/gcc/x86_64-nacl/4.4.3/../../../../x86_64-nacl/lib/../lib64/libstdc++.a(eh_alloc.o)
 .note.GNU-stack
                0x0000000000000000        0x0 /home/berkeley/nacl_sdk/pepper_42/toolchain/linux_x86_newlib/bin/../lib/gcc/x86_64-nacl/4.4.3/../../../../x86_64-nacl/lib/../lib64/libstdc++.a(eh_alloc.o)
 .note.GNU-stack
                0x0000000000000000        0x0 /home/berkeley/nacl_sdk/pepper_42/toolchain/linux_x86_newlib/bin/../lib/gcc/x86_64-nacl/4.4.3/../../../../x86_64-nacl/lib/../lib64/libstdc++.a(eh_catch.o)
 .group         0x0000000000000000        0x8 /home/berkeley/nacl_sdk/pepper_42/toolchain/linux_x86_newlib/bin/../lib/gcc/x86_64-nacl/4.4.3/../../../../x86_64-nacl/lib/../lib64/libstdc++.a(eh_exception.o)
 .group         0x0000000000000000        0x8 /home/berkeley/nacl_sdk/pepper_42/toolchain/linux_x86_newlib/bin/../lib/gcc/x86_64-nacl/4.4.3/../../../../x86_64-nacl/lib/../lib64/libstdc++.a(eh_exception.o)
 .group         0x0000000000000000        0x8 /home/berkeley/nacl_sdk/pepper_42/toolchain/linux_x86_newlib/bin/../lib/gcc/x86_64-nacl/4.4.3/../../../../x86_64-nacl/lib/../lib64/libstdc++.a(eh_exception.o)
 .group         0x0000000000000000        0x8 /home/berkeley/nacl_sdk/pepper_42/toolchain/linux_x86_newlib/bin/../lib/gcc/x86_64-nacl/4.4.3/../../../../x86_64-nacl/lib/../lib64/libstdc++.a(eh_exception.o)
 .group         0x0000000000000000        0x8 /home/berkeley/nacl_sdk/pepper_42/toolchain/linux_x86_newlib/bin/../lib/gcc/x86_64-nacl/4.4.3/../../../../x86_64-nacl/lib/../lib64/libstdc++.a(eh_exception.o)
 .group         0x0000000000000000        0x8 /home/berkeley/nacl_sdk/pepper_42/toolchain/linux_x86_newlib/bin/../lib/gcc/x86_64-nacl/4.4.3/../../../../x86_64-nacl/lib/../lib64/libstdc++.a(eh_exception.o)
 .group         0x0000000000000000        0x8 /home/berkeley/nacl_sdk/pepper_42/toolchain/linux_x86_newlib/bin/../lib/gcc/x86_64-nacl/4.4.3/../../../../x86_64-nacl/lib/../lib64/libstdc++.a(eh_exception.o)
 .group         0x0000000000000000        0x8 /home/berkeley/nacl_sdk/pepper_42/toolchain/linux_x86_newlib/bin/../lib/gcc/x86_64-nacl/4.4.3/../../../../x86_64-nacl/lib/../lib64/libstdc++.a(eh_exception.o)
 .group         0x0000000000000000        0x8 /home/berkeley/nacl_sdk/pepper_42/toolchain/linux_x86_newlib/bin/../lib/gcc/x86_64-nacl/4.4.3/../../../../x86_64-nacl/lib/../lib64/libstdc++.a(eh_exception.o)
 .group         0x0000000000000000        0x8 /home/berkeley/nacl_sdk/pepper_42/toolchain/linux_x86_newlib/bin/../lib/gcc/x86_64-nacl/4.4.3/../../../../x86_64-nacl/lib/../lib64/libstdc++.a(eh_exception.o)
 .group         0x0000000000000000        0x8 /home/berkeley/nacl_sdk/pepper_42/toolchain/linux_x86_newlib/bin/../lib/gcc/x86_64-nacl/4.4.3/../../../../x86_64-nacl/lib/../lib64/libstdc++.a(eh_exception.o)
 .group         0x0000000000000000        0x8 /home/berkeley/nacl_sdk/pepper_42/toolchain/linux_x86_newlib/bin/../lib/gcc/x86_64-nacl/4.4.3/../../../../x86_64-nacl/lib/../lib64/libstdc++.a(eh_exception.o)
 .note.GNU-stack
                0x0000000000000000        0x0 /home/berkeley/nacl_sdk/pepper_42/toolchain/linux_x86_newlib/bin/../lib/gcc/x86_64-nacl/4.4.3/../../../../x86_64-nacl/lib/../lib64/libstdc++.a(eh_exception.o)
 .note.GNU-stack
                0x0000000000000000        0x0 /home/berkeley/nacl_sdk/pepper_42/toolchain/linux_x86_newlib/bin/../lib/gcc/x86_64-nacl/4.4.3/../../../../x86_64-nacl/lib/../lib64/libstdc++.a(pure.o)
 .note.GNU-stack
                0x0000000000000000        0x0 /home/berkeley/nacl_sdk/pepper_42/toolchain/linux_x86_newlib/bin/../lib/gcc/x86_64-nacl/4.4.3/../../../../x86_64-nacl/lib/../lib64/libstdc++.a(new_op.o)
 .group         0x0000000000000000        0x8 /home/berkeley/nacl_sdk/pepper_42/toolchain/linux_x86_newlib/bin/../lib/gcc/x86_64-nacl/4.4.3/../../../../x86_64-nacl/lib/../lib64/libstdc++.a(tinfo.o)
 .group         0x0000000000000000        0x8 /home/berkeley/nacl_sdk/pepper_42/toolchain/linux_x86_newlib/bin/../lib/gcc/x86_64-nacl/4.4.3/../../../../x86_64-nacl/lib/../lib64/libstdc++.a(tinfo.o)
 .group         0x0000000000000000        0x8 /home/berkeley/nacl_sdk/pepper_42/toolchain/linux_x86_newlib/bin/../lib/gcc/x86_64-nacl/4.4.3/../../../../x86_64-nacl/lib/../lib64/libstdc++.a(tinfo.o)
 .note.GNU-stack
                0x0000000000000000        0x0 /home/berkeley/nacl_sdk/pepper_42/toolchain/linux_x86_newlib/bin/../lib/gcc/x86_64-nacl/4.4.3/../../../../x86_64-nacl/lib/../lib64/libstdc++.a(tinfo.o)
 .group         0x0000000000000000        0x8 /home/berkeley/nacl_sdk/pepper_42/toolchain/linux_x86_newlib/bin/../lib/gcc/x86_64-nacl/4.4.3/../../../../x86_64-nacl/lib/../lib64/libstdc++.a(functexcept.o)
 .group         0x0000000000000000        0x8 /home/berkeley/nacl_sdk/pepper_42/toolchain/linux_x86_newlib/bin/../lib/gcc/x86_64-nacl/4.4.3/../../../../x86_64-nacl/lib/../lib64/libstdc++.a(functexcept.o)
 .group         0x0000000000000000        0x8 /home/berkeley/nacl_sdk/pepper_42/toolchain/linux_x86_newlib/bin/../lib/gcc/x86_64-nacl/4.4.3/../../../../x86_64-nacl/lib/../lib64/libstdc++.a(functexcept.o)
 .group         0x0000000000000000        0x8 /home/berkeley/nacl_sdk/pepper_42/toolchain/linux_x86_newlib/bin/../lib/gcc/x86_64-nacl/4.4.3/../../../../x86_64-nacl/lib/../lib64/libstdc++.a(functexcept.o)
 .group         0x0000000000000000        0x8 /home/berkeley/nacl_sdk/pepper_42/toolchain/linux_x86_newlib/bin/../lib/gcc/x86_64-nacl/4.4.3/../../../../x86_64-nacl/lib/../lib64/libstdc++.a(functexcept.o)
 .group         0x0000000000000000        0x8 /home/berkeley/nacl_sdk/pepper_42/toolchain/linux_x86_newlib/bin/../lib/gcc/x86_64-nacl/4.4.3/../../../../x86_64-nacl/lib/../lib64/libstdc++.a(functexcept.o)
 .group         0x0000000000000000        0x8 /home/berkeley/nacl_sdk/pepper_42/toolchain/linux_x86_newlib/bin/../lib/gcc/x86_64-nacl/4.4.3/../../../../x86_64-nacl/lib/../lib64/libstdc++.a(functexcept.o)
 .group         0x0000000000000000        0x8 /home/berkeley/nacl_sdk/pepper_42/toolchain/linux_x86_newlib/bin/../lib/gcc/x86_64-nacl/4.4.3/../../../../x86_64-nacl/lib/../lib64/libstdc++.a(functexcept.o)
 .group         0x0000000000000000        0x8 /home/berkeley/nacl_sdk/pepper_42/toolchain/linux_x86_newlib/bin/../lib/gcc/x86_64-nacl/4.4.3/../../../../x86_64-nacl/lib/../lib64/libstdc++.a(functexcept.o)
 .group         0x0000000000000000        0x8 /home/berkeley/nacl_sdk/pepper_42/toolchain/linux_x86_newlib/bin/../lib/gcc/x86_64-nacl/4.4.3/../../../../x86_64-nacl/lib/../lib64/libstdc++.a(functexcept.o)
 .group         0x0000000000000000        0x8 /home/berkeley/nacl_sdk/pepper_42/toolchain/linux_x86_newlib/bin/../lib/gcc/x86_64-nacl/4.4.3/../../../../x86_64-nacl/lib/../lib64/libstdc++.a(functexcept.o)
 .group         0x0000000000000000        0x8 /home/berkeley/nacl_sdk/pepper_42/toolchain/linux_x86_newlib/bin/../lib/gcc/x86_64-nacl/4.4.3/../../../../x86_64-nacl/lib/../lib64/libstdc++.a(functexcept.o)
 .group         0x0000000000000000        0x8 /home/berkeley/nacl_sdk/pepper_42/toolchain/linux_x86_newlib/bin/../lib/gcc/x86_64-nacl/4.4.3/../../../../x86_64-nacl/lib/../lib64/libstdc++.a(functexcept.o)
 .group         0x0000000000000000        0x8 /home/berkeley/nacl_sdk/pepper_42/toolchain/linux_x86_newlib/bin/../lib/gcc/x86_64-nacl/4.4.3/../../../../x86_64-nacl/lib/../lib64/libstdc++.a(functexcept.o)
 .group         0x0000000000000000        0x8 /home/berkeley/nacl_sdk/pepper_42/toolchain/linux_x86_newlib/bin/../lib/gcc/x86_64-nacl/4.4.3/../../../../x86_64-nacl/lib/../lib64/libstdc++.a(functexcept.o)
 .group         0x0000000000000000        0x8 /home/berkeley/nacl_sdk/pepper_42/toolchain/linux_x86_newlib/bin/../lib/gcc/x86_64-nacl/4.4.3/../../../../x86_64-nacl/lib/../lib64/libstdc++.a(functexcept.o)
 .group         0x0000000000000000        0x8 /home/berkeley/nacl_sdk/pepper_42/toolchain/linux_x86_newlib/bin/../lib/gcc/x86_64-nacl/4.4.3/../../../../x86_64-nacl/lib/../lib64/libstdc++.a(functexcept.o)
 .group         0x0000000000000000        0x8 /home/berkeley/nacl_sdk/pepper_42/toolchain/linux_x86_newlib/bin/../lib/gcc/x86_64-nacl/4.4.3/../../../../x86_64-nacl/lib/../lib64/libstdc++.a(functexcept.o)
 .group         0x0000000000000000        0x8 /home/berkeley/nacl_sdk/pepper_42/toolchain/linux_x86_newlib/bin/../lib/gcc/x86_64-nacl/4.4.3/../../../../x86_64-nacl/lib/../lib64/libstdc++.a(functexcept.o)
 .group         0x0000000000000000        0x8 /home/berkeley/nacl_sdk/pepper_42/toolchain/linux_x86_newlib/bin/../lib/gcc/x86_64-nacl/4.4.3/../../../../x86_64-nacl/lib/../lib64/libstdc++.a(functexcept.o)
 .group         0x0000000000000000        0x8 /home/berkeley/nacl_sdk/pepper_42/toolchain/linux_x86_newlib/bin/../lib/gcc/x86_64-nacl/4.4.3/../../../../x86_64-nacl/lib/../lib64/libstdc++.a(functexcept.o)
 .group         0x0000000000000000        0x8 /home/berkeley/nacl_sdk/pepper_42/toolchain/linux_x86_newlib/bin/../lib/gcc/x86_64-nacl/4.4.3/../../../../x86_64-nacl/lib/../lib64/libstdc++.a(functexcept.o)
 .group         0x0000000000000000        0x8 /home/berkeley/nacl_sdk/pepper_42/toolchain/linux_x86_newlib/bin/../lib/gcc/x86_64-nacl/4.4.3/../../../../x86_64-nacl/lib/../lib64/libstdc++.a(functexcept.o)
 .group         0x0000000000000000        0x8 /home/berkeley/nacl_sdk/pepper_42/toolchain/linux_x86_newlib/bin/../lib/gcc/x86_64-nacl/4.4.3/../../../../x86_64-nacl/lib/../lib64/libstdc++.a(functexcept.o)
 .group         0x0000000000000000        0x8 /home/berkeley/nacl_sdk/pepper_42/toolchain/linux_x86_newlib/bin/../lib/gcc/x86_64-nacl/4.4.3/../../../../x86_64-nacl/lib/../lib64/libstdc++.a(functexcept.o)
 .group         0x0000000000000000        0x8 /home/berkeley/nacl_sdk/pepper_42/toolchain/linux_x86_newlib/bin/../lib/gcc/x86_64-nacl/4.4.3/../../../../x86_64-nacl/lib/../lib64/libstdc++.a(functexcept.o)
 .group         0x0000000000000000        0x8 /home/berkeley/nacl_sdk/pepper_42/toolchain/linux_x86_newlib/bin/../lib/gcc/x86_64-nacl/4.4.3/../../../../x86_64-nacl/lib/../lib64/libstdc++.a(functexcept.o)
 .group         0x0000000000000000        0x8 /home/berkeley/nacl_sdk/pepper_42/toolchain/linux_x86_newlib/bin/../lib/gcc/x86_64-nacl/4.4.3/../../../../x86_64-nacl/lib/../lib64/libstdc++.a(functexcept.o)
 .group         0x0000000000000000        0x8 /home/berkeley/nacl_sdk/pepper_42/toolchain/linux_x86_newlib/bin/../lib/gcc/x86_64-nacl/4.4.3/../../../../x86_64-nacl/lib/../lib64/libstdc++.a(functexcept.o)
 .group         0x0000000000000000        0x8 /home/berkeley/nacl_sdk/pepper_42/toolchain/linux_x86_newlib/bin/../lib/gcc/x86_64-nacl/4.4.3/../../../../x86_64-nacl/lib/../lib64/libstdc++.a(functexcept.o)
 .group         0x0000000000000000        0x8 /home/berkeley/nacl_sdk/pepper_42/toolchain/linux_x86_newlib/bin/../lib/gcc/x86_64-nacl/4.4.3/../../../../x86_64-nacl/lib/../lib64/libstdc++.a(functexcept.o)
 .group         0x0000000000000000        0x8 /home/berkeley/nacl_sdk/pepper_42/toolchain/linux_x86_newlib/bin/../lib/gcc/x86_64-nacl/4.4.3/../../../../x86_64-nacl/lib/../lib64/libstdc++.a(functexcept.o)
 .group         0x0000000000000000        0x8 /home/berkeley/nacl_sdk/pepper_42/toolchain/linux_x86_newlib/bin/../lib/gcc/x86_64-nacl/4.4.3/../../../../x86_64-nacl/lib/../lib64/libstdc++.a(functexcept.o)
 .group         0x0000000000000000        0x8 /home/berkeley/nacl_sdk/pepper_42/toolchain/linux_x86_newlib/bin/../lib/gcc/x86_64-nacl/4.4.3/../../../../x86_64-nacl/lib/../lib64/libstdc++.a(functexcept.o)
 .group         0x0000000000000000        0x8 /home/berkeley/nacl_sdk/pepper_42/toolchain/linux_x86_newlib/bin/../lib/gcc/x86_64-nacl/4.4.3/../../../../x86_64-nacl/lib/../lib64/libstdc++.a(functexcept.o)
 .note.GNU-stack
                0x0000000000000000        0x0 /home/berkeley/nacl_sdk/pepper_42/toolchain/linux_x86_newlib/bin/../lib/gcc/x86_64-nacl/4.4.3/../../../../x86_64-nacl/lib/../lib64/libstdc++.a(functexcept.o)
 .group         0x0000000000000000        0x8 /home/berkeley/nacl_sdk/pepper_42/toolchain/linux_x86_newlib/bin/../lib/gcc/x86_64-nacl/4.4.3/../../../../x86_64-nacl/lib/../lib64/libstdc++.a(ios_failure.o)
 .group         0x0000000000000000        0x8 /home/berkeley/nacl_sdk/pepper_42/toolchain/linux_x86_newlib/bin/../lib/gcc/x86_64-nacl/4.4.3/../../../../x86_64-nacl/lib/../lib64/libstdc++.a(ios_failure.o)
 .group         0x0000000000000000        0x8 /home/berkeley/nacl_sdk/pepper_42/toolchain/linux_x86_newlib/bin/../lib/gcc/x86_64-nacl/4.4.3/../../../../x86_64-nacl/lib/../lib64/libstdc++.a(ios_failure.o)
 .note.GNU-stack
                0x0000000000000000        0x0 /home/berkeley/nacl_sdk/pepper_42/toolchain/linux_x86_newlib/bin/../lib/gcc/x86_64-nacl/4.4.3/../../../../x86_64-nacl/lib/../lib64/libstdc++.a(ios_failure.o)
 .group         0x0000000000000000        0x8 /home/berkeley/nacl_sdk/pepper_42/toolchain/linux_x86_newlib/bin/../lib/gcc/x86_64-nacl/4.4.3/../../../../x86_64-nacl/lib/../lib64/libstdc++.a(stdexcept.o)
 .group         0x0000000000000000        0x8 /home/berkeley/nacl_sdk/pepper_42/toolchain/linux_x86_newlib/bin/../lib/gcc/x86_64-nacl/4.4.3/../../../../x86_64-nacl/lib/../lib64/libstdc++.a(stdexcept.o)
 .group         0x0000000000000000        0x8 /home/berkeley/nacl_sdk/pepper_42/toolchain/linux_x86_newlib/bin/../lib/gcc/x86_64-nacl/4.4.3/../../../../x86_64-nacl/lib/../lib64/libstdc++.a(stdexcept.o)
 .group         0x0000000000000000        0x8 /home/berkeley/nacl_sdk/pepper_42/toolchain/linux_x86_newlib/bin/../lib/gcc/x86_64-nacl/4.4.3/../../../../x86_64-nacl/lib/../lib64/libstdc++.a(stdexcept.o)
 .group         0x0000000000000000        0x8 /home/berkeley/nacl_sdk/pepper_42/toolchain/linux_x86_newlib/bin/../lib/gcc/x86_64-nacl/4.4.3/../../../../x86_64-nacl/lib/../lib64/libstdc++.a(stdexcept.o)
 .group         0x0000000000000000        0x8 /home/berkeley/nacl_sdk/pepper_42/toolchain/linux_x86_newlib/bin/../lib/gcc/x86_64-nacl/4.4.3/../../../../x86_64-nacl/lib/../lib64/libstdc++.a(stdexcept.o)
 .group         0x0000000000000000        0x8 /home/berkeley/nacl_sdk/pepper_42/toolchain/linux_x86_newlib/bin/../lib/gcc/x86_64-nacl/4.4.3/../../../../x86_64-nacl/lib/../lib64/libstdc++.a(stdexcept.o)
 .group         0x0000000000000000        0x8 /home/berkeley/nacl_sdk/pepper_42/toolchain/linux_x86_newlib/bin/../lib/gcc/x86_64-nacl/4.4.3/../../../../x86_64-nacl/lib/../lib64/libstdc++.a(stdexcept.o)
 .group         0x0000000000000000        0x8 /home/berkeley/nacl_sdk/pepper_42/toolchain/linux_x86_newlib/bin/../lib/gcc/x86_64-nacl/4.4.3/../../../../x86_64-nacl/lib/../lib64/libstdc++.a(stdexcept.o)
 .group         0x0000000000000000        0x8 /home/berkeley/nacl_sdk/pepper_42/toolchain/linux_x86_newlib/bin/../lib/gcc/x86_64-nacl/4.4.3/../../../../x86_64-nacl/lib/../lib64/libstdc++.a(stdexcept.o)
 .group         0x0000000000000000        0x8 /home/berkeley/nacl_sdk/pepper_42/toolchain/linux_x86_newlib/bin/../lib/gcc/x86_64-nacl/4.4.3/../../../../x86_64-nacl/lib/../lib64/libstdc++.a(stdexcept.o)
 .group         0x0000000000000000        0x8 /home/berkeley/nacl_sdk/pepper_42/toolchain/linux_x86_newlib/bin/../lib/gcc/x86_64-nacl/4.4.3/../../../../x86_64-nacl/lib/../lib64/libstdc++.a(stdexcept.o)
 .group         0x0000000000000000        0x8 /home/berkeley/nacl_sdk/pepper_42/toolchain/linux_x86_newlib/bin/../lib/gcc/x86_64-nacl/4.4.3/../../../../x86_64-nacl/lib/../lib64/libstdc++.a(stdexcept.o)
 .group         0x0000000000000000        0x8 /home/berkeley/nacl_sdk/pepper_42/toolchain/linux_x86_newlib/bin/../lib/gcc/x86_64-nacl/4.4.3/../../../../x86_64-nacl/lib/../lib64/libstdc++.a(stdexcept.o)
 .group         0x0000000000000000        0x8 /home/berkeley/nacl_sdk/pepper_42/toolchain/linux_x86_newlib/bin/../lib/gcc/x86_64-nacl/4.4.3/../../../../x86_64-nacl/lib/../lib64/libstdc++.a(stdexcept.o)
 .group         0x0000000000000000        0x8 /home/berkeley/nacl_sdk/pepper_42/toolchain/linux_x86_newlib/bin/../lib/gcc/x86_64-nacl/4.4.3/../../../../x86_64-nacl/lib/../lib64/libstdc++.a(stdexcept.o)
 .group         0x0000000000000000        0x8 /home/berkeley/nacl_sdk/pepper_42/toolchain/linux_x86_newlib/bin/../lib/gcc/x86_64-nacl/4.4.3/../../../../x86_64-nacl/lib/../lib64/libstdc++.a(stdexcept.o)
 .group         0x0000000000000000        0x8 /home/berkeley/nacl_sdk/pepper_42/toolchain/linux_x86_newlib/bin/../lib/gcc/x86_64-nacl/4.4.3/../../../../x86_64-nacl/lib/../lib64/libstdc++.a(stdexcept.o)
 .group         0x0000000000000000        0x8 /home/berkeley/nacl_sdk/pepper_42/toolchain/linux_x86_newlib/bin/../lib/gcc/x86_64-nacl/4.4.3/../../../../x86_64-nacl/lib/../lib64/libstdc++.a(stdexcept.o)
 .group         0x0000000000000000        0x8 /home/berkeley/nacl_sdk/pepper_42/toolchain/linux_x86_newlib/bin/../lib/gcc/x86_64-nacl/4.4.3/../../../../x86_64-nacl/lib/../lib64/libstdc++.a(stdexcept.o)
 .group         0x0000000000000000        0x8 /home/berkeley/nacl_sdk/pepper_42/toolchain/linux_x86_newlib/bin/../lib/gcc/x86_64-nacl/4.4.3/../../../../x86_64-nacl/lib/../lib64/libstdc++.a(stdexcept.o)
 .group         0x0000000000000000        0x8 /home/berkeley/nacl_sdk/pepper_42/toolchain/linux_x86_newlib/bin/../lib/gcc/x86_64-nacl/4.4.3/../../../../x86_64-nacl/lib/../lib64/libstdc++.a(stdexcept.o)
 .group         0x0000000000000000        0x8 /home/berkeley/nacl_sdk/pepper_42/toolchain/linux_x86_newlib/bin/../lib/gcc/x86_64-nacl/4.4.3/../../../../x86_64-nacl/lib/../lib64/libstdc++.a(stdexcept.o)
 .group         0x0000000000000000        0x8 /home/berkeley/nacl_sdk/pepper_42/toolchain/linux_x86_newlib/bin/../lib/gcc/x86_64-nacl/4.4.3/../../../../x86_64-nacl/lib/../lib64/libstdc++.a(stdexcept.o)
 .group         0x0000000000000000        0x8 /home/berkeley/nacl_sdk/pepper_42/toolchain/linux_x86_newlib/bin/../lib/gcc/x86_64-nacl/4.4.3/../../../../x86_64-nacl/lib/../lib64/libstdc++.a(stdexcept.o)
 .group         0x0000000000000000        0x8 /home/berkeley/nacl_sdk/pepper_42/toolchain/linux_x86_newlib/bin/../lib/gcc/x86_64-nacl/4.4.3/../../../../x86_64-nacl/lib/../lib64/libstdc++.a(stdexcept.o)
 .group         0x0000000000000000        0x8 /home/berkeley/nacl_sdk/pepper_42/toolchain/linux_x86_newlib/bin/../lib/gcc/x86_64-nacl/4.4.3/../../../../x86_64-nacl/lib/../lib64/libstdc++.a(stdexcept.o)
 .group         0x0000000000000000        0x8 /home/berkeley/nacl_sdk/pepper_42/toolchain/linux_x86_newlib/bin/../lib/gcc/x86_64-nacl/4.4.3/../../../../x86_64-nacl/lib/../lib64/libstdc++.a(stdexcept.o)
 .group         0x0000000000000000        0x8 /home/berkeley/nacl_sdk/pepper_42/toolchain/linux_x86_newlib/bin/../lib/gcc/x86_64-nacl/4.4.3/../../../../x86_64-nacl/lib/../lib64/libstdc++.a(stdexcept.o)
 .group         0x0000000000000000        0x8 /home/berkeley/nacl_sdk/pepper_42/toolchain/linux_x86_newlib/bin/../lib/gcc/x86_64-nacl/4.4.3/../../../../x86_64-nacl/lib/../lib64/libstdc++.a(stdexcept.o)
 .group         0x0000000000000000        0x8 /home/berkeley/nacl_sdk/pepper_42/toolchain/linux_x86_newlib/bin/../lib/gcc/x86_64-nacl/4.4.3/../../../../x86_64-nacl/lib/../lib64/libstdc++.a(stdexcept.o)
 .group         0x0000000000000000        0x8 /home/berkeley/nacl_sdk/pepper_42/toolchain/linux_x86_newlib/bin/../lib/gcc/x86_64-nacl/4.4.3/../../../../x86_64-nacl/lib/../lib64/libstdc++.a(stdexcept.o)
 .group         0x0000000000000000        0x8 /home/berkeley/nacl_sdk/pepper_42/toolchain/linux_x86_newlib/bin/../lib/gcc/x86_64-nacl/4.4.3/../../../../x86_64-nacl/lib/../lib64/libstdc++.a(stdexcept.o)
 .group         0x0000000000000000        0x8 /home/berkeley/nacl_sdk/pepper_42/toolchain/linux_x86_newlib/bin/../lib/gcc/x86_64-nacl/4.4.3/../../../../x86_64-nacl/lib/../lib64/libstdc++.a(stdexcept.o)
 .group         0x0000000000000000        0x8 /home/berkeley/nacl_sdk/pepper_42/toolchain/linux_x86_newlib/bin/../lib/gcc/x86_64-nacl/4.4.3/../../../../x86_64-nacl/lib/../lib64/libstdc++.a(stdexcept.o)
 .group         0x0000000000000000        0x8 /home/berkeley/nacl_sdk/pepper_42/toolchain/linux_x86_newlib/bin/../lib/gcc/x86_64-nacl/4.4.3/../../../../x86_64-nacl/lib/../lib64/libstdc++.a(stdexcept.o)
 .group         0x0000000000000000        0x8 /home/berkeley/nacl_sdk/pepper_42/toolchain/linux_x86_newlib/bin/../lib/gcc/x86_64-nacl/4.4.3/../../../../x86_64-nacl/lib/../lib64/libstdc++.a(stdexcept.o)
 .group         0x0000000000000000        0x8 /home/berkeley/nacl_sdk/pepper_42/toolchain/linux_x86_newlib/bin/../lib/gcc/x86_64-nacl/4.4.3/../../../../x86_64-nacl/lib/../lib64/libstdc++.a(stdexcept.o)
 .group         0x0000000000000000        0x8 /home/berkeley/nacl_sdk/pepper_42/toolchain/linux_x86_newlib/bin/../lib/gcc/x86_64-nacl/4.4.3/../../../../x86_64-nacl/lib/../lib64/libstdc++.a(stdexcept.o)
 .group         0x0000000000000000        0x8 /home/berkeley/nacl_sdk/pepper_42/toolchain/linux_x86_newlib/bin/../lib/gcc/x86_64-nacl/4.4.3/../../../../x86_64-nacl/lib/../lib64/libstdc++.a(stdexcept.o)
 .group         0x0000000000000000        0x8 /home/berkeley/nacl_sdk/pepper_42/toolchain/linux_x86_newlib/bin/../lib/gcc/x86_64-nacl/4.4.3/../../../../x86_64-nacl/lib/../lib64/libstdc++.a(stdexcept.o)
 .text._ZNSt12out_of_rangeD0Ev
                0x0000000000000000       0x40 /home/berkeley/nacl_sdk/pepper_42/toolchain/linux_x86_newlib/bin/../lib/gcc/x86_64-nacl/4.4.3/../../../../x86_64-nacl/lib/../lib64/libstdc++.a(stdexcept.o)
 .text._ZNSt12out_of_rangeD1Ev
                0x0000000000000000       0x20 /home/berkeley/nacl_sdk/pepper_42/toolchain/linux_x86_newlib/bin/../lib/gcc/x86_64-nacl/4.4.3/../../../../x86_64-nacl/lib/../lib64/libstdc++.a(stdexcept.o)
 .text._ZNSt12length_errorD0Ev
                0x0000000000000000       0x40 /home/berkeley/nacl_sdk/pepper_42/toolchain/linux_x86_newlib/bin/../lib/gcc/x86_64-nacl/4.4.3/../../../../x86_64-nacl/lib/../lib64/libstdc++.a(stdexcept.o)
 .text._ZNSt12length_errorD1Ev
                0x0000000000000000       0x20 /home/berkeley/nacl_sdk/pepper_42/toolchain/linux_x86_newlib/bin/../lib/gcc/x86_64-nacl/4.4.3/../../../../x86_64-nacl/lib/../lib64/libstdc++.a(stdexcept.o)
 .text._ZNSt16invalid_argumentD0Ev
                0x0000000000000000       0x40 /home/berkeley/nacl_sdk/pepper_42/toolchain/linux_x86_newlib/bin/../lib/gcc/x86_64-nacl/4.4.3/../../../../x86_64-nacl/lib/../lib64/libstdc++.a(stdexcept.o)
 .text._ZNSt16invalid_argumentD1Ev
                0x0000000000000000       0x20 /home/berkeley/nacl_sdk/pepper_42/toolchain/linux_x86_newlib/bin/../lib/gcc/x86_64-nacl/4.4.3/../../../../x86_64-nacl/lib/../lib64/libstdc++.a(stdexcept.o)
 .text._ZNSt12domain_errorD0Ev
                0x0000000000000000       0x40 /home/berkeley/nacl_sdk/pepper_42/toolchain/linux_x86_newlib/bin/../lib/gcc/x86_64-nacl/4.4.3/../../../../x86_64-nacl/lib/../lib64/libstdc++.a(stdexcept.o)
 .text._ZNSt12domain_errorD1Ev
                0x0000000000000000       0x20 /home/berkeley/nacl_sdk/pepper_42/toolchain/linux_x86_newlib/bin/../lib/gcc/x86_64-nacl/4.4.3/../../../../x86_64-nacl/lib/../lib64/libstdc++.a(stdexcept.o)
 .text._ZNSt15underflow_errorD0Ev
                0x0000000000000000       0x40 /home/berkeley/nacl_sdk/pepper_42/toolchain/linux_x86_newlib/bin/../lib/gcc/x86_64-nacl/4.4.3/../../../../x86_64-nacl/lib/../lib64/libstdc++.a(stdexcept.o)
 .text._ZNSt15underflow_errorD1Ev
                0x0000000000000000       0x20 /home/berkeley/nacl_sdk/pepper_42/toolchain/linux_x86_newlib/bin/../lib/gcc/x86_64-nacl/4.4.3/../../../../x86_64-nacl/lib/../lib64/libstdc++.a(stdexcept.o)
 .text._ZNSt14overflow_errorD0Ev
                0x0000000000000000       0x40 /home/berkeley/nacl_sdk/pepper_42/toolchain/linux_x86_newlib/bin/../lib/gcc/x86_64-nacl/4.4.3/../../../../x86_64-nacl/lib/../lib64/libstdc++.a(stdexcept.o)
 .text._ZNSt14overflow_errorD1Ev
                0x0000000000000000       0x20 /home/berkeley/nacl_sdk/pepper_42/toolchain/linux_x86_newlib/bin/../lib/gcc/x86_64-nacl/4.4.3/../../../../x86_64-nacl/lib/../lib64/libstdc++.a(stdexcept.o)
 .text._ZNSt11range_errorD0Ev
                0x0000000000000000       0x40 /home/berkeley/nacl_sdk/pepper_42/toolchain/linux_x86_newlib/bin/../lib/gcc/x86_64-nacl/4.4.3/../../../../x86_64-nacl/lib/../lib64/libstdc++.a(stdexcept.o)
 .text._ZNSt11range_errorD1Ev
                0x0000000000000000       0x20 /home/berkeley/nacl_sdk/pepper_42/toolchain/linux_x86_newlib/bin/../lib/gcc/x86_64-nacl/4.4.3/../../../../x86_64-nacl/lib/../lib64/libstdc++.a(stdexcept.o)
 .rodata._ZTVSt15underflow_error
                0x0000000000000000       0x14 /home/berkeley/nacl_sdk/pepper_42/toolchain/linux_x86_newlib/bin/../lib/gcc/x86_64-nacl/4.4.3/../../../../x86_64-nacl/lib/../lib64/libstdc++.a(stdexcept.o)
 .rodata._ZTISt15underflow_error
                0x0000000000000000        0xc /home/berkeley/nacl_sdk/pepper_42/toolchain/linux_x86_newlib/bin/../lib/gcc/x86_64-nacl/4.4.3/../../../../x86_64-nacl/lib/../lib64/libstdc++.a(stdexcept.o)
 .rodata._ZTSSt15underflow_error
                0x0000000000000000       0x14 /home/berkeley/nacl_sdk/pepper_42/toolchain/linux_x86_newlib/bin/../lib/gcc/x86_64-nacl/4.4.3/../../../../x86_64-nacl/lib/../lib64/libstdc++.a(stdexcept.o)
 .rodata._ZTVSt14overflow_error
                0x0000000000000000       0x14 /home/berkeley/nacl_sdk/pepper_42/toolchain/linux_x86_newlib/bin/../lib/gcc/x86_64-nacl/4.4.3/../../../../x86_64-nacl/lib/../lib64/libstdc++.a(stdexcept.o)
 .rodata._ZTISt14overflow_error
                0x0000000000000000        0xc /home/berkeley/nacl_sdk/pepper_42/toolchain/linux_x86_newlib/bin/../lib/gcc/x86_64-nacl/4.4.3/../../../../x86_64-nacl/lib/../lib64/libstdc++.a(stdexcept.o)
 .rodata._ZTSSt14overflow_error
                0x0000000000000000       0x13 /home/berkeley/nacl_sdk/pepper_42/toolchain/linux_x86_newlib/bin/../lib/gcc/x86_64-nacl/4.4.3/../../../../x86_64-nacl/lib/../lib64/libstdc++.a(stdexcept.o)
 .rodata._ZTVSt11range_error
                0x0000000000000000       0x14 /home/berkeley/nacl_sdk/pepper_42/toolchain/linux_x86_newlib/bin/../lib/gcc/x86_64-nacl/4.4.3/../../../../x86_64-nacl/lib/../lib64/libstdc++.a(stdexcept.o)
 .rodata._ZTISt11range_error
                0x0000000000000000        0xc /home/berkeley/nacl_sdk/pepper_42/toolchain/linux_x86_newlib/bin/../lib/gcc/x86_64-nacl/4.4.3/../../../../x86_64-nacl/lib/../lib64/libstdc++.a(stdexcept.o)
 .rodata._ZTSSt11range_error
                0x0000000000000000       0x10 /home/berkeley/nacl_sdk/pepper_42/toolchain/linux_x86_newlib/bin/../lib/gcc/x86_64-nacl/4.4.3/../../../../x86_64-nacl/lib/../lib64/libstdc++.a(stdexcept.o)
 .rodata._ZTVSt12out_of_range
                0x0000000000000000       0x14 /home/berkeley/nacl_sdk/pepper_42/toolchain/linux_x86_newlib/bin/../lib/gcc/x86_64-nacl/4.4.3/../../../../x86_64-nacl/lib/../lib64/libstdc++.a(stdexcept.o)
 .rodata._ZTISt12out_of_range
                0x0000000000000000        0xc /home/berkeley/nacl_sdk/pepper_42/toolchain/linux_x86_newlib/bin/../lib/gcc/x86_64-nacl/4.4.3/../../../../x86_64-nacl/lib/../lib64/libstdc++.a(stdexcept.o)
 .rodata._ZTSSt12out_of_range
                0x0000000000000000       0x11 /home/berkeley/nacl_sdk/pepper_42/toolchain/linux_x86_newlib/bin/../lib/gcc/x86_64-nacl/4.4.3/../../../../x86_64-nacl/lib/../lib64/libstdc++.a(stdexcept.o)
 .rodata._ZTVSt12length_error
                0x0000000000000000       0x14 /home/berkeley/nacl_sdk/pepper_42/toolchain/linux_x86_newlib/bin/../lib/gcc/x86_64-nacl/4.4.3/../../../../x86_64-nacl/lib/../lib64/libstdc++.a(stdexcept.o)
 .rodata._ZTISt12length_error
                0x0000000000000000        0xc /home/berkeley/nacl_sdk/pepper_42/toolchain/linux_x86_newlib/bin/../lib/gcc/x86_64-nacl/4.4.3/../../../../x86_64-nacl/lib/../lib64/libstdc++.a(stdexcept.o)
 .rodata._ZTSSt12length_error
                0x0000000000000000       0x11 /home/berkeley/nacl_sdk/pepper_42/toolchain/linux_x86_newlib/bin/../lib/gcc/x86_64-nacl/4.4.3/../../../../x86_64-nacl/lib/../lib64/libstdc++.a(stdexcept.o)
 .rodata._ZTVSt16invalid_argument
                0x0000000000000000       0x14 /home/berkeley/nacl_sdk/pepper_42/toolchain/linux_x86_newlib/bin/../lib/gcc/x86_64-nacl/4.4.3/../../../../x86_64-nacl/lib/../lib64/libstdc++.a(stdexcept.o)
 .rodata._ZTISt16invalid_argument
                0x0000000000000000        0xc /home/berkeley/nacl_sdk/pepper_42/toolchain/linux_x86_newlib/bin/../lib/gcc/x86_64-nacl/4.4.3/../../../../x86_64-nacl/lib/../lib64/libstdc++.a(stdexcept.o)
 .rodata._ZTSSt16invalid_argument
                0x0000000000000000       0x15 /home/berkeley/nacl_sdk/pepper_42/toolchain/linux_x86_newlib/bin/../lib/gcc/x86_64-nacl/4.4.3/../../../../x86_64-nacl/lib/../lib64/libstdc++.a(stdexcept.o)
 .rodata._ZTVSt12domain_error
                0x0000000000000000       0x14 /home/berkeley/nacl_sdk/pepper_42/toolchain/linux_x86_newlib/bin/../lib/gcc/x86_64-nacl/4.4.3/../../../../x86_64-nacl/lib/../lib64/libstdc++.a(stdexcept.o)
 .rodata._ZTISt12domain_error
                0x0000000000000000        0xc /home/berkeley/nacl_sdk/pepper_42/toolchain/linux_x86_newlib/bin/../lib/gcc/x86_64-nacl/4.4.3/../../../../x86_64-nacl/lib/../lib64/libstdc++.a(stdexcept.o)
 .rodata._ZTSSt12domain_error
                0x0000000000000000       0x11 /home/berkeley/nacl_sdk/pepper_42/toolchain/linux_x86_newlib/bin/../lib/gcc/x86_64-nacl/4.4.3/../../../../x86_64-nacl/lib/../lib64/libstdc++.a(stdexcept.o)
 .note.GNU-stack
                0x0000000000000000        0x0 /home/berkeley/nacl_sdk/pepper_42/toolchain/linux_x86_newlib/bin/../lib/gcc/x86_64-nacl/4.4.3/../../../../x86_64-nacl/lib/../lib64/libstdc++.a(stdexcept.o)
 .group         0x0000000000000000        0x8 /home/berkeley/nacl_sdk/pepper_42/toolchain/linux_x86_newlib/bin/../lib/gcc/x86_64-nacl/4.4.3/../../../../x86_64-nacl/lib/../lib64/libstdc++.a(system_error.o)
 .group         0x0000000000000000        0x8 /home/berkeley/nacl_sdk/pepper_42/toolchain/linux_x86_newlib/bin/../lib/gcc/x86_64-nacl/4.4.3/../../../../x86_64-nacl/lib/../lib64/libstdc++.a(system_error.o)
 .group         0x0000000000000000        0x8 /home/berkeley/nacl_sdk/pepper_42/toolchain/linux_x86_newlib/bin/../lib/gcc/x86_64-nacl/4.4.3/../../../../x86_64-nacl/lib/../lib64/libstdc++.a(system_error.o)
 .group         0x0000000000000000        0x8 /home/berkeley/nacl_sdk/pepper_42/toolchain/linux_x86_newlib/bin/../lib/gcc/x86_64-nacl/4.4.3/../../../../x86_64-nacl/lib/../lib64/libstdc++.a(system_error.o)
 .group         0x0000000000000000        0x8 /home/berkeley/nacl_sdk/pepper_42/toolchain/linux_x86_newlib/bin/../lib/gcc/x86_64-nacl/4.4.3/../../../../x86_64-nacl/lib/../lib64/libstdc++.a(system_error.o)
 .group         0x0000000000000000        0x8 /home/berkeley/nacl_sdk/pepper_42/toolchain/linux_x86_newlib/bin/../lib/gcc/x86_64-nacl/4.4.3/../../../../x86_64-nacl/lib/../lib64/libstdc++.a(system_error.o)
 .group         0x0000000000000000        0x8 /home/berkeley/nacl_sdk/pepper_42/toolchain/linux_x86_newlib/bin/../lib/gcc/x86_64-nacl/4.4.3/../../../../x86_64-nacl/lib/../lib64/libstdc++.a(system_error.o)
 .group         0x0000000000000000        0x8 /home/berkeley/nacl_sdk/pepper_42/toolchain/linux_x86_newlib/bin/../lib/gcc/x86_64-nacl/4.4.3/../../../../x86_64-nacl/lib/../lib64/libstdc++.a(system_error.o)
 .note.GNU-stack
                0x0000000000000000        0x0 /home/berkeley/nacl_sdk/pepper_42/toolchain/linux_x86_newlib/bin/../lib/gcc/x86_64-nacl/4.4.3/../../../../x86_64-nacl/lib/../lib64/libstdc++.a(system_error.o)
 .note.GNU-stack
                0x0000000000000000        0x0 /home/berkeley/nacl_sdk/pepper_42/toolchain/linux_x86_newlib/bin/../lib/gcc/x86_64-nacl/4.4.3/../../../../x86_64-nacl/lib/../lib64/libstdc++.a(eh_unex_handler.o)
 .note.GNU-stack
                0x0000000000000000        0x0 /home/berkeley/nacl_sdk/pepper_42/toolchain/linux_x86_newlib/bin/../lib/gcc/x86_64-nacl/4.4.3/../../../../x86_64-nacl/lib/../lib64/libstdc++.a(eh_term_handler.o)
 .group         0x0000000000000000        0x8 /home/berkeley/nacl_sdk/pepper_42/toolchain/linux_x86_newlib/bin/../lib/gcc/x86_64-nacl/4.4.3/../../../../x86_64-nacl/lib/../lib64/libstdc++.a(bad_typeid.o)
 .group         0x0000000000000000        0x8 /home/berkeley/nacl_sdk/pepper_42/toolchain/linux_x86_newlib/bin/../lib/gcc/x86_64-nacl/4.4.3/../../../../x86_64-nacl/lib/../lib64/libstdc++.a(bad_typeid.o)
 .group         0x0000000000000000        0x8 /home/berkeley/nacl_sdk/pepper_42/toolchain/linux_x86_newlib/bin/../lib/gcc/x86_64-nacl/4.4.3/../../../../x86_64-nacl/lib/../lib64/libstdc++.a(bad_typeid.o)
 .note.GNU-stack
                0x0000000000000000        0x0 /home/berkeley/nacl_sdk/pepper_42/toolchain/linux_x86_newlib/bin/../lib/gcc/x86_64-nacl/4.4.3/../../../../x86_64-nacl/lib/../lib64/libstdc++.a(bad_typeid.o)
 .group         0x0000000000000000        0x8 /home/berkeley/nacl_sdk/pepper_42/toolchain/linux_x86_newlib/bin/../lib/gcc/x86_64-nacl/4.4.3/../../../../x86_64-nacl/lib/../lib64/libstdc++.a(new_handler.o)
 .group         0x0000000000000000        0x8 /home/berkeley/nacl_sdk/pepper_42/toolchain/linux_x86_newlib/bin/../lib/gcc/x86_64-nacl/4.4.3/../../../../x86_64-nacl/lib/../lib64/libstdc++.a(new_handler.o)
 .group         0x0000000000000000        0x8 /home/berkeley/nacl_sdk/pepper_42/toolchain/linux_x86_newlib/bin/../lib/gcc/x86_64-nacl/4.4.3/../../../../x86_64-nacl/lib/../lib64/libstdc++.a(new_handler.o)
 .note.GNU-stack
                0x0000000000000000        0x0 /home/berkeley/nacl_sdk/pepper_42/toolchain/linux_x86_newlib/bin/../lib/gcc/x86_64-nacl/4.4.3/../../../../x86_64-nacl/lib/../lib64/libstdc++.a(new_handler.o)
 .group         0x0000000000000000        0x8 /home/berkeley/nacl_sdk/pepper_42/toolchain/linux_x86_newlib/bin/../lib/gcc/x86_64-nacl/4.4.3/../../../../x86_64-nacl/lib/../lib64/libstdc++.a(bad_cast.o)
 .group         0x0000000000000000        0x8 /home/berkeley/nacl_sdk/pepper_42/toolchain/linux_x86_newlib/bin/../lib/gcc/x86_64-nacl/4.4.3/../../../../x86_64-nacl/lib/../lib64/libstdc++.a(bad_cast.o)
 .group         0x0000000000000000        0x8 /home/berkeley/nacl_sdk/pepper_42/toolchain/linux_x86_newlib/bin/../lib/gcc/x86_64-nacl/4.4.3/../../../../x86_64-nacl/lib/../lib64/libstdc++.a(bad_cast.o)
 .note.GNU-stack
                0x0000000000000000        0x0 /home/berkeley/nacl_sdk/pepper_42/toolchain/linux_x86_newlib/bin/../lib/gcc/x86_64-nacl/4.4.3/../../../../x86_64-nacl/lib/../lib64/libstdc++.a(bad_cast.o)
 .note.GNU-stack
                0x0000000000000000        0x0 /home/berkeley/nacl_sdk/pepper_42/toolchain/linux_x86_newlib/bin/../lib/gcc/x86_64-nacl/4.4.3/../../../../x86_64-nacl/lib/../lib64/libstdc++.a(vterminate.o)
 .note.GNU-stack
                0x0000000000000000        0x0 /home/berkeley/nacl_sdk/pepper_42/toolchain/linux_x86_newlib/bin/../lib/gcc/x86_64-nacl/4.4.3/../../../../x86_64-nacl/lib/../lib64/libstdc++.a(cp-demangle.o)
 .note.GNU-stack
                0x0000000000000000        0x0 /home/berkeley/nacl_sdk/pepper_42/toolchain/linux_x86_newlib/bin/../lib/gcc/x86_64-nacl/4.4.3/../../../../x86_64-nacl/lib/../lib64/libstdc++.a(eh_type.o)
 .note.GNU-stack
                0x0000000000000000        0x0 /home/berkeley/nacl_sdk/pepper_42/toolchain/linux_x86_newlib/bin/../lib/gcc/x86_64-nacl/4.4.3/libgcc.a(unwind-dw2.o)
 .note.GNU-stack
                0x0000000000000000        0x0 /home/berkeley/nacl_sdk/pepper_42/toolchain/linux_x86_newlib/bin/../lib/gcc/x86_64-nacl/4.4.3/libgcc.a(unwind-dw2-fde-glibc.o)
 .note.GNU-stack
                0x0000000000000000        0x0 /home/berkeley/nacl_sdk/pepper_42/toolchain/linux_x86_newlib/bin/../lib/gcc/x86_64-nacl/4.4.3/../../../../x86_64-nacl/lib/../lib64/libnacl.a(_exit_710c7d0d.o)
 .note.GNU-stack
                0x0000000000000000        0x0 /home/berkeley/nacl_sdk/pepper_42/toolchain/linux_x86_newlib/bin/../lib/gcc/x86_64-nacl/4.4.3/../../../../x86_64-nacl/lib/../lib64/libnacl.a(abort_9f6b5845.o)
 .note.GNU-stack
                0x0000000000000000        0x0 /home/berkeley/nacl_sdk/pepper_42/toolchain/linux_x86_newlib/bin/../lib/gcc/x86_64-nacl/4.4.3/../../../../x86_64-nacl/lib/../lib64/libnacl.a(environ_25cd24d8.o)
 .note.GNU-stack
                0x0000000000000000        0x0 /home/berkeley/nacl_sdk/pepper_42/toolchain/linux_x86_newlib/bin/../lib/gcc/x86_64-nacl/4.4.3/../../../../x86_64-nacl/lib/../lib64/libnacl.a(start_fa9ef7de.o)
 .note.GNU-stack
                0x0000000000000000        0x0 /home/berkeley/nacl_sdk/pepper_42/toolchain/linux_x86_newlib/bin/../lib/gcc/x86_64-nacl/4.4.3/../../../../x86_64-nacl/lib/../lib64/libnacl.a(malloc_222c4a1e.o)
 .note.GNU-stack
                0x0000000000000000        0x0 /home/berkeley/nacl_sdk/pepper_42/toolchain/linux_x86_newlib/bin/../lib/gcc/x86_64-nacl/4.4.3/../../../../x86_64-nacl/lib/../lib64/libnacl.a(nacl_irt_6de1d53f.o)
 .note.GNU-stack
                0x0000000000000000        0x0 /home/berkeley/nacl_sdk/pepper_42/toolchain/linux_x86_newlib/bin/../lib/gcc/x86_64-nacl/4.4.3/../../../../x86_64-nacl/lib/../lib64/libnacl.a(pthread_initialize_minimal_4b6e776b.o)
 .note.GNU-stack
                0x0000000000000000        0x0 /home/berkeley/nacl_sdk/pepper_42/toolchain/linux_x86_newlib/bin/../lib/gcc/x86_64-nacl/4.4.3/../../../../x86_64-nacl/lib/../lib64/libnacl.a(nacl_read_tp_5748ac47.o)
 .note.GNU-stack
                0x0000000000000000        0x0 /home/berkeley/nacl_sdk/pepper_42/toolchain/linux_x86_newlib/bin/../lib/gcc/x86_64-nacl/4.4.3/../../../../x86_64-nacl/lib/../lib64/libnacl.a(nacl_add_tp_7312c7c4.o)
 .note.GNU-stack
                0x0000000000000000        0x0 /home/berkeley/nacl_sdk/pepper_42/toolchain/linux_x86_newlib/bin/../lib/gcc/x86_64-nacl/4.4.3/../../../../x86_64-nacl/lib/../lib64/libnacl.a(mmap_767fb080.o)
 .note.GNU-stack
                0x0000000000000000        0x0 /home/berkeley/nacl_sdk/pepper_42/toolchain/linux_x86_newlib/bin/../lib/gcc/x86_64-nacl/4.4.3/../../../../x86_64-nacl/lib/../lib64/libnacl.a(sched_yield_56c375be.o)
 .note.GNU-stack
                0x0000000000000000        0x0 /home/berkeley/nacl_sdk/pepper_42/toolchain/linux_x86_newlib/bin/../lib/gcc/x86_64-nacl/4.4.3/../../../../x86_64-nacl/lib/../lib64/libnacl.a(munmap_d4f09867.o)
 .note.GNU-stack
                0x0000000000000000        0x0 /home/berkeley/nacl_sdk/pepper_42/toolchain/linux_x86_newlib/bin/../lib/gcc/x86_64-nacl/4.4.3/../../../../x86_64-nacl/lib/../lib64/libnacl.a(tls_bba1975b.o)
 .note.GNU-stack
                0x0000000000000000        0x0 /home/berkeley/nacl_sdk/pepper_42/toolchain/linux_x86_newlib/bin/../lib/gcc/x86_64-nacl/4.4.3/../../../../x86_64-nacl/lib/../lib64/libnacl.a(write_fb49787f.o)
 .note.GNU-stack
                0x0000000000000000        0x0 /home/berkeley/nacl_sdk/pepper_42/toolchain/linux_x86_newlib/bin/../lib/gcc/x86_64-nacl/4.4.3/../../../../x86_64-nacl/lib/../lib64/libnacl.a(nacl_tls_get_d2f842b5.o)
 .note.GNU-stack
                0x0000000000000000        0x0 /home/berkeley/nacl_sdk/pepper_42/toolchain/linux_x86_newlib/bin/../lib/gcc/x86_64-nacl/4.4.3/../../../../x86_64-nacl/lib/../lib64/libnacl.a(nacl_irt_init_7b4f826e.o)
 .note.GNU-stack
                0x0000000000000000        0x0 /home/berkeley/nacl_sdk/pepper_42/toolchain/linux_x86_newlib/bin/../lib/gcc/x86_64-nacl/4.4.3/../../../../x86_64-nacl/lib/../lib64/libnacl.a(sysconf_ad295ea2.o)
 .note.GNU-stack
                0x0000000000000000        0x0 /home/berkeley/nacl_sdk/pepper_42/toolchain/linux_x86_newlib/bin/../lib/gcc/x86_64-nacl/4.4.3/../../../../x86_64-nacl/lib/../lib64/libnacl.a(nacl_tls_init_eb0cd232.o)
 .note.GNU-stack
                0x0000000000000000        0x0 /home/berkeley/nacl_sdk/pepper_42/toolchain/linux_x86_newlib/bin/../lib/gcc/x86_64-nacl/4.4.3/../../../../x86_64-nacl/lib/../lib64/libcrt_common.a(lib_a-atexit.o)
 .note.GNU-stack
                0x0000000000000000        0x0 /home/berkeley/nacl_sdk/pepper_42/toolchain/linux_x86_newlib/bin/../lib/gcc/x86_64-nacl/4.4.3/../../../../x86_64-nacl/lib/../lib64/libcrt_common.a(lib_a-cxa_atexit.o)
 .note.GNU-stack
                0x0000000000000000        0x0 /home/berkeley/nacl_sdk/pepper_42/toolchain/linux_x86_newlib/bin/../lib/gcc/x86_64-nacl/4.4.3/../../../../x86_64-nacl/lib/../lib64/libcrt_common.a(lib_a-errno.o)
 .note.GNU-stack
                0x0000000000000000        0x0 /home/berkeley/nacl_sdk/pepper_42/toolchain/linux_x86_newlib/bin/../lib/gcc/x86_64-nacl/4.4.3/../../../../x86_64-nacl/lib/../lib64/libcrt_common.a(lib_a-exit.o)
 .note.GNU-stack
                0x0000000000000000        0x0 /home/berkeley/nacl_sdk/pepper_42/toolchain/linux_x86_newlib/bin/../lib/gcc/x86_64-nacl/4.4.3/../../../../x86_64-nacl/lib/../lib64/libcrt_common.a(lib_a-fini.o)
 .note.GNU-stack
                0x0000000000000000        0x0 /home/berkeley/nacl_sdk/pepper_42/toolchain/linux_x86_newlib/bin/../lib/gcc/x86_64-nacl/4.4.3/../../../../x86_64-nacl/lib/../lib64/libcrt_common.a(lib_a-fprintf.o)
 .note.GNU-stack
                0x0000000000000000        0x0 /home/berkeley/nacl_sdk/pepper_42/toolchain/linux_x86_newlib/bin/../lib/gcc/x86_64-nacl/4.4.3/../../../../x86_64-nacl/lib/../lib64/libcrt_common.a(lib_a-fputc.o)
 .note.GNU-stack
                0x0000000000000000        0x0 /home/berkeley/nacl_sdk/pepper_42/toolchain/linux_x86_newlib/bin/../lib/gcc/x86_64-nacl/4.4.3/../../../../x86_64-nacl/lib/../lib64/libcrt_common.a(lib_a-fputs.o)
 .note.GNU-stack
                0x0000000000000000        0x0 /home/berkeley/nacl_sdk/pepper_42/toolchain/linux_x86_newlib/bin/../lib/gcc/x86_64-nacl/4.4.3/../../../../x86_64-nacl/lib/../lib64/libcrt_common.a(lib_a-fvwrite.o)
 .note.GNU-stack
                0x0000000000000000        0x0 /home/berkeley/nacl_sdk/pepper_42/toolchain/linux_x86_newlib/bin/../lib/gcc/x86_64-nacl/4.4.3/../../../../x86_64-nacl/lib/../lib64/libcrt_common.a(lib_a-fwrite.o)
 .note.GNU-stack
                0x0000000000000000        0x0 /home/berkeley/nacl_sdk/pepper_42/toolchain/linux_x86_newlib/bin/../lib/gcc/x86_64-nacl/4.4.3/../../../../x86_64-nacl/lib/../lib64/libcrt_common.a(lib_a-getenv.o)
 .note.GNU-stack
                0x0000000000000000        0x0 /home/berkeley/nacl_sdk/pepper_42/toolchain/linux_x86_newlib/bin/../lib/gcc/x86_64-nacl/4.4.3/../../../../x86_64-nacl/lib/../lib64/libcrt_common.a(lib_a-getenv_r.o)
 .note.GNU-stack
                0x0000000000000000        0x0 /home/berkeley/nacl_sdk/pepper_42/toolchain/linux_x86_newlib/bin/../lib/gcc/x86_64-nacl/4.4.3/../../../../x86_64-nacl/lib/../lib64/libcrt_common.a(lib_a-impure.o)
 .note.GNU-stack
                0x0000000000000000        0x0 /home/berkeley/nacl_sdk/pepper_42/toolchain/linux_x86_newlib/bin/../lib/gcc/x86_64-nacl/4.4.3/../../../../x86_64-nacl/lib/../lib64/libcrt_common.a(lib_a-init.o)
 .note.GNU-stack
                0x0000000000000000        0x0 /home/berkeley/nacl_sdk/pepper_42/toolchain/linux_x86_newlib/bin/../lib/gcc/x86_64-nacl/4.4.3/../../../../x86_64-nacl/lib/../lib64/libcrt_common.a(lib_a-memchr.o)
 .note.GNU-stack
                0x0000000000000000        0x0 /home/berkeley/nacl_sdk/pepper_42/toolchain/linux_x86_newlib/bin/../lib/gcc/x86_64-nacl/4.4.3/../../../../x86_64-nacl/lib/../lib64/libcrt_common.a(lib_a-memmove.o)
 .note.GNU-stack
                0x0000000000000000        0x0 /home/berkeley/nacl_sdk/pepper_42/toolchain/linux_x86_newlib/bin/../lib/gcc/x86_64-nacl/4.4.3/../../../../x86_64-nacl/lib/../lib64/libcrt_common.a(lib_a-putc.o)
 .note.GNU-stack
                0x0000000000000000        0x0 /home/berkeley/nacl_sdk/pepper_42/toolchain/linux_x86_newlib/bin/../lib/gcc/x86_64-nacl/4.4.3/../../../../x86_64-nacl/lib/../lib64/libcrt_common.a(lib_a-snprintf.o)
 .note.GNU-stack
                0x0000000000000000        0x0 /home/berkeley/nacl_sdk/pepper_42/toolchain/linux_x86_newlib/bin/../lib/gcc/x86_64-nacl/4.4.3/../../../../x86_64-nacl/lib/../lib64/libcrt_common.a(lib_a-sprintf.o)
 .note.GNU-stack
                0x0000000000000000        0x0 /home/berkeley/nacl_sdk/pepper_42/toolchain/linux_x86_newlib/bin/../lib/gcc/x86_64-nacl/4.4.3/../../../../x86_64-nacl/lib/../lib64/libcrt_common.a(lib_a-strcpy.o)
 .note.GNU-stack
                0x0000000000000000        0x0 /home/berkeley/nacl_sdk/pepper_42/toolchain/linux_x86_newlib/bin/../lib/gcc/x86_64-nacl/4.4.3/../../../../x86_64-nacl/lib/../lib64/libcrt_common.a(lib_a-strerror.o)
 .note.GNU-stack
                0x0000000000000000        0x0 /home/berkeley/nacl_sdk/pepper_42/toolchain/linux_x86_newlib/bin/../lib/gcc/x86_64-nacl/4.4.3/../../../../x86_64-nacl/lib/../lib64/libcrt_common.a(lib_a-strlen.o)
 .note.GNU-stack
                0x0000000000000000        0x0 /home/berkeley/nacl_sdk/pepper_42/toolchain/linux_x86_newlib/bin/../lib/gcc/x86_64-nacl/4.4.3/../../../../x86_64-nacl/lib/../lib64/libcrt_common.a(lib_a-strncmp.o)
 .note.GNU-stack
                0x0000000000000000        0x0 /home/berkeley/nacl_sdk/pepper_42/toolchain/linux_x86_newlib/bin/../lib/gcc/x86_64-nacl/4.4.3/../../../../x86_64-nacl/lib/../lib64/libcrt_common.a(lib_a-svfprintf.o)
 .note.GNU-stack
                0x0000000000000000        0x0 /home/berkeley/nacl_sdk/pepper_42/toolchain/linux_x86_newlib/bin/../lib/gcc/x86_64-nacl/4.4.3/../../../../x86_64-nacl/lib/../lib64/libcrt_common.a(lib_a-u_strerr.o)
 .note.GNU-stack
                0x0000000000000000        0x0 /home/berkeley/nacl_sdk/pepper_42/toolchain/linux_x86_newlib/bin/../lib/gcc/x86_64-nacl/4.4.3/../../../../x86_64-nacl/lib/../lib64/libcrt_common.a(lib_a-vfprintf.o)
 .note.GNU-stack
                0x0000000000000000        0x0 /home/berkeley/nacl_sdk/pepper_42/toolchain/linux_x86_newlib/bin/../lib/gcc/x86_64-nacl/4.4.3/../../../../x86_64-nacl/lib/../lib64/libcrt_common.a(lib_a-wbuf.o)
 .note.GNU-stack
                0x0000000000000000        0x0 /home/berkeley/nacl_sdk/pepper_42/toolchain/linux_x86_newlib/bin/../lib/gcc/x86_64-nacl/4.4.3/../../../../x86_64-nacl/lib/../lib64/libcrt_common.a(lib_a-wcrtomb.o)
 .note.GNU-stack
                0x0000000000000000        0x0 /home/berkeley/nacl_sdk/pepper_42/toolchain/linux_x86_newlib/bin/../lib/gcc/x86_64-nacl/4.4.3/../../../../x86_64-nacl/lib/../lib64/libcrt_common.a(lib_a-wcsrtombs.o)
 .note.GNU-stack
                0x0000000000000000        0x0 /home/berkeley/nacl_sdk/pepper_42/toolchain/linux_x86_newlib/bin/../lib/gcc/x86_64-nacl/4.4.3/../../../../x86_64-nacl/lib/../lib64/libcrt_common.a(lib_a-wctomb_r.o)
 .note.GNU-stack
                0x0000000000000000        0x0 /home/berkeley/nacl_sdk/pepper_42/toolchain/linux_x86_newlib/bin/../lib/gcc/x86_64-nacl/4.4.3/../../../../x86_64-nacl/lib/../lib64/libcrt_common.a(lib_a-wsetup.o)
 .note.GNU-stack
                0x0000000000000000        0x0 /home/berkeley/nacl_sdk/pepper_42/toolchain/linux_x86_newlib/bin/../lib/gcc/x86_64-nacl/4.4.3/../../../../x86_64-nacl/lib/../lib64/libcrt_common.a(lib_a-__atexit.o)
 .note.GNU-stack
                0x0000000000000000        0x0 /home/berkeley/nacl_sdk/pepper_42/toolchain/linux_x86_newlib/bin/../lib/gcc/x86_64-nacl/4.4.3/../../../../x86_64-nacl/lib/../lib64/libcrt_common.a(lib_a-__call_atexit.o)
 .note.GNU-stack
                0x0000000000000000        0x0 /home/berkeley/nacl_sdk/pepper_42/toolchain/linux_x86_newlib/bin/../lib/gcc/x86_64-nacl/4.4.3/../../../../x86_64-nacl/lib/../lib64/libcrt_common.a(lib_a-dtoa.o)
 .note.GNU-stack
                0x0000000000000000        0x0 /home/berkeley/nacl_sdk/pepper_42/toolchain/linux_x86_newlib/bin/../lib/gcc/x86_64-nacl/4.4.3/../../../../x86_64-nacl/lib/../lib64/libcrt_common.a(lib_a-envlock.o)
 .note.GNU-stack
                0x0000000000000000        0x0 /home/berkeley/nacl_sdk/pepper_42/toolchain/linux_x86_newlib/bin/../lib/gcc/x86_64-nacl/4.4.3/../../../../x86_64-nacl/lib/../lib64/libcrt_common.a(lib_a-fflush.o)
 .note.GNU-stack
                0x0000000000000000        0x0 /home/berkeley/nacl_sdk/pepper_42/toolchain/linux_x86_newlib/bin/../lib/gcc/x86_64-nacl/4.4.3/../../../../x86_64-nacl/lib/../lib64/libcrt_common.a(lib_a-findfp.o)
 .note.GNU-stack
                0x0000000000000000        0x0 /home/berkeley/nacl_sdk/pepper_42/toolchain/linux_x86_newlib/bin/../lib/gcc/x86_64-nacl/4.4.3/../../../../x86_64-nacl/lib/../lib64/libcrt_common.a(lib_a-fwalk.o)
 .note.GNU-stack
                0x0000000000000000        0x0 /home/berkeley/nacl_sdk/pepper_42/toolchain/linux_x86_newlib/bin/../lib/gcc/x86_64-nacl/4.4.3/../../../../x86_64-nacl/lib/../lib64/libcrt_common.a(lib_a-locale.o)
 .note.GNU-stack
                0x0000000000000000        0x0 /home/berkeley/nacl_sdk/pepper_42/toolchain/linux_x86_newlib/bin/../lib/gcc/x86_64-nacl/4.4.3/../../../../x86_64-nacl/lib/../lib64/libcrt_common.a(lib_a-makebuf.o)
 .note.GNU-stack
                0x0000000000000000        0x0 /home/berkeley/nacl_sdk/pepper_42/toolchain/linux_x86_newlib/bin/../lib/gcc/x86_64-nacl/4.4.3/../../../../x86_64-nacl/lib/../lib64/libcrt_common.a(lib_a-mbtowc_r.o)
 .note.GNU-stack
                0x0000000000000000        0x0 /home/berkeley/nacl_sdk/pepper_42/toolchain/linux_x86_newlib/bin/../lib/gcc/x86_64-nacl/4.4.3/../../../../x86_64-nacl/lib/../lib64/libcrt_common.a(lib_a-mprec.o)
 .note.GNU-stack
                0x0000000000000000        0x0 /home/berkeley/nacl_sdk/pepper_42/toolchain/linux_x86_newlib/bin/../lib/gcc/x86_64-nacl/4.4.3/../../../../x86_64-nacl/lib/../lib64/libcrt_common.a(lib_a-s_fpclassify.o)
 .note.GNU-stack
                0x0000000000000000        0x0 /home/berkeley/nacl_sdk/pepper_42/toolchain/linux_x86_newlib/bin/../lib/gcc/x86_64-nacl/4.4.3/../../../../x86_64-nacl/lib/../lib64/libcrt_common.a(lib_a-s_frexp.o)
 .note.GNU-stack
                0x0000000000000000        0x0 /home/berkeley/nacl_sdk/pepper_42/toolchain/linux_x86_newlib/bin/../lib/gcc/x86_64-nacl/4.4.3/../../../../x86_64-nacl/lib/../lib64/libcrt_common.a(lib_a-stdio.o)
 .note.GNU-stack
                0x0000000000000000        0x0 /home/berkeley/nacl_sdk/pepper_42/toolchain/linux_x86_newlib/bin/../lib/gcc/x86_64-nacl/4.4.3/../../../../x86_64-nacl/lib/../lib64/libcrt_common.a(lib_a-strcasecmp.o)
 .note.GNU-stack
                0x0000000000000000        0x0 /home/berkeley/nacl_sdk/pepper_42/toolchain/linux_x86_newlib/bin/../lib/gcc/x86_64-nacl/4.4.3/../../../../x86_64-nacl/lib/../lib64/libcrt_common.a(lib_a-strcat.o)
 .note.GNU-stack
                0x0000000000000000        0x0 /home/berkeley/nacl_sdk/pepper_42/toolchain/linux_x86_newlib/bin/../lib/gcc/x86_64-nacl/4.4.3/../../../../x86_64-nacl/lib/../lib64/libcrt_common.a(lib_a-strchr.o)
 .note.GNU-stack
                0x0000000000000000        0x0 /home/berkeley/nacl_sdk/pepper_42/toolchain/linux_x86_newlib/bin/../lib/gcc/x86_64-nacl/4.4.3/../../../../x86_64-nacl/lib/../lib64/libcrt_common.a(lib_a-strcmp.o)
 .note.GNU-stack
                0x0000000000000000        0x0 /home/berkeley/nacl_sdk/pepper_42/toolchain/linux_x86_newlib/bin/../lib/gcc/x86_64-nacl/4.4.3/../../../../x86_64-nacl/lib/../lib64/libcrt_common.a(lib_a-strlcpy.o)
 .note.GNU-stack
                0x0000000000000000        0x0 /home/berkeley/nacl_sdk/pepper_42/toolchain/linux_x86_newlib/bin/../lib/gcc/x86_64-nacl/4.4.3/../../../../x86_64-nacl/lib/../lib64/libcrt_common.a(lib_a-strncasecmp.o)
 .note.GNU-stack
                0x0000000000000000        0x0 /home/berkeley/nacl_sdk/pepper_42/toolchain/linux_x86_newlib/bin/../lib/gcc/x86_64-nacl/4.4.3/../../../../x86_64-nacl/lib/../lib64/libcrt_common.a(lib_a-strncpy.o)
 .note.GNU-stack
                0x0000000000000000        0x0 /home/berkeley/nacl_sdk/pepper_42/toolchain/linux_x86_newlib/bin/../lib/gcc/x86_64-nacl/4.4.3/../../../../x86_64-nacl/lib/../lib64/libcrt_common.a(lib_a-strtol.o)
 .note.GNU-stack
                0x0000000000000000        0x0 /home/berkeley/nacl_sdk/pepper_42/toolchain/linux_x86_newlib/bin/../lib/gcc/x86_64-nacl/4.4.3/../../../../x86_64-nacl/lib/../lib64/libcrt_common.a(lib_a-svfiprintf.o)
 .note.GNU-stack
                0x0000000000000000        0x0 /home/berkeley/nacl_sdk/pepper_42/toolchain/linux_x86_newlib/bin/../lib/gcc/x86_64-nacl/4.4.3/../../../../x86_64-nacl/lib/../lib64/libcrt_common.a(lib_a-vfiprintf.o)
 .note.GNU-stack
                0x0000000000000000        0x0 /home/berkeley/nacl_sdk/pepper_42/toolchain/linux_x86_newlib/bin/../lib/gcc/x86_64-nacl/4.4.3/../../../../x86_64-nacl/lib/../lib64/libcrt_common.a(lib_a-wcsnrtombs.o)
 .note.GNU-stack
                0x0000000000000000        0x0 /home/berkeley/nacl_sdk/pepper_42/toolchain/linux_x86_newlib/bin/../lib/gcc/x86_64-nacl/4.4.3/../../../../x86_64-nacl/lib/../lib64/libcrt_common.a(lib_a-ctype_.o)
 .note.GNU-stack
                0x0000000000000000        0x0 /home/berkeley/nacl_sdk/pepper_42/toolchain/linux_x86_newlib/bin/../lib/gcc/x86_64-nacl/4.4.3/../../../../x86_64-nacl/lib/../lib64/libcrt_common.a(lib_a-fclose.o)
 .note.GNU-stack
                0x0000000000000000        0x0 /home/berkeley/nacl_sdk/pepper_42/toolchain/linux_x86_newlib/bin/../lib/gcc/x86_64-nacl/4.4.3/../../../../x86_64-nacl/lib/../lib64/libcrt_common.a(lib_a-fputwc.o)
 .note.GNU-stack
                0x0000000000000000        0x0 /home/berkeley/nacl_sdk/pepper_42/toolchain/linux_x86_newlib/bin/../lib/gcc/x86_64-nacl/4.4.3/../../../../x86_64-nacl/lib/../lib64/libnacl.a(close_e9b92fbd.o)
 .note.GNU-stack
                0x0000000000000000        0x0 /home/berkeley/nacl_sdk/pepper_42/toolchain/linux_x86_newlib/bin/../lib/gcc/x86_64-nacl/4.4.3/../../../../x86_64-nacl/lib/../lib64/libnacl.a(isatty_02f56e94.o)
 .note.GNU-stack
                0x0000000000000000        0x0 /home/berkeley/nacl_sdk/pepper_42/toolchain/linux_x86_newlib/bin/../lib/gcc/x86_64-nacl/4.4.3/../../../../x86_64-nacl/lib/../lib64/libnacl.a(nacl_irt_fdio_b571b5e7.o)
 .note.GNU-stack
                0x0000000000000000        0x0 /home/berkeley/nacl_sdk/pepper_42/toolchain/linux_x86_newlib/bin/../lib/gcc/x86_64-nacl/4.4.3/../../../../x86_64-nacl/lib/../lib64/libnacl.a(fstat_0540ff63.o)
 .note.GNU-stack
                0x0000000000000000        0x0 /home/berkeley/nacl_sdk/pepper_42/toolchain/linux_x86_newlib/bin/../lib/gcc/x86_64-nacl/4.4.3/../../../../x86_64-nacl/lib/../lib64/libnacl.a(lseek_64d2d05c.o)
 .note.GNU-stack
                0x0000000000000000        0x0 /home/berkeley/nacl_sdk/pepper_42/toolchain/linux_x86_newlib/bin/../lib/gcc/x86_64-nacl/4.4.3/../../../../x86_64-nacl/lib/../lib64/libnacl.a(read_df872e10.o)
 .note.GNU-stack
                0x0000000000000000        0x0 /home/berkeley/nacl_sdk/pepper_42/toolchain/linux_x86_newlib/bin/../lib/gcc/x86_64-nacl/4.4.3/crtend.o

Memory Configuration

Name             Origin             Length             Attributes
*default*        0x0000000000000000 0xffffffffffffffff

Linker script and memory map

LOAD /home/berkeley/nacl_sdk/pepper_42/toolchain/linux_x86_newlib/bin/../lib/gcc/x86_64-nacl/4.4.3/../../../../x86_64-nacl/lib/../lib64/crt1.o
LOAD /home/berkeley/nacl_sdk/pepper_42/toolchain/linux_x86_newlib/bin/../lib/gcc/x86_64-nacl/4.4.3/../../../../x86_64-nacl/lib/../lib64/crti.o
LOAD /home/berkeley/nacl_sdk/pepper_42/toolchain/linux_x86_newlib/bin/../lib/gcc/x86_64-nacl/4.4.3/crtbegin.o
LOAD newlib/Release/popcnt_x86_64.o
LOAD /home/berkeley/nacl_sdk/pepper_42/lib/newlib_x86_64/Release/libppapi_cpp.a
LOAD /home/berkeley/nacl_sdk/pepper_42/toolchain/linux_x86_newlib/bin/../lib/gcc/x86_64-nacl/4.4.3/../../../../x86_64-nacl/lib/../lib64/libppapi.a
LOAD /home/berkeley/nacl_sdk/pepper_42/toolchain/linux_x86_newlib/bin/../lib/gcc/x86_64-nacl/4.4.3/../../../../x86_64-nacl/lib/../lib64/libppapi_stub.a
LOAD /home/berkeley/nacl_sdk/pepper_42/toolchain/linux_x86_newlib/bin/../lib/gcc/x86_64-nacl/4.4.3/../../../../x86_64-nacl/lib/../lib64/libpthread.a
LOAD /home/berkeley/nacl_sdk/pepper_42/toolchain/linux_x86_newlib/bin/../lib/gcc/x86_64-nacl/4.4.3/../../../../x86_64-nacl/lib/../lib64/libstdc++.a
LOAD /home/berkeley/nacl_sdk/pepper_42/toolchain/linux_x86_newlib/bin/../lib/gcc/x86_64-nacl/4.4.3/../../../../x86_64-nacl/lib/../lib64/libm.a
LOAD /home/berkeley/nacl_sdk/pepper_42/toolchain/linux_x86_newlib/bin/../lib/gcc/x86_64-nacl/4.4.3/libgcc.a
LOAD /home/berkeley/nacl_sdk/pepper_42/toolchain/linux_x86_newlib/bin/../lib/gcc/x86_64-nacl/4.4.3/../../../../x86_64-nacl/lib/../lib64/libpthread.a
LOAD /home/berkeley/nacl_sdk/pepper_42/toolchain/linux_x86_newlib/bin/../lib/gcc/x86_64-nacl/4.4.3/../../../../x86_64-nacl/lib/../lib64/libc.a
START GROUP
LOAD /home/berkeley/nacl_sdk/pepper_42/toolchain/linux_x86_newlib/bin/../lib/gcc/x86_64-nacl/4.4.3/../../../../x86_64-nacl/lib/../lib64/libnacl.a
LOAD /home/berkeley/nacl_sdk/pepper_42/toolchain/linux_x86_newlib/bin/../lib/gcc/x86_64-nacl/4.4.3/../../../../x86_64-nacl/lib/../lib64/libcrt_common.a
END GROUP
LOAD /home/berkeley/nacl_sdk/pepper_42/toolchain/linux_x86_newlib/bin/../lib/gcc/x86_64-nacl/4.4.3/libgcc.a
LOAD /home/berkeley/nacl_sdk/pepper_42/toolchain/linux_x86_newlib/bin/../lib/gcc/x86_64-nacl/4.4.3/crtend.o
LOAD /home/berkeley/nacl_sdk/pepper_42/toolchain/linux_x86_newlib/bin/../lib/gcc/x86_64-nacl/4.4.3/../../../../x86_64-nacl/lib/../lib64/crtn.o
                0x0000000000020000                PROVIDE (__executable_start, 0x20000)
                0x0000000000020000                . = 0x20000

.init           0x0000000000020000       0x80
 *(SORT(.init))
 .init          0x0000000000020000       0x20 /home/berkeley/nacl_sdk/pepper_42/toolchain/linux_x86_newlib/bin/../lib/gcc/x86_64-nacl/4.4.3/../../../../x86_64-nacl/lib/../lib64/crti.o
                0x0000000000020000                _init
 .init          0x0000000000020020       0x20 /home/berkeley/nacl_sdk/pepper_42/toolchain/linux_x86_newlib/bin/../lib/gcc/x86_64-nacl/4.4.3/crtbegin.o
 .init          0x0000000000020040       0x20 /home/berkeley/nacl_sdk/pepper_42/toolchain/linux_x86_newlib/bin/../lib/gcc/x86_64-nacl/4.4.3/crtend.o
 .init          0x0000000000020060       0x20 /home/berkeley/nacl_sdk/pepper_42/toolchain/linux_x86_newlib/bin/../lib/gcc/x86_64-nacl/4.4.3/../../../../x86_64-nacl/lib/../lib64/crtn.o

.plt            0x0000000000020080        0x0
 *(.plt)
 *(.iplt)
 .iplt          0x0000000000000000        0x0 /home/berkeley/nacl_sdk/pepper_42/toolchain/linux_x86_newlib/bin/../lib/gcc/x86_64-nacl/4.4.3/crtbegin.o

.text           0x0000000000020080    0x68580
 *(.text.unlikely .text.*_unlikely .text.unlikely.*)
 *(.text.exit .text.exit.*)
 *(.text.startup .text.startup.*)
 *(.text.hot .text.hot.*)
 *(.text .stub .text.* .gnu.linkonce.t.*)
 .text          0x0000000000020080        0x0 /home/berkeley/nacl_sdk/pepper_42/toolchain/linux_x86_newlib/bin/../lib/gcc/x86_64-nacl/4.4.3/../../../../x86_64-nacl/lib/../lib64/crti.o
 .text          0x0000000000020080      0x160 /home/berkeley/nacl_sdk/pepper_42/toolchain/linux_x86_newlib/bin/../lib/gcc/x86_64-nacl/4.4.3/crtbegin.o
 .text          0x00000000000201e0      0x100 newlib/Release/popcnt_x86_64.o
                0x00000000000201e0                _Z7computej
                0x0000000000020240                _ZN2pp12CreateModuleEv
 .text._ZN19HelloTutorialModule14CreateInstanceEi
                0x00000000000202e0       0xc0 newlib/Release/popcnt_x86_64.o
                0x00000000000202e0                _ZN19HelloTutorialModule14CreateInstanceEi
 .text._ZN21HelloTutorialInstance13HandleMessageERKN2pp3VarE
                0x00000000000203a0      0x1e0 newlib/Release/popcnt_x86_64.o
                0x00000000000203a0                _ZN21HelloTutorialInstance13HandleMessageERKN2pp3VarE
 .text._ZN21HelloTutorialInstanceD0Ev
                0x0000000000020580       0x40 newlib/Release/popcnt_x86_64.o
                0x0000000000020580                _ZN21HelloTutorialInstanceD0Ev
 .text._ZN21HelloTutorialInstanceD1Ev
                0x00000000000205c0       0x20 newlib/Release/popcnt_x86_64.o
                0x00000000000205c0                _ZN21HelloTutorialInstanceD1Ev
 .text._ZN19HelloTutorialModuleD0Ev
                0x00000000000205e0       0x40 newlib/Release/popcnt_x86_64.o
                0x00000000000205e0                _ZN19HelloTutorialModuleD0Ev
 .text._ZN19HelloTutorialModuleD1Ev
                0x0000000000020620       0x20 newlib/Release/popcnt_x86_64.o
                0x0000000000020620                _ZN19HelloTutorialModuleD1Ev
 .text          0x0000000000020640     0x3140 /home/berkeley/nacl_sdk/pepper_42/lib/newlib_x86_64/Release/libppapi_cpp.a(instance_x86_64.o)
                0x0000000000020660                _ZN2pp8InstanceC2Ei
                0x00000000000206e0                _ZN2pp8InstanceC1Ei
                0x0000000000020760                _ZN2pp8Instance4InitEjPPKcS3_
                0x0000000000020780                _ZN2pp8Instance13DidChangeViewERKNS_4RectES3_
                0x00000000000207a0                _ZN2pp8Instance14DidChangeFocusEb
                0x00000000000207c0                _ZN2pp8Instance18HandleDocumentLoadERKNS_9URLLoaderE
                0x00000000000207e0                _ZN2pp8Instance16HandleInputEventERKNS_10InputEventE
                0x0000000000020800                _ZN2pp8Instance13HandleMessageERKNS_3VarE
                0x0000000000020b40                _ZN2pp8Instance13DidChangeViewERKNS_4ViewE
                0x0000000000020c60                _ZN2pp8InstanceD0Ev
                0x0000000000020cc0                _ZN2pp8InstanceD1Ev
                0x0000000000020d40                _ZN2pp8InstanceD2Ev
                0x0000000000020dc0                _ZN2pp8Instance20GetPerInstanceObjectEiRKSs
                0x0000000000020fe0                _ZN2pp8Instance23RemovePerInstanceObjectERKSsPv
                0x0000000000021220                _ZN2pp8Instance23RemovePerInstanceObjectERKNS_14InstanceHandleERKSsPv
                0x00000000000212e0                _ZN2pp8Instance12LogToConsoleE11PP_LogLevelRKNS_3VarE
                0x00000000000215c0                _ZN2pp8Instance22LogToConsoleWithSourceE11PP_LogLevelRKNS_3VarES4_
                0x00000000000218c0                _ZN2pp8Instance20AddPerInstanceObjectERKSsPv
                0x0000000000021b80                _ZN2pp8Instance18RequestInputEventsEj
                0x0000000000021e00                _ZN2pp8Instance22RegisterMessageHandlerEPNS_14MessageHandlerERKNS_11MessageLoopE
                0x00000000000220c0                _ZN2pp8Instance22ClearInputEventRequestEj
                0x0000000000022340                _ZN2pp8Instance27RequestFilteringInputEventsEj
                0x00000000000225c0                _ZN2pp8Instance24UnregisterMessageHandlerEv
                0x0000000000022820                _ZN2pp8Instance12BindGraphicsERKNS_10Graphics2DE
                0x0000000000022ac0                _ZN2pp8Instance11IsFullFrameEv
                0x0000000000022d60                _ZN2pp8Instance12BindGraphicsERKNS_10CompositorE
                0x0000000000023000                _ZN2pp8Instance12BindGraphicsERKNS_10Graphics3DE
                0x00000000000232a0                _ZN2pp8Instance11PostMessageERKNS_3VarE
 .text._ZNSt8_Rb_treeISsSt4pairIKSsPvESt10_Select1stIS3_ESt4lessISsESaIS3_EE8_M_eraseEPSt13_Rb_tree_nodeIS3_E
                0x0000000000023780      0x120 /home/berkeley/nacl_sdk/pepper_42/lib/newlib_x86_64/Release/libppapi_cpp.a(instance_x86_64.o)
                0x0000000000023780                _ZNSt8_Rb_treeISsSt4pairIKSsPvESt10_Select1stIS3_ESt4lessISsESaIS3_EE8_M_eraseEPSt13_Rb_tree_nodeIS3_E
 .text._ZNSt8_Rb_treeISsSt4pairIKSsPvESt10_Select1stIS3_ESt4lessISsESaIS3_EE10_M_insert_EPKSt18_Rb_tree_node_baseSC_RKS3_
                0x00000000000238a0      0x240 /home/berkeley/nacl_sdk/pepper_42/lib/newlib_x86_64/Release/libppapi_cpp.a(instance_x86_64.o)
                0x00000000000238a0                _ZNSt8_Rb_treeISsSt4pairIKSsPvESt10_Select1stIS3_ESt4lessISsESaIS3_EE10_M_insert_EPKSt18_Rb_tree_node_baseSC_RKS3_
 .text._ZNSt8_Rb_treeISsSt4pairIKSsPvESt10_Select1stIS3_ESt4lessISsESaIS3_EE16_M_insert_uniqueERKS3_
                0x0000000000023ae0      0x240 /home/berkeley/nacl_sdk/pepper_42/lib/newlib_x86_64/Release/libppapi_cpp.a(instance_x86_64.o)
                0x0000000000023ae0                _ZNSt8_Rb_treeISsSt4pairIKSsPvESt10_Select1stIS3_ESt4lessISsESaIS3_EE16_M_insert_uniqueERKS3_
 .text._ZNSt8_Rb_treeISsSt4pairIKSsPvESt10_Select1stIS3_ESt4lessISsESaIS3_EE17_M_insert_unique_ESt23_Rb_tree_const_iteratorIS3_ERKS3_
                0x0000000000023d20      0x400 /home/berkeley/nacl_sdk/pepper_42/lib/newlib_x86_64/Release/libppapi_cpp.a(instance_x86_64.o)
                0x0000000000023d20                _ZNSt8_Rb_treeISsSt4pairIKSsPvESt10_Select1stIS3_ESt4lessISsESaIS3_EE17_M_insert_unique_ESt23_Rb_tree_const_iteratorIS3_ERKS3_
 .text          0x0000000000024120     0x18a0 /home/berkeley/nacl_sdk/pepper_42/lib/newlib_x86_64/Release/libppapi_cpp.a(module_x86_64.o)
                0x0000000000024120                _ZN2pp6ModuleC2Ev
                0x0000000000024200                _ZN2pp6ModuleC1Ev
                0x00000000000242e0                _ZN2pp6Module4InitEv
                0x0000000000024300                _ZN2pp6Module19GetBrowserInterfaceEPKc
                0x0000000000024320                _ZN2pp6Module21InstanceForPPInstanceEi
                0x0000000000024400                _ZN2pp6Module12InternalInitEiPFPKvPKcE
                0x00000000000244c0                _ZN2pp23Instance_DidChangeFocusEi7PP_Bool
                0x0000000000024600                _ZN2pp18Instance_DidCreateEijPPKcS2_
                0x0000000000024800                _ZN2pp23Messaging_HandleMessageEi6PP_Var
                0x00000000000249a0                _ZN2pp19Instance_DidDestroyEi
                0x0000000000024b00                _ZN2pp22InputEvent_HandleEventEii
                0x0000000000024cc0                _ZN2pp27Instance_HandleDocumentLoadEii
                0x0000000000024e80                _ZN2pp22Instance_DidChangeViewEii
                0x0000000000025020                _ZN2pp6ModuleD2Ev
                0x0000000000025140                _ZN2pp6Module18GetPluginInterfaceEPKc
                0x00000000000254a0                _ZN2pp6Module18AddPluginInterfaceERKSsPKv
                0x0000000000025780                _ZN2pp6ModuleD1Ev
                0x00000000000258a0                _ZN2pp6ModuleD0Ev
 .text._ZNSt8_Rb_treeIiSt4pairIKiPN2pp8InstanceEESt10_Select1stIS5_ESt4lessIiESaIS5_EE8_M_eraseEPSt13_Rb_tree_nodeIS5_E
                0x00000000000259c0       0xa0 /home/berkeley/nacl_sdk/pepper_42/lib/newlib_x86_64/Release/libppapi_cpp.a(module_x86_64.o)
                0x00000000000259c0                _ZNSt8_Rb_treeIiSt4pairIKiPN2pp8InstanceEESt10_Select1stIS5_ESt4lessIiESaIS5_EE8_M_eraseEPSt13_Rb_tree_nodeIS5_E
 .text._ZNSt8_Rb_treeIiSt4pairIKiPN2pp8InstanceEESt10_Select1stIS5_ESt4lessIiESaIS5_EE10_M_insert_EPKSt18_Rb_tree_node_baseSE_RKS5_
                0x0000000000025a60      0x140 /home/berkeley/nacl_sdk/pepper_42/lib/newlib_x86_64/Release/libppapi_cpp.a(module_x86_64.o)
                0x0000000000025a60                _ZNSt8_Rb_treeIiSt4pairIKiPN2pp8InstanceEESt10_Select1stIS5_ESt4lessIiESaIS5_EE10_M_insert_EPKSt18_Rb_tree_node_baseSE_RKS5_
 .text._ZNSt8_Rb_treeIiSt4pairIKiPN2pp8InstanceEESt10_Select1stIS5_ESt4lessIiESaIS5_EE16_M_insert_uniqueERKS5_
                0x0000000000025ba0      0x180 /home/berkeley/nacl_sdk/pepper_42/lib/newlib_x86_64/Release/libppapi_cpp.a(module_x86_64.o)
                0x0000000000025ba0                _ZNSt8_Rb_treeIiSt4pairIKiPN2pp8InstanceEESt10_Select1stIS5_ESt4lessIiESaIS5_EE16_M_insert_uniqueERKS5_
 .text._ZNSt8_Rb_treeIiSt4pairIKiPN2pp8InstanceEESt10_Select1stIS5_ESt4lessIiESaIS5_EE17_M_insert_unique_ESt23_Rb_tree_const_iteratorIS5_ERKS5_
                0x0000000000025d20      0x2a0 /home/berkeley/nacl_sdk/pepper_42/lib/newlib_x86_64/Release/libppapi_cpp.a(module_x86_64.o)
                0x0000000000025d20                _ZNSt8_Rb_treeIiSt4pairIKiPN2pp8InstanceEESt10_Select1stIS5_ESt4lessIiESaIS5_EE17_M_insert_unique_ESt23_Rb_tree_const_iteratorIS5_ERKS5_
 .text._ZN2pp9URLLoaderD1Ev
                0x0000000000025fc0       0x20 /home/berkeley/nacl_sdk/pepper_42/lib/newlib_x86_64/Release/libppapi_cpp.a(module_x86_64.o)
                0x0000000000025fc0                _ZN2pp9URLLoaderD1Ev
 .text._ZN2pp9URLLoaderD0Ev
                0x0000000000025fe0       0x40 /home/berkeley/nacl_sdk/pepper_42/lib/newlib_x86_64/Release/libppapi_cpp.a(module_x86_64.o)
                0x0000000000025fe0                _ZN2pp9URLLoaderD0Ev
 .text._ZN2pp4ViewD1Ev
                0x0000000000026020       0x20 /home/berkeley/nacl_sdk/pepper_42/lib/newlib_x86_64/Release/libppapi_cpp.a(module_x86_64.o)
                0x0000000000026020                _ZN2pp4ViewD1Ev
 .text._ZN2pp4ViewD0Ev
                0x0000000000026040       0x40 /home/berkeley/nacl_sdk/pepper_42/lib/newlib_x86_64/Release/libppapi_cpp.a(module_x86_64.o)
                0x0000000000026040                _ZN2pp4ViewD0Ev
 .text._ZNSt8_Rb_treeISsSt4pairIKSsPKvESt10_Select1stIS4_ESt4lessISsESaIS4_EE8_M_eraseEPSt13_Rb_tree_nodeIS4_E
                0x0000000000026080      0x120 /home/berkeley/nacl_sdk/pepper_42/lib/newlib_x86_64/Release/libppapi_cpp.a(module_x86_64.o)
                0x0000000000026080                _ZNSt8_Rb_treeISsSt4pairIKSsPKvESt10_Select1stIS4_ESt4lessISsESaIS4_EE8_M_eraseEPSt13_Rb_tree_nodeIS4_E
 .text._ZNSt8_Rb_treeISsSt4pairIKSsPKvESt10_Select1stIS4_ESt4lessISsESaIS4_EE10_M_insert_EPKSt18_Rb_tree_node_baseSD_RKS4_
                0x00000000000261a0      0x240 /home/berkeley/nacl_sdk/pepper_42/lib/newlib_x86_64/Release/libppapi_cpp.a(module_x86_64.o)
                0x00000000000261a0                _ZNSt8_Rb_treeISsSt4pairIKSsPKvESt10_Select1stIS4_ESt4lessISsESaIS4_EE10_M_insert_EPKSt18_Rb_tree_node_baseSD_RKS4_
 .text._ZNSt8_Rb_treeISsSt4pairIKSsPKvESt10_Select1stIS4_ESt4lessISsESaIS4_EE16_M_insert_uniqueERKS4_
                0x00000000000263e0      0x240 /home/berkeley/nacl_sdk/pepper_42/lib/newlib_x86_64/Release/libppapi_cpp.a(module_x86_64.o)
                0x00000000000263e0                _ZNSt8_Rb_treeISsSt4pairIKSsPKvESt10_Select1stIS4_ESt4lessISsESaIS4_EE16_M_insert_uniqueERKS4_
 .text._ZNSt8_Rb_treeISsSt4pairIKSsPKvESt10_Select1stIS4_ESt4lessISsESaIS4_EE17_M_insert_unique_ESt23_Rb_tree_const_iteratorIS4_ERKS4_
                0x0000000000026620      0x400 /home/berkeley/nacl_sdk/pepper_42/lib/newlib_x86_64/Release/libppapi_cpp.a(module_x86_64.o)
                0x0000000000026620                _ZNSt8_Rb_treeISsSt4pairIKSsPKvESt10_Select1stIS4_ESt4lessISsESaIS4_EE17_M_insert_unique_ESt23_Rb_tree_const_iteratorIS4_ERKS4_
 .text          0x0000000000026a20      0x1c0 /home/berkeley/nacl_sdk/pepper_42/lib/newlib_x86_64/Release/libppapi_cpp.a(ppp_entrypoints_x86_64.o)
                0x0000000000026a20                _ZN2pp6Module3GetEv
                0x0000000000026a40                _ZN2pp25SetBrokerGetInterfaceFuncEPFPKvPKcE
                0x0000000000026a60                PPP_ShutdownModule
                0x0000000000026ac0                PPP_GetInterface
                0x0000000000026b20                PPP_InitializeModule
 .text          0x0000000000026be0      0x6e0 /home/berkeley/nacl_sdk/pepper_42/lib/newlib_x86_64/Release/libppapi_cpp.a(resource_x86_64.o)
                0x0000000000026be0                _ZN2pp8ResourceC2Ev
                0x0000000000026c20                _ZN2pp8ResourceC1Ev
                0x0000000000026c60                _ZN2pp8Resource6detachEv
                0x0000000000026c80                _ZN2pp8ResourceC2ENS_7PassRefEi
                0x0000000000026ca0                _ZN2pp8ResourceC1ENS_7PassRefEi
                0x0000000000026cc0                _ZN2pp8Resource22PassRefFromConstructorEi
                0x0000000000026ce0                _ZN2pp8Resource5ClearEv
                0x0000000000026da0                _ZN2pp8ResourceC1Ei
                0x0000000000026e20                _ZN2pp8ResourceC2Ei
                0x0000000000026ea0                _ZN2pp8ResourceaSERKS0_
                0x0000000000026fe0                _ZN2pp8ResourceC1ERKS0_
                0x0000000000027060                _ZN2pp8ResourceC2ERKS0_
                0x00000000000270e0                _ZN2pp8ResourceD1Ev
                0x0000000000027180                _ZN2pp8ResourceD2Ev
                0x0000000000027220                _ZN2pp8ResourceD0Ev
 .text          0x00000000000272c0     0x1f00 /home/berkeley/nacl_sdk/pepper_42/lib/newlib_x86_64/Release/libppapi_cpp.a(url_loader_x86_64.o)
                0x00000000000272c0                _ZN2pp9URLLoaderC1ERKS0_
                0x0000000000027300                _ZN2pp9URLLoaderC2ERKS0_
                0x0000000000027340                _ZN2pp9URLLoaderC1Ei
                0x0000000000027380                _ZN2pp9URLLoaderC2Ei
                0x00000000000273c0                _ZN2pp9URLLoader16ReadResponseBodyEPviRKNS_18CompletionCallbackE
                0x0000000000027740                _ZN2pp9URLLoader14FollowRedirectERKNS_18CompletionCallbackE
                0x0000000000027a40                _ZN2pp9URLLoaderC1ERKNS_14InstanceHandleE
                0x0000000000027d60                _ZNK2pp9URLLoader19GetDownloadProgressEPxS1_
                0x0000000000028020                _ZN2pp9URLLoader5CloseEv
                0x0000000000028280                _ZN2pp9URLLoaderC2ERKNS_14InstanceHandleE
                0x00000000000285a0                _ZN2pp9URLLoader21FinishStreamingToFileERKNS_18CompletionCallbackE
                0x00000000000288a0                _ZNK2pp9URLLoader15GetResponseInfoEv
                0x0000000000028b80                _ZNK2pp9URLLoader17GetUploadProgressEPxS1_
                0x0000000000028e40                _ZN2pp9URLLoader4OpenERKNS_14URLRequestInfoERKNS_18CompletionCallbackE
 .text._ZN2pp15URLResponseInfoD1Ev
                0x00000000000291c0       0x20 /home/berkeley/nacl_sdk/pepper_42/lib/newlib_x86_64/Release/libppapi_cpp.a(url_loader_x86_64.o)
                0x00000000000291c0                _ZN2pp15URLResponseInfoD1Ev
 .text._ZN2pp15URLResponseInfoD0Ev
                0x00000000000291e0       0x40 /home/berkeley/nacl_sdk/pepper_42/lib/newlib_x86_64/Release/libppapi_cpp.a(url_loader_x86_64.o)
                0x00000000000291e0                _ZN2pp15URLResponseInfoD0Ev
 .text          0x0000000000029220      0x720 /home/berkeley/nacl_sdk/pepper_42/lib/newlib_x86_64/Release/libppapi_cpp.a(url_response_info_x86_64.o)
                0x0000000000029220                _ZN2pp15URLResponseInfoC1ENS_7PassRefEi
                0x0000000000029260                _ZN2pp15URLResponseInfoC2ENS_7PassRefEi
                0x00000000000292a0                _ZN2pp15URLResponseInfoC1ERKS0_
                0x00000000000292e0                _ZN2pp15URLResponseInfoC2ERKS0_
                0x0000000000029320                _ZNK2pp15URLResponseInfo16GetBodyAsFileRefEv
                0x0000000000029620                _ZNK2pp15URLResponseInfo11GetPropertyE22PP_URLResponseProperty
 .text._ZN2pp7FileRefD1Ev
                0x0000000000029940       0x20 /home/berkeley/nacl_sdk/pepper_42/lib/newlib_x86_64/Release/libppapi_cpp.a(url_response_info_x86_64.o)
                0x0000000000029940                _ZN2pp7FileRefD1Ev
 .text._ZN2pp7FileRefD0Ev
                0x0000000000029960       0x40 /home/berkeley/nacl_sdk/pepper_42/lib/newlib_x86_64/Release/libppapi_cpp.a(url_response_info_x86_64.o)
                0x0000000000029960                _ZN2pp7FileRefD0Ev
 .text          0x00000000000299a0     0x3d40 /home/berkeley/nacl_sdk/pepper_42/lib/newlib_x86_64/Release/libppapi_cpp.a(var_x86_64.o)
                0x00000000000299a0                _ZN2pp3VarC2Eb
                0x0000000000029a00                _ZN2pp3VarC1Eb
                0x0000000000029a60                _ZN2pp3VarC2Ei
                0x0000000000029ac0                _ZN2pp3VarC1Ei
                0x0000000000029b20                _ZN2pp3VarC2Ed
                0x0000000000029b80                _ZN2pp3VarC1Ed
                0x0000000000029be0                _ZNK2pp3Var6AsBoolEv
                0x0000000000029c20                _ZNK2pp3Var5AsIntEv
                0x0000000000029ca0                _ZNK2pp3Var8AsDoubleEv
                0x0000000000029e40                _ZN2pp3VarC1ENS0_4NullE
                0x0000000000029ea0                _ZN2pp3VarC2ENS0_4NullE
                0x0000000000029f00                _ZN2pp3VarC1Ev
                0x0000000000029f60                _ZN2pp3VarC2Ev
                0x0000000000029fc0                _ZNK2pp3Var8AsStringEv
                0x000000000002a720                _ZNK2pp3Var11DebugStringEv
                0x000000000002ac40                _ZNK2pp3VareqERKS0_
                0x000000000002b080                _ZN2pp3VarC1ERKNS_8ResourceE
                0x000000000002b340                _ZN2pp3VarC2ERKNS_8ResourceE
                0x000000000002bc80                _ZN2pp3VarC1ERKSs
                0x000000000002bd00                _ZN2pp3VarC2ERKSs
                0x000000000002bd80                _ZN2pp3VarC1EPKc
                0x000000000002be40                _ZN2pp3VarC2EPKc
                0x000000000002c6c0                _ZN2pp3VarC1ERKS0_
                0x000000000002c780                _ZN2pp3VarC2ERKS0_
                0x000000000002c840                _ZN2pp3VarC1ERK6PP_Var
                0x000000000002c900                _ZN2pp3VarC2ERK6PP_Var
                0x000000000002d180                _ZN2pp3VaraSERKS0_
                0x000000000002d2a0                _ZN2pp3VarD0Ev
                0x000000000002d300                _ZN2pp3VarD1Ev
                0x000000000002d360                _ZN2pp3VarD2Ev
                0x000000000002d3c0                _ZNK2pp3Var10AsResourceEv
 .text          0x000000000002d6e0     0x3040 /home/berkeley/nacl_sdk/pepper_42/lib/newlib_x86_64/Release/libppapi_cpp.a(view_x86_64.o)
                0x000000000002d800                _ZN2pp4ViewC1Ei
                0x000000000002d840                _ZN2pp4ViewC2Ei
                0x000000000002d880                _ZN2pp4ViewC1Ev
                0x000000000002d8c0                _ZN2pp4ViewC2Ev
                0x000000000002d900                _ZNK2pp4View15GetScrollOffsetEv
                0x000000000002dbe0                _ZNK2pp4View11GetClipRectEv
                0x000000000002e260                _ZNK2pp4View14GetDeviceScaleEv
                0x000000000002e6c0                _ZNK2pp4View11GetCSSScaleEv
                0x000000000002eb20                _ZNK2pp4View7GetRectEv
                0x000000000002f1a0                _ZNK2pp4View13IsPageVisibleEv
                0x000000000002f8e0                _ZNK2pp4View9IsVisibleEv
                0x0000000000030000                _ZNK2pp4View12IsFullscreenEv
 .text          0x0000000000030720       0x80 /home/berkeley/nacl_sdk/pepper_42/lib/newlib_x86_64/Release/libppapi_cpp.a(core_x86_64.o)
                0x0000000000030720                _ZN2pp4Core16CallOnMainThreadEiRKNS_18CompletionCallbackEi
                0x0000000000030760                _ZN2pp4Core12IsMainThreadEv
 .text          0x00000000000307a0     0x5500 /home/berkeley/nacl_sdk/pepper_42/lib/newlib_x86_64/Release/libppapi_cpp.a(file_ref_x86_64.o)
                0x00000000000308c0                _ZN2pp7FileRefC1ERKS0_
                0x0000000000030900                _ZN2pp7FileRefC2ERKS0_
                0x0000000000030940                _ZN2pp7FileRefC1ENS_7PassRefEi
                0x0000000000030980                _ZN2pp7FileRefC2ENS_7PassRefEi
                0x00000000000309c0                _ZN2pp7FileRefC1Ei
                0x0000000000030a00                _ZN2pp7FileRefC2Ei
                0x0000000000030a40                _ZN2pp7FileRef13MakeDirectoryEiRKNS_18CompletionCallbackE
                0x0000000000031200                _ZN2pp7FileRef20ReadDirectoryEntriesERKNS_28CompletionCallbackWithOutputISt6vectorINS_14DirectoryEntryESaIS3_EEEE
                0x00000000000317a0                _ZN2pp7FileRef5QueryERKNS_28CompletionCallbackWithOutputI11PP_FileInfoEE
                0x0000000000031d20                _ZN2pp7FileRefC1ERKNS_10FileSystemEPKc
                0x0000000000032380                _ZNK2pp7FileRef17GetFileSystemTypeEv
                0x00000000000329e0                _ZN2pp7FileRef6RenameERKS0_RKNS_18CompletionCallbackE
                0x0000000000033220                _ZN2pp7FileRef6DeleteERKNS_18CompletionCallbackE
                0x00000000000339e0                _ZN2pp7FileRef5TouchEddRKNS_18CompletionCallbackE
                0x00000000000341e0                _ZNK2pp7FileRef7GetPathEv
                0x00000000000348a0                _ZNK2pp7FileRef7GetNameEv
                0x0000000000034f60                _ZNK2pp7FileRef9GetParentEv
                0x0000000000035640                _ZN2pp7FileRefC2ERKNS_10FileSystemEPKc
 .text._ZNK2pp18CompletionCallback8MayForceEi
                0x0000000000035ca0       0xc0 /home/berkeley/nacl_sdk/pepper_42/lib/newlib_x86_64/Release/libppapi_cpp.a(file_ref_x86_64.o)
                0x0000000000035ca0                _ZNK2pp18CompletionCallback8MayForceEi
 .text          0x0000000000035d60     0x9ae0 /home/berkeley/nacl_sdk/pepper_42/lib/newlib_x86_64/Release/libppapi_cpp.a(input_event_x86_64.o)
                0x00000000000360c0                _ZN2pp10InputEventD0Ev
                0x0000000000036100                _ZN2pp10InputEventD1Ev
                0x0000000000036120                _ZN2pp10InputEventD2Ev
                0x0000000000036140                _ZN2pp10InputEventC1Ev
                0x0000000000036180                _ZN2pp10InputEventC2Ev
                0x00000000000361c0                _ZN2pp13IMEInputEventC1Ev
                0x0000000000036200                _ZN2pp13IMEInputEventC2Ev
                0x0000000000036240                _ZN2pp15TouchInputEventC1Ev
                0x0000000000036280                _ZN2pp15TouchInputEventC2Ev
                0x00000000000362c0                _ZN2pp18KeyboardInputEventC1Ev
                0x0000000000036300                _ZN2pp18KeyboardInputEventC2Ev
                0x0000000000036340                _ZN2pp15WheelInputEventC1Ev
                0x0000000000036380                _ZN2pp15WheelInputEventC2Ev
                0x00000000000363c0                _ZN2pp15MouseInputEventC1Ev
                0x0000000000036400                _ZN2pp15MouseInputEventC2Ev
                0x0000000000036440                _ZN2pp10InputEventC2Ei
                0x00000000000367a0                _ZNK2pp10InputEvent12GetModifiersEv
                0x0000000000036a00                _ZNK2pp10InputEvent12GetTimeStampEv
                0x0000000000036c60                _ZNK2pp10InputEvent7GetTypeEv
                0x0000000000036ec0                _ZN2pp10InputEventC1Ei
                0x0000000000037220                _ZNK2pp15WheelInputEvent15GetScrollByPageEv
                0x00000000000374c0                _ZN2pp15WheelInputEventC1ERKNS_14InstanceHandleEdjRKNS_10FloatPointES6_b
                0x0000000000037840                _ZN2pp15WheelInputEventC2ERKNS_14InstanceHandleEdjRKNS_10FloatPointES6_b
                0x0000000000037bc0                _ZN2pp15WheelInputEventC2ERKNS_10InputEventE
                0x0000000000037f40                _ZNK2pp15WheelInputEvent8GetTicksEv
                0x0000000000038220                _ZNK2pp15WheelInputEvent8GetDeltaEv
                0x0000000000038500                _ZN2pp18KeyboardInputEventC2ERKNS_10InputEventE
                0x00000000000388a0                _ZN2pp18KeyboardInputEventC1ERKNS_10InputEventE
                0x0000000000038c40                _ZN2pp18KeyboardInputEventC1ERKNS_14InstanceHandleE18PP_InputEvent_TypedjjRKNS_3VarES7_
                0x0000000000038fa0                _ZN2pp18KeyboardInputEventC1ERKNS_14InstanceHandleE18PP_InputEvent_TypedjjRKNS_3VarE
                0x00000000000394a0                _ZN2pp15WheelInputEventC1ERKNS_10InputEventE
                0x0000000000039820                _ZN2pp15TouchInputEventC2ERKNS_10InputEventE
                0x0000000000039ba0                _ZNK2pp15MouseInputEvent11GetMovementEv
                0x0000000000039e80                _ZN2pp15TouchInputEvent13AddTouchPointE16PP_TouchListType13PP_TouchPoint
                0x000000000003a140                _ZN2pp15TouchInputEventC1ERKNS_14InstanceHandleE18PP_InputEvent_Typedj
                0x000000000003a4c0                _ZN2pp15TouchInputEventC1ERKNS_10InputEventE
                0x000000000003a840                _ZNK2pp15TouchInputEvent15GetTouchByIndexE16PP_TouchListTypej
                0x000000000003ab80                _ZN2pp15MouseInputEventC2ERKNS_10InputEventE
                0x000000000003af00                _ZNK2pp15TouchInputEvent13GetTouchCountE16PP_TouchListType
                0x000000000003b1c0                _ZNK2pp15MouseInputEvent13GetClickCountEv
                0x000000000003b420                _ZNK2pp15MouseInputEvent11GetPositionEv
                0x000000000003b700                _ZN2pp15MouseInputEventC1ERKNS_14InstanceHandleE18PP_InputEvent_Typedj25PP_InputEvent_MouseButtonRKNS_5PointEiS8_
                0x000000000003baa0                _ZN2pp15MouseInputEventC2ERKNS_14InstanceHandleE18PP_InputEvent_Typedj25PP_InputEvent_MouseButtonRKNS_5PointEiS8_
                0x000000000003be40                _ZN2pp15MouseInputEventC1ERKNS_10InputEventE
                0x000000000003c1c0                _ZNK2pp18KeyboardInputEvent10GetKeyCodeEv
                0x000000000003c540                _ZNK2pp18KeyboardInputEvent7GetCodeEv
                0x000000000003c700                _ZNK2pp18KeyboardInputEvent16GetCharacterTextEv
                0x000000000003cae0                _ZNK2pp15TouchInputEvent12GetTouchByIdE16PP_TouchListTypej
                0x000000000003ce20                _ZNK2pp13IMEInputEvent7GetTextEv
                0x000000000003d0e0                _ZNK2pp13IMEInputEvent16GetSegmentNumberEv
                0x000000000003d340                _ZNK2pp13IMEInputEvent16GetSegmentOffsetEj
                0x000000000003d4c0                _ZN2pp13IMEInputEventC1ERKNS_14InstanceHandleE18PP_InputEvent_TypedRKNS_3VarERKSt6vectorIjSaIjEEiRKSt4pairIjjE
                0x000000000003d800                _ZN2pp13IMEInputEventC2ERKNS_14InstanceHandleE18PP_InputEvent_TypedRKNS_3VarERKSt6vectorIjSaIjEEiRKSt4pairIjjE
                0x000000000003dc20                _ZN2pp13IMEInputEventC1ERKNS_10InputEventE
                0x000000000003dfa0                _ZN2pp13IMEInputEventC2ERKNS_10InputEventE
                0x000000000003e220                _ZNK2pp13IMEInputEvent12GetSelectionEPjS1_
                0x000000000003e4e0                _ZN2pp15TouchInputEventC2ERKNS_14InstanceHandleE18PP_InputEvent_Typedj
                0x000000000003e860                _ZNK2pp13IMEInputEvent16GetTargetSegmentEv
                0x000000000003eac0                _ZNK2pp15MouseInputEvent9GetButtonEv
                0x000000000003ed20                _ZN2pp18KeyboardInputEventC2ERKNS_14InstanceHandleE18PP_InputEvent_TypedjjRKNS_3VarE
                0x000000000003f300                _ZN2pp18KeyboardInputEventC2ERKNS_14InstanceHandleE18PP_InputEvent_TypedjjRKNS_3VarES7_
 .text._ZN2pp13IMEInputEventD0Ev
                0x000000000003f840       0x40 /home/berkeley/nacl_sdk/pepper_42/lib/newlib_x86_64/Release/libppapi_cpp.a(input_event_x86_64.o)
                0x000000000003f840                _ZN2pp13IMEInputEventD0Ev
 .text._ZN2pp13IMEInputEventD1Ev
                0x000000000003f880       0x20 /home/berkeley/nacl_sdk/pepper_42/lib/newlib_x86_64/Release/libppapi_cpp.a(input_event_x86_64.o)
                0x000000000003f880                _ZN2pp13IMEInputEventD1Ev
 .text._ZN2pp15TouchInputEventD0Ev
                0x000000000003f8a0       0x40 /home/berkeley/nacl_sdk/pepper_42/lib/newlib_x86_64/Release/libppapi_cpp.a(input_event_x86_64.o)
                0x000000000003f8a0                _ZN2pp15TouchInputEventD0Ev
 .text._ZN2pp15TouchInputEventD1Ev
                0x000000000003f8e0       0x20 /home/berkeley/nacl_sdk/pepper_42/lib/newlib_x86_64/Release/libppapi_cpp.a(input_event_x86_64.o)
                0x000000000003f8e0                _ZN2pp15TouchInputEventD1Ev
 .text._ZN2pp18KeyboardInputEventD0Ev
                0x000000000003f900       0x40 /home/berkeley/nacl_sdk/pepper_42/lib/newlib_x86_64/Release/libppapi_cpp.a(input_event_x86_64.o)
                0x000000000003f900                _ZN2pp18KeyboardInputEventD0Ev
 .text._ZN2pp18KeyboardInputEventD1Ev
                0x000000000003f940       0x20 /home/berkeley/nacl_sdk/pepper_42/lib/newlib_x86_64/Release/libppapi_cpp.a(input_event_x86_64.o)
                0x000000000003f940                _ZN2pp18KeyboardInputEventD1Ev
 .text._ZN2pp15WheelInputEventD0Ev
                0x000000000003f960       0x40 /home/berkeley/nacl_sdk/pepper_42/lib/newlib_x86_64/Release/libppapi_cpp.a(input_event_x86_64.o)
                0x000000000003f960                _ZN2pp15WheelInputEventD0Ev
 .text._ZN2pp15WheelInputEventD1Ev
                0x000000000003f9a0       0x20 /home/berkeley/nacl_sdk/pepper_42/lib/newlib_x86_64/Release/libppapi_cpp.a(input_event_x86_64.o)
                0x000000000003f9a0                _ZN2pp15WheelInputEventD1Ev
 .text._ZN2pp15MouseInputEventD0Ev
                0x000000000003f9c0       0x40 /home/berkeley/nacl_sdk/pepper_42/lib/newlib_x86_64/Release/libppapi_cpp.a(input_event_x86_64.o)
                0x000000000003f9c0                _ZN2pp15MouseInputEventD0Ev
 .text._ZN2pp15MouseInputEventD1Ev
                0x000000000003fa00       0x20 /home/berkeley/nacl_sdk/pepper_42/lib/newlib_x86_64/Release/libppapi_cpp.a(input_event_x86_64.o)
                0x000000000003fa00                _ZN2pp15MouseInputEventD1Ev
 .text          0x000000000003fa20       0x20 /home/berkeley/nacl_sdk/pepper_42/toolchain/linux_x86_newlib/bin/../lib/gcc/x86_64-nacl/4.4.3/../../../../x86_64-nacl/lib/../lib64/libppapi_stub.a(plugin_main_irt_21ce9d26.o)
                0x000000000003fa20                main
 .text          0x000000000003fa40       0x20 /home/berkeley/nacl_sdk/pepper_42/toolchain/linux_x86_newlib/bin/../lib/gcc/x86_64-nacl/4.4.3/../../../../x86_64-nacl/lib/../lib64/libppapi_stub.a(ppapi_plugin_main_399d0cf7.o)
                0x000000000003fa40                PpapiPluginMain
 .text          0x000000000003fa60      0x1e0 /home/berkeley/nacl_sdk/pepper_42/toolchain/linux_x86_newlib/bin/../lib/gcc/x86_64-nacl/4.4.3/../../../../x86_64-nacl/lib/../lib64/libppapi_stub.a(ppapi_plugin_start_8da67623.o)
                0x000000000003fac0                PpapiPluginStart
 .text          0x000000000003fc40       0x60 /home/berkeley/nacl_sdk/pepper_42/toolchain/linux_x86_newlib/bin/../lib/gcc/x86_64-nacl/4.4.3/../../../../x86_64-nacl/lib/../lib64/libppapi_stub.a(thread_creator_ccf263e1.o)
                0x000000000003fc40                __nacl_register_thread_creator
 .text          0x000000000003fca0     0x1fc0 /home/berkeley/nacl_sdk/pepper_42/toolchain/linux_x86_newlib/bin/../lib/gcc/x86_64-nacl/4.4.3/../../../../x86_64-nacl/lib/../lib64/libpthread.a(nc_thread_7e478b15.o)
                0x000000000003fca0                pthread_kill
                0x000000000003fcc0                pthread_equal
                0x000000000003fce0                pthread_attr_init
                0x000000000003fd40                pthread_attr_destroy
                0x000000000003fd60                pthread_attr_setdetachstate
                0x000000000003fda0                pthread_attr_getdetachstate
                0x000000000003fde0                pthread_attr_setscope
                0x000000000003fe20                pthread_attr_getscope
                0x000000000003fe40                pthread_attr_setstacksize
                0x000000000003fec0                pthread_attr_getstacksize
                0x000000000003ff00                pthread_getspecific
                0x000000000003ffe0                __nc_tsd_exit
                0x0000000000040280                pthread_cleanup_pop
                0x0000000000040360                pthread_setspecific
                0x00000000000404c0                pthread_key_delete
                0x0000000000040560                pthread_key_create
                0x0000000000040600                __local_lock_release
                0x0000000000040640                __local_lock_release_recursive
                0x0000000000040660                __local_lock_try_acquire
                0x00000000000406a0                __local_lock_try_acquire_recursive
                0x00000000000406c0                __local_lock_acquire
                0x0000000000040700                __local_lock_acquire_recursive
                0x0000000000040720                __local_lock_close
                0x0000000000040760                __local_lock_close_recursive
                0x0000000000040780                __local_lock_init_recursive
                0x0000000000040800                __local_lock_init
                0x0000000000040880                pthread_self
                0x00000000000408c0                pthread_setschedprio
                0x00000000000409a0                pthread_detach
                0x0000000000040a80                pthread_join
                0x0000000000040c60                pthread_exit
                0x00000000000410e0                pthread_cleanup_push
                0x0000000000041560                pthread_create
                0x0000000000041ae0                __nc_initialize_globals
                0x0000000000041be0                __pthread_initialize
 .text          0x0000000000041c60      0x200 /home/berkeley/nacl_sdk/pepper_42/toolchain/linux_x86_newlib/bin/../lib/gcc/x86_64-nacl/4.4.3/../../../../x86_64-nacl/lib/../lib64/libpthread.a(nc_condvar_305aa45a.o)
                0x0000000000041c60                pthread_cond_init
                0x0000000000041c80                pthread_cond_destroy
                0x0000000000041ca0                pthread_cond_timedwait_abs
                0x0000000000041da0                pthread_cond_wait
                0x0000000000041e20                pthread_cond_broadcast
                0x0000000000041e40                pthread_cond_signal
 .text          0x0000000000041e60      0x560 /home/berkeley/nacl_sdk/pepper_42/toolchain/linux_x86_newlib/bin/../lib/gcc/x86_64-nacl/4.4.3/../../../../x86_64-nacl/lib/../lib64/libpthread.a(dynamic_annotations_33ba59cc.o)
                0x0000000000041e60                NACL_AnnotateRWLockCreate
                0x0000000000041e80                NACL_AnnotateRWLockDestroy
                0x0000000000041ea0                NACL_AnnotateRWLockAcquired
                0x0000000000041ec0                NACL_AnnotateRWLockReleased
                0x0000000000041ee0                NACL_AnnotateBarrierInit
                0x0000000000041f00                NACL_AnnotateBarrierWaitBefore
                0x0000000000041f20                NACL_AnnotateBarrierWaitAfter
                0x0000000000041f40                NACL_AnnotateBarrierDestroy
                0x0000000000041f60                NACL_AnnotateCondVarWait
                0x0000000000041f80                NACL_AnnotateCondVarSignal
                0x0000000000041fa0                NACL_AnnotateCondVarSignalAll
                0x0000000000041fc0                NACL_AnnotateHappensBefore
                0x0000000000041fe0                NACL_AnnotateHappensAfter
                0x0000000000042000                NACL_AnnotatePublishMemoryRange
                0x0000000000042020                NACL_AnnotateUnpublishMemoryRange
                0x0000000000042040                NACL_AnnotatePCQCreate
                0x0000000000042060                NACL_AnnotatePCQDestroy
                0x0000000000042080                NACL_AnnotatePCQPut
                0x00000000000420a0                NACL_AnnotatePCQGet
                0x00000000000420c0                NACL_AnnotateNewMemory
                0x00000000000420e0                NACL_AnnotateExpectRace
                0x0000000000042100                NACL_AnnotateFlushExpectedRaces
                0x0000000000042120                NACL_AnnotateBenignRace
                0x0000000000042140                NACL_AnnotateBenignRaceSized
                0x0000000000042160                NACL_AnnotateMutexIsUsedAsCondVar
                0x0000000000042180                NACL_AnnotateMutexIsNotPHB
                0x00000000000421a0                NACL_AnnotateTraceMemory
                0x00000000000421c0                NACL_AnnotateThreadName
                0x00000000000421e0                NACL_AnnotateIgnoreReadsBegin
                0x0000000000042200                NACL_AnnotateIgnoreReadsEnd
                0x0000000000042220                NACL_AnnotateIgnoreWritesBegin
                0x0000000000042240                NACL_AnnotateIgnoreWritesEnd
                0x0000000000042260                NACL_AnnotateIgnoreSyncBegin
                0x0000000000042280                NACL_AnnotateIgnoreSyncEnd
                0x00000000000422a0                NACL_AnnotateEnableRaceDetection
                0x00000000000422c0                NACL_AnnotateNoOp
                0x00000000000422e0                NACL_AnnotateFlushState
                0x0000000000042300                RunningOnValgrind
 .text          0x00000000000423c0      0x740 /home/berkeley/nacl_sdk/pepper_42/toolchain/linux_x86_newlib/bin/../lib/gcc/x86_64-nacl/4.4.3/../../../../x86_64-nacl/lib/../lib64/libpthread.a(nc_mutex_86341ae1.o)
                0x00000000000423c0                pthread_mutex_init
                0x0000000000042440                pthread_mutex_destroy
                0x00000000000424c0                pthread_mutexattr_init
                0x00000000000424e0                pthread_mutexattr_destroy
                0x0000000000042500                pthread_mutexattr_settype
                0x0000000000042540                pthread_mutexattr_gettype
                0x0000000000042560                pthread_mutex_unlock
                0x0000000000042960                pthread_mutex_timedlock
                0x0000000000042980                pthread_mutex_lock
                0x00000000000429a0                pthread_once
                0x0000000000042ae0                pthread_mutex_trylock
 .text          0x0000000000042b00       0x40 /home/berkeley/nacl_sdk/pepper_42/toolchain/linux_x86_newlib/bin/../lib/gcc/x86_64-nacl/4.4.3/../../../../x86_64-nacl/lib/../lib64/libpthread.a(nc_init_irt_d3daafc0.o)
                0x0000000000042b00                __nc_initialize_interfaces
 .text          0x0000000000042b40        0x0 /home/berkeley/nacl_sdk/pepper_42/toolchain/linux_x86_newlib/bin/../lib/gcc/x86_64-nacl/4.4.3/../../../../x86_64-nacl/lib/../lib64/libstdc++.a(tree.o)
 .text._ZSt18_Rb_tree_incrementPSt18_Rb_tree_node_base
                0x0000000000042b40       0xa0 /home/berkeley/nacl_sdk/pepper_42/toolchain/linux_x86_newlib/bin/../lib/gcc/x86_64-nacl/4.4.3/../../../../x86_64-nacl/lib/../lib64/libstdc++.a(tree.o)
                0x0000000000042b40                _ZSt18_Rb_tree_incrementPSt18_Rb_tree_node_base
 .text._ZSt18_Rb_tree_incrementPKSt18_Rb_tree_node_base
                0x0000000000042be0       0xc0 /home/berkeley/nacl_sdk/pepper_42/toolchain/linux_x86_newlib/bin/../lib/gcc/x86_64-nacl/4.4.3/../../../../x86_64-nacl/lib/../lib64/libstdc++.a(tree.o)
                0x0000000000042be0                _ZSt18_Rb_tree_incrementPKSt18_Rb_tree_node_base
 .text._ZSt18_Rb_tree_decrementPSt18_Rb_tree_node_base
                0x0000000000042ca0      0x140 /home/berkeley/nacl_sdk/pepper_42/toolchain/linux_x86_newlib/bin/../lib/gcc/x86_64-nacl/4.4.3/../../../../x86_64-nacl/lib/../lib64/libstdc++.a(tree.o)
                0x0000000000042ca0                _ZSt18_Rb_tree_decrementPSt18_Rb_tree_node_base
 .text._ZSt18_Rb_tree_decrementPKSt18_Rb_tree_node_base
                0x0000000000042de0      0x120 /home/berkeley/nacl_sdk/pepper_42/toolchain/linux_x86_newlib/bin/../lib/gcc/x86_64-nacl/4.4.3/../../../../x86_64-nacl/lib/../lib64/libstdc++.a(tree.o)
                0x0000000000042de0                _ZSt18_Rb_tree_decrementPKSt18_Rb_tree_node_base
 .text._ZSt20_Rb_tree_rotate_leftPSt18_Rb_tree_node_baseRS0_
                0x0000000000042f00       0xe0 /home/berkeley/nacl_sdk/pepper_42/toolchain/linux_x86_newlib/bin/../lib/gcc/x86_64-nacl/4.4.3/../../../../x86_64-nacl/lib/../lib64/libstdc++.a(tree.o)
                0x0000000000042f00                _ZSt20_Rb_tree_rotate_leftPSt18_Rb_tree_node_baseRS0_
 .text._ZSt21_Rb_tree_rotate_rightPSt18_Rb_tree_node_baseRS0_
                0x0000000000042fe0       0xe0 /home/berkeley/nacl_sdk/pepper_42/toolchain/linux_x86_newlib/bin/../lib/gcc/x86_64-nacl/4.4.3/../../../../x86_64-nacl/lib/../lib64/libstdc++.a(tree.o)
                0x0000000000042fe0                _ZSt21_Rb_tree_rotate_rightPSt18_Rb_tree_node_baseRS0_
 .text._ZSt29_Rb_tree_insert_and_rebalancebPSt18_Rb_tree_node_baseS0_RS_
                0x00000000000430c0      0x580 /home/berkeley/nacl_sdk/pepper_42/toolchain/linux_x86_newlib/bin/../lib/gcc/x86_64-nacl/4.4.3/../../../../x86_64-nacl/lib/../lib64/libstdc++.a(tree.o)
                0x00000000000430c0                _ZSt29_Rb_tree_insert_and_rebalancebPSt18_Rb_tree_node_baseS0_RS_
 .text._ZSt28_Rb_tree_rebalance_for_erasePSt18_Rb_tree_node_baseRS_
                0x0000000000043640      0xbc0 /home/berkeley/nacl_sdk/pepper_42/toolchain/linux_x86_newlib/bin/../lib/gcc/x86_64-nacl/4.4.3/../../../../x86_64-nacl/lib/../lib64/libstdc++.a(tree.o)
                0x0000000000043640                _ZSt28_Rb_tree_rebalance_for_erasePSt18_Rb_tree_node_baseRS_
 .text._ZSt20_Rb_tree_black_countPKSt18_Rb_tree_node_baseS1_
                0x0000000000044200       0x80 /home/berkeley/nacl_sdk/pepper_42/toolchain/linux_x86_newlib/bin/../lib/gcc/x86_64-nacl/4.4.3/../../../../x86_64-nacl/lib/../lib64/libstdc++.a(tree.o)
                0x0000000000044200                _ZSt20_Rb_tree_black_countPKSt18_Rb_tree_node_baseS1_
 .text          0x0000000000044280        0x0 /home/berkeley/nacl_sdk/pepper_42/toolchain/linux_x86_newlib/bin/../lib/gcc/x86_64-nacl/4.4.3/../../../../x86_64-nacl/lib/../lib64/libstdc++.a(string-inst.o)
 .text._ZNKSs7_M_dataEv
                0x0000000000044280       0x20 /home/berkeley/nacl_sdk/pepper_42/toolchain/linux_x86_newlib/bin/../lib/gcc/x86_64-nacl/4.4.3/../../../../x86_64-nacl/lib/../lib64/libstdc++.a(string-inst.o)
                0x0000000000044280                _ZNKSs7_M_dataEv
 .text._ZNSs7_M_dataEPc
                0x00000000000442a0       0x20 /home/berkeley/nacl_sdk/pepper_42/toolchain/linux_x86_newlib/bin/../lib/gcc/x86_64-nacl/4.4.3/../../../../x86_64-nacl/lib/../lib64/libstdc++.a(string-inst.o)
                0x00000000000442a0                _ZNSs7_M_dataEPc
 .text._ZNKSs6_M_repEv
                0x00000000000442c0       0x20 /home/berkeley/nacl_sdk/pepper_42/toolchain/linux_x86_newlib/bin/../lib/gcc/x86_64-nacl/4.4.3/../../../../x86_64-nacl/lib/../lib64/libstdc++.a(string-inst.o)
                0x00000000000442c0                _ZNKSs6_M_repEv
 .text._ZNKSs9_M_ibeginEv
                0x00000000000442e0       0x20 /home/berkeley/nacl_sdk/pepper_42/toolchain/linux_x86_newlib/bin/../lib/gcc/x86_64-nacl/4.4.3/../../../../x86_64-nacl/lib/../lib64/libstdc++.a(string-inst.o)
                0x00000000000442e0                _ZNKSs9_M_ibeginEv
 .text._ZNKSs7_M_iendEv
                0x0000000000044300       0x20 /home/berkeley/nacl_sdk/pepper_42/toolchain/linux_x86_newlib/bin/../lib/gcc/x86_64-nacl/4.4.3/../../../../x86_64-nacl/lib/../lib64/libstdc++.a(string-inst.o)
                0x0000000000044300                _ZNKSs7_M_iendEv
 .text._ZNKSs8_M_limitEjj
                0x0000000000044320       0x40 /home/berkeley/nacl_sdk/pepper_42/toolchain/linux_x86_newlib/bin/../lib/gcc/x86_64-nacl/4.4.3/../../../../x86_64-nacl/lib/../lib64/libstdc++.a(string-inst.o)
                0x0000000000044320                _ZNKSs8_M_limitEjj
 .text._ZNKSs11_M_disjunctEPKc
                0x0000000000044360       0x60 /home/berkeley/nacl_sdk/pepper_42/toolchain/linux_x86_newlib/bin/../lib/gcc/x86_64-nacl/4.4.3/../../../../x86_64-nacl/lib/../lib64/libstdc++.a(string-inst.o)
                0x0000000000044360                _ZNKSs11_M_disjunctEPKc
 .text._ZNSs10_S_compareEjj
                0x00000000000443c0       0x20 /home/berkeley/nacl_sdk/pepper_42/toolchain/linux_x86_newlib/bin/../lib/gcc/x86_64-nacl/4.4.3/../../../../x86_64-nacl/lib/../lib64/libstdc++.a(string-inst.o)
                0x00000000000443c0                _ZNSs10_S_compareEjj
 .text._ZNSs12_S_empty_repEv
                0x00000000000443e0       0x20 /home/berkeley/nacl_sdk/pepper_42/toolchain/linux_x86_newlib/bin/../lib/gcc/x86_64-nacl/4.4.3/../../../../x86_64-nacl/lib/../lib64/libstdc++.a(string-inst.o)
                0x00000000000443e0                _ZNSs12_S_empty_repEv
 .text._ZNSsC2Ev
                0x0000000000044400       0x20 /home/berkeley/nacl_sdk/pepper_42/toolchain/linux_x86_newlib/bin/../lib/gcc/x86_64-nacl/4.4.3/../../../../x86_64-nacl/lib/../lib64/libstdc++.a(string-inst.o)
                0x0000000000044400                _ZNSsC2Ev
 .text._ZNSsC1Ev
                0x0000000000044420       0x20 /home/berkeley/nacl_sdk/pepper_42/toolchain/linux_x86_newlib/bin/../lib/gcc/x86_64-nacl/4.4.3/../../../../x86_64-nacl/lib/../lib64/libstdc++.a(string-inst.o)
                0x0000000000044420                _ZNSsC1Ev
 .text._ZNKSs5beginEv
                0x0000000000044440       0x20 /home/berkeley/nacl_sdk/pepper_42/toolchain/linux_x86_newlib/bin/../lib/gcc/x86_64-nacl/4.4.3/../../../../x86_64-nacl/lib/../lib64/libstdc++.a(string-inst.o)
                0x0000000000044440                _ZNKSs5beginEv
 .text._ZNKSs3endEv
                0x0000000000044460       0x20 /home/berkeley/nacl_sdk/pepper_42/toolchain/linux_x86_newlib/bin/../lib/gcc/x86_64-nacl/4.4.3/../../../../x86_64-nacl/lib/../lib64/libstdc++.a(string-inst.o)
                0x0000000000044460                _ZNKSs3endEv
 .text._ZNKSs6rbeginEv
                0x0000000000044480       0x40 /home/berkeley/nacl_sdk/pepper_42/toolchain/linux_x86_newlib/bin/../lib/gcc/x86_64-nacl/4.4.3/../../../../x86_64-nacl/lib/../lib64/libstdc++.a(string-inst.o)
                0x0000000000044480                _ZNKSs6rbeginEv
 .text._ZNKSs4rendEv
                0x00000000000444c0       0x20 /home/berkeley/nacl_sdk/pepper_42/toolchain/linux_x86_newlib/bin/../lib/gcc/x86_64-nacl/4.4.3/../../../../x86_64-nacl/lib/../lib64/libstdc++.a(string-inst.o)
                0x00000000000444c0                _ZNKSs4rendEv
 .text._ZNKSs4sizeEv
                0x00000000000444e0       0x20 /home/berkeley/nacl_sdk/pepper_42/toolchain/linux_x86_newlib/bin/../lib/gcc/x86_64-nacl/4.4.3/../../../../x86_64-nacl/lib/../lib64/libstdc++.a(string-inst.o)
                0x00000000000444e0                _ZNKSs4sizeEv
 .text._ZNKSs6lengthEv
                0x0000000000044500       0x20 /home/berkeley/nacl_sdk/pepper_42/toolchain/linux_x86_newlib/bin/../lib/gcc/x86_64-nacl/4.4.3/../../../../x86_64-nacl/lib/../lib64/libstdc++.a(string-inst.o)
                0x0000000000044500                _ZNKSs6lengthEv
 .text._ZNKSs8max_sizeEv
                0x0000000000044520       0x20 /home/berkeley/nacl_sdk/pepper_42/toolchain/linux_x86_newlib/bin/../lib/gcc/x86_64-nacl/4.4.3/../../../../x86_64-nacl/lib/../lib64/libstdc++.a(string-inst.o)
                0x0000000000044520                _ZNKSs8max_sizeEv
 .text._ZNKSs8capacityEv
                0x0000000000044540       0x20 /home/berkeley/nacl_sdk/pepper_42/toolchain/linux_x86_newlib/bin/../lib/gcc/x86_64-nacl/4.4.3/../../../../x86_64-nacl/lib/../lib64/libstdc++.a(string-inst.o)
                0x0000000000044540                _ZNKSs8capacityEv
 .text._ZNKSs5emptyEv
                0x0000000000044560       0x40 /home/berkeley/nacl_sdk/pepper_42/toolchain/linux_x86_newlib/bin/../lib/gcc/x86_64-nacl/4.4.3/../../../../x86_64-nacl/lib/../lib64/libstdc++.a(string-inst.o)
                0x0000000000044560                _ZNKSs5emptyEv
 .text._ZNKSsixEj
                0x00000000000445a0       0x20 /home/berkeley/nacl_sdk/pepper_42/toolchain/linux_x86_newlib/bin/../lib/gcc/x86_64-nacl/4.4.3/../../../../x86_64-nacl/lib/../lib64/libstdc++.a(string-inst.o)
                0x00000000000445a0                _ZNKSsixEj
 .text._ZNSs4swapERSs
                0x00000000000445c0       0x80 /home/berkeley/nacl_sdk/pepper_42/toolchain/linux_x86_newlib/bin/../lib/gcc/x86_64-nacl/4.4.3/../../../../x86_64-nacl/lib/../lib64/libstdc++.a(string-inst.o)
                0x00000000000445c0                _ZNSs4swapERSs
 .text._ZNKSs5c_strEv
                0x0000000000044640       0x20 /home/berkeley/nacl_sdk/pepper_42/toolchain/linux_x86_newlib/bin/../lib/gcc/x86_64-nacl/4.4.3/../../../../x86_64-nacl/lib/../lib64/libstdc++.a(string-inst.o)
                0x0000000000044640                _ZNKSs5c_strEv
 .text._ZNKSs4dataEv
                0x0000000000044660       0x20 /home/berkeley/nacl_sdk/pepper_42/toolchain/linux_x86_newlib/bin/../lib/gcc/x86_64-nacl/4.4.3/../../../../x86_64-nacl/lib/../lib64/libstdc++.a(string-inst.o)
                0x0000000000044660                _ZNKSs4dataEv
 .text._ZNKSs13get_allocatorEv
                0x0000000000044680       0x20 /home/berkeley/nacl_sdk/pepper_42/toolchain/linux_x86_newlib/bin/../lib/gcc/x86_64-nacl/4.4.3/../../../../x86_64-nacl/lib/../lib64/libstdc++.a(string-inst.o)
                0x0000000000044680                _ZNKSs13get_allocatorEv
 .text._ZNKSs5rfindEcj
                0x00000000000446a0       0x80 /home/berkeley/nacl_sdk/pepper_42/toolchain/linux_x86_newlib/bin/../lib/gcc/x86_64-nacl/4.4.3/../../../../x86_64-nacl/lib/../lib64/libstdc++.a(string-inst.o)
                0x00000000000446a0                _ZNKSs5rfindEcj
 .text._ZNKSs12find_last_ofEcj
                0x0000000000044720       0x20 /home/berkeley/nacl_sdk/pepper_42/toolchain/linux_x86_newlib/bin/../lib/gcc/x86_64-nacl/4.4.3/../../../../x86_64-nacl/lib/../lib64/libstdc++.a(string-inst.o)
                0x0000000000044720                _ZNKSs12find_last_ofEcj
 .text._ZNKSs17find_first_not_ofEcj
                0x0000000000044740       0xe0 /home/berkeley/nacl_sdk/pepper_42/toolchain/linux_x86_newlib/bin/../lib/gcc/x86_64-nacl/4.4.3/../../../../x86_64-nacl/lib/../lib64/libstdc++.a(string-inst.o)
                0x0000000000044740                _ZNKSs17find_first_not_ofEcj
 .text._ZNKSs16find_last_not_ofEcj
                0x0000000000044820       0xc0 /home/berkeley/nacl_sdk/pepper_42/toolchain/linux_x86_newlib/bin/../lib/gcc/x86_64-nacl/4.4.3/../../../../x86_64-nacl/lib/../lib64/libstdc++.a(string-inst.o)
                0x0000000000044820                _ZNKSs16find_last_not_ofEcj
 .text._ZNSs12_Alloc_hiderC2EPcRKSaIcE
                0x00000000000448e0       0x20 /home/berkeley/nacl_sdk/pepper_42/toolchain/linux_x86_newlib/bin/../lib/gcc/x86_64-nacl/4.4.3/../../../../x86_64-nacl/lib/../lib64/libstdc++.a(string-inst.o)
                0x00000000000448e0                _ZNSs12_Alloc_hiderC2EPcRKSaIcE
 .text._ZNSs12_Alloc_hiderC1EPcRKSaIcE
                0x0000000000044900       0x20 /home/berkeley/nacl_sdk/pepper_42/toolchain/linux_x86_newlib/bin/../lib/gcc/x86_64-nacl/4.4.3/../../../../x86_64-nacl/lib/../lib64/libstdc++.a(string-inst.o)
                0x0000000000044900                _ZNSs12_Alloc_hiderC1EPcRKSaIcE
 .text._ZNSs4_Rep12_S_empty_repEv
                0x0000000000044920       0x20 /home/berkeley/nacl_sdk/pepper_42/toolchain/linux_x86_newlib/bin/../lib/gcc/x86_64-nacl/4.4.3/../../../../x86_64-nacl/lib/../lib64/libstdc++.a(string-inst.o)
                0x0000000000044920                _ZNSs4_Rep12_S_empty_repEv
 .text._ZNKSs4_Rep12_M_is_leakedEv
                0x0000000000044940       0x20 /home/berkeley/nacl_sdk/pepper_42/toolchain/linux_x86_newlib/bin/../lib/gcc/x86_64-nacl/4.4.3/../../../../x86_64-nacl/lib/../lib64/libstdc++.a(string-inst.o)
                0x0000000000044940                _ZNKSs4_Rep12_M_is_leakedEv
 .text._ZNKSs4_Rep12_M_is_sharedEv
                0x0000000000044960       0x20 /home/berkeley/nacl_sdk/pepper_42/toolchain/linux_x86_newlib/bin/../lib/gcc/x86_64-nacl/4.4.3/../../../../x86_64-nacl/lib/../lib64/libstdc++.a(string-inst.o)
                0x0000000000044960                _ZNKSs4_Rep12_M_is_sharedEv
 .text._ZNSs4_Rep13_M_set_leakedEv
                0x0000000000044980       0x20 /home/berkeley/nacl_sdk/pepper_42/toolchain/linux_x86_newlib/bin/../lib/gcc/x86_64-nacl/4.4.3/../../../../x86_64-nacl/lib/../lib64/libstdc++.a(string-inst.o)
                0x0000000000044980                _ZNSs4_Rep13_M_set_leakedEv
 .text._ZNSs4_Rep15_M_set_sharableEv
                0x00000000000449a0       0x20 /home/berkeley/nacl_sdk/pepper_42/toolchain/linux_x86_newlib/bin/../lib/gcc/x86_64-nacl/4.4.3/../../../../x86_64-nacl/lib/../lib64/libstdc++.a(string-inst.o)
                0x00000000000449a0                _ZNSs4_Rep15_M_set_sharableEv
 .text._ZNSs4_Rep26_M_set_length_and_sharableEj
                0x00000000000449c0       0x40 /home/berkeley/nacl_sdk/pepper_42/toolchain/linux_x86_newlib/bin/../lib/gcc/x86_64-nacl/4.4.3/../../../../x86_64-nacl/lib/../lib64/libstdc++.a(string-inst.o)
                0x00000000000449c0                _ZNSs4_Rep26_M_set_length_and_sharableEj
 .text._ZNSs4_Rep10_M_refdataEv
                0x0000000000044a00       0x20 /home/berkeley/nacl_sdk/pepper_42/toolchain/linux_x86_newlib/bin/../lib/gcc/x86_64-nacl/4.4.3/../../../../x86_64-nacl/lib/../lib64/libstdc++.a(string-inst.o)
                0x0000000000044a00                _ZNSs4_Rep10_M_refdataEv
 .text._ZN9__gnu_cxxeqIPcSsEEbRKNS_17__normal_iteratorIT_T0_EES7_
                0x0000000000044a20       0x20 /home/berkeley/nacl_sdk/pepper_42/toolchain/linux_x86_newlib/bin/../lib/gcc/x86_64-nacl/4.4.3/../../../../x86_64-nacl/lib/../lib64/libstdc++.a(string-inst.o)
                0x0000000000044a20                _ZN9__gnu_cxxeqIPcSsEEbRKNS_17__normal_iteratorIT_T0_EES7_
 .text._ZN9__gnu_cxxeqIPKcSsEEbRKNS_17__normal_iteratorIT_T0_EES8_
                0x0000000000044a40       0x20 /home/berkeley/nacl_sdk/pepper_42/toolchain/linux_x86_newlib/bin/../lib/gcc/x86_64-nacl/4.4.3/../../../../x86_64-nacl/lib/../lib64/libstdc++.a(string-inst.o)
                0x0000000000044a40                _ZN9__gnu_cxxeqIPKcSsEEbRKNS_17__normal_iteratorIT_T0_EES8_
 .text._ZNSs4_Rep10_M_refcopyEv
                0x0000000000044a60       0x60 /home/berkeley/nacl_sdk/pepper_42/toolchain/linux_x86_newlib/bin/../lib/gcc/x86_64-nacl/4.4.3/../../../../x86_64-nacl/lib/../lib64/libstdc++.a(string-inst.o)
                0x0000000000044a60                _ZNSs4_Rep10_M_refcopyEv
 .text._ZNSs4_Rep10_M_destroyERKSaIcE
                0x0000000000044ac0       0x20 /home/berkeley/nacl_sdk/pepper_42/toolchain/linux_x86_newlib/bin/../lib/gcc/x86_64-nacl/4.4.3/../../../../x86_64-nacl/lib/../lib64/libstdc++.a(string-inst.o)
                0x0000000000044ac0                _ZNSs4_Rep10_M_destroyERKSaIcE
 .text._ZNSs4_Rep10_M_disposeERKSaIcE
                0x0000000000044ae0       0x60 /home/berkeley/nacl_sdk/pepper_42/toolchain/linux_x86_newlib/bin/../lib/gcc/x86_64-nacl/4.4.3/../../../../x86_64-nacl/lib/../lib64/libstdc++.a(string-inst.o)
                0x0000000000044ae0                _ZNSs4_Rep10_M_disposeERKSaIcE
 .text._ZNKSs15_M_check_lengthEjjPKc
                0x0000000000044b40       0x60 /home/berkeley/nacl_sdk/pepper_42/toolchain/linux_x86_newlib/bin/../lib/gcc/x86_64-nacl/4.4.3/../../../../x86_64-nacl/lib/../lib64/libstdc++.a(string-inst.o)
                0x0000000000044b40                _ZNKSs15_M_check_lengthEjjPKc
 .text._ZNSs4_Rep9_S_createEjjRKSaIcE
                0x0000000000044ba0      0x120 /home/berkeley/nacl_sdk/pepper_42/toolchain/linux_x86_newlib/bin/../lib/gcc/x86_64-nacl/4.4.3/../../../../x86_64-nacl/lib/../lib64/libstdc++.a(string-inst.o)
                0x0000000000044ba0                _ZNSs4_Rep9_S_createEjjRKSaIcE
 .text._ZNKSs4findEPKcjj
                0x0000000000044cc0      0x140 /home/berkeley/nacl_sdk/pepper_42/toolchain/linux_x86_newlib/bin/../lib/gcc/x86_64-nacl/4.4.3/../../../../x86_64-nacl/lib/../lib64/libstdc++.a(string-inst.o)
                0x0000000000044cc0                _ZNKSs4findEPKcjj
 .text._ZNKSs4findERKSsj
                0x0000000000044e00       0x20 /home/berkeley/nacl_sdk/pepper_42/toolchain/linux_x86_newlib/bin/../lib/gcc/x86_64-nacl/4.4.3/../../../../x86_64-nacl/lib/../lib64/libstdc++.a(string-inst.o)
                0x0000000000044e00                _ZNKSs4findERKSsj
 .text._ZNKSs4findEcj
                0x0000000000044e20       0x80 /home/berkeley/nacl_sdk/pepper_42/toolchain/linux_x86_newlib/bin/../lib/gcc/x86_64-nacl/4.4.3/../../../../x86_64-nacl/lib/../lib64/libstdc++.a(string-inst.o)
                0x0000000000044e20                _ZNKSs4findEcj
 .text._ZNKSs13find_first_ofEcj
                0x0000000000044ea0       0x20 /home/berkeley/nacl_sdk/pepper_42/toolchain/linux_x86_newlib/bin/../lib/gcc/x86_64-nacl/4.4.3/../../../../x86_64-nacl/lib/../lib64/libstdc++.a(string-inst.o)
                0x0000000000044ea0                _ZNKSs13find_first_ofEcj
 .text._ZNKSs2atEj
                0x0000000000044ec0       0x60 /home/berkeley/nacl_sdk/pepper_42/toolchain/linux_x86_newlib/bin/../lib/gcc/x86_64-nacl/4.4.3/../../../../x86_64-nacl/lib/../lib64/libstdc++.a(string-inst.o)
                0x0000000000044ec0                _ZNKSs2atEj
 .text._ZNKSs8_M_checkEjPKc
                0x0000000000044f20       0x60 /home/berkeley/nacl_sdk/pepper_42/toolchain/linux_x86_newlib/bin/../lib/gcc/x86_64-nacl/4.4.3/../../../../x86_64-nacl/lib/../lib64/libstdc++.a(string-inst.o)
                0x0000000000044f20                _ZNKSs8_M_checkEjPKc
 .text._ZNSs9_M_assignEPcjc
                0x0000000000044f80       0x40 /home/berkeley/nacl_sdk/pepper_42/toolchain/linux_x86_newlib/bin/../lib/gcc/x86_64-nacl/4.4.3/../../../../x86_64-nacl/lib/../lib64/libstdc++.a(string-inst.o)
                0x0000000000044f80                _ZNSs9_M_assignEPcjc
 .text._ZNSs7_M_moveEPcPKcj
                0x0000000000044fc0       0x40 /home/berkeley/nacl_sdk/pepper_42/toolchain/linux_x86_newlib/bin/../lib/gcc/x86_64-nacl/4.4.3/../../../../x86_64-nacl/lib/../lib64/libstdc++.a(string-inst.o)
                0x0000000000044fc0                _ZNSs7_M_moveEPcPKcj
 .text._ZNSs7_M_copyEPcPKcj
                0x0000000000045000       0x40 /home/berkeley/nacl_sdk/pepper_42/toolchain/linux_x86_newlib/bin/../lib/gcc/x86_64-nacl/4.4.3/../../../../x86_64-nacl/lib/../lib64/libstdc++.a(string-inst.o)
                0x0000000000045000                _ZNSs7_M_copyEPcPKcj
 .text._ZNKSs16find_last_not_ofEPKcjj
                0x0000000000045040       0xe0 /home/berkeley/nacl_sdk/pepper_42/toolchain/linux_x86_newlib/bin/../lib/gcc/x86_64-nacl/4.4.3/../../../../x86_64-nacl/lib/../lib64/libstdc++.a(string-inst.o)
                0x0000000000045040                _ZNKSs16find_last_not_ofEPKcjj
 .text._ZNKSs16find_last_not_ofERKSsj
                0x0000000000045120       0x20 /home/berkeley/nacl_sdk/pepper_42/toolchain/linux_x86_newlib/bin/../lib/gcc/x86_64-nacl/4.4.3/../../../../x86_64-nacl/lib/../lib64/libstdc++.a(string-inst.o)
                0x0000000000045120                _ZNKSs16find_last_not_ofERKSsj
 .text._ZNKSs17find_first_not_ofEPKcjj
                0x0000000000045140       0xe0 /home/berkeley/nacl_sdk/pepper_42/toolchain/linux_x86_newlib/bin/../lib/gcc/x86_64-nacl/4.4.3/../../../../x86_64-nacl/lib/../lib64/libstdc++.a(string-inst.o)
                0x0000000000045140                _ZNKSs17find_first_not_ofEPKcjj
 .text._ZNKSs17find_first_not_ofERKSsj
                0x0000000000045220       0x20 /home/berkeley/nacl_sdk/pepper_42/toolchain/linux_x86_newlib/bin/../lib/gcc/x86_64-nacl/4.4.3/../../../../x86_64-nacl/lib/../lib64/libstdc++.a(string-inst.o)
                0x0000000000045220                _ZNKSs17find_first_not_ofERKSsj
 .text._ZNKSs12find_last_ofEPKcjj
                0x0000000000045240      0x100 /home/berkeley/nacl_sdk/pepper_42/toolchain/linux_x86_newlib/bin/../lib/gcc/x86_64-nacl/4.4.3/../../../../x86_64-nacl/lib/../lib64/libstdc++.a(string-inst.o)
                0x0000000000045240                _ZNKSs12find_last_ofEPKcjj
 .text._ZNKSs12find_last_ofERKSsj
                0x0000000000045340       0x20 /home/berkeley/nacl_sdk/pepper_42/toolchain/linux_x86_newlib/bin/../lib/gcc/x86_64-nacl/4.4.3/../../../../x86_64-nacl/lib/../lib64/libstdc++.a(string-inst.o)
                0x0000000000045340                _ZNKSs12find_last_ofERKSsj
 .text._ZNKSs13find_first_ofEPKcjj
                0x0000000000045360       0xc0 /home/berkeley/nacl_sdk/pepper_42/toolchain/linux_x86_newlib/bin/../lib/gcc/x86_64-nacl/4.4.3/../../../../x86_64-nacl/lib/../lib64/libstdc++.a(string-inst.o)
                0x0000000000045360                _ZNKSs13find_first_ofEPKcjj
 .text._ZNKSs13find_first_ofERKSsj
                0x0000000000045420       0x20 /home/berkeley/nacl_sdk/pepper_42/toolchain/linux_x86_newlib/bin/../lib/gcc/x86_64-nacl/4.4.3/../../../../x86_64-nacl/lib/../lib64/libstdc++.a(string-inst.o)
                0x0000000000045420                _ZNKSs13find_first_ofERKSsj
 .text._ZNKSs5rfindEPKcjj
                0x0000000000045440       0xe0 /home/berkeley/nacl_sdk/pepper_42/toolchain/linux_x86_newlib/bin/../lib/gcc/x86_64-nacl/4.4.3/../../../../x86_64-nacl/lib/../lib64/libstdc++.a(string-inst.o)
                0x0000000000045440                _ZNKSs5rfindEPKcjj
 .text._ZNKSs5rfindERKSsj
                0x0000000000045520       0x20 /home/berkeley/nacl_sdk/pepper_42/toolchain/linux_x86_newlib/bin/../lib/gcc/x86_64-nacl/4.4.3/../../../../x86_64-nacl/lib/../lib64/libstdc++.a(string-inst.o)
                0x0000000000045520                _ZNKSs5rfindERKSsj
 .text._ZNKSs7compareEjjPKcj
                0x0000000000045540       0xa0 /home/berkeley/nacl_sdk/pepper_42/toolchain/linux_x86_newlib/bin/../lib/gcc/x86_64-nacl/4.4.3/../../../../x86_64-nacl/lib/../lib64/libstdc++.a(string-inst.o)
                0x0000000000045540                _ZNKSs7compareEjjPKcj
 .text._ZNKSs7compareEjjRKSsjj
                0x00000000000455e0       0xc0 /home/berkeley/nacl_sdk/pepper_42/toolchain/linux_x86_newlib/bin/../lib/gcc/x86_64-nacl/4.4.3/../../../../x86_64-nacl/lib/../lib64/libstdc++.a(string-inst.o)
                0x00000000000455e0                _ZNKSs7compareEjjRKSsjj
 .text._ZNKSs7compareEjjRKSs
                0x00000000000456a0       0xc0 /home/berkeley/nacl_sdk/pepper_42/toolchain/linux_x86_newlib/bin/../lib/gcc/x86_64-nacl/4.4.3/../../../../x86_64-nacl/lib/../lib64/libstdc++.a(string-inst.o)
                0x00000000000456a0                _ZNKSs7compareEjjRKSs
 .text._ZNKSs7compareERKSs
                0x0000000000045760       0x80 /home/berkeley/nacl_sdk/pepper_42/toolchain/linux_x86_newlib/bin/../lib/gcc/x86_64-nacl/4.4.3/../../../../x86_64-nacl/lib/../lib64/libstdc++.a(string-inst.o)
                0x0000000000045760                _ZNKSs7compareERKSs
 .text._ZNKSs7compareEPKc
                0x00000000000457e0       0xa0 /home/berkeley/nacl_sdk/pepper_42/toolchain/linux_x86_newlib/bin/../lib/gcc/x86_64-nacl/4.4.3/../../../../x86_64-nacl/lib/../lib64/libstdc++.a(string-inst.o)
                0x00000000000457e0                _ZNKSs7compareEPKc
 .text._ZNKSs5rfindEPKcj
                0x0000000000045880       0x80 /home/berkeley/nacl_sdk/pepper_42/toolchain/linux_x86_newlib/bin/../lib/gcc/x86_64-nacl/4.4.3/../../../../x86_64-nacl/lib/../lib64/libstdc++.a(string-inst.o)
                0x0000000000045880                _ZNKSs5rfindEPKcj
 .text._ZNKSs4findEPKcj
                0x0000000000045900       0x80 /home/berkeley/nacl_sdk/pepper_42/toolchain/linux_x86_newlib/bin/../lib/gcc/x86_64-nacl/4.4.3/../../../../x86_64-nacl/lib/../lib64/libstdc++.a(string-inst.o)
                0x0000000000045900                _ZNKSs4findEPKcj
 .text._ZNKSs16find_last_not_ofEPKcj
                0x0000000000045980       0x80 /home/berkeley/nacl_sdk/pepper_42/toolchain/linux_x86_newlib/bin/../lib/gcc/x86_64-nacl/4.4.3/../../../../x86_64-nacl/lib/../lib64/libstdc++.a(string-inst.o)
                0x0000000000045980                _ZNKSs16find_last_not_ofEPKcj
 .text._ZNKSs17find_first_not_ofEPKcj
                0x0000000000045a00       0x80 /home/berkeley/nacl_sdk/pepper_42/toolchain/linux_x86_newlib/bin/../lib/gcc/x86_64-nacl/4.4.3/../../../../x86_64-nacl/lib/../lib64/libstdc++.a(string-inst.o)
                0x0000000000045a00                _ZNKSs17find_first_not_ofEPKcj
 .text._ZNKSs12find_last_ofEPKcj
                0x0000000000045a80       0x80 /home/berkeley/nacl_sdk/pepper_42/toolchain/linux_x86_newlib/bin/../lib/gcc/x86_64-nacl/4.4.3/../../../../x86_64-nacl/lib/../lib64/libstdc++.a(string-inst.o)
                0x0000000000045a80                _ZNKSs12find_last_ofEPKcj
 .text._ZNKSs13find_first_ofEPKcj
                0x0000000000045b00       0x80 /home/berkeley/nacl_sdk/pepper_42/toolchain/linux_x86_newlib/bin/../lib/gcc/x86_64-nacl/4.4.3/../../../../x86_64-nacl/lib/../lib64/libstdc++.a(string-inst.o)
                0x0000000000045b00                _ZNKSs13find_first_ofEPKcj
 .text._ZNKSs7compareEjjPKc
                0x0000000000045b80      0x100 /home/berkeley/nacl_sdk/pepper_42/toolchain/linux_x86_newlib/bin/../lib/gcc/x86_64-nacl/4.4.3/../../../../x86_64-nacl/lib/../lib64/libstdc++.a(string-inst.o)
                0x0000000000045b80                _ZNKSs7compareEjjPKc
 .text._ZNSsD1Ev
                0x0000000000045c80       0x80 /home/berkeley/nacl_sdk/pepper_42/toolchain/linux_x86_newlib/bin/../lib/gcc/x86_64-nacl/4.4.3/../../../../x86_64-nacl/lib/../lib64/libstdc++.a(string-inst.o)
                0x0000000000045c80                _ZNSsD1Ev
 .text._ZNSsD2Ev
                0x0000000000045d00       0x80 /home/berkeley/nacl_sdk/pepper_42/toolchain/linux_x86_newlib/bin/../lib/gcc/x86_64-nacl/4.4.3/../../../../x86_64-nacl/lib/../lib64/libstdc++.a(string-inst.o)
                0x0000000000045d00                _ZNSsD2Ev
 .text._ZNSs13_S_copy_charsEPcS_S_
                0x0000000000045d80       0x40 /home/berkeley/nacl_sdk/pepper_42/toolchain/linux_x86_newlib/bin/../lib/gcc/x86_64-nacl/4.4.3/../../../../x86_64-nacl/lib/../lib64/libstdc++.a(string-inst.o)
                0x0000000000045d80                _ZNSs13_S_copy_charsEPcS_S_
 .text._ZNSs13_S_copy_charsEPcPKcS1_
                0x0000000000045dc0       0x40 /home/berkeley/nacl_sdk/pepper_42/toolchain/linux_x86_newlib/bin/../lib/gcc/x86_64-nacl/4.4.3/../../../../x86_64-nacl/lib/../lib64/libstdc++.a(string-inst.o)
                0x0000000000045dc0                _ZNSs13_S_copy_charsEPcPKcS1_
 .text._ZNSs13_S_copy_charsEPcN9__gnu_cxx17__normal_iteratorIPKcSsEES4_
                0x0000000000045e00       0x40 /home/berkeley/nacl_sdk/pepper_42/toolchain/linux_x86_newlib/bin/../lib/gcc/x86_64-nacl/4.4.3/../../../../x86_64-nacl/lib/../lib64/libstdc++.a(string-inst.o)
                0x0000000000045e00                _ZNSs13_S_copy_charsEPcN9__gnu_cxx17__normal_iteratorIPKcSsEES4_
 .text._ZNSs13_S_copy_charsEPcN9__gnu_cxx17__normal_iteratorIS_SsEES2_
                0x0000000000045e40       0x40 /home/berkeley/nacl_sdk/pepper_42/toolchain/linux_x86_newlib/bin/../lib/gcc/x86_64-nacl/4.4.3/../../../../x86_64-nacl/lib/../lib64/libstdc++.a(string-inst.o)
                0x0000000000045e40                _ZNSs13_S_copy_charsEPcN9__gnu_cxx17__normal_iteratorIS_SsEES2_
 .text._ZNKSs4copyEPcjj
                0x0000000000045e80       0xc0 /home/berkeley/nacl_sdk/pepper_42/toolchain/linux_x86_newlib/bin/../lib/gcc/x86_64-nacl/4.4.3/../../../../x86_64-nacl/lib/../lib64/libstdc++.a(string-inst.o)
                0x0000000000045e80                _ZNKSs4copyEPcjj
 .text._ZNSs4_Rep8_M_cloneERKSaIcEj
                0x0000000000045f40      0x100 /home/berkeley/nacl_sdk/pepper_42/toolchain/linux_x86_newlib/bin/../lib/gcc/x86_64-nacl/4.4.3/../../../../x86_64-nacl/lib/../lib64/libstdc++.a(string-inst.o)
                0x0000000000045f40                _ZNSs4_Rep8_M_cloneERKSaIcEj
 .text._ZNSs4_Rep7_M_grabERKSaIcES2_
                0x0000000000046040       0x80 /home/berkeley/nacl_sdk/pepper_42/toolchain/linux_x86_newlib/bin/../lib/gcc/x86_64-nacl/4.4.3/../../../../x86_64-nacl/lib/../lib64/libstdc++.a(string-inst.o)
                0x0000000000046040                _ZNSs4_Rep7_M_grabERKSaIcES2_
 .text._ZNSs7reserveEj
                0x00000000000460c0      0x160 /home/berkeley/nacl_sdk/pepper_42/toolchain/linux_x86_newlib/bin/../lib/gcc/x86_64-nacl/4.4.3/../../../../x86_64-nacl/lib/../lib64/libstdc++.a(string-inst.o)
                0x00000000000460c0                _ZNSs7reserveEj
 .text._ZNSs9push_backEc
                0x0000000000046220      0x100 /home/berkeley/nacl_sdk/pepper_42/toolchain/linux_x86_newlib/bin/../lib/gcc/x86_64-nacl/4.4.3/../../../../x86_64-nacl/lib/../lib64/libstdc++.a(string-inst.o)
                0x0000000000046220                _ZNSs9push_backEc
 .text._ZNSs6appendEjc
                0x0000000000046320      0x1c0 /home/berkeley/nacl_sdk/pepper_42/toolchain/linux_x86_newlib/bin/../lib/gcc/x86_64-nacl/4.4.3/../../../../x86_64-nacl/lib/../lib64/libstdc++.a(string-inst.o)
                0x0000000000046320                _ZNSs6appendEjc
 .text._ZNSs6appendEPKcj
                0x00000000000464e0      0x220 /home/berkeley/nacl_sdk/pepper_42/toolchain/linux_x86_newlib/bin/../lib/gcc/x86_64-nacl/4.4.3/../../../../x86_64-nacl/lib/../lib64/libstdc++.a(string-inst.o)
                0x00000000000464e0                _ZNSs6appendEPKcj
 .text._ZNSs6appendEPKc
                0x0000000000046700       0x40 /home/berkeley/nacl_sdk/pepper_42/toolchain/linux_x86_newlib/bin/../lib/gcc/x86_64-nacl/4.4.3/../../../../x86_64-nacl/lib/../lib64/libstdc++.a(string-inst.o)
                0x0000000000046700                _ZNSs6appendEPKc
 .text._ZNSspLEPKc
                0x0000000000046740       0x40 /home/berkeley/nacl_sdk/pepper_42/toolchain/linux_x86_newlib/bin/../lib/gcc/x86_64-nacl/4.4.3/../../../../x86_64-nacl/lib/../lib64/libstdc++.a(string-inst.o)
                0x0000000000046740                _ZNSspLEPKc
 .text._ZNSs6appendERKSsjj
                0x0000000000046780      0x1a0 /home/berkeley/nacl_sdk/pepper_42/toolchain/linux_x86_newlib/bin/../lib/gcc/x86_64-nacl/4.4.3/../../../../x86_64-nacl/lib/../lib64/libstdc++.a(string-inst.o)
                0x0000000000046780                _ZNSs6appendERKSsjj
 .text._ZNSs6appendERKSs
                0x0000000000046920      0x180 /home/berkeley/nacl_sdk/pepper_42/toolchain/linux_x86_newlib/bin/../lib/gcc/x86_64-nacl/4.4.3/../../../../x86_64-nacl/lib/../lib64/libstdc++.a(string-inst.o)
                0x0000000000046920                _ZNSs6appendERKSs
 .text._ZNSspLERKSs
                0x0000000000046aa0       0x20 /home/berkeley/nacl_sdk/pepper_42/toolchain/linux_x86_newlib/bin/../lib/gcc/x86_64-nacl/4.4.3/../../../../x86_64-nacl/lib/../lib64/libstdc++.a(string-inst.o)
                0x0000000000046aa0                _ZNSspLERKSs
 .text._ZStplIcSt11char_traitsIcESaIcEESbIT_T0_T1_ES3_RKS6_
                0x0000000000046ac0      0x120 /home/berkeley/nacl_sdk/pepper_42/toolchain/linux_x86_newlib/bin/../lib/gcc/x86_64-nacl/4.4.3/../../../../x86_64-nacl/lib/../lib64/libstdc++.a(string-inst.o)
                0x0000000000046ac0                _ZStplIcSt11char_traitsIcESaIcEESbIT_T0_T1_ES3_RKS6_
 .text._ZStplIcSt11char_traitsIcESaIcEESbIT_T0_T1_EPKS3_RKS6_
                0x0000000000046be0      0x140 /home/berkeley/nacl_sdk/pepper_42/toolchain/linux_x86_newlib/bin/../lib/gcc/x86_64-nacl/4.4.3/../../../../x86_64-nacl/lib/../lib64/libstdc++.a(string-inst.o)
                0x0000000000046be0                _ZStplIcSt11char_traitsIcESaIcEESbIT_T0_T1_EPKS3_RKS6_
 .text._ZNSspLEc
                0x0000000000046d20      0x100 /home/berkeley/nacl_sdk/pepper_42/toolchain/linux_x86_newlib/bin/../lib/gcc/x86_64-nacl/4.4.3/../../../../x86_64-nacl/lib/../lib64/libstdc++.a(string-inst.o)
                0x0000000000046d20                _ZNSspLEc
 .text._ZNSsC1ERKSs
                0x0000000000046e20       0xe0 /home/berkeley/nacl_sdk/pepper_42/toolchain/linux_x86_newlib/bin/../lib/gcc/x86_64-nacl/4.4.3/../../../../x86_64-nacl/lib/../lib64/libstdc++.a(string-inst.o)
                0x0000000000046e20                _ZNSsC1ERKSs
 .text._ZStplIcSt11char_traitsIcESaIcEESbIT_T0_T1_ERKS6_S8_
                0x0000000000046f00       0xa0 /home/berkeley/nacl_sdk/pepper_42/toolchain/linux_x86_newlib/bin/../lib/gcc/x86_64-nacl/4.4.3/../../../../x86_64-nacl/lib/../lib64/libstdc++.a(string-inst.o)
                0x0000000000046f00                _ZStplIcSt11char_traitsIcESaIcEESbIT_T0_T1_ERKS6_S8_
 .text._ZNSsC2ERKSs
                0x0000000000046fa0       0xe0 /home/berkeley/nacl_sdk/pepper_42/toolchain/linux_x86_newlib/bin/../lib/gcc/x86_64-nacl/4.4.3/../../../../x86_64-nacl/lib/../lib64/libstdc++.a(string-inst.o)
                0x0000000000046fa0                _ZNSsC2ERKSs
 .text._ZNSs6assignERKSs
                0x0000000000047080      0x1a0 /home/berkeley/nacl_sdk/pepper_42/toolchain/linux_x86_newlib/bin/../lib/gcc/x86_64-nacl/4.4.3/../../../../x86_64-nacl/lib/../lib64/libstdc++.a(string-inst.o)
                0x0000000000047080                _ZNSs6assignERKSs
 .text._ZNSsaSERKSs
                0x0000000000047220       0x20 /home/berkeley/nacl_sdk/pepper_42/toolchain/linux_x86_newlib/bin/../lib/gcc/x86_64-nacl/4.4.3/../../../../x86_64-nacl/lib/../lib64/libstdc++.a(string-inst.o)
                0x0000000000047220                _ZNSsaSERKSs
 .text._ZNSs12_S_constructIPKcEEPcT_S3_RKSaIcESt20forward_iterator_tag
                0x0000000000047240      0x180 /home/berkeley/nacl_sdk/pepper_42/toolchain/linux_x86_newlib/bin/../lib/gcc/x86_64-nacl/4.4.3/../../../../x86_64-nacl/lib/../lib64/libstdc++.a(string-inst.o)
                0x0000000000047240                _ZNSs12_S_constructIPKcEEPcT_S3_RKSaIcESt20forward_iterator_tag
 .text._ZNSsC1IPKcEET_S2_RKSaIcE
                0x00000000000473c0       0x40 /home/berkeley/nacl_sdk/pepper_42/toolchain/linux_x86_newlib/bin/../lib/gcc/x86_64-nacl/4.4.3/../../../../x86_64-nacl/lib/../lib64/libstdc++.a(string-inst.o)
                0x00000000000473c0                _ZNSsC1IPKcEET_S2_RKSaIcE
 .text._ZNSsC2IPKcEET_S2_RKSaIcE
                0x0000000000047400       0x40 /home/berkeley/nacl_sdk/pepper_42/toolchain/linux_x86_newlib/bin/../lib/gcc/x86_64-nacl/4.4.3/../../../../x86_64-nacl/lib/../lib64/libstdc++.a(string-inst.o)
                0x0000000000047400                _ZNSsC2IPKcEET_S2_RKSaIcE
 .text._ZNSsC1ESt16initializer_listIcERKSaIcE
                0x0000000000047440       0x40 /home/berkeley/nacl_sdk/pepper_42/toolchain/linux_x86_newlib/bin/../lib/gcc/x86_64-nacl/4.4.3/../../../../x86_64-nacl/lib/../lib64/libstdc++.a(string-inst.o)
                0x0000000000047440                _ZNSsC1ESt16initializer_listIcERKSaIcE
 .text._ZNSsC2ESt16initializer_listIcERKSaIcE
                0x0000000000047480       0x40 /home/berkeley/nacl_sdk/pepper_42/toolchain/linux_x86_newlib/bin/../lib/gcc/x86_64-nacl/4.4.3/../../../../x86_64-nacl/lib/../lib64/libstdc++.a(string-inst.o)
                0x0000000000047480                _ZNSsC2ESt16initializer_listIcERKSaIcE
 .text._ZNSsC1EPKcRKSaIcE
                0x00000000000474c0       0xc0 /home/berkeley/nacl_sdk/pepper_42/toolchain/linux_x86_newlib/bin/../lib/gcc/x86_64-nacl/4.4.3/../../../../x86_64-nacl/lib/../lib64/libstdc++.a(string-inst.o)
                0x00000000000474c0                _ZNSsC1EPKcRKSaIcE
 .text._ZNSsC2EPKcRKSaIcE
                0x0000000000047580       0xc0 /home/berkeley/nacl_sdk/pepper_42/toolchain/linux_x86_newlib/bin/../lib/gcc/x86_64-nacl/4.4.3/../../../../x86_64-nacl/lib/../lib64/libstdc++.a(string-inst.o)
                0x0000000000047580                _ZNSsC2EPKcRKSaIcE
 .text._ZNSsC1EPKcjRKSaIcE
                0x0000000000047640       0x40 /home/berkeley/nacl_sdk/pepper_42/toolchain/linux_x86_newlib/bin/../lib/gcc/x86_64-nacl/4.4.3/../../../../x86_64-nacl/lib/../lib64/libstdc++.a(string-inst.o)
                0x0000000000047640                _ZNSsC1EPKcjRKSaIcE
 .text._ZNSsC2EPKcjRKSaIcE
                0x0000000000047680       0x40 /home/berkeley/nacl_sdk/pepper_42/toolchain/linux_x86_newlib/bin/../lib/gcc/x86_64-nacl/4.4.3/../../../../x86_64-nacl/lib/../lib64/libstdc++.a(string-inst.o)
                0x0000000000047680                _ZNSsC2EPKcjRKSaIcE
 .text._ZNSs12_S_constructIPcEES0_T_S1_RKSaIcESt20forward_iterator_tag
                0x00000000000476c0      0x180 /home/berkeley/nacl_sdk/pepper_42/toolchain/linux_x86_newlib/bin/../lib/gcc/x86_64-nacl/4.4.3/../../../../x86_64-nacl/lib/../lib64/libstdc++.a(string-inst.o)
                0x00000000000476c0                _ZNSs12_S_constructIPcEES0_T_S1_RKSaIcESt20forward_iterator_tag
 .text._ZNSsC1IPcEET_S1_RKSaIcE
                0x0000000000047840       0x40 /home/berkeley/nacl_sdk/pepper_42/toolchain/linux_x86_newlib/bin/../lib/gcc/x86_64-nacl/4.4.3/../../../../x86_64-nacl/lib/../lib64/libstdc++.a(string-inst.o)
                0x0000000000047840                _ZNSsC1IPcEET_S1_RKSaIcE
 .text._ZNSsC2IPcEET_S1_RKSaIcE
                0x0000000000047880       0x40 /home/berkeley/nacl_sdk/pepper_42/toolchain/linux_x86_newlib/bin/../lib/gcc/x86_64-nacl/4.4.3/../../../../x86_64-nacl/lib/../lib64/libstdc++.a(string-inst.o)
                0x0000000000047880                _ZNSsC2IPcEET_S1_RKSaIcE
 .text._ZNSsC1ERKSsjjRKSaIcE
                0x00000000000478c0       0x80 /home/berkeley/nacl_sdk/pepper_42/toolchain/linux_x86_newlib/bin/../lib/gcc/x86_64-nacl/4.4.3/../../../../x86_64-nacl/lib/../lib64/libstdc++.a(string-inst.o)
                0x00000000000478c0                _ZNSsC1ERKSsjjRKSaIcE
 .text._ZNSsC2ERKSsjjRKSaIcE
                0x0000000000047940       0x80 /home/berkeley/nacl_sdk/pepper_42/toolchain/linux_x86_newlib/bin/../lib/gcc/x86_64-nacl/4.4.3/../../../../x86_64-nacl/lib/../lib64/libstdc++.a(string-inst.o)
                0x0000000000047940                _ZNSsC2ERKSsjjRKSaIcE
 .text._ZNSsC1ERKSsjj
                0x00000000000479c0       0xa0 /home/berkeley/nacl_sdk/pepper_42/toolchain/linux_x86_newlib/bin/../lib/gcc/x86_64-nacl/4.4.3/../../../../x86_64-nacl/lib/../lib64/libstdc++.a(string-inst.o)
                0x00000000000479c0                _ZNSsC1ERKSsjj
 .text._ZNKSs6substrEjj
                0x0000000000047a60       0x60 /home/berkeley/nacl_sdk/pepper_42/toolchain/linux_x86_newlib/bin/../lib/gcc/x86_64-nacl/4.4.3/../../../../x86_64-nacl/lib/../lib64/libstdc++.a(string-inst.o)
                0x0000000000047a60                _ZNKSs6substrEjj
 .text._ZNSsC2ERKSsjj
                0x0000000000047ac0       0xa0 /home/berkeley/nacl_sdk/pepper_42/toolchain/linux_x86_newlib/bin/../lib/gcc/x86_64-nacl/4.4.3/../../../../x86_64-nacl/lib/../lib64/libstdc++.a(string-inst.o)
                0x0000000000047ac0                _ZNSsC2ERKSsjj
 .text._ZNSs12_S_constructEjcRKSaIcE
                0x0000000000047b60       0xe0 /home/berkeley/nacl_sdk/pepper_42/toolchain/linux_x86_newlib/bin/../lib/gcc/x86_64-nacl/4.4.3/../../../../x86_64-nacl/lib/../lib64/libstdc++.a(string-inst.o)
                0x0000000000047b60                _ZNSs12_S_constructEjcRKSaIcE
 .text._ZNSsC1EjcRKSaIcE
                0x0000000000047c40       0x40 /home/berkeley/nacl_sdk/pepper_42/toolchain/linux_x86_newlib/bin/../lib/gcc/x86_64-nacl/4.4.3/../../../../x86_64-nacl/lib/../lib64/libstdc++.a(string-inst.o)
                0x0000000000047c40                _ZNSsC1EjcRKSaIcE
 .text._ZNSsC2EjcRKSaIcE
                0x0000000000047c80       0x40 /home/berkeley/nacl_sdk/pepper_42/toolchain/linux_x86_newlib/bin/../lib/gcc/x86_64-nacl/4.4.3/../../../../x86_64-nacl/lib/../lib64/libstdc++.a(string-inst.o)
                0x0000000000047c80                _ZNSsC2EjcRKSaIcE
 .text._ZNSsC1ERKSaIcE
                0x0000000000047cc0       0x40 /home/berkeley/nacl_sdk/pepper_42/toolchain/linux_x86_newlib/bin/../lib/gcc/x86_64-nacl/4.4.3/../../../../x86_64-nacl/lib/../lib64/libstdc++.a(string-inst.o)
                0x0000000000047cc0                _ZNSsC1ERKSaIcE
 .text._ZNSsC2ERKSaIcE
                0x0000000000047d00       0x40 /home/berkeley/nacl_sdk/pepper_42/toolchain/linux_x86_newlib/bin/../lib/gcc/x86_64-nacl/4.4.3/../../../../x86_64-nacl/lib/../lib64/libstdc++.a(string-inst.o)
                0x0000000000047d00                _ZNSsC2ERKSaIcE
 .text._ZNSs12_S_constructIN9__gnu_cxx17__normal_iteratorIPcSsEEEES2_T_S4_RKSaIcESt20forward_iterator_tag
                0x0000000000047d40       0xe0 /home/berkeley/nacl_sdk/pepper_42/toolchain/linux_x86_newlib/bin/../lib/gcc/x86_64-nacl/4.4.3/../../../../x86_64-nacl/lib/../lib64/libstdc++.a(string-inst.o)
                0x0000000000047d40                _ZNSs12_S_constructIN9__gnu_cxx17__normal_iteratorIPcSsEEEES2_T_S4_RKSaIcESt20forward_iterator_tag
 .text._ZNSsC1IN9__gnu_cxx17__normal_iteratorIPcSsEEEET_S4_RKSaIcE
                0x0000000000047e20       0x40 /home/berkeley/nacl_sdk/pepper_42/toolchain/linux_x86_newlib/bin/../lib/gcc/x86_64-nacl/4.4.3/../../../../x86_64-nacl/lib/../lib64/libstdc++.a(string-inst.o)
                0x0000000000047e20                _ZNSsC1IN9__gnu_cxx17__normal_iteratorIPcSsEEEET_S4_RKSaIcE
 .text._ZNSsC2IN9__gnu_cxx17__normal_iteratorIPcSsEEEET_S4_RKSaIcE
                0x0000000000047e60       0x40 /home/berkeley/nacl_sdk/pepper_42/toolchain/linux_x86_newlib/bin/../lib/gcc/x86_64-nacl/4.4.3/../../../../x86_64-nacl/lib/../lib64/libstdc++.a(string-inst.o)
                0x0000000000047e60                _ZNSsC2IN9__gnu_cxx17__normal_iteratorIPcSsEEEET_S4_RKSaIcE
 .text._ZNSs9_M_mutateEjjj
                0x0000000000047ea0      0x340 /home/berkeley/nacl_sdk/pepper_42/toolchain/linux_x86_newlib/bin/../lib/gcc/x86_64-nacl/4.4.3/../../../../x86_64-nacl/lib/../lib64/libstdc++.a(string-inst.o)
                0x0000000000047ea0                _ZNSs9_M_mutateEjjj
 .text._ZNSs15_M_replace_safeEjjPKcj
                0x00000000000481e0      0x100 /home/berkeley/nacl_sdk/pepper_42/toolchain/linux_x86_newlib/bin/../lib/gcc/x86_64-nacl/4.4.3/../../../../x86_64-nacl/lib/../lib64/libstdc++.a(string-inst.o)
                0x00000000000481e0                _ZNSs15_M_replace_safeEjjPKcj
 .text._ZNSs6assignEPKcj
                0x00000000000482e0      0x1a0 /home/berkeley/nacl_sdk/pepper_42/toolchain/linux_x86_newlib/bin/../lib/gcc/x86_64-nacl/4.4.3/../../../../x86_64-nacl/lib/../lib64/libstdc++.a(string-inst.o)
                0x00000000000482e0                _ZNSs6assignEPKcj
 .text._ZNSs6assignEPKc
                0x0000000000048480       0x40 /home/berkeley/nacl_sdk/pepper_42/toolchain/linux_x86_newlib/bin/../lib/gcc/x86_64-nacl/4.4.3/../../../../x86_64-nacl/lib/../lib64/libstdc++.a(string-inst.o)
                0x0000000000048480                _ZNSs6assignEPKc
 .text._ZNSs6assignERKSsjj
                0x00000000000484c0       0x60 /home/berkeley/nacl_sdk/pepper_42/toolchain/linux_x86_newlib/bin/../lib/gcc/x86_64-nacl/4.4.3/../../../../x86_64-nacl/lib/../lib64/libstdc++.a(string-inst.o)
                0x00000000000484c0                _ZNSs6assignERKSsjj
 .text._ZNSsaSEPKc
                0x0000000000048520       0x40 /home/berkeley/nacl_sdk/pepper_42/toolchain/linux_x86_newlib/bin/../lib/gcc/x86_64-nacl/4.4.3/../../../../x86_64-nacl/lib/../lib64/libstdc++.a(string-inst.o)
                0x0000000000048520                _ZNSsaSEPKc
 .text._ZNSs14_M_replace_auxEjjjc
                0x0000000000048560      0x140 /home/berkeley/nacl_sdk/pepper_42/toolchain/linux_x86_newlib/bin/../lib/gcc/x86_64-nacl/4.4.3/../../../../x86_64-nacl/lib/../lib64/libstdc++.a(string-inst.o)
                0x0000000000048560                _ZNSs14_M_replace_auxEjjjc
 .text._ZNSs7replaceEN9__gnu_cxx17__normal_iteratorIPcSsEES2_jc
                0x00000000000486a0       0x20 /home/berkeley/nacl_sdk/pepper_42/toolchain/linux_x86_newlib/bin/../lib/gcc/x86_64-nacl/4.4.3/../../../../x86_64-nacl/lib/../lib64/libstdc++.a(string-inst.o)
                0x00000000000486a0                _ZNSs7replaceEN9__gnu_cxx17__normal_iteratorIPcSsEES2_jc
 .text._ZNSs7replaceEjjjc
                0x00000000000486c0       0x60 /home/berkeley/nacl_sdk/pepper_42/toolchain/linux_x86_newlib/bin/../lib/gcc/x86_64-nacl/4.4.3/../../../../x86_64-nacl/lib/../lib64/libstdc++.a(string-inst.o)
                0x00000000000486c0                _ZNSs7replaceEjjjc
 .text._ZNSs6insertEN9__gnu_cxx17__normal_iteratorIPcSsEEc
                0x0000000000048720       0x80 /home/berkeley/nacl_sdk/pepper_42/toolchain/linux_x86_newlib/bin/../lib/gcc/x86_64-nacl/4.4.3/../../../../x86_64-nacl/lib/../lib64/libstdc++.a(string-inst.o)
                0x0000000000048720                _ZNSs6insertEN9__gnu_cxx17__normal_iteratorIPcSsEEc
 .text._ZNSs6insertEjjc
                0x00000000000487a0       0x60 /home/berkeley/nacl_sdk/pepper_42/toolchain/linux_x86_newlib/bin/../lib/gcc/x86_64-nacl/4.4.3/../../../../x86_64-nacl/lib/../lib64/libstdc++.a(string-inst.o)
                0x00000000000487a0                _ZNSs6insertEjjc
 .text._ZNSs6assignEjc
                0x0000000000048800       0x20 /home/berkeley/nacl_sdk/pepper_42/toolchain/linux_x86_newlib/bin/../lib/gcc/x86_64-nacl/4.4.3/../../../../x86_64-nacl/lib/../lib64/libstdc++.a(string-inst.o)
                0x0000000000048800                _ZNSs6assignEjc
 .text._ZNSs6insertEN9__gnu_cxx17__normal_iteratorIPcSsEEjc
                0x0000000000048820       0x20 /home/berkeley/nacl_sdk/pepper_42/toolchain/linux_x86_newlib/bin/../lib/gcc/x86_64-nacl/4.4.3/../../../../x86_64-nacl/lib/../lib64/libstdc++.a(string-inst.o)
                0x0000000000048820                _ZNSs6insertEN9__gnu_cxx17__normal_iteratorIPcSsEEjc
 .text._ZNSsaSEc
                0x0000000000048840       0x60 /home/berkeley/nacl_sdk/pepper_42/toolchain/linux_x86_newlib/bin/../lib/gcc/x86_64-nacl/4.4.3/../../../../x86_64-nacl/lib/../lib64/libstdc++.a(string-inst.o)
                0x0000000000048840                _ZNSsaSEc
 .text._ZNSs5eraseEN9__gnu_cxx17__normal_iteratorIPcSsEES2_
                0x00000000000488a0       0x80 /home/berkeley/nacl_sdk/pepper_42/toolchain/linux_x86_newlib/bin/../lib/gcc/x86_64-nacl/4.4.3/../../../../x86_64-nacl/lib/../lib64/libstdc++.a(string-inst.o)
                0x00000000000488a0                _ZNSs5eraseEN9__gnu_cxx17__normal_iteratorIPcSsEES2_
 .text._ZNSs5eraseEN9__gnu_cxx17__normal_iteratorIPcSsEE
                0x0000000000048920       0x80 /home/berkeley/nacl_sdk/pepper_42/toolchain/linux_x86_newlib/bin/../lib/gcc/x86_64-nacl/4.4.3/../../../../x86_64-nacl/lib/../lib64/libstdc++.a(string-inst.o)
                0x0000000000048920                _ZNSs5eraseEN9__gnu_cxx17__normal_iteratorIPcSsEE
 .text._ZNSs5eraseEjj
                0x00000000000489a0       0x80 /home/berkeley/nacl_sdk/pepper_42/toolchain/linux_x86_newlib/bin/../lib/gcc/x86_64-nacl/4.4.3/../../../../x86_64-nacl/lib/../lib64/libstdc++.a(string-inst.o)
                0x00000000000489a0                _ZNSs5eraseEjj
 .text._ZNSs5clearEv
                0x0000000000048a20       0x20 /home/berkeley/nacl_sdk/pepper_42/toolchain/linux_x86_newlib/bin/../lib/gcc/x86_64-nacl/4.4.3/../../../../x86_64-nacl/lib/../lib64/libstdc++.a(string-inst.o)
                0x0000000000048a20                _ZNSs5clearEv
 .text._ZNSs12_M_leak_hardEv
                0x0000000000048a40       0xa0 /home/berkeley/nacl_sdk/pepper_42/toolchain/linux_x86_newlib/bin/../lib/gcc/x86_64-nacl/4.4.3/../../../../x86_64-nacl/lib/../lib64/libstdc++.a(string-inst.o)
                0x0000000000048a40                _ZNSs12_M_leak_hardEv
 .text._ZNSs7_M_leakEv
                0x0000000000048ae0       0x40 /home/berkeley/nacl_sdk/pepper_42/toolchain/linux_x86_newlib/bin/../lib/gcc/x86_64-nacl/4.4.3/../../../../x86_64-nacl/lib/../lib64/libstdc++.a(string-inst.o)
                0x0000000000048ae0                _ZNSs7_M_leakEv
 .text._ZNSs2atEj
                0x0000000000048b20       0xa0 /home/berkeley/nacl_sdk/pepper_42/toolchain/linux_x86_newlib/bin/../lib/gcc/x86_64-nacl/4.4.3/../../../../x86_64-nacl/lib/../lib64/libstdc++.a(string-inst.o)
                0x0000000000048b20                _ZNSs2atEj
 .text._ZNSsixEj
                0x0000000000048bc0       0x80 /home/berkeley/nacl_sdk/pepper_42/toolchain/linux_x86_newlib/bin/../lib/gcc/x86_64-nacl/4.4.3/../../../../x86_64-nacl/lib/../lib64/libstdc++.a(string-inst.o)
                0x0000000000048bc0                _ZNSsixEj
 .text._ZNSs3endEv
                0x0000000000048c40       0x60 /home/berkeley/nacl_sdk/pepper_42/toolchain/linux_x86_newlib/bin/../lib/gcc/x86_64-nacl/4.4.3/../../../../x86_64-nacl/lib/../lib64/libstdc++.a(string-inst.o)
                0x0000000000048c40                _ZNSs3endEv
 .text._ZNSs5beginEv
                0x0000000000048ca0       0x60 /home/berkeley/nacl_sdk/pepper_42/toolchain/linux_x86_newlib/bin/../lib/gcc/x86_64-nacl/4.4.3/../../../../x86_64-nacl/lib/../lib64/libstdc++.a(string-inst.o)
                0x0000000000048ca0                _ZNSs5beginEv
 .text._ZNSs4rendEv
                0x0000000000048d00       0xa0 /home/berkeley/nacl_sdk/pepper_42/toolchain/linux_x86_newlib/bin/../lib/gcc/x86_64-nacl/4.4.3/../../../../x86_64-nacl/lib/../lib64/libstdc++.a(string-inst.o)
                0x0000000000048d00                _ZNSs4rendEv
 .text._ZNSs6rbeginEv
                0x0000000000048da0       0xa0 /home/berkeley/nacl_sdk/pepper_42/toolchain/linux_x86_newlib/bin/../lib/gcc/x86_64-nacl/4.4.3/../../../../x86_64-nacl/lib/../lib64/libstdc++.a(string-inst.o)
                0x0000000000048da0                _ZNSs6rbeginEv
 .text._ZNSs7replaceEjjPKcj
                0x0000000000048e40      0x320 /home/berkeley/nacl_sdk/pepper_42/toolchain/linux_x86_newlib/bin/../lib/gcc/x86_64-nacl/4.4.3/../../../../x86_64-nacl/lib/../lib64/libstdc++.a(string-inst.o)
                0x0000000000048e40                _ZNSs7replaceEjjPKcj
 .text._ZNSs7replaceEN9__gnu_cxx17__normal_iteratorIPcSsEES2_NS0_IPKcSsEES5_
                0x0000000000049160       0x20 /home/berkeley/nacl_sdk/pepper_42/toolchain/linux_x86_newlib/bin/../lib/gcc/x86_64-nacl/4.4.3/../../../../x86_64-nacl/lib/../lib64/libstdc++.a(string-inst.o)
                0x0000000000049160                _ZNSs7replaceEN9__gnu_cxx17__normal_iteratorIPcSsEES2_NS0_IPKcSsEES5_
 .text._ZNSs7replaceEN9__gnu_cxx17__normal_iteratorIPcSsEES2_S2_S2_
                0x0000000000049180       0x20 /home/berkeley/nacl_sdk/pepper_42/toolchain/linux_x86_newlib/bin/../lib/gcc/x86_64-nacl/4.4.3/../../../../x86_64-nacl/lib/../lib64/libstdc++.a(string-inst.o)
                0x0000000000049180                _ZNSs7replaceEN9__gnu_cxx17__normal_iteratorIPcSsEES2_S2_S2_
 .text._ZNSs7replaceEN9__gnu_cxx17__normal_iteratorIPcSsEES2_PKcS4_
                0x00000000000491a0       0x20 /home/berkeley/nacl_sdk/pepper_42/toolchain/linux_x86_newlib/bin/../lib/gcc/x86_64-nacl/4.4.3/../../../../x86_64-nacl/lib/../lib64/libstdc++.a(string-inst.o)
                0x00000000000491a0                _ZNSs7replaceEN9__gnu_cxx17__normal_iteratorIPcSsEES2_PKcS4_
 .text._ZNSs7replaceEN9__gnu_cxx17__normal_iteratorIPcSsEES2_S1_S1_
                0x00000000000491c0       0x20 /home/berkeley/nacl_sdk/pepper_42/toolchain/linux_x86_newlib/bin/../lib/gcc/x86_64-nacl/4.4.3/../../../../x86_64-nacl/lib/../lib64/libstdc++.a(string-inst.o)
                0x00000000000491c0                _ZNSs7replaceEN9__gnu_cxx17__normal_iteratorIPcSsEES2_S1_S1_
 .text._ZNSs7replaceEN9__gnu_cxx17__normal_iteratorIPcSsEES2_PKcj
                0x00000000000491e0       0x20 /home/berkeley/nacl_sdk/pepper_42/toolchain/linux_x86_newlib/bin/../lib/gcc/x86_64-nacl/4.4.3/../../../../x86_64-nacl/lib/../lib64/libstdc++.a(string-inst.o)
                0x00000000000491e0                _ZNSs7replaceEN9__gnu_cxx17__normal_iteratorIPcSsEES2_PKcj
 .text._ZNSs7replaceEjjPKc
                0x0000000000049200       0x80 /home/berkeley/nacl_sdk/pepper_42/toolchain/linux_x86_newlib/bin/../lib/gcc/x86_64-nacl/4.4.3/../../../../x86_64-nacl/lib/../lib64/libstdc++.a(string-inst.o)
                0x0000000000049200                _ZNSs7replaceEjjPKc
 .text._ZNSs7replaceEjjRKSsjj
                0x0000000000049280       0x60 /home/berkeley/nacl_sdk/pepper_42/toolchain/linux_x86_newlib/bin/../lib/gcc/x86_64-nacl/4.4.3/../../../../x86_64-nacl/lib/../lib64/libstdc++.a(string-inst.o)
                0x0000000000049280                _ZNSs7replaceEjjRKSsjj
 .text._ZNSs7replaceEjjRKSs
                0x00000000000492e0       0x20 /home/berkeley/nacl_sdk/pepper_42/toolchain/linux_x86_newlib/bin/../lib/gcc/x86_64-nacl/4.4.3/../../../../x86_64-nacl/lib/../lib64/libstdc++.a(string-inst.o)
                0x00000000000492e0                _ZNSs7replaceEjjRKSs
 .text._ZNSs7replaceEN9__gnu_cxx17__normal_iteratorIPcSsEES2_PKc
                0x0000000000049300       0x80 /home/berkeley/nacl_sdk/pepper_42/toolchain/linux_x86_newlib/bin/../lib/gcc/x86_64-nacl/4.4.3/../../../../x86_64-nacl/lib/../lib64/libstdc++.a(string-inst.o)
                0x0000000000049300                _ZNSs7replaceEN9__gnu_cxx17__normal_iteratorIPcSsEES2_PKc
 .text._ZNSs7replaceEN9__gnu_cxx17__normal_iteratorIPcSsEES2_RKSs
                0x0000000000049380       0x20 /home/berkeley/nacl_sdk/pepper_42/toolchain/linux_x86_newlib/bin/../lib/gcc/x86_64-nacl/4.4.3/../../../../x86_64-nacl/lib/../lib64/libstdc++.a(string-inst.o)
                0x0000000000049380                _ZNSs7replaceEN9__gnu_cxx17__normal_iteratorIPcSsEES2_RKSs
 .text._ZNSs7replaceEN9__gnu_cxx17__normal_iteratorIPcSsEES2_St16initializer_listIcE
                0x00000000000493a0       0x20 /home/berkeley/nacl_sdk/pepper_42/toolchain/linux_x86_newlib/bin/../lib/gcc/x86_64-nacl/4.4.3/../../../../x86_64-nacl/lib/../lib64/libstdc++.a(string-inst.o)
                0x00000000000493a0                _ZNSs7replaceEN9__gnu_cxx17__normal_iteratorIPcSsEES2_St16initializer_listIcE
 .text._ZNSs6insertEN9__gnu_cxx17__normal_iteratorIPcSsEESt16initializer_listIcE
                0x00000000000493c0       0x20 /home/berkeley/nacl_sdk/pepper_42/toolchain/linux_x86_newlib/bin/../lib/gcc/x86_64-nacl/4.4.3/../../../../x86_64-nacl/lib/../lib64/libstdc++.a(string-inst.o)
                0x00000000000493c0                _ZNSs6insertEN9__gnu_cxx17__normal_iteratorIPcSsEESt16initializer_listIcE
 .text._ZNSs6assignESt16initializer_listIcE
                0x00000000000493e0       0x40 /home/berkeley/nacl_sdk/pepper_42/toolchain/linux_x86_newlib/bin/../lib/gcc/x86_64-nacl/4.4.3/../../../../x86_64-nacl/lib/../lib64/libstdc++.a(string-inst.o)
                0x00000000000493e0                _ZNSs6assignESt16initializer_listIcE
 .text._ZNSsaSESt16initializer_listIcE
                0x0000000000049420       0x60 /home/berkeley/nacl_sdk/pepper_42/toolchain/linux_x86_newlib/bin/../lib/gcc/x86_64-nacl/4.4.3/../../../../x86_64-nacl/lib/../lib64/libstdc++.a(string-inst.o)
                0x0000000000049420                _ZNSsaSESt16initializer_listIcE
 .text._ZNSs6appendESt16initializer_listIcE
                0x0000000000049480       0x40 /home/berkeley/nacl_sdk/pepper_42/toolchain/linux_x86_newlib/bin/../lib/gcc/x86_64-nacl/4.4.3/../../../../x86_64-nacl/lib/../lib64/libstdc++.a(string-inst.o)
                0x0000000000049480                _ZNSs6appendESt16initializer_listIcE
 .text._ZNSspLESt16initializer_listIcE
                0x00000000000494c0       0x40 /home/berkeley/nacl_sdk/pepper_42/toolchain/linux_x86_newlib/bin/../lib/gcc/x86_64-nacl/4.4.3/../../../../x86_64-nacl/lib/../lib64/libstdc++.a(string-inst.o)
                0x00000000000494c0                _ZNSspLESt16initializer_listIcE
 .text._ZNSs6resizeEjc
                0x0000000000049500       0xa0 /home/berkeley/nacl_sdk/pepper_42/toolchain/linux_x86_newlib/bin/../lib/gcc/x86_64-nacl/4.4.3/../../../../x86_64-nacl/lib/../lib64/libstdc++.a(string-inst.o)
                0x0000000000049500                _ZNSs6resizeEjc
 .text._ZNSs6resizeEj
                0x00000000000495a0       0x20 /home/berkeley/nacl_sdk/pepper_42/toolchain/linux_x86_newlib/bin/../lib/gcc/x86_64-nacl/4.4.3/../../../../x86_64-nacl/lib/../lib64/libstdc++.a(string-inst.o)
                0x00000000000495a0                _ZNSs6resizeEj
 .text._ZNSs6insertEjPKcj
                0x00000000000495c0      0x2c0 /home/berkeley/nacl_sdk/pepper_42/toolchain/linux_x86_newlib/bin/../lib/gcc/x86_64-nacl/4.4.3/../../../../x86_64-nacl/lib/../lib64/libstdc++.a(string-inst.o)
                0x00000000000495c0                _ZNSs6insertEjPKcj
 .text._ZNSs6insertEjPKc
                0x0000000000049880       0x80 /home/berkeley/nacl_sdk/pepper_42/toolchain/linux_x86_newlib/bin/../lib/gcc/x86_64-nacl/4.4.3/../../../../x86_64-nacl/lib/../lib64/libstdc++.a(string-inst.o)
                0x0000000000049880                _ZNSs6insertEjPKc
 .text._ZNSs6insertEjRKSsjj
                0x0000000000049900       0x60 /home/berkeley/nacl_sdk/pepper_42/toolchain/linux_x86_newlib/bin/../lib/gcc/x86_64-nacl/4.4.3/../../../../x86_64-nacl/lib/../lib64/libstdc++.a(string-inst.o)
                0x0000000000049900                _ZNSs6insertEjRKSsjj
 .text._ZNSs6insertEjRKSs
                0x0000000000049960       0x20 /home/berkeley/nacl_sdk/pepper_42/toolchain/linux_x86_newlib/bin/../lib/gcc/x86_64-nacl/4.4.3/../../../../x86_64-nacl/lib/../lib64/libstdc++.a(string-inst.o)
                0x0000000000049960                _ZNSs6insertEjRKSs
 .text          0x0000000000049980        0x0 /home/berkeley/nacl_sdk/pepper_42/toolchain/linux_x86_newlib/bin/../lib/gcc/x86_64-nacl/4.4.3/../../../../x86_64-nacl/lib/../lib64/libstdc++.a(eh_personality.o)
 .text._ZL16get_adjusted_ptrPKSt9type_infoS1_PPv
                0x0000000000049980      0x120 /home/berkeley/nacl_sdk/pepper_42/toolchain/linux_x86_newlib/bin/../lib/gcc/x86_64-nacl/4.4.3/../../../../x86_64-nacl/lib/../lib64/libstdc++.a(eh_personality.o)
 .text._ZL21base_of_encoded_valuehP15_Unwind_Context
                0x0000000000049aa0      0x120 /home/berkeley/nacl_sdk/pepper_42/toolchain/linux_x86_newlib/bin/../lib/gcc/x86_64-nacl/4.4.3/../../../../x86_64-nacl/lib/../lib64/libstdc++.a(eh_personality.o)
 .text._ZL28read_encoded_value_with_basehjPKhPj
                0x0000000000049bc0      0x260 /home/berkeley/nacl_sdk/pepper_42/toolchain/linux_x86_newlib/bin/../lib/gcc/x86_64-nacl/4.4.3/../../../../x86_64-nacl/lib/../lib64/libstdc++.a(eh_personality.o)
 .text._ZL17parse_lsda_headerP15_Unwind_ContextPKhP16lsda_header_info
                0x0000000000049e20      0x1c0 /home/berkeley/nacl_sdk/pepper_42/toolchain/linux_x86_newlib/bin/../lib/gcc/x86_64-nacl/4.4.3/../../../../x86_64-nacl/lib/../lib64/libstdc++.a(eh_personality.o)
 .text._ZL15get_ttype_entryP16lsda_header_infom
                0x0000000000049fe0      0x140 /home/berkeley/nacl_sdk/pepper_42/toolchain/linux_x86_newlib/bin/../lib/gcc/x86_64-nacl/4.4.3/../../../../x86_64-nacl/lib/../lib64/libstdc++.a(eh_personality.o)
 .text._ZL20check_exception_specP16lsda_header_infoPKSt9type_infoPvl
                0x000000000004a120      0x120 /home/berkeley/nacl_sdk/pepper_42/toolchain/linux_x86_newlib/bin/../lib/gcc/x86_64-nacl/4.4.3/../../../../x86_64-nacl/lib/../lib64/libstdc++.a(eh_personality.o)
 .text.__cxa_call_unexpected
                0x000000000004a240      0x260 /home/berkeley/nacl_sdk/pepper_42/toolchain/linux_x86_newlib/bin/../lib/gcc/x86_64-nacl/4.4.3/../../../../x86_64-nacl/lib/../lib64/libstdc++.a(eh_personality.o)
                0x000000000004a240                __cxa_call_unexpected
 .text.__gxx_personality_v0
                0x000000000004a4a0      0xa40 /home/berkeley/nacl_sdk/pepper_42/toolchain/linux_x86_newlib/bin/../lib/gcc/x86_64-nacl/4.4.3/../../../../x86_64-nacl/lib/../lib64/libstdc++.a(eh_personality.o)
                0x000000000004a4a0                __gxx_personality_v0
 .text          0x000000000004aee0        0x0 /home/berkeley/nacl_sdk/pepper_42/toolchain/linux_x86_newlib/bin/../lib/gcc/x86_64-nacl/4.4.3/../../../../x86_64-nacl/lib/../lib64/libstdc++.a(eh_globals.o)
 .text._ZN17__eh_globals_initD1Ev
                0x000000000004aee0       0x80 /home/berkeley/nacl_sdk/pepper_42/toolchain/linux_x86_newlib/bin/../lib/gcc/x86_64-nacl/4.4.3/../../../../x86_64-nacl/lib/../lib64/libstdc++.a(eh_globals.o)
                0x000000000004aee0                _ZN17__eh_globals_initD1Ev
 .text._GLOBAL__I___cxa_get_globals_fast
                0x000000000004af60       0x20 /home/berkeley/nacl_sdk/pepper_42/toolchain/linux_x86_newlib/bin/../lib/gcc/x86_64-nacl/4.4.3/../../../../x86_64-nacl/lib/../lib64/libstdc++.a(eh_globals.o)
 .text._ZL15eh_globals_dtorPv
                0x000000000004af80       0xc0 /home/berkeley/nacl_sdk/pepper_42/toolchain/linux_x86_newlib/bin/../lib/gcc/x86_64-nacl/4.4.3/../../../../x86_64-nacl/lib/../lib64/libstdc++.a(eh_globals.o)
 .text.__cxa_get_globals
                0x000000000004b040      0x140 /home/berkeley/nacl_sdk/pepper_42/toolchain/linux_x86_newlib/bin/../lib/gcc/x86_64-nacl/4.4.3/../../../../x86_64-nacl/lib/../lib64/libstdc++.a(eh_globals.o)
                0x000000000004b040                __cxa_get_globals
 .text.__cxa_get_globals_fast
                0x000000000004b180       0xc0 /home/berkeley/nacl_sdk/pepper_42/toolchain/linux_x86_newlib/bin/../lib/gcc/x86_64-nacl/4.4.3/../../../../x86_64-nacl/lib/../lib64/libstdc++.a(eh_globals.o)
                0x000000000004b180                __cxa_get_globals_fast
 .text          0x000000000004b240        0x0 /home/berkeley/nacl_sdk/pepper_42/toolchain/linux_x86_newlib/bin/../lib/gcc/x86_64-nacl/4.4.3/../../../../x86_64-nacl/lib/../lib64/libstdc++.a(eh_throw.o)
 .text.__cxa_rethrow
                0x000000000004b240       0xe0 /home/berkeley/nacl_sdk/pepper_42/toolchain/linux_x86_newlib/bin/../lib/gcc/x86_64-nacl/4.4.3/../../../../x86_64-nacl/lib/../lib64/libstdc++.a(eh_throw.o)
                0x000000000004b240                __cxa_rethrow
 .text.__cxa_throw
                0x000000000004b320       0xc0 /home/berkeley/nacl_sdk/pepper_42/toolchain/linux_x86_newlib/bin/../lib/gcc/x86_64-nacl/4.4.3/../../../../x86_64-nacl/lib/../lib64/libstdc++.a(eh_throw.o)
                0x000000000004b320                __cxa_throw
 .text._ZL23__gxx_exception_cleanup19_Unwind_Reason_CodeP17_Unwind_Exception
                0x000000000004b3e0       0xc0 /home/berkeley/nacl_sdk/pepper_42/toolchain/linux_x86_newlib/bin/../lib/gcc/x86_64-nacl/4.4.3/../../../../x86_64-nacl/lib/../lib64/libstdc++.a(eh_throw.o)
 .text          0x000000000004b4a0        0x0 /home/berkeley/nacl_sdk/pepper_42/toolchain/linux_x86_newlib/bin/../lib/gcc/x86_64-nacl/4.4.3/../../../../x86_64-nacl/lib/../lib64/libstdc++.a(del_op.o)
 .text._ZdlPv   0x000000000004b4a0       0x40 /home/berkeley/nacl_sdk/pepper_42/toolchain/linux_x86_newlib/bin/../lib/gcc/x86_64-nacl/4.4.3/../../../../x86_64-nacl/lib/../lib64/libstdc++.a(del_op.o)
                0x000000000004b4a0                _ZdlPv
 .text          0x000000000004b4e0        0x0 /home/berkeley/nacl_sdk/pepper_42/toolchain/linux_x86_newlib/bin/../lib/gcc/x86_64-nacl/4.4.3/../../../../x86_64-nacl/lib/../lib64/libstdc++.a(eh_call.o)
 .text.__cxa_call_terminate
                0x000000000004b4e0       0x80 /home/berkeley/nacl_sdk/pepper_42/toolchain/linux_x86_newlib/bin/../lib/gcc/x86_64-nacl/4.4.3/../../../../x86_64-nacl/lib/../lib64/libstdc++.a(eh_call.o)
                0x000000000004b4e0                __cxa_call_terminate
 .text          0x000000000004b560        0x0 /home/berkeley/nacl_sdk/pepper_42/toolchain/linux_x86_newlib/bin/../lib/gcc/x86_64-nacl/4.4.3/../../../../x86_64-nacl/lib/../lib64/libstdc++.a(guard.o)
 .text._ZNK9__gnu_cxx24__concurrence_lock_error4whatEv
                0x000000000004b560       0x20 /home/berkeley/nacl_sdk/pepper_42/toolchain/linux_x86_newlib/bin/../lib/gcc/x86_64-nacl/4.4.3/../../../../x86_64-nacl/lib/../lib64/libstdc++.a(guard.o)
                0x000000000004b560                _ZNK9__gnu_cxx24__concurrence_lock_error4whatEv
 .text._ZNK9__gnu_cxx26__concurrence_unlock_error4whatEv
                0x000000000004b580       0x20 /home/berkeley/nacl_sdk/pepper_42/toolchain/linux_x86_newlib/bin/../lib/gcc/x86_64-nacl/4.4.3/../../../../x86_64-nacl/lib/../lib64/libstdc++.a(guard.o)
                0x000000000004b580                _ZNK9__gnu_cxx26__concurrence_unlock_error4whatEv
 .text._ZN12_GLOBAL__N_1L4initEv
                0x000000000004b5a0       0x20 /home/berkeley/nacl_sdk/pepper_42/toolchain/linux_x86_newlib/bin/../lib/gcc/x86_64-nacl/4.4.3/../../../../x86_64-nacl/lib/../lib64/libstdc++.a(guard.o)
 .text.__cxa_guard_abort
                0x000000000004b5c0       0x20 /home/berkeley/nacl_sdk/pepper_42/toolchain/linux_x86_newlib/bin/../lib/gcc/x86_64-nacl/4.4.3/../../../../x86_64-nacl/lib/../lib64/libstdc++.a(guard.o)
                0x000000000004b5c0                __cxa_guard_abort
 .text.__cxa_guard_release
                0x000000000004b5e0       0x20 /home/berkeley/nacl_sdk/pepper_42/toolchain/linux_x86_newlib/bin/../lib/gcc/x86_64-nacl/4.4.3/../../../../x86_64-nacl/lib/../lib64/libstdc++.a(guard.o)
                0x000000000004b5e0                __cxa_guard_release
 .text.__cxa_guard_acquire
                0x000000000004b600       0xc0 /home/berkeley/nacl_sdk/pepper_42/toolchain/linux_x86_newlib/bin/../lib/gcc/x86_64-nacl/4.4.3/../../../../x86_64-nacl/lib/../lib64/libstdc++.a(guard.o)
                0x000000000004b600                __cxa_guard_acquire
 .text._ZN9__gnu_cxx26__concurrence_unlock_errorD1Ev
                0x000000000004b6c0       0x20 /home/berkeley/nacl_sdk/pepper_42/toolchain/linux_x86_newlib/bin/../lib/gcc/x86_64-nacl/4.4.3/../../../../x86_64-nacl/lib/../lib64/libstdc++.a(guard.o)
                0x000000000004b6c0                _ZN9__gnu_cxx26__concurrence_unlock_errorD1Ev
 .text._ZN9__gnu_cxx24__concurrence_lock_errorD1Ev
                0x000000000004b6e0       0x20 /home/berkeley/nacl_sdk/pepper_42/toolchain/linux_x86_newlib/bin/../lib/gcc/x86_64-nacl/4.4.3/../../../../x86_64-nacl/lib/../lib64/libstdc++.a(guard.o)
                0x000000000004b6e0                _ZN9__gnu_cxx24__concurrence_lock_errorD1Ev
 .text._ZN9__gnu_cxx20recursive_init_errorD1Ev
                0x000000000004b700       0x20 /home/berkeley/nacl_sdk/pepper_42/toolchain/linux_x86_newlib/bin/../lib/gcc/x86_64-nacl/4.4.3/../../../../x86_64-nacl/lib/../lib64/libstdc++.a(guard.o)
                0x000000000004b700                _ZN9__gnu_cxx20recursive_init_errorD1Ev
 .text._ZN9__gnu_cxx20recursive_init_errorD2Ev
                0x000000000004b720       0x20 /home/berkeley/nacl_sdk/pepper_42/toolchain/linux_x86_newlib/bin/../lib/gcc/x86_64-nacl/4.4.3/../../../../x86_64-nacl/lib/../lib64/libstdc++.a(guard.o)
                0x000000000004b720                _ZN9__gnu_cxx20recursive_init_errorD2Ev
 .text._ZN9__gnu_cxx26__concurrence_unlock_errorD0Ev
                0x000000000004b740       0x40 /home/berkeley/nacl_sdk/pepper_42/toolchain/linux_x86_newlib/bin/../lib/gcc/x86_64-nacl/4.4.3/../../../../x86_64-nacl/lib/../lib64/libstdc++.a(guard.o)
                0x000000000004b740                _ZN9__gnu_cxx26__concurrence_unlock_errorD0Ev
 .text._ZN9__gnu_cxx24__concurrence_lock_errorD0Ev
                0x000000000004b780       0x40 /home/berkeley/nacl_sdk/pepper_42/toolchain/linux_x86_newlib/bin/../lib/gcc/x86_64-nacl/4.4.3/../../../../x86_64-nacl/lib/../lib64/libstdc++.a(guard.o)
                0x000000000004b780                _ZN9__gnu_cxx24__concurrence_lock_errorD0Ev
 .text._ZN9__gnu_cxx20recursive_init_errorD0Ev
                0x000000000004b7c0       0x40 /home/berkeley/nacl_sdk/pepper_42/toolchain/linux_x86_newlib/bin/../lib/gcc/x86_64-nacl/4.4.3/../../../../x86_64-nacl/lib/../lib64/libstdc++.a(guard.o)
                0x000000000004b7c0                _ZN9__gnu_cxx20recursive_init_errorD0Ev
 .text          0x000000000004b800        0x0 /home/berkeley/nacl_sdk/pepper_42/toolchain/linux_x86_newlib/bin/../lib/gcc/x86_64-nacl/4.4.3/../../../../x86_64-nacl/lib/../lib64/libstdc++.a(si_class_type_info.o)
 .text._ZNK10__cxxabiv120__si_class_type_info20__do_find_public_srcEiPKvPKNS_17__class_type_infoES2_
                0x000000000004b800       0x80 /home/berkeley/nacl_sdk/pepper_42/toolchain/linux_x86_newlib/bin/../lib/gcc/x86_64-nacl/4.4.3/../../../../x86_64-nacl/lib/../lib64/libstdc++.a(si_class_type_info.o)
                0x000000000004b800                _ZNK10__cxxabiv120__si_class_type_info20__do_find_public_srcEiPKvPKNS_17__class_type_infoES2_
 .text._ZNK10__cxxabiv120__si_class_type_info12__do_dyncastEiNS_17__class_type_info10__sub_kindEPKS1_PKvS4_S6_RNS1_16__dyncast_resultE
                0x000000000004b880      0x120 /home/berkeley/nacl_sdk/pepper_42/toolchain/linux_x86_newlib/bin/../lib/gcc/x86_64-nacl/4.4.3/../../../../x86_64-nacl/lib/../lib64/libstdc++.a(si_class_type_info.o)
                0x000000000004b880                _ZNK10__cxxabiv120__si_class_type_info12__do_dyncastEiNS_17__class_type_info10__sub_kindEPKS1_PKvS4_S6_RNS1_16__dyncast_resultE
 .text._ZNK10__cxxabiv120__si_class_type_info11__do_upcastEPKNS_17__class_type_infoEPKvRNS1_15__upcast_resultE
                0x000000000004b9a0       0xc0 /home/berkeley/nacl_sdk/pepper_42/toolchain/linux_x86_newlib/bin/../lib/gcc/x86_64-nacl/4.4.3/../../../../x86_64-nacl/lib/../lib64/libstdc++.a(si_class_type_info.o)
                0x000000000004b9a0                _ZNK10__cxxabiv120__si_class_type_info11__do_upcastEPKNS_17__class_type_infoEPKvRNS1_15__upcast_resultE
 .text._ZN10__cxxabiv120__si_class_type_infoD1Ev
                0x000000000004ba60       0x20 /home/berkeley/nacl_sdk/pepper_42/toolchain/linux_x86_newlib/bin/../lib/gcc/x86_64-nacl/4.4.3/../../../../x86_64-nacl/lib/../lib64/libstdc++.a(si_class_type_info.o)
                0x000000000004ba60                _ZN10__cxxabiv120__si_class_type_infoD1Ev
 .text._ZN10__cxxabiv120__si_class_type_infoD2Ev
                0x000000000004ba80       0x20 /home/berkeley/nacl_sdk/pepper_42/toolchain/linux_x86_newlib/bin/../lib/gcc/x86_64-nacl/4.4.3/../../../../x86_64-nacl/lib/../lib64/libstdc++.a(si_class_type_info.o)
                0x000000000004ba80                _ZN10__cxxabiv120__si_class_type_infoD2Ev
 .text._ZN10__cxxabiv120__si_class_type_infoD0Ev
                0x000000000004baa0       0x40 /home/berkeley/nacl_sdk/pepper_42/toolchain/linux_x86_newlib/bin/../lib/gcc/x86_64-nacl/4.4.3/../../../../x86_64-nacl/lib/../lib64/libstdc++.a(si_class_type_info.o)
                0x000000000004baa0                _ZN10__cxxabiv120__si_class_type_infoD0Ev
 .text          0x000000000004bae0        0x0 /home/berkeley/nacl_sdk/pepper_42/toolchain/linux_x86_newlib/bin/../lib/gcc/x86_64-nacl/4.4.3/../../../../x86_64-nacl/lib/../lib64/libstdc++.a(eh_terminate.o)
 .text._ZSt13set_terminatePFvvE
                0x000000000004bae0       0x20 /home/berkeley/nacl_sdk/pepper_42/toolchain/linux_x86_newlib/bin/../lib/gcc/x86_64-nacl/4.4.3/../../../../x86_64-nacl/lib/../lib64/libstdc++.a(eh_terminate.o)
                0x000000000004bae0                _ZSt13set_terminatePFvvE
 .text._ZSt14set_unexpectedPFvvE
                0x000000000004bb00       0x20 /home/berkeley/nacl_sdk/pepper_42/toolchain/linux_x86_newlib/bin/../lib/gcc/x86_64-nacl/4.4.3/../../../../x86_64-nacl/lib/../lib64/libstdc++.a(eh_terminate.o)
                0x000000000004bb00                _ZSt14set_unexpectedPFvvE
 .text._ZN10__cxxabiv111__terminateEPFvvE
                0x000000000004bb20       0xc0 /home/berkeley/nacl_sdk/pepper_42/toolchain/linux_x86_newlib/bin/../lib/gcc/x86_64-nacl/4.4.3/../../../../x86_64-nacl/lib/../lib64/libstdc++.a(eh_terminate.o)
                0x000000000004bb20                _ZN10__cxxabiv111__terminateEPFvvE
 .text._ZSt9terminatev
                0x000000000004bbe0       0x20 /home/berkeley/nacl_sdk/pepper_42/toolchain/linux_x86_newlib/bin/../lib/gcc/x86_64-nacl/4.4.3/../../../../x86_64-nacl/lib/../lib64/libstdc++.a(eh_terminate.o)
                0x000000000004bbe0                _ZSt9terminatev
 .text._ZN10__cxxabiv112__unexpectedEPFvvE
                0x000000000004bc00       0x40 /home/berkeley/nacl_sdk/pepper_42/toolchain/linux_x86_newlib/bin/../lib/gcc/x86_64-nacl/4.4.3/../../../../x86_64-nacl/lib/../lib64/libstdc++.a(eh_terminate.o)
                0x000000000004bc00                _ZN10__cxxabiv112__unexpectedEPFvvE
 .text._ZSt10unexpectedv
                0x000000000004bc40       0x20 /home/berkeley/nacl_sdk/pepper_42/toolchain/linux_x86_newlib/bin/../lib/gcc/x86_64-nacl/4.4.3/../../../../x86_64-nacl/lib/../lib64/libstdc++.a(eh_terminate.o)
                0x000000000004bc40                _ZSt10unexpectedv
 .text          0x000000000004bc60        0x0 /home/berkeley/nacl_sdk/pepper_42/toolchain/linux_x86_newlib/bin/../lib/gcc/x86_64-nacl/4.4.3/../../../../x86_64-nacl/lib/../lib64/libstdc++.a(class_type_info.o)
 .text._ZNK10__cxxabiv117__class_type_info10__do_catchEPKSt9type_infoPPvj
                0x000000000004bc60       0x80 /home/berkeley/nacl_sdk/pepper_42/toolchain/linux_x86_newlib/bin/../lib/gcc/x86_64-nacl/4.4.3/../../../../x86_64-nacl/lib/../lib64/libstdc++.a(class_type_info.o)
                0x000000000004bc60                _ZNK10__cxxabiv117__class_type_info10__do_catchEPKSt9type_infoPPvj
 .text._ZNK10__cxxabiv117__class_type_info11__do_upcastEPKS0_PPv
                0x000000000004bce0       0xa0 /home/berkeley/nacl_sdk/pepper_42/toolchain/linux_x86_newlib/bin/../lib/gcc/x86_64-nacl/4.4.3/../../../../x86_64-nacl/lib/../lib64/libstdc++.a(class_type_info.o)
                0x000000000004bce0                _ZNK10__cxxabiv117__class_type_info11__do_upcastEPKS0_PPv
 .text._ZNK10__cxxabiv117__class_type_info20__do_find_public_srcEiPKvPKS0_S2_
                0x000000000004bd80       0x20 /home/berkeley/nacl_sdk/pepper_42/toolchain/linux_x86_newlib/bin/../lib/gcc/x86_64-nacl/4.4.3/../../../../x86_64-nacl/lib/../lib64/libstdc++.a(class_type_info.o)
                0x000000000004bd80                _ZNK10__cxxabiv117__class_type_info20__do_find_public_srcEiPKvPKS0_S2_
 .text._ZNK10__cxxabiv117__class_type_info12__do_dyncastEiNS0_10__sub_kindEPKS0_PKvS3_S5_RNS0_16__dyncast_resultE
                0x000000000004bda0       0xc0 /home/berkeley/nacl_sdk/pepper_42/toolchain/linux_x86_newlib/bin/../lib/gcc/x86_64-nacl/4.4.3/../../../../x86_64-nacl/lib/../lib64/libstdc++.a(class_type_info.o)
                0x000000000004bda0                _ZNK10__cxxabiv117__class_type_info12__do_dyncastEiNS0_10__sub_kindEPKS0_PKvS3_S5_RNS0_16__dyncast_resultE
 .text._ZNK10__cxxabiv117__class_type_info11__do_upcastEPKS0_PKvRNS0_15__upcast_resultE
                0x000000000004be60       0x80 /home/berkeley/nacl_sdk/pepper_42/toolchain/linux_x86_newlib/bin/../lib/gcc/x86_64-nacl/4.4.3/../../../../x86_64-nacl/lib/../lib64/libstdc++.a(class_type_info.o)
                0x000000000004be60                _ZNK10__cxxabiv117__class_type_info11__do_upcastEPKS0_PKvRNS0_15__upcast_resultE
 .text._ZN10__cxxabiv117__class_type_infoD1Ev
                0x000000000004bee0       0x20 /home/berkeley/nacl_sdk/pepper_42/toolchain/linux_x86_newlib/bin/../lib/gcc/x86_64-nacl/4.4.3/../../../../x86_64-nacl/lib/../lib64/libstdc++.a(class_type_info.o)
                0x000000000004bee0                _ZN10__cxxabiv117__class_type_infoD1Ev
 .text._ZN10__cxxabiv117__class_type_infoD2Ev
                0x000000000004bf00       0x20 /home/berkeley/nacl_sdk/pepper_42/toolchain/linux_x86_newlib/bin/../lib/gcc/x86_64-nacl/4.4.3/../../../../x86_64-nacl/lib/../lib64/libstdc++.a(class_type_info.o)
                0x000000000004bf00                _ZN10__cxxabiv117__class_type_infoD2Ev
 .text._ZN10__cxxabiv117__class_type_infoD0Ev
                0x000000000004bf20       0x40 /home/berkeley/nacl_sdk/pepper_42/toolchain/linux_x86_newlib/bin/../lib/gcc/x86_64-nacl/4.4.3/../../../../x86_64-nacl/lib/../lib64/libstdc++.a(class_type_info.o)
                0x000000000004bf20                _ZN10__cxxabiv117__class_type_infoD0Ev
 .text          0x000000000004bf60        0x0 /home/berkeley/nacl_sdk/pepper_42/toolchain/linux_x86_newlib/bin/../lib/gcc/x86_64-nacl/4.4.3/../../../../x86_64-nacl/lib/../lib64/libstdc++.a(eh_alloc.o)
 .text._GLOBAL__I___cxa_allocate_exception
                0x000000000004bf60       0x20 /home/berkeley/nacl_sdk/pepper_42/toolchain/linux_x86_newlib/bin/../lib/gcc/x86_64-nacl/4.4.3/../../../../x86_64-nacl/lib/../lib64/libstdc++.a(eh_alloc.o)
 .text.__cxa_free_dependent_exception
                0x000000000004bf80       0x80 /home/berkeley/nacl_sdk/pepper_42/toolchain/linux_x86_newlib/bin/../lib/gcc/x86_64-nacl/4.4.3/../../../../x86_64-nacl/lib/../lib64/libstdc++.a(eh_alloc.o)
                0x000000000004bf80                __cxa_free_dependent_exception
 .text.__cxa_free_exception
                0x000000000004c000       0x60 /home/berkeley/nacl_sdk/pepper_42/toolchain/linux_x86_newlib/bin/../lib/gcc/x86_64-nacl/4.4.3/../../../../x86_64-nacl/lib/../lib64/libstdc++.a(eh_alloc.o)
                0x000000000004c000                __cxa_free_exception
 .text.__cxa_allocate_dependent_exception
                0x000000000004c060      0x180 /home/berkeley/nacl_sdk/pepper_42/toolchain/linux_x86_newlib/bin/../lib/gcc/x86_64-nacl/4.4.3/../../../../x86_64-nacl/lib/../lib64/libstdc++.a(eh_alloc.o)
                0x000000000004c060                __cxa_allocate_dependent_exception
 .text.__cxa_allocate_exception
                0x000000000004c1e0      0x2a0 /home/berkeley/nacl_sdk/pepper_42/toolchain/linux_x86_newlib/bin/../lib/gcc/x86_64-nacl/4.4.3/../../../../x86_64-nacl/lib/../lib64/libstdc++.a(eh_alloc.o)
                0x000000000004c1e0                __cxa_allocate_exception
 .text          0x000000000004c480        0x0 /home/berkeley/nacl_sdk/pepper_42/toolchain/linux_x86_newlib/bin/../lib/gcc/x86_64-nacl/4.4.3/../../../../x86_64-nacl/lib/../lib64/libstdc++.a(eh_catch.o)
 .text.__cxa_get_exception_ptr
                0x000000000004c480       0x20 /home/berkeley/nacl_sdk/pepper_42/toolchain/linux_x86_newlib/bin/../lib/gcc/x86_64-nacl/4.4.3/../../../../x86_64-nacl/lib/../lib64/libstdc++.a(eh_catch.o)
                0x000000000004c480                __cxa_get_exception_ptr
 .text._ZSt18uncaught_exceptionv
                0x000000000004c4a0       0x40 /home/berkeley/nacl_sdk/pepper_42/toolchain/linux_x86_newlib/bin/../lib/gcc/x86_64-nacl/4.4.3/../../../../x86_64-nacl/lib/../lib64/libstdc++.a(eh_catch.o)
                0x000000000004c4a0                _ZSt18uncaught_exceptionv
 .text.__cxa_end_catch
                0x000000000004c4e0      0x140 /home/berkeley/nacl_sdk/pepper_42/toolchain/linux_x86_newlib/bin/../lib/gcc/x86_64-nacl/4.4.3/../../../../x86_64-nacl/lib/../lib64/libstdc++.a(eh_catch.o)
                0x000000000004c4e0                __cxa_end_catch
 .text.__cxa_begin_catch
                0x000000000004c620      0x140 /home/berkeley/nacl_sdk/pepper_42/toolchain/linux_x86_newlib/bin/../lib/gcc/x86_64-nacl/4.4.3/../../../../x86_64-nacl/lib/../lib64/libstdc++.a(eh_catch.o)
                0x000000000004c620                __cxa_begin_catch
 .text          0x000000000004c760        0x0 /home/berkeley/nacl_sdk/pepper_42/toolchain/linux_x86_newlib/bin/../lib/gcc/x86_64-nacl/4.4.3/../../../../x86_64-nacl/lib/../lib64/libstdc++.a(eh_exception.o)
 .text._ZNSt9exceptionD2Ev
                0x000000000004c760       0x20 /home/berkeley/nacl_sdk/pepper_42/toolchain/linux_x86_newlib/bin/../lib/gcc/x86_64-nacl/4.4.3/../../../../x86_64-nacl/lib/../lib64/libstdc++.a(eh_exception.o)
                0x000000000004c760                _ZNSt9exceptionD2Ev
 .text._ZNSt9exceptionD1Ev
                0x000000000004c780       0x20 /home/berkeley/nacl_sdk/pepper_42/toolchain/linux_x86_newlib/bin/../lib/gcc/x86_64-nacl/4.4.3/../../../../x86_64-nacl/lib/../lib64/libstdc++.a(eh_exception.o)
                0x000000000004c780                _ZNSt9exceptionD1Ev
 .text._ZNSt13bad_exceptionD2Ev
                0x000000000004c7a0       0x20 /home/berkeley/nacl_sdk/pepper_42/toolchain/linux_x86_newlib/bin/../lib/gcc/x86_64-nacl/4.4.3/../../../../x86_64-nacl/lib/../lib64/libstdc++.a(eh_exception.o)
                0x000000000004c7a0                _ZNSt13bad_exceptionD2Ev
 .text._ZNSt13bad_exceptionD1Ev
                0x000000000004c7c0       0x20 /home/berkeley/nacl_sdk/pepper_42/toolchain/linux_x86_newlib/bin/../lib/gcc/x86_64-nacl/4.4.3/../../../../x86_64-nacl/lib/../lib64/libstdc++.a(eh_exception.o)
                0x000000000004c7c0                _ZNSt13bad_exceptionD1Ev
 .text._ZN10__cxxabiv115__forced_unwindD2Ev
                0x000000000004c7e0       0x20 /home/berkeley/nacl_sdk/pepper_42/toolchain/linux_x86_newlib/bin/../lib/gcc/x86_64-nacl/4.4.3/../../../../x86_64-nacl/lib/../lib64/libstdc++.a(eh_exception.o)
                0x000000000004c7e0                _ZN10__cxxabiv115__forced_unwindD2Ev
 .text._ZN10__cxxabiv115__forced_unwindD1Ev
                0x000000000004c800       0x20 /home/berkeley/nacl_sdk/pepper_42/toolchain/linux_x86_newlib/bin/../lib/gcc/x86_64-nacl/4.4.3/../../../../x86_64-nacl/lib/../lib64/libstdc++.a(eh_exception.o)
                0x000000000004c800                _ZN10__cxxabiv115__forced_unwindD1Ev
 .text._ZN10__cxxabiv119__foreign_exceptionD2Ev
                0x000000000004c820       0x20 /home/berkeley/nacl_sdk/pepper_42/toolchain/linux_x86_newlib/bin/../lib/gcc/x86_64-nacl/4.4.3/../../../../x86_64-nacl/lib/../lib64/libstdc++.a(eh_exception.o)
                0x000000000004c820                _ZN10__cxxabiv119__foreign_exceptionD2Ev
 .text._ZN10__cxxabiv119__foreign_exceptionD1Ev
                0x000000000004c840       0x20 /home/berkeley/nacl_sdk/pepper_42/toolchain/linux_x86_newlib/bin/../lib/gcc/x86_64-nacl/4.4.3/../../../../x86_64-nacl/lib/../lib64/libstdc++.a(eh_exception.o)
                0x000000000004c840                _ZN10__cxxabiv119__foreign_exceptionD1Ev
 .text._ZNKSt9exception4whatEv
                0x000000000004c860       0x20 /home/berkeley/nacl_sdk/pepper_42/toolchain/linux_x86_newlib/bin/../lib/gcc/x86_64-nacl/4.4.3/../../../../x86_64-nacl/lib/../lib64/libstdc++.a(eh_exception.o)
                0x000000000004c860                _ZNKSt9exception4whatEv
 .text._ZNKSt13bad_exception4whatEv
                0x000000000004c880       0x20 /home/berkeley/nacl_sdk/pepper_42/toolchain/linux_x86_newlib/bin/../lib/gcc/x86_64-nacl/4.4.3/../../../../x86_64-nacl/lib/../lib64/libstdc++.a(eh_exception.o)
                0x000000000004c880                _ZNKSt13bad_exception4whatEv
 .text._ZN10__cxxabiv119__foreign_exceptionD0Ev
                0x000000000004c8a0       0x20 /home/berkeley/nacl_sdk/pepper_42/toolchain/linux_x86_newlib/bin/../lib/gcc/x86_64-nacl/4.4.3/../../../../x86_64-nacl/lib/../lib64/libstdc++.a(eh_exception.o)
                0x000000000004c8a0                _ZN10__cxxabiv119__foreign_exceptionD0Ev
 .text._ZN10__cxxabiv115__forced_unwindD0Ev
                0x000000000004c8c0       0x20 /home/berkeley/nacl_sdk/pepper_42/toolchain/linux_x86_newlib/bin/../lib/gcc/x86_64-nacl/4.4.3/../../../../x86_64-nacl/lib/../lib64/libstdc++.a(eh_exception.o)
                0x000000000004c8c0                _ZN10__cxxabiv115__forced_unwindD0Ev
 .text._ZNSt9exceptionD0Ev
                0x000000000004c8e0       0x20 /home/berkeley/nacl_sdk/pepper_42/toolchain/linux_x86_newlib/bin/../lib/gcc/x86_64-nacl/4.4.3/../../../../x86_64-nacl/lib/../lib64/libstdc++.a(eh_exception.o)
                0x000000000004c8e0                _ZNSt9exceptionD0Ev
 .text._ZNSt13bad_exceptionD0Ev
                0x000000000004c900       0x20 /home/berkeley/nacl_sdk/pepper_42/toolchain/linux_x86_newlib/bin/../lib/gcc/x86_64-nacl/4.4.3/../../../../x86_64-nacl/lib/../lib64/libstdc++.a(eh_exception.o)
                0x000000000004c900                _ZNSt13bad_exceptionD0Ev
 .text          0x000000000004c920        0x0 /home/berkeley/nacl_sdk/pepper_42/toolchain/linux_x86_newlib/bin/../lib/gcc/x86_64-nacl/4.4.3/../../../../x86_64-nacl/lib/../lib64/libstdc++.a(pure.o)
 .text.__cxa_pure_virtual
                0x000000000004c920       0x40 /home/berkeley/nacl_sdk/pepper_42/toolchain/linux_x86_newlib/bin/../lib/gcc/x86_64-nacl/4.4.3/../../../../x86_64-nacl/lib/../lib64/libstdc++.a(pure.o)
                0x000000000004c920                __cxa_pure_virtual
 .text          0x000000000004c960        0x0 /home/berkeley/nacl_sdk/pepper_42/toolchain/linux_x86_newlib/bin/../lib/gcc/x86_64-nacl/4.4.3/../../../../x86_64-nacl/lib/../lib64/libstdc++.a(new_op.o)
 .text._Znwj    0x000000000004c960      0x100 /home/berkeley/nacl_sdk/pepper_42/toolchain/linux_x86_newlib/bin/../lib/gcc/x86_64-nacl/4.4.3/../../../../x86_64-nacl/lib/../lib64/libstdc++.a(new_op.o)
                0x000000000004c960                _Znwj
 .text          0x000000000004ca60        0x0 /home/berkeley/nacl_sdk/pepper_42/toolchain/linux_x86_newlib/bin/../lib/gcc/x86_64-nacl/4.4.3/../../../../x86_64-nacl/lib/../lib64/libstdc++.a(tinfo.o)
 .text._ZNSt9type_infoD2Ev
                0x000000000004ca60       0x20 /home/berkeley/nacl_sdk/pepper_42/toolchain/linux_x86_newlib/bin/../lib/gcc/x86_64-nacl/4.4.3/../../../../x86_64-nacl/lib/../lib64/libstdc++.a(tinfo.o)
                0x000000000004ca60                _ZNSt9type_infoD2Ev
 .text._ZNSt9type_infoD1Ev
                0x000000000004ca80       0x20 /home/berkeley/nacl_sdk/pepper_42/toolchain/linux_x86_newlib/bin/../lib/gcc/x86_64-nacl/4.4.3/../../../../x86_64-nacl/lib/../lib64/libstdc++.a(tinfo.o)
                0x000000000004ca80                _ZNSt9type_infoD1Ev
 .text._ZNKSt9type_info14__is_pointer_pEv
                0x000000000004caa0       0x20 /home/berkeley/nacl_sdk/pepper_42/toolchain/linux_x86_newlib/bin/../lib/gcc/x86_64-nacl/4.4.3/../../../../x86_64-nacl/lib/../lib64/libstdc++.a(tinfo.o)
                0x000000000004caa0                _ZNKSt9type_info14__is_pointer_pEv
 .text._ZNKSt9type_info15__is_function_pEv
                0x000000000004cac0       0x20 /home/berkeley/nacl_sdk/pepper_42/toolchain/linux_x86_newlib/bin/../lib/gcc/x86_64-nacl/4.4.3/../../../../x86_64-nacl/lib/../lib64/libstdc++.a(tinfo.o)
                0x000000000004cac0                _ZNKSt9type_info15__is_function_pEv
 .text._ZNKSt9type_info10__do_catchEPKS_PPvj
                0x000000000004cae0       0x40 /home/berkeley/nacl_sdk/pepper_42/toolchain/linux_x86_newlib/bin/../lib/gcc/x86_64-nacl/4.4.3/../../../../x86_64-nacl/lib/../lib64/libstdc++.a(tinfo.o)
                0x000000000004cae0                _ZNKSt9type_info10__do_catchEPKS_PPvj
 .text._ZNKSt9type_info11__do_upcastEPKN10__cxxabiv117__class_type_infoEPPv
                0x000000000004cb20       0x20 /home/berkeley/nacl_sdk/pepper_42/toolchain/linux_x86_newlib/bin/../lib/gcc/x86_64-nacl/4.4.3/../../../../x86_64-nacl/lib/../lib64/libstdc++.a(tinfo.o)
                0x000000000004cb20                _ZNKSt9type_info11__do_upcastEPKN10__cxxabiv117__class_type_infoEPPv
 .text._ZNSt9type_infoD0Ev
                0x000000000004cb40       0x20 /home/berkeley/nacl_sdk/pepper_42/toolchain/linux_x86_newlib/bin/../lib/gcc/x86_64-nacl/4.4.3/../../../../x86_64-nacl/lib/../lib64/libstdc++.a(tinfo.o)
                0x000000000004cb40                _ZNSt9type_infoD0Ev
 .text          0x000000000004cb60        0x0 /home/berkeley/nacl_sdk/pepper_42/toolchain/linux_x86_newlib/bin/../lib/gcc/x86_64-nacl/4.4.3/../../../../x86_64-nacl/lib/../lib64/libstdc++.a(functexcept.o)
 .text._ZSt18__throw_bad_typeidv
                0x000000000004cb60       0x40 /home/berkeley/nacl_sdk/pepper_42/toolchain/linux_x86_newlib/bin/../lib/gcc/x86_64-nacl/4.4.3/../../../../x86_64-nacl/lib/../lib64/libstdc++.a(functexcept.o)
                0x000000000004cb60                _ZSt18__throw_bad_typeidv
 .text._ZSt16__throw_bad_castv
                0x000000000004cba0       0x40 /home/berkeley/nacl_sdk/pepper_42/toolchain/linux_x86_newlib/bin/../lib/gcc/x86_64-nacl/4.4.3/../../../../x86_64-nacl/lib/../lib64/libstdc++.a(functexcept.o)
                0x000000000004cba0                _ZSt16__throw_bad_castv
 .text._ZSt17__throw_bad_allocv
                0x000000000004cbe0       0x40 /home/berkeley/nacl_sdk/pepper_42/toolchain/linux_x86_newlib/bin/../lib/gcc/x86_64-nacl/4.4.3/../../../../x86_64-nacl/lib/../lib64/libstdc++.a(functexcept.o)
                0x000000000004cbe0                _ZSt17__throw_bad_allocv
 .text._ZSt21__throw_bad_exceptionv
                0x000000000004cc20       0x40 /home/berkeley/nacl_sdk/pepper_42/toolchain/linux_x86_newlib/bin/../lib/gcc/x86_64-nacl/4.4.3/../../../../x86_64-nacl/lib/../lib64/libstdc++.a(functexcept.o)
                0x000000000004cc20                _ZSt21__throw_bad_exceptionv
 .text._ZNSt15underflow_errorD1Ev
                0x000000000004cc60       0x20 /home/berkeley/nacl_sdk/pepper_42/toolchain/linux_x86_newlib/bin/../lib/gcc/x86_64-nacl/4.4.3/../../../../x86_64-nacl/lib/../lib64/libstdc++.a(functexcept.o)
                0x000000000004cc60                _ZNSt15underflow_errorD1Ev
 .text._ZNSt14overflow_errorD1Ev
                0x000000000004cc80       0x20 /home/berkeley/nacl_sdk/pepper_42/toolchain/linux_x86_newlib/bin/../lib/gcc/x86_64-nacl/4.4.3/../../../../x86_64-nacl/lib/../lib64/libstdc++.a(functexcept.o)
                0x000000000004cc80                _ZNSt14overflow_errorD1Ev
 .text._ZNSt11range_errorD1Ev
                0x000000000004cca0       0x20 /home/berkeley/nacl_sdk/pepper_42/toolchain/linux_x86_newlib/bin/../lib/gcc/x86_64-nacl/4.4.3/../../../../x86_64-nacl/lib/../lib64/libstdc++.a(functexcept.o)
                0x000000000004cca0                _ZNSt11range_errorD1Ev
 .text._ZNSt15underflow_errorD0Ev
                0x000000000004ccc0       0x40 /home/berkeley/nacl_sdk/pepper_42/toolchain/linux_x86_newlib/bin/../lib/gcc/x86_64-nacl/4.4.3/../../../../x86_64-nacl/lib/../lib64/libstdc++.a(functexcept.o)
                0x000000000004ccc0                _ZNSt15underflow_errorD0Ev
 .text._ZNSt14overflow_errorD0Ev
                0x000000000004cd00       0x40 /home/berkeley/nacl_sdk/pepper_42/toolchain/linux_x86_newlib/bin/../lib/gcc/x86_64-nacl/4.4.3/../../../../x86_64-nacl/lib/../lib64/libstdc++.a(functexcept.o)
                0x000000000004cd00                _ZNSt14overflow_errorD0Ev
 .text._ZNSt11range_errorD0Ev
                0x000000000004cd40       0x40 /home/berkeley/nacl_sdk/pepper_42/toolchain/linux_x86_newlib/bin/../lib/gcc/x86_64-nacl/4.4.3/../../../../x86_64-nacl/lib/../lib64/libstdc++.a(functexcept.o)
                0x000000000004cd40                _ZNSt11range_errorD0Ev
 .text._ZNSt12out_of_rangeD1Ev
                0x000000000004cd80       0x20 /home/berkeley/nacl_sdk/pepper_42/toolchain/linux_x86_newlib/bin/../lib/gcc/x86_64-nacl/4.4.3/../../../../x86_64-nacl/lib/../lib64/libstdc++.a(functexcept.o)
                0x000000000004cd80                _ZNSt12out_of_rangeD1Ev
 .text._ZNSt12out_of_rangeD0Ev
                0x000000000004cda0       0x40 /home/berkeley/nacl_sdk/pepper_42/toolchain/linux_x86_newlib/bin/../lib/gcc/x86_64-nacl/4.4.3/../../../../x86_64-nacl/lib/../lib64/libstdc++.a(functexcept.o)
                0x000000000004cda0                _ZNSt12out_of_rangeD0Ev
 .text._ZNSt12length_errorD1Ev
                0x000000000004cde0       0x20 /home/berkeley/nacl_sdk/pepper_42/toolchain/linux_x86_newlib/bin/../lib/gcc/x86_64-nacl/4.4.3/../../../../x86_64-nacl/lib/../lib64/libstdc++.a(functexcept.o)
                0x000000000004cde0                _ZNSt12length_errorD1Ev
 .text._ZNSt12length_errorD0Ev
                0x000000000004ce00       0x40 /home/berkeley/nacl_sdk/pepper_42/toolchain/linux_x86_newlib/bin/../lib/gcc/x86_64-nacl/4.4.3/../../../../x86_64-nacl/lib/../lib64/libstdc++.a(functexcept.o)
                0x000000000004ce00                _ZNSt12length_errorD0Ev
 .text._ZNSt16invalid_argumentD1Ev
                0x000000000004ce40       0x20 /home/berkeley/nacl_sdk/pepper_42/toolchain/linux_x86_newlib/bin/../lib/gcc/x86_64-nacl/4.4.3/../../../../x86_64-nacl/lib/../lib64/libstdc++.a(functexcept.o)
                0x000000000004ce40                _ZNSt16invalid_argumentD1Ev
 .text._ZNSt16invalid_argumentD0Ev
                0x000000000004ce60       0x40 /home/berkeley/nacl_sdk/pepper_42/toolchain/linux_x86_newlib/bin/../lib/gcc/x86_64-nacl/4.4.3/../../../../x86_64-nacl/lib/../lib64/libstdc++.a(functexcept.o)
                0x000000000004ce60                _ZNSt16invalid_argumentD0Ev
 .text._ZNSt12domain_errorD1Ev
                0x000000000004cea0       0x20 /home/berkeley/nacl_sdk/pepper_42/toolchain/linux_x86_newlib/bin/../lib/gcc/x86_64-nacl/4.4.3/../../../../x86_64-nacl/lib/../lib64/libstdc++.a(functexcept.o)
                0x000000000004cea0                _ZNSt12domain_errorD1Ev
 .text._ZNSt12domain_errorD0Ev
                0x000000000004cec0       0x40 /home/berkeley/nacl_sdk/pepper_42/toolchain/linux_x86_newlib/bin/../lib/gcc/x86_64-nacl/4.4.3/../../../../x86_64-nacl/lib/../lib64/libstdc++.a(functexcept.o)
                0x000000000004cec0                _ZNSt12domain_errorD0Ev
 .text._ZSt20__throw_system_errori
                0x000000000004cf00      0x1a0 /home/berkeley/nacl_sdk/pepper_42/toolchain/linux_x86_newlib/bin/../lib/gcc/x86_64-nacl/4.4.3/../../../../x86_64-nacl/lib/../lib64/libstdc++.a(functexcept.o)
                0x000000000004cf00                _ZSt20__throw_system_errori
 .text._ZSt19__throw_ios_failurePKc
                0x000000000004d0a0      0x100 /home/berkeley/nacl_sdk/pepper_42/toolchain/linux_x86_newlib/bin/../lib/gcc/x86_64-nacl/4.4.3/../../../../x86_64-nacl/lib/../lib64/libstdc++.a(functexcept.o)
                0x000000000004d0a0                _ZSt19__throw_ios_failurePKc
 .text._ZSt23__throw_underflow_errorPKc
                0x000000000004d1a0      0x1a0 /home/berkeley/nacl_sdk/pepper_42/toolchain/linux_x86_newlib/bin/../lib/gcc/x86_64-nacl/4.4.3/../../../../x86_64-nacl/lib/../lib64/libstdc++.a(functexcept.o)
                0x000000000004d1a0                _ZSt23__throw_underflow_errorPKc
 .text._ZSt22__throw_overflow_errorPKc
                0x000000000004d340      0x1a0 /home/berkeley/nacl_sdk/pepper_42/toolchain/linux_x86_newlib/bin/../lib/gcc/x86_64-nacl/4.4.3/../../../../x86_64-nacl/lib/../lib64/libstdc++.a(functexcept.o)
                0x000000000004d340                _ZSt22__throw_overflow_errorPKc
 .text._ZSt19__throw_range_errorPKc
                0x000000000004d4e0      0x1a0 /home/berkeley/nacl_sdk/pepper_42/toolchain/linux_x86_newlib/bin/../lib/gcc/x86_64-nacl/4.4.3/../../../../x86_64-nacl/lib/../lib64/libstdc++.a(functexcept.o)
                0x000000000004d4e0                _ZSt19__throw_range_errorPKc
 .text._ZSt21__throw_runtime_errorPKc
                0x000000000004d680      0x1a0 /home/berkeley/nacl_sdk/pepper_42/toolchain/linux_x86_newlib/bin/../lib/gcc/x86_64-nacl/4.4.3/../../../../x86_64-nacl/lib/../lib64/libstdc++.a(functexcept.o)
                0x000000000004d680                _ZSt21__throw_runtime_errorPKc
 .text._ZSt20__throw_out_of_rangePKc
                0x000000000004d820      0x1a0 /home/berkeley/nacl_sdk/pepper_42/toolchain/linux_x86_newlib/bin/../lib/gcc/x86_64-nacl/4.4.3/../../../../x86_64-nacl/lib/../lib64/libstdc++.a(functexcept.o)
                0x000000000004d820                _ZSt20__throw_out_of_rangePKc
 .text._ZSt20__throw_length_errorPKc
                0x000000000004d9c0      0x1a0 /home/berkeley/nacl_sdk/pepper_42/toolchain/linux_x86_newlib/bin/../lib/gcc/x86_64-nacl/4.4.3/../../../../x86_64-nacl/lib/../lib64/libstdc++.a(functexcept.o)
                0x000000000004d9c0                _ZSt20__throw_length_errorPKc
 .text._ZSt24__throw_invalid_argumentPKc
                0x000000000004db60      0x1a0 /home/berkeley/nacl_sdk/pepper_42/toolchain/linux_x86_newlib/bin/../lib/gcc/x86_64-nacl/4.4.3/../../../../x86_64-nacl/lib/../lib64/libstdc++.a(functexcept.o)
                0x000000000004db60                _ZSt24__throw_invalid_argumentPKc
 .text._ZSt20__throw_domain_errorPKc
                0x000000000004dd00      0x1a0 /home/berkeley/nacl_sdk/pepper_42/toolchain/linux_x86_newlib/bin/../lib/gcc/x86_64-nacl/4.4.3/../../../../x86_64-nacl/lib/../lib64/libstdc++.a(functexcept.o)
                0x000000000004dd00                _ZSt20__throw_domain_errorPKc
 .text._ZSt19__throw_logic_errorPKc
                0x000000000004dea0      0x1a0 /home/berkeley/nacl_sdk/pepper_42/toolchain/linux_x86_newlib/bin/../lib/gcc/x86_64-nacl/4.4.3/../../../../x86_64-nacl/lib/../lib64/libstdc++.a(functexcept.o)
                0x000000000004dea0                _ZSt19__throw_logic_errorPKc
 .text          0x000000000004e040        0x0 /home/berkeley/nacl_sdk/pepper_42/toolchain/linux_x86_newlib/bin/../lib/gcc/x86_64-nacl/4.4.3/../../../../x86_64-nacl/lib/../lib64/libstdc++.a(ios_failure.o)
 .text._ZNKSt8ios_base7failure4whatEv
                0x000000000004e040       0x20 /home/berkeley/nacl_sdk/pepper_42/toolchain/linux_x86_newlib/bin/../lib/gcc/x86_64-nacl/4.4.3/../../../../x86_64-nacl/lib/../lib64/libstdc++.a(ios_failure.o)
                0x000000000004e040                _ZNKSt8ios_base7failure4whatEv
 .text._ZNSt8ios_base7failureC1ERKSs
                0x000000000004e060       0xa0 /home/berkeley/nacl_sdk/pepper_42/toolchain/linux_x86_newlib/bin/../lib/gcc/x86_64-nacl/4.4.3/../../../../x86_64-nacl/lib/../lib64/libstdc++.a(ios_failure.o)
                0x000000000004e060                _ZNSt8ios_base7failureC1ERKSs
 .text._ZNSt8ios_base7failureC2ERKSs
                0x000000000004e100       0xa0 /home/berkeley/nacl_sdk/pepper_42/toolchain/linux_x86_newlib/bin/../lib/gcc/x86_64-nacl/4.4.3/../../../../x86_64-nacl/lib/../lib64/libstdc++.a(ios_failure.o)
                0x000000000004e100                _ZNSt8ios_base7failureC2ERKSs
 .text._ZNSt8ios_base7failureD0Ev
                0x000000000004e1a0       0xe0 /home/berkeley/nacl_sdk/pepper_42/toolchain/linux_x86_newlib/bin/../lib/gcc/x86_64-nacl/4.4.3/../../../../x86_64-nacl/lib/../lib64/libstdc++.a(ios_failure.o)
                0x000000000004e1a0                _ZNSt8ios_base7failureD0Ev
 .text._ZNSt8ios_base7failureD1Ev
                0x000000000004e280       0xc0 /home/berkeley/nacl_sdk/pepper_42/toolchain/linux_x86_newlib/bin/../lib/gcc/x86_64-nacl/4.4.3/../../../../x86_64-nacl/lib/../lib64/libstdc++.a(ios_failure.o)
                0x000000000004e280                _ZNSt8ios_base7failureD1Ev
 .text._ZNSt8ios_base7failureD2Ev
                0x000000000004e340       0xc0 /home/berkeley/nacl_sdk/pepper_42/toolchain/linux_x86_newlib/bin/../lib/gcc/x86_64-nacl/4.4.3/../../../../x86_64-nacl/lib/../lib64/libstdc++.a(ios_failure.o)
                0x000000000004e340                _ZNSt8ios_base7failureD2Ev
 .text          0x000000000004e400        0x0 /home/berkeley/nacl_sdk/pepper_42/toolchain/linux_x86_newlib/bin/../lib/gcc/x86_64-nacl/4.4.3/../../../../x86_64-nacl/lib/../lib64/libstdc++.a(stdexcept.o)
 .text._ZNKSt11logic_error4whatEv
                0x000000000004e400       0x20 /home/berkeley/nacl_sdk/pepper_42/toolchain/linux_x86_newlib/bin/../lib/gcc/x86_64-nacl/4.4.3/../../../../x86_64-nacl/lib/../lib64/libstdc++.a(stdexcept.o)
                0x000000000004e400                _ZNKSt11logic_error4whatEv
 .text._ZNKSt13runtime_error4whatEv
                0x000000000004e420       0x20 /home/berkeley/nacl_sdk/pepper_42/toolchain/linux_x86_newlib/bin/../lib/gcc/x86_64-nacl/4.4.3/../../../../x86_64-nacl/lib/../lib64/libstdc++.a(stdexcept.o)
                0x000000000004e420                _ZNKSt13runtime_error4whatEv
 .text._ZNSt11logic_errorD2Ev
                0x000000000004e440       0xc0 /home/berkeley/nacl_sdk/pepper_42/toolchain/linux_x86_newlib/bin/../lib/gcc/x86_64-nacl/4.4.3/../../../../x86_64-nacl/lib/../lib64/libstdc++.a(stdexcept.o)
                0x000000000004e440                _ZNSt11logic_errorD2Ev
 .text._ZNSt13runtime_errorC1ERKSs
                0x000000000004e500       0x80 /home/berkeley/nacl_sdk/pepper_42/toolchain/linux_x86_newlib/bin/../lib/gcc/x86_64-nacl/4.4.3/../../../../x86_64-nacl/lib/../lib64/libstdc++.a(stdexcept.o)
                0x000000000004e500                _ZNSt13runtime_errorC1ERKSs
 .text._ZNSt13runtime_errorC2ERKSs
                0x000000000004e580       0x80 /home/berkeley/nacl_sdk/pepper_42/toolchain/linux_x86_newlib/bin/../lib/gcc/x86_64-nacl/4.4.3/../../../../x86_64-nacl/lib/../lib64/libstdc++.a(stdexcept.o)
                0x000000000004e580                _ZNSt13runtime_errorC2ERKSs
 .text._ZNSt15underflow_errorC1ERKSs
                0x000000000004e600       0x40 /home/berkeley/nacl_sdk/pepper_42/toolchain/linux_x86_newlib/bin/../lib/gcc/x86_64-nacl/4.4.3/../../../../x86_64-nacl/lib/../lib64/libstdc++.a(stdexcept.o)
                0x000000000004e600                _ZNSt15underflow_errorC1ERKSs
 .text._ZNSt15underflow_errorC2ERKSs
                0x000000000004e640       0x40 /home/berkeley/nacl_sdk/pepper_42/toolchain/linux_x86_newlib/bin/../lib/gcc/x86_64-nacl/4.4.3/../../../../x86_64-nacl/lib/../lib64/libstdc++.a(stdexcept.o)
                0x000000000004e640                _ZNSt15underflow_errorC2ERKSs
 .text._ZNSt14overflow_errorC1ERKSs
                0x000000000004e680       0x40 /home/berkeley/nacl_sdk/pepper_42/toolchain/linux_x86_newlib/bin/../lib/gcc/x86_64-nacl/4.4.3/../../../../x86_64-nacl/lib/../lib64/libstdc++.a(stdexcept.o)
                0x000000000004e680                _ZNSt14overflow_errorC1ERKSs
 .text._ZNSt14overflow_errorC2ERKSs
                0x000000000004e6c0       0x40 /home/berkeley/nacl_sdk/pepper_42/toolchain/linux_x86_newlib/bin/../lib/gcc/x86_64-nacl/4.4.3/../../../../x86_64-nacl/lib/../lib64/libstdc++.a(stdexcept.o)
                0x000000000004e6c0                _ZNSt14overflow_errorC2ERKSs
 .text._ZNSt11range_errorC1ERKSs
                0x000000000004e700       0x40 /home/berkeley/nacl_sdk/pepper_42/toolchain/linux_x86_newlib/bin/../lib/gcc/x86_64-nacl/4.4.3/../../../../x86_64-nacl/lib/../lib64/libstdc++.a(stdexcept.o)
                0x000000000004e700                _ZNSt11range_errorC1ERKSs
 .text._ZNSt11range_errorC2ERKSs
                0x000000000004e740       0x40 /home/berkeley/nacl_sdk/pepper_42/toolchain/linux_x86_newlib/bin/../lib/gcc/x86_64-nacl/4.4.3/../../../../x86_64-nacl/lib/../lib64/libstdc++.a(stdexcept.o)
                0x000000000004e740                _ZNSt11range_errorC2ERKSs
 .text._ZNSt11logic_errorC1ERKSs
                0x000000000004e780       0x80 /home/berkeley/nacl_sdk/pepper_42/toolchain/linux_x86_newlib/bin/../lib/gcc/x86_64-nacl/4.4.3/../../../../x86_64-nacl/lib/../lib64/libstdc++.a(stdexcept.o)
                0x000000000004e780                _ZNSt11logic_errorC1ERKSs
 .text._ZNSt11logic_errorC2ERKSs
                0x000000000004e800       0x80 /home/berkeley/nacl_sdk/pepper_42/toolchain/linux_x86_newlib/bin/../lib/gcc/x86_64-nacl/4.4.3/../../../../x86_64-nacl/lib/../lib64/libstdc++.a(stdexcept.o)
                0x000000000004e800                _ZNSt11logic_errorC2ERKSs
 .text._ZNSt12out_of_rangeC1ERKSs
                0x000000000004e880       0x40 /home/berkeley/nacl_sdk/pepper_42/toolchain/linux_x86_newlib/bin/../lib/gcc/x86_64-nacl/4.4.3/../../../../x86_64-nacl/lib/../lib64/libstdc++.a(stdexcept.o)
                0x000000000004e880                _ZNSt12out_of_rangeC1ERKSs
 .text._ZNSt12out_of_rangeC2ERKSs
                0x000000000004e8c0       0x40 /home/berkeley/nacl_sdk/pepper_42/toolchain/linux_x86_newlib/bin/../lib/gcc/x86_64-nacl/4.4.3/../../../../x86_64-nacl/lib/../lib64/libstdc++.a(stdexcept.o)
                0x000000000004e8c0                _ZNSt12out_of_rangeC2ERKSs
 .text._ZNSt12length_errorC1ERKSs
                0x000000000004e900       0x40 /home/berkeley/nacl_sdk/pepper_42/toolchain/linux_x86_newlib/bin/../lib/gcc/x86_64-nacl/4.4.3/../../../../x86_64-nacl/lib/../lib64/libstdc++.a(stdexcept.o)
                0x000000000004e900                _ZNSt12length_errorC1ERKSs
 .text._ZNSt12length_errorC2ERKSs
                0x000000000004e940       0x40 /home/berkeley/nacl_sdk/pepper_42/toolchain/linux_x86_newlib/bin/../lib/gcc/x86_64-nacl/4.4.3/../../../../x86_64-nacl/lib/../lib64/libstdc++.a(stdexcept.o)
                0x000000000004e940                _ZNSt12length_errorC2ERKSs
 .text._ZNSt16invalid_argumentC1ERKSs
                0x000000000004e980       0x40 /home/berkeley/nacl_sdk/pepper_42/toolchain/linux_x86_newlib/bin/../lib/gcc/x86_64-nacl/4.4.3/../../../../x86_64-nacl/lib/../lib64/libstdc++.a(stdexcept.o)
                0x000000000004e980                _ZNSt16invalid_argumentC1ERKSs
 .text._ZNSt16invalid_argumentC2ERKSs
                0x000000000004e9c0       0x40 /home/berkeley/nacl_sdk/pepper_42/toolchain/linux_x86_newlib/bin/../lib/gcc/x86_64-nacl/4.4.3/../../../../x86_64-nacl/lib/../lib64/libstdc++.a(stdexcept.o)
                0x000000000004e9c0                _ZNSt16invalid_argumentC2ERKSs
 .text._ZNSt12domain_errorC1ERKSs
                0x000000000004ea00       0x40 /home/berkeley/nacl_sdk/pepper_42/toolchain/linux_x86_newlib/bin/../lib/gcc/x86_64-nacl/4.4.3/../../../../x86_64-nacl/lib/../lib64/libstdc++.a(stdexcept.o)
                0x000000000004ea00                _ZNSt12domain_errorC1ERKSs
 .text._ZNSt12domain_errorC2ERKSs
                0x000000000004ea40       0x40 /home/berkeley/nacl_sdk/pepper_42/toolchain/linux_x86_newlib/bin/../lib/gcc/x86_64-nacl/4.4.3/../../../../x86_64-nacl/lib/../lib64/libstdc++.a(stdexcept.o)
                0x000000000004ea40                _ZNSt12domain_errorC2ERKSs
 .text._ZNSt13runtime_errorD0Ev
                0x000000000004ea80       0xe0 /home/berkeley/nacl_sdk/pepper_42/toolchain/linux_x86_newlib/bin/../lib/gcc/x86_64-nacl/4.4.3/../../../../x86_64-nacl/lib/../lib64/libstdc++.a(stdexcept.o)
                0x000000000004ea80                _ZNSt13runtime_errorD0Ev
 .text._ZNSt13runtime_errorD1Ev
                0x000000000004eb60       0xc0 /home/berkeley/nacl_sdk/pepper_42/toolchain/linux_x86_newlib/bin/../lib/gcc/x86_64-nacl/4.4.3/../../../../x86_64-nacl/lib/../lib64/libstdc++.a(stdexcept.o)
                0x000000000004eb60                _ZNSt13runtime_errorD1Ev
 .text._ZNSt13runtime_errorD2Ev
                0x000000000004ec20       0xc0 /home/berkeley/nacl_sdk/pepper_42/toolchain/linux_x86_newlib/bin/../lib/gcc/x86_64-nacl/4.4.3/../../../../x86_64-nacl/lib/../lib64/libstdc++.a(stdexcept.o)
                0x000000000004ec20                _ZNSt13runtime_errorD2Ev
 .text._ZNSt11logic_errorD0Ev
                0x000000000004ece0       0xe0 /home/berkeley/nacl_sdk/pepper_42/toolchain/linux_x86_newlib/bin/../lib/gcc/x86_64-nacl/4.4.3/../../../../x86_64-nacl/lib/../lib64/libstdc++.a(stdexcept.o)
                0x000000000004ece0                _ZNSt11logic_errorD0Ev
 .text._ZNSt11logic_errorD1Ev
                0x000000000004edc0       0xc0 /home/berkeley/nacl_sdk/pepper_42/toolchain/linux_x86_newlib/bin/../lib/gcc/x86_64-nacl/4.4.3/../../../../x86_64-nacl/lib/../lib64/libstdc++.a(stdexcept.o)
                0x000000000004edc0                _ZNSt11logic_errorD1Ev
 .text          0x000000000004ee80        0x0 /home/berkeley/nacl_sdk/pepper_42/toolchain/linux_x86_newlib/bin/../lib/gcc/x86_64-nacl/4.4.3/../../../../x86_64-nacl/lib/../lib64/libstdc++.a(system_error.o)
 .text._ZNSt14error_categoryD1Ev
                0x000000000004ee80       0x20 /home/berkeley/nacl_sdk/pepper_42/toolchain/linux_x86_newlib/bin/../lib/gcc/x86_64-nacl/4.4.3/../../../../x86_64-nacl/lib/../lib64/libstdc++.a(system_error.o)
                0x000000000004ee80                _ZNSt14error_categoryD1Ev
 .text._ZNK12_GLOBAL__N_122generic_error_category4nameEv
                0x000000000004eea0       0x20 /home/berkeley/nacl_sdk/pepper_42/toolchain/linux_x86_newlib/bin/../lib/gcc/x86_64-nacl/4.4.3/../../../../x86_64-nacl/lib/../lib64/libstdc++.a(system_error.o)
 .text._ZNK12_GLOBAL__N_121system_error_category4nameEv
                0x000000000004eec0       0x20 /home/berkeley/nacl_sdk/pepper_42/toolchain/linux_x86_newlib/bin/../lib/gcc/x86_64-nacl/4.4.3/../../../../x86_64-nacl/lib/../lib64/libstdc++.a(system_error.o)
 .text._ZSt15system_categoryv
                0x000000000004eee0       0x20 /home/berkeley/nacl_sdk/pepper_42/toolchain/linux_x86_newlib/bin/../lib/gcc/x86_64-nacl/4.4.3/../../../../x86_64-nacl/lib/../lib64/libstdc++.a(system_error.o)
                0x000000000004eee0                _ZSt15system_categoryv
 .text._ZSt16generic_categoryv
                0x000000000004ef00       0x20 /home/berkeley/nacl_sdk/pepper_42/toolchain/linux_x86_newlib/bin/../lib/gcc/x86_64-nacl/4.4.3/../../../../x86_64-nacl/lib/../lib64/libstdc++.a(system_error.o)
                0x000000000004ef00                _ZSt16generic_categoryv
 .text._ZNKSt14error_category23default_error_conditionEi
                0x000000000004ef20       0x20 /home/berkeley/nacl_sdk/pepper_42/toolchain/linux_x86_newlib/bin/../lib/gcc/x86_64-nacl/4.4.3/../../../../x86_64-nacl/lib/../lib64/libstdc++.a(system_error.o)
                0x000000000004ef20                _ZNKSt14error_category23default_error_conditionEi
 .text._ZNKSt14error_category10equivalentEiRKSt15error_condition
                0x000000000004ef40       0x80 /home/berkeley/nacl_sdk/pepper_42/toolchain/linux_x86_newlib/bin/../lib/gcc/x86_64-nacl/4.4.3/../../../../x86_64-nacl/lib/../lib64/libstdc++.a(system_error.o)
                0x000000000004ef40                _ZNKSt14error_category10equivalentEiRKSt15error_condition
 .text._ZNKSt14error_category10equivalentERKSt10error_codei
                0x000000000004efc0       0x40 /home/berkeley/nacl_sdk/pepper_42/toolchain/linux_x86_newlib/bin/../lib/gcc/x86_64-nacl/4.4.3/../../../../x86_64-nacl/lib/../lib64/libstdc++.a(system_error.o)
                0x000000000004efc0                _ZNKSt14error_category10equivalentERKSt10error_codei
 .text._ZNKSt10error_code23default_error_conditionEv
                0x000000000004f000       0x60 /home/berkeley/nacl_sdk/pepper_42/toolchain/linux_x86_newlib/bin/../lib/gcc/x86_64-nacl/4.4.3/../../../../x86_64-nacl/lib/../lib64/libstdc++.a(system_error.o)
                0x000000000004f000                _ZNKSt10error_code23default_error_conditionEv
 .text._ZN12_GLOBAL__N_122generic_error_categoryD1Ev
                0x000000000004f060       0x20 /home/berkeley/nacl_sdk/pepper_42/toolchain/linux_x86_newlib/bin/../lib/gcc/x86_64-nacl/4.4.3/../../../../x86_64-nacl/lib/../lib64/libstdc++.a(system_error.o)
 .text._ZN12_GLOBAL__N_121system_error_categoryD1Ev
                0x000000000004f080       0x20 /home/berkeley/nacl_sdk/pepper_42/toolchain/linux_x86_newlib/bin/../lib/gcc/x86_64-nacl/4.4.3/../../../../x86_64-nacl/lib/../lib64/libstdc++.a(system_error.o)
 .text._ZNSt14error_categoryD0Ev
                0x000000000004f0a0       0x20 /home/berkeley/nacl_sdk/pepper_42/toolchain/linux_x86_newlib/bin/../lib/gcc/x86_64-nacl/4.4.3/../../../../x86_64-nacl/lib/../lib64/libstdc++.a(system_error.o)
                0x000000000004f0a0                _ZNSt14error_categoryD0Ev
 .text._ZN12_GLOBAL__N_122generic_error_categoryD0Ev
                0x000000000004f0c0       0x20 /home/berkeley/nacl_sdk/pepper_42/toolchain/linux_x86_newlib/bin/../lib/gcc/x86_64-nacl/4.4.3/../../../../x86_64-nacl/lib/../lib64/libstdc++.a(system_error.o)
 .text._ZN12_GLOBAL__N_121system_error_categoryD0Ev
                0x000000000004f0e0       0x20 /home/berkeley/nacl_sdk/pepper_42/toolchain/linux_x86_newlib/bin/../lib/gcc/x86_64-nacl/4.4.3/../../../../x86_64-nacl/lib/../lib64/libstdc++.a(system_error.o)
 .text._GLOBAL__I__ZSt15system_categoryv
                0x000000000004f100       0x80 /home/berkeley/nacl_sdk/pepper_42/toolchain/linux_x86_newlib/bin/../lib/gcc/x86_64-nacl/4.4.3/../../../../x86_64-nacl/lib/../lib64/libstdc++.a(system_error.o)
 .text._ZNK12_GLOBAL__N_122generic_error_category7messageEi
                0x000000000004f180       0x80 /home/berkeley/nacl_sdk/pepper_42/toolchain/linux_x86_newlib/bin/../lib/gcc/x86_64-nacl/4.4.3/../../../../x86_64-nacl/lib/../lib64/libstdc++.a(system_error.o)
 .text._ZNK12_GLOBAL__N_121system_error_category7messageEi
                0x000000000004f200       0x80 /home/berkeley/nacl_sdk/pepper_42/toolchain/linux_x86_newlib/bin/../lib/gcc/x86_64-nacl/4.4.3/../../../../x86_64-nacl/lib/../lib64/libstdc++.a(system_error.o)
 .text._ZNSt12system_errorD0Ev
                0x000000000004f280       0x40 /home/berkeley/nacl_sdk/pepper_42/toolchain/linux_x86_newlib/bin/../lib/gcc/x86_64-nacl/4.4.3/../../../../x86_64-nacl/lib/../lib64/libstdc++.a(system_error.o)
                0x000000000004f280                _ZNSt12system_errorD0Ev
 .text._ZNSt12system_errorD1Ev
                0x000000000004f2c0       0x20 /home/berkeley/nacl_sdk/pepper_42/toolchain/linux_x86_newlib/bin/../lib/gcc/x86_64-nacl/4.4.3/../../../../x86_64-nacl/lib/../lib64/libstdc++.a(system_error.o)
                0x000000000004f2c0                _ZNSt12system_errorD1Ev
 .text._ZNSt12system_errorD2Ev
                0x000000000004f2e0       0x20 /home/berkeley/nacl_sdk/pepper_42/toolchain/linux_x86_newlib/bin/../lib/gcc/x86_64-nacl/4.4.3/../../../../x86_64-nacl/lib/../lib64/libstdc++.a(system_error.o)
                0x000000000004f2e0                _ZNSt12system_errorD2Ev
 .text          0x000000000004f300        0x0 /home/berkeley/nacl_sdk/pepper_42/toolchain/linux_x86_newlib/bin/../lib/gcc/x86_64-nacl/4.4.3/../../../../x86_64-nacl/lib/../lib64/libstdc++.a(eh_unex_handler.o)
 .text          0x000000000004f300        0x0 /home/berkeley/nacl_sdk/pepper_42/toolchain/linux_x86_newlib/bin/../lib/gcc/x86_64-nacl/4.4.3/../../../../x86_64-nacl/lib/../lib64/libstdc++.a(eh_term_handler.o)
 .text          0x000000000004f300        0x0 /home/berkeley/nacl_sdk/pepper_42/toolchain/linux_x86_newlib/bin/../lib/gcc/x86_64-nacl/4.4.3/../../../../x86_64-nacl/lib/../lib64/libstdc++.a(bad_typeid.o)
 .text._ZNKSt10bad_typeid4whatEv
                0x000000000004f300       0x20 /home/berkeley/nacl_sdk/pepper_42/toolchain/linux_x86_newlib/bin/../lib/gcc/x86_64-nacl/4.4.3/../../../../x86_64-nacl/lib/../lib64/libstdc++.a(bad_typeid.o)
                0x000000000004f300                _ZNKSt10bad_typeid4whatEv
 .text._ZNSt10bad_typeidD1Ev
                0x000000000004f320       0x20 /home/berkeley/nacl_sdk/pepper_42/toolchain/linux_x86_newlib/bin/../lib/gcc/x86_64-nacl/4.4.3/../../../../x86_64-nacl/lib/../lib64/libstdc++.a(bad_typeid.o)
                0x000000000004f320                _ZNSt10bad_typeidD1Ev
 .text._ZNSt10bad_typeidD2Ev
                0x000000000004f340       0x20 /home/berkeley/nacl_sdk/pepper_42/toolchain/linux_x86_newlib/bin/../lib/gcc/x86_64-nacl/4.4.3/../../../../x86_64-nacl/lib/../lib64/libstdc++.a(bad_typeid.o)
                0x000000000004f340                _ZNSt10bad_typeidD2Ev
 .text._ZNSt10bad_typeidD0Ev
                0x000000000004f360       0x40 /home/berkeley/nacl_sdk/pepper_42/toolchain/linux_x86_newlib/bin/../lib/gcc/x86_64-nacl/4.4.3/../../../../x86_64-nacl/lib/../lib64/libstdc++.a(bad_typeid.o)
                0x000000000004f360                _ZNSt10bad_typeidD0Ev
 .text          0x000000000004f3a0        0x0 /home/berkeley/nacl_sdk/pepper_42/toolchain/linux_x86_newlib/bin/../lib/gcc/x86_64-nacl/4.4.3/../../../../x86_64-nacl/lib/../lib64/libstdc++.a(new_handler.o)
 .text._ZSt15set_new_handlerPFvvE
                0x000000000004f3a0       0x20 /home/berkeley/nacl_sdk/pepper_42/toolchain/linux_x86_newlib/bin/../lib/gcc/x86_64-nacl/4.4.3/../../../../x86_64-nacl/lib/../lib64/libstdc++.a(new_handler.o)
                0x000000000004f3a0                _ZSt15set_new_handlerPFvvE
 .text._ZNKSt9bad_alloc4whatEv
                0x000000000004f3c0       0x20 /home/berkeley/nacl_sdk/pepper_42/toolchain/linux_x86_newlib/bin/../lib/gcc/x86_64-nacl/4.4.3/../../../../x86_64-nacl/lib/../lib64/libstdc++.a(new_handler.o)
                0x000000000004f3c0                _ZNKSt9bad_alloc4whatEv
 .text._ZNSt9bad_allocD1Ev
                0x000000000004f3e0       0x20 /home/berkeley/nacl_sdk/pepper_42/toolchain/linux_x86_newlib/bin/../lib/gcc/x86_64-nacl/4.4.3/../../../../x86_64-nacl/lib/../lib64/libstdc++.a(new_handler.o)
                0x000000000004f3e0                _ZNSt9bad_allocD1Ev
 .text._ZNSt9bad_allocD2Ev
                0x000000000004f400       0x20 /home/berkeley/nacl_sdk/pepper_42/toolchain/linux_x86_newlib/bin/../lib/gcc/x86_64-nacl/4.4.3/../../../../x86_64-nacl/lib/../lib64/libstdc++.a(new_handler.o)
                0x000000000004f400                _ZNSt9bad_allocD2Ev
 .text._ZNSt9bad_allocD0Ev
                0x000000000004f420       0x40 /home/berkeley/nacl_sdk/pepper_42/toolchain/linux_x86_newlib/bin/../lib/gcc/x86_64-nacl/4.4.3/../../../../x86_64-nacl/lib/../lib64/libstdc++.a(new_handler.o)
                0x000000000004f420                _ZNSt9bad_allocD0Ev
 .text          0x000000000004f460        0x0 /home/berkeley/nacl_sdk/pepper_42/toolchain/linux_x86_newlib/bin/../lib/gcc/x86_64-nacl/4.4.3/../../../../x86_64-nacl/lib/../lib64/libstdc++.a(bad_cast.o)
 .text._ZNKSt8bad_cast4whatEv
                0x000000000004f460       0x20 /home/berkeley/nacl_sdk/pepper_42/toolchain/linux_x86_newlib/bin/../lib/gcc/x86_64-nacl/4.4.3/../../../../x86_64-nacl/lib/../lib64/libstdc++.a(bad_cast.o)
                0x000000000004f460                _ZNKSt8bad_cast4whatEv
 .text._ZNSt8bad_castD1Ev
                0x000000000004f480       0x20 /home/berkeley/nacl_sdk/pepper_42/toolchain/linux_x86_newlib/bin/../lib/gcc/x86_64-nacl/4.4.3/../../../../x86_64-nacl/lib/../lib64/libstdc++.a(bad_cast.o)
                0x000000000004f480                _ZNSt8bad_castD1Ev
 .text._ZNSt8bad_castD2Ev
                0x000000000004f4a0       0x20 /home/berkeley/nacl_sdk/pepper_42/toolchain/linux_x86_newlib/bin/../lib/gcc/x86_64-nacl/4.4.3/../../../../x86_64-nacl/lib/../lib64/libstdc++.a(bad_cast.o)
                0x000000000004f4a0                _ZNSt8bad_castD2Ev
 .text._ZNSt8bad_castD0Ev
                0x000000000004f4c0       0x40 /home/berkeley/nacl_sdk/pepper_42/toolchain/linux_x86_newlib/bin/../lib/gcc/x86_64-nacl/4.4.3/../../../../x86_64-nacl/lib/../lib64/libstdc++.a(bad_cast.o)
                0x000000000004f4c0                _ZNSt8bad_castD0Ev
 .text          0x000000000004f500        0x0 /home/berkeley/nacl_sdk/pepper_42/toolchain/linux_x86_newlib/bin/../lib/gcc/x86_64-nacl/4.4.3/../../../../x86_64-nacl/lib/../lib64/libstdc++.a(vterminate.o)
 .text._ZN9__gnu_cxx27__verbose_terminate_handlerEv
                0x000000000004f500      0x540 /home/berkeley/nacl_sdk/pepper_42/toolchain/linux_x86_newlib/bin/../lib/gcc/x86_64-nacl/4.4.3/../../../../x86_64-nacl/lib/../lib64/libstdc++.a(vterminate.o)
                0x000000000004f500                _ZN9__gnu_cxx27__verbose_terminate_handlerEv
 .text          0x000000000004fa40     0x9300 /home/berkeley/nacl_sdk/pepper_42/toolchain/linux_x86_newlib/bin/../lib/gcc/x86_64-nacl/4.4.3/../../../../x86_64-nacl/lib/../lib64/libstdc++.a(cp-demangle.o)
                0x0000000000058060                __gcclibcxx_demangle_callback
                0x00000000000580e0                __cxa_demangle
 .text          0x0000000000058d40        0x0 /home/berkeley/nacl_sdk/pepper_42/toolchain/linux_x86_newlib/bin/../lib/gcc/x86_64-nacl/4.4.3/../../../../x86_64-nacl/lib/../lib64/libstdc++.a(eh_type.o)
 .text.__cxa_current_exception_type
                0x0000000000058d40       0xa0 /home/berkeley/nacl_sdk/pepper_42/toolchain/linux_x86_newlib/bin/../lib/gcc/x86_64-nacl/4.4.3/../../../../x86_64-nacl/lib/../lib64/libstdc++.a(eh_type.o)
                0x0000000000058d40                __cxa_current_exception_type
 .text          0x0000000000058de0     0x5020 /home/berkeley/nacl_sdk/pepper_42/toolchain/linux_x86_newlib/bin/../lib/gcc/x86_64-nacl/4.4.3/libgcc.a(unwind-dw2.o)
                0x0000000000058e60                _Unwind_GetCFA
                0x0000000000058e80                _Unwind_GetIP
                0x0000000000058ea0                _Unwind_GetIPInfo
                0x0000000000058ee0                _Unwind_SetIP
                0x0000000000058f00                _Unwind_GetLanguageSpecificData
                0x0000000000058f20                _Unwind_GetRegionStart
                0x0000000000058f40                _Unwind_GetDataRelBase
                0x0000000000058f60                _Unwind_GetTextRelBase
                0x0000000000058f80                _Unwind_DeleteException
                0x0000000000058fc0                _Unwind_SetGR
                0x00000000000590c0                _Unwind_GetGR
                0x0000000000059340                _Unwind_FindEnclosingFunction
                0x000000000005d040                _Unwind_Backtrace
                0x000000000005d3a0                _Unwind_ForcedUnwind
                0x000000000005d680                _Unwind_Resume
                0x000000000005d820                __frame_state_for
                0x000000000005da00                _Unwind_RaiseException
                0x000000000005dc80                _Unwind_Resume_or_Rethrow
 .text          0x000000000005de00     0x26c0 /home/berkeley/nacl_sdk/pepper_42/toolchain/linux_x86_newlib/bin/../lib/gcc/x86_64-nacl/4.4.3/libgcc.a(unwind-dw2-fde-glibc.o)
                0x000000000005de00                __register_frame_info_bases
                0x000000000005dea0                __register_frame_info
                0x000000000005dec0                __register_frame_info_table_bases
                0x000000000005df40                __register_frame_info_table
                0x000000000005f180                __register_frame_table
                0x000000000005f1c0                __register_frame
                0x000000000005ff60                _Unwind_Find_FDE
                0x0000000000060220                __deregister_frame_info_bases
                0x0000000000060420                __deregister_frame_info
                0x0000000000060440                __deregister_frame
 .text          0x00000000000604c0       0x40 /home/berkeley/nacl_sdk/pepper_42/toolchain/linux_x86_newlib/bin/../lib/gcc/x86_64-nacl/4.4.3/../../../../x86_64-nacl/lib/../lib64/libnacl.a(_exit_710c7d0d.o)
                0x00000000000604c0                _exit
 .text          0x0000000000060500       0x40 /home/berkeley/nacl_sdk/pepper_42/toolchain/linux_x86_newlib/bin/../lib/gcc/x86_64-nacl/4.4.3/../../../../x86_64-nacl/lib/../lib64/libnacl.a(abort_9f6b5845.o)
                0x0000000000060500                abort
 .text          0x0000000000060540        0x0 /home/berkeley/nacl_sdk/pepper_42/toolchain/linux_x86_newlib/bin/../lib/gcc/x86_64-nacl/4.4.3/../../../../x86_64-nacl/lib/../lib64/libnacl.a(environ_25cd24d8.o)
 .text          0x0000000000060540      0x140 /home/berkeley/nacl_sdk/pepper_42/toolchain/linux_x86_newlib/bin/../lib/gcc/x86_64-nacl/4.4.3/../../../../x86_64-nacl/lib/../lib64/libnacl.a(start_fa9ef7de.o)
                0x0000000000060540                _start
 .text          0x0000000000060680     0x6e20 /home/berkeley/nacl_sdk/pepper_42/toolchain/linux_x86_newlib/bin/../lib/gcc/x86_64-nacl/4.4.3/../../../../x86_64-nacl/lib/../lib64/libnacl.a(malloc_222c4a1e.o)
                0x0000000000060680                malloc_footprint
                0x00000000000606a0                malloc_max_footprint
                0x00000000000606c0                malloc_footprint_limit
                0x00000000000606e0                malloc_set_footprint_limit
                0x0000000000060720                malloc_usable_size
                0x0000000000060980                mallopt
                0x0000000000062080                bulk_free
                0x0000000000062300                malloc_trim
                0x0000000000062420                free
                0x0000000000063140                _free_r
                0x0000000000063160                mallinfo
                0x00000000000634e0                malloc_stats
                0x0000000000063880                malloc
                0x0000000000065de0                _malloc_r
                0x0000000000065e00                calloc
                0x0000000000065ec0                _calloc_r
                0x0000000000066580                realloc
                0x0000000000066840                _realloc_r
                0x0000000000066860                realloc_in_place
                0x0000000000066d80                memalign
                0x0000000000066dc0                pvalloc
                0x0000000000066e00                valloc
                0x0000000000066e40                posix_memalign
                0x0000000000067440                independent_calloc
                0x0000000000067480                independent_comalloc
 .text          0x00000000000674a0      0x3a0 /home/berkeley/nacl_sdk/pepper_42/toolchain/linux_x86_newlib/bin/../lib/gcc/x86_64-nacl/4.4.3/../../../../x86_64-nacl/lib/../lib64/libnacl.a(nacl_irt_6de1d53f.o)
                0x00000000000675a0                __libnacl_irt_init_fn
                0x0000000000067700                __libnacl_irt_query
                0x00000000000677e0                __libnacl_mandatory_irt_query
 .text          0x0000000000067840      0x100 /home/berkeley/nacl_sdk/pepper_42/toolchain/linux_x86_newlib/bin/../lib/gcc/x86_64-nacl/4.4.3/../../../../x86_64-nacl/lib/../lib64/libnacl.a(pthread_initialize_minimal_4b6e776b.o)
                0x0000000000067840                __pthread_initialize_minimal
 .text          0x0000000000067940       0x20 /home/berkeley/nacl_sdk/pepper_42/toolchain/linux_x86_newlib/bin/../lib/gcc/x86_64-nacl/4.4.3/../../../../x86_64-nacl/lib/../lib64/libnacl.a(nacl_read_tp_5748ac47.o)
                0x0000000000067940                __nacl_read_tp
 .text          0x0000000000067960       0x40 /home/berkeley/nacl_sdk/pepper_42/toolchain/linux_x86_newlib/bin/../lib/gcc/x86_64-nacl/4.4.3/../../../../x86_64-nacl/lib/../lib64/libnacl.a(nacl_add_tp_7312c7c4.o)
                0x0000000000067960                __nacl_add_tp
 .text          0x00000000000679a0       0x80 /home/berkeley/nacl_sdk/pepper_42/toolchain/linux_x86_newlib/bin/../lib/gcc/x86_64-nacl/4.4.3/../../../../x86_64-nacl/lib/../lib64/libnacl.a(mmap_767fb080.o)
                0x00000000000679a0                mmap
 .text          0x0000000000067a20       0xa0 /home/berkeley/nacl_sdk/pepper_42/toolchain/linux_x86_newlib/bin/../lib/gcc/x86_64-nacl/4.4.3/../../../../x86_64-nacl/lib/../lib64/libnacl.a(sched_yield_56c375be.o)
                0x0000000000067a20                sched_yield
 .text          0x0000000000067ac0       0xa0 /home/berkeley/nacl_sdk/pepper_42/toolchain/linux_x86_newlib/bin/../lib/gcc/x86_64-nacl/4.4.3/../../../../x86_64-nacl/lib/../lib64/libnacl.a(munmap_d4f09867.o)
                0x0000000000067ac0                munmap
 .text          0x0000000000067b60      0x480 /home/berkeley/nacl_sdk/pepper_42/toolchain/linux_x86_newlib/bin/../lib/gcc/x86_64-nacl/4.4.3/../../../../x86_64-nacl/lib/../lib64/libnacl.a(tls_bba1975b.o)
                0x0000000000067e00                __nacl_tls_combined_size
                0x0000000000067e80                __nacl_tls_initialize_memory
 .text          0x0000000000067fe0       0xa0 /home/berkeley/nacl_sdk/pepper_42/toolchain/linux_x86_newlib/bin/../lib/gcc/x86_64-nacl/4.4.3/../../../../x86_64-nacl/lib/../lib64/libnacl.a(write_fb49787f.o)
                0x0000000000067fe0                write
 .text          0x0000000000068080       0x20 /home/berkeley/nacl_sdk/pepper_42/toolchain/linux_x86_newlib/bin/../lib/gcc/x86_64-nacl/4.4.3/../../../../x86_64-nacl/lib/../lib64/libnacl.a(nacl_tls_get_d2f842b5.o)
                0x0000000000068080                nacl_tls_get
 .text          0x00000000000680a0      0x260 /home/berkeley/nacl_sdk/pepper_42/toolchain/linux_x86_newlib/bin/../lib/gcc/x86_64-nacl/4.4.3/../../../../x86_64-nacl/lib/../lib64/libnacl.a(nacl_irt_init_7b4f826e.o)
                0x00000000000680c0                __libnacl_irt_init
 .text          0x0000000000068300       0xa0 /home/berkeley/nacl_sdk/pepper_42/toolchain/linux_x86_newlib/bin/../lib/gcc/x86_64-nacl/4.4.3/../../../../x86_64-nacl/lib/../lib64/libnacl.a(sysconf_ad295ea2.o)
                0x0000000000068300                sysconf
 .text          0x00000000000683a0       0x20 /home/berkeley/nacl_sdk/pepper_42/toolchain/linux_x86_newlib/bin/../lib/gcc/x86_64-nacl/4.4.3/../../../../x86_64-nacl/lib/../lib64/libnacl.a(nacl_tls_init_eb0cd232.o)
                0x00000000000683a0                nacl_tls_init
 .text          0x00000000000683c0       0x20 /home/berkeley/nacl_sdk/pepper_42/toolchain/linux_x86_newlib/bin/../lib/gcc/x86_64-nacl/4.4.3/../../../../x86_64-nacl/lib/../lib64/libcrt_common.a(lib_a-atexit.o)
                0x00000000000683c0                atexit
 .text          0x00000000000683e0       0x20 /home/berkeley/nacl_sdk/pepper_42/toolchain/linux_x86_newlib/bin/../lib/gcc/x86_64-nacl/4.4.3/../../../../x86_64-nacl/lib/../lib64/libcrt_common.a(lib_a-cxa_atexit.o)
                0x00000000000683e0                __cxa_atexit
 .text          0x0000000000068400       0x40 /home/berkeley/nacl_sdk/pepper_42/toolchain/linux_x86_newlib/bin/../lib/gcc/x86_64-nacl/4.4.3/../../../../x86_64-nacl/lib/../lib64/libcrt_common.a(lib_a-errno.o)
                0x0000000000068400                __errno
 .text          0x0000000000068440       0x60 /home/berkeley/nacl_sdk/pepper_42/toolchain/linux_x86_newlib/bin/../lib/gcc/x86_64-nacl/4.4.3/../../../../x86_64-nacl/lib/../lib64/libcrt_common.a(lib_a-exit.o)
                0x0000000000068440                exit
 .text          0x00000000000684a0       0xa0 /home/berkeley/nacl_sdk/pepper_42/toolchain/linux_x86_newlib/bin/../lib/gcc/x86_64-nacl/4.4.3/../../../../x86_64-nacl/lib/../lib64/libcrt_common.a(lib_a-fini.o)
                0x00000000000684a0                __libc_fini_array
 .text          0x0000000000068540      0x1e0 /home/berkeley/nacl_sdk/pepper_42/toolchain/linux_x86_newlib/bin/../lib/gcc/x86_64-nacl/4.4.3/../../../../x86_64-nacl/lib/../lib64/libcrt_common.a(lib_a-fprintf.o)
                0x0000000000068540                fprintf
                0x0000000000068660                _fprintf_r
 .text          0x0000000000068720      0x300 /home/berkeley/nacl_sdk/pepper_42/toolchain/linux_x86_newlib/bin/../lib/gcc/x86_64-nacl/4.4.3/../../../../x86_64-nacl/lib/../lib64/libcrt_common.a(lib_a-fputc.o)
                0x0000000000068720                fputc
                0x00000000000688c0                _fputc_r
 .text          0x0000000000068a20      0x200 /home/berkeley/nacl_sdk/pepper_42/toolchain/linux_x86_newlib/bin/../lib/gcc/x86_64-nacl/4.4.3/../../../../x86_64-nacl/lib/../lib64/libcrt_common.a(lib_a-fputs.o)
                0x0000000000068a20                _fputs_r
                0x0000000000068bc0                fputs
 .text          0x0000000000068c20      0x940 /home/berkeley/nacl_sdk/pepper_42/toolchain/linux_x86_newlib/bin/../lib/gcc/x86_64-nacl/4.4.3/../../../../x86_64-nacl/lib/../lib64/libcrt_common.a(lib_a-fvwrite.o)
                0x0000000000068c20                __sfvwrite_r
 .text          0x0000000000069560      0x2e0 /home/berkeley/nacl_sdk/pepper_42/toolchain/linux_x86_newlib/bin/../lib/gcc/x86_64-nacl/4.4.3/../../../../x86_64-nacl/lib/../lib64/libcrt_common.a(lib_a-fwrite.o)
                0x0000000000069560                _fwrite_r
                0x00000000000697c0                fwrite
 .text          0x0000000000069840       0xc0 /home/berkeley/nacl_sdk/pepper_42/toolchain/linux_x86_newlib/bin/../lib/gcc/x86_64-nacl/4.4.3/../../../../x86_64-nacl/lib/../lib64/libcrt_common.a(lib_a-getenv.o)
                0x0000000000069840                getenv
                0x00000000000698a0                _findenv
 .text          0x0000000000069900      0x200 /home/berkeley/nacl_sdk/pepper_42/toolchain/linux_x86_newlib/bin/../lib/gcc/x86_64-nacl/4.4.3/../../../../x86_64-nacl/lib/../lib64/libcrt_common.a(lib_a-getenv_r.o)
                0x0000000000069900                _findenv_r
                0x0000000000069ac0                _getenv_r
 .text          0x0000000000069b00       0x80 /home/berkeley/nacl_sdk/pepper_42/toolchain/linux_x86_newlib/bin/../lib/gcc/x86_64-nacl/4.4.3/../../../../x86_64-nacl/lib/../lib64/libcrt_common.a(lib_a-impure.o)
                0x0000000000069b00                __newlib_thread_init
                0x0000000000069b60                __newlib_thread_exit
 .text          0x0000000000069b80      0x120 /home/berkeley/nacl_sdk/pepper_42/toolchain/linux_x86_newlib/bin/../lib/gcc/x86_64-nacl/4.4.3/../../../../x86_64-nacl/lib/../lib64/libcrt_common.a(lib_a-init.o)
                0x0000000000069b80                __libc_init_array
 .text          0x0000000000069ca0      0x180 /home/berkeley/nacl_sdk/pepper_42/toolchain/linux_x86_newlib/bin/../lib/gcc/x86_64-nacl/4.4.3/../../../../x86_64-nacl/lib/../lib64/libcrt_common.a(lib_a-memchr.o)
                0x0000000000069ca0                memchr
 .text          0x0000000000069e20      0x200 /home/berkeley/nacl_sdk/pepper_42/toolchain/linux_x86_newlib/bin/../lib/gcc/x86_64-nacl/4.4.3/../../../../x86_64-nacl/lib/../lib64/libcrt_common.a(lib_a-memcpy.o)
                0x0000000000069e20                memcpy
 .text          0x000000000006a020      0x1c0 /home/berkeley/nacl_sdk/pepper_42/toolchain/linux_x86_newlib/bin/../lib/gcc/x86_64-nacl/4.4.3/../../../../x86_64-nacl/lib/../lib64/libcrt_common.a(lib_a-memmove.o)
                0x000000000006a020                memmove
 .text          0x000000000006a1e0      0x160 /home/berkeley/nacl_sdk/pepper_42/toolchain/linux_x86_newlib/bin/../lib/gcc/x86_64-nacl/4.4.3/../../../../x86_64-nacl/lib/../lib64/libcrt_common.a(lib_a-memset.o)
                0x000000000006a1e0                memset
 .text          0x000000000006a340      0x520 /home/berkeley/nacl_sdk/pepper_42/toolchain/linux_x86_newlib/bin/../lib/gcc/x86_64-nacl/4.4.3/../../../../x86_64-nacl/lib/../lib64/libcrt_common.a(lib_a-putc.o)
                0x000000000006a340                putc
                0x000000000006a5e0                _putc_r
 .text          0x000000000006a860      0x3a0 /home/berkeley/nacl_sdk/pepper_42/toolchain/linux_x86_newlib/bin/../lib/gcc/x86_64-nacl/4.4.3/../../../../x86_64-nacl/lib/../lib64/libcrt_common.a(lib_a-snprintf.o)
                0x000000000006a860                snprintf
                0x000000000006aa60                _snprintf_r
 .text          0x000000000006ac00      0x280 /home/berkeley/nacl_sdk/pepper_42/toolchain/linux_x86_newlib/bin/../lib/gcc/x86_64-nacl/4.4.3/../../../../x86_64-nacl/lib/../lib64/libcrt_common.a(lib_a-sprintf.o)
                0x000000000006ac00                sprintf
                0x000000000006ad60                _sprintf_r
 .text          0x000000000006ae80       0xc0 /home/berkeley/nacl_sdk/pepper_42/toolchain/linux_x86_newlib/bin/../lib/gcc/x86_64-nacl/4.4.3/../../../../x86_64-nacl/lib/../lib64/libcrt_common.a(lib_a-strcpy.o)
                0x000000000006ae80                strcpy
 .text          0x000000000006af40      0x860 /home/berkeley/nacl_sdk/pepper_42/toolchain/linux_x86_newlib/bin/../lib/gcc/x86_64-nacl/4.4.3/../../../../x86_64-nacl/lib/../lib64/libcrt_common.a(lib_a-strerror.o)
                0x000000000006af40                _strerror_r
                0x000000000006b760                strerror
 .text          0x000000000006b7a0      0x140 /home/berkeley/nacl_sdk/pepper_42/toolchain/linux_x86_newlib/bin/../lib/gcc/x86_64-nacl/4.4.3/../../../../x86_64-nacl/lib/../lib64/libcrt_common.a(lib_a-strlen.o)
                0x000000000006b7a0                strlen
 .text          0x000000000006b8e0      0x120 /home/berkeley/nacl_sdk/pepper_42/toolchain/linux_x86_newlib/bin/../lib/gcc/x86_64-nacl/4.4.3/../../../../x86_64-nacl/lib/../lib64/libcrt_common.a(lib_a-strncmp.o)
                0x000000000006b8e0                strncmp
 .text          0x000000000006ba00     0x57e0 /home/berkeley/nacl_sdk/pepper_42/toolchain/linux_x86_newlib/bin/../lib/gcc/x86_64-nacl/4.4.3/../../../../x86_64-nacl/lib/../lib64/libcrt_common.a(lib_a-svfprintf.o)
                0x000000000006ba00                _svfprintf_r
 .text          0x00000000000711e0       0x20 /home/berkeley/nacl_sdk/pepper_42/toolchain/linux_x86_newlib/bin/../lib/gcc/x86_64-nacl/4.4.3/../../../../x86_64-nacl/lib/../lib64/libcrt_common.a(lib_a-u_strerr.o)
                0x00000000000711e0                _user_strerror
 .text          0x0000000000071200     0x5ca0 /home/berkeley/nacl_sdk/pepper_42/toolchain/linux_x86_newlib/bin/../lib/gcc/x86_64-nacl/4.4.3/../../../../x86_64-nacl/lib/../lib64/libcrt_common.a(lib_a-vfprintf.o)
                0x0000000000071200                _vfprintf_r
                0x0000000000076e20                vfprintf
 .text          0x0000000000076ea0      0x300 /home/berkeley/nacl_sdk/pepper_42/toolchain/linux_x86_newlib/bin/../lib/gcc/x86_64-nacl/4.4.3/../../../../x86_64-nacl/lib/../lib64/libcrt_common.a(lib_a-wbuf.o)
                0x0000000000076ea0                __swbuf_r
                0x0000000000077140                __swbuf
 .text          0x00000000000771a0      0x2a0 /home/berkeley/nacl_sdk/pepper_42/toolchain/linux_x86_newlib/bin/../lib/gcc/x86_64-nacl/4.4.3/../../../../x86_64-nacl/lib/../lib64/libcrt_common.a(lib_a-wcrtomb.o)
                0x00000000000771a0                wcrtomb
                0x0000000000077300                _wcrtomb_r
 .text          0x0000000000077440       0xa0 /home/berkeley/nacl_sdk/pepper_42/toolchain/linux_x86_newlib/bin/../lib/gcc/x86_64-nacl/4.4.3/../../../../x86_64-nacl/lib/../lib64/libcrt_common.a(lib_a-wcsrtombs.o)
                0x0000000000077440                wcsrtombs
                0x00000000000774c0                _wcsrtombs_r
 .text          0x00000000000774e0      0x5e0 /home/berkeley/nacl_sdk/pepper_42/toolchain/linux_x86_newlib/bin/../lib/gcc/x86_64-nacl/4.4.3/../../../../x86_64-nacl/lib/../lib64/libcrt_common.a(lib_a-wctomb_r.o)
                0x00000000000774e0                __ascii_wctomb
                0x0000000000077540                __utf8_wctomb
                0x00000000000776e0                __sjis_wctomb
                0x00000000000777c0                __eucjp_wctomb
                0x0000000000077900                __jis_wctomb
                0x0000000000077a40                _wctomb_r
 .text          0x0000000000077ac0      0x340 /home/berkeley/nacl_sdk/pepper_42/toolchain/linux_x86_newlib/bin/../lib/gcc/x86_64-nacl/4.4.3/../../../../x86_64-nacl/lib/../lib64/libcrt_common.a(lib_a-wsetup.o)
                0x0000000000077ac0                __swsetup_r
 .text          0x0000000000077e00      0x2e0 /home/berkeley/nacl_sdk/pepper_42/toolchain/linux_x86_newlib/bin/../lib/gcc/x86_64-nacl/4.4.3/../../../../x86_64-nacl/lib/../lib64/libcrt_common.a(lib_a-__atexit.o)
                0x0000000000077e00                __register_exitproc
 .text          0x00000000000780e0      0x380 /home/berkeley/nacl_sdk/pepper_42/toolchain/linux_x86_newlib/bin/../lib/gcc/x86_64-nacl/4.4.3/../../../../x86_64-nacl/lib/../lib64/libcrt_common.a(lib_a-__call_atexit.o)
                0x00000000000780e0                __call_exitprocs
 .text          0x0000000000078460     0x23a0 /home/berkeley/nacl_sdk/pepper_42/toolchain/linux_x86_newlib/bin/../lib/gcc/x86_64-nacl/4.4.3/../../../../x86_64-nacl/lib/../lib64/libcrt_common.a(lib_a-dtoa.o)
                0x00000000000787c0                _dtoa_r
 .text          0x000000000007a800       0x40 /home/berkeley/nacl_sdk/pepper_42/toolchain/linux_x86_newlib/bin/../lib/gcc/x86_64-nacl/4.4.3/../../../../x86_64-nacl/lib/../lib64/libcrt_common.a(lib_a-envlock.o)
                0x000000000007a800                __env_unlock
                0x000000000007a820                __env_lock
 .text          0x000000000007a840      0x600 /home/berkeley/nacl_sdk/pepper_42/toolchain/linux_x86_newlib/bin/../lib/gcc/x86_64-nacl/4.4.3/../../../../x86_64-nacl/lib/../lib64/libcrt_common.a(lib_a-fflush.o)
                0x000000000007a840                __sflush_r
                0x000000000007ac60                _fflush_r
                0x000000000007ade0                fflush
 .text          0x000000000007ae40      0x7e0 /home/berkeley/nacl_sdk/pepper_42/toolchain/linux_x86_newlib/bin/../lib/gcc/x86_64-nacl/4.4.3/../../../../x86_64-nacl/lib/../lib64/libcrt_common.a(lib_a-findfp.o)
                0x000000000007ae80                __sinit_lock_release
                0x000000000007aea0                __sfp_lock_release
                0x000000000007aec0                __fp_unlock_all
                0x000000000007af60                __sinit_lock_acquire
                0x000000000007af80                __sfp_lock_acquire
                0x000000000007afa0                __fp_lock_all
                0x000000000007b0c0                __sinit
                0x000000000007b2a0                _cleanup_r
                0x000000000007b2c0                _cleanup
                0x000000000007b2e0                __sfmoreglue
                0x000000000007b380                __sfp
 .text          0x000000000007b620      0x440 /home/berkeley/nacl_sdk/pepper_42/toolchain/linux_x86_newlib/bin/../lib/gcc/x86_64-nacl/4.4.3/../../../../x86_64-nacl/lib/../lib64/libcrt_common.a(lib_a-fwalk.o)
                0x000000000007b620                _fwalk_reent
                0x000000000007b7e0                _fwalk
 .text          0x000000000007ba60     0x1840 /home/berkeley/nacl_sdk/pepper_42/toolchain/linux_x86_newlib/bin/../lib/gcc/x86_64-nacl/4.4.3/../../../../x86_64-nacl/lib/../lib64/libcrt_common.a(lib_a-locale.o)
                0x000000000007ba60                __locale_charset
                0x000000000007ba80                __locale_mb_cur_max
                0x000000000007baa0                __locale_msgcharset
                0x000000000007bac0                __locale_cjk_lang
                0x000000000007bae0                _localeconv_r
                0x000000000007bb00                localeconv
                0x000000000007cb80                _setlocale_r
                0x000000000007d240                setlocale
 .text          0x000000000007d2a0      0x280 /home/berkeley/nacl_sdk/pepper_42/toolchain/linux_x86_newlib/bin/../lib/gcc/x86_64-nacl/4.4.3/../../../../x86_64-nacl/lib/../lib64/libcrt_common.a(lib_a-makebuf.o)
                0x000000000007d2a0                __smakebuf_r
 .text          0x000000000007d520      0xea0 /home/berkeley/nacl_sdk/pepper_42/toolchain/linux_x86_newlib/bin/../lib/gcc/x86_64-nacl/4.4.3/../../../../x86_64-nacl/lib/../lib64/libcrt_common.a(lib_a-mbtowc_r.o)
                0x000000000007d520                __ascii_mbtowc
                0x000000000007d5a0                __utf8_mbtowc
                0x000000000007dc40                __sjis_mbtowc
                0x000000000007de00                __eucjp_mbtowc
                0x000000000007e080                __jis_mbtowc
                0x000000000007e340                _mbtowc_r
 .text          0x000000000007e3c0     0x1a20 /home/berkeley/nacl_sdk/pepper_42/toolchain/linux_x86_newlib/bin/../lib/gcc/x86_64-nacl/4.4.3/../../../../x86_64-nacl/lib/../lib64/libcrt_common.a(lib_a-mprec.o)
                0x000000000007e3c0                _Bfree
                0x000000000007e420                __hi0bits
                0x000000000007e4e0                __lo0bits
                0x000000000007e640                __mcmp
                0x000000000007e6e0                __ulp
                0x000000000007e7c0                __b2d
                0x000000000007e980                __ratio
                0x000000000007eac0                _mprec_log10
                0x000000000007eb20                __copybits
                0x000000000007ec00                __any_on
                0x000000000007ed20                _Balloc
                0x000000000007ee40                __d2b
                0x000000000007f0a0                __mdiff
                0x000000000007f320                __lshift
                0x000000000007f500                __multiply
                0x000000000007f840                __i2b
                0x000000000007f8a0                __multadd
                0x000000000007fa40                __pow5mult
                0x000000000007fc40                __s2b
 .text          0x000000000007fde0      0x140 /home/berkeley/nacl_sdk/pepper_42/toolchain/linux_x86_newlib/bin/../lib/gcc/x86_64-nacl/4.4.3/../../../../x86_64-nacl/lib/../lib64/libcrt_common.a(lib_a-s_fpclassify.o)
                0x000000000007fde0                __fpclassifyd
 .text          0x000000000007ff20      0x120 /home/berkeley/nacl_sdk/pepper_42/toolchain/linux_x86_newlib/bin/../lib/gcc/x86_64-nacl/4.4.3/../../../../x86_64-nacl/lib/../lib64/libcrt_common.a(lib_a-s_frexp.o)
                0x000000000007ff20                frexp
 .text          0x0000000000080040      0x1c0 /home/berkeley/nacl_sdk/pepper_42/toolchain/linux_x86_newlib/bin/../lib/gcc/x86_64-nacl/4.4.3/../../../../x86_64-nacl/lib/../lib64/libcrt_common.a(lib_a-stdio.o)
                0x0000000000080040                __seofread
                0x0000000000080060                __sclose
                0x0000000000080080                __sseek
                0x0000000000080100                __swrite
                0x00000000000801a0                __sread
 .text          0x0000000000080200       0xc0 /home/berkeley/nacl_sdk/pepper_42/toolchain/linux_x86_newlib/bin/../lib/gcc/x86_64-nacl/4.4.3/../../../../x86_64-nacl/lib/../lib64/libcrt_common.a(lib_a-strcasecmp.o)
                0x0000000000080200                strcasecmp
 .text          0x00000000000802c0       0xe0 /home/berkeley/nacl_sdk/pepper_42/toolchain/linux_x86_newlib/bin/../lib/gcc/x86_64-nacl/4.4.3/../../../../x86_64-nacl/lib/../lib64/libcrt_common.a(lib_a-strcat.o)
                0x00000000000802c0                strcat
 .text          0x00000000000803a0      0x220 /home/berkeley/nacl_sdk/pepper_42/toolchain/linux_x86_newlib/bin/../lib/gcc/x86_64-nacl/4.4.3/../../../../x86_64-nacl/lib/../lib64/libcrt_common.a(lib_a-strchr.o)
                0x00000000000803a0                strchr
 .text          0x00000000000805c0      0x100 /home/berkeley/nacl_sdk/pepper_42/toolchain/linux_x86_newlib/bin/../lib/gcc/x86_64-nacl/4.4.3/../../../../x86_64-nacl/lib/../lib64/libcrt_common.a(lib_a-strcmp.o)
                0x00000000000805c0                strcmp
 .text          0x00000000000806c0       0xe0 /home/berkeley/nacl_sdk/pepper_42/toolchain/linux_x86_newlib/bin/../lib/gcc/x86_64-nacl/4.4.3/../../../../x86_64-nacl/lib/../lib64/libcrt_common.a(lib_a-strlcpy.o)
                0x00000000000806c0                strlcpy
 .text          0x00000000000807a0       0xc0 /home/berkeley/nacl_sdk/pepper_42/toolchain/linux_x86_newlib/bin/../lib/gcc/x86_64-nacl/4.4.3/../../../../x86_64-nacl/lib/../lib64/libcrt_common.a(lib_a-strncasecmp.o)
                0x00000000000807a0                strncasecmp
 .text          0x0000000000080860      0x1a0 /home/berkeley/nacl_sdk/pepper_42/toolchain/linux_x86_newlib/bin/../lib/gcc/x86_64-nacl/4.4.3/../../../../x86_64-nacl/lib/../lib64/libcrt_common.a(lib_a-strncpy.o)
                0x0000000000080860                strncpy
 .text          0x0000000000080a00      0x380 /home/berkeley/nacl_sdk/pepper_42/toolchain/linux_x86_newlib/bin/../lib/gcc/x86_64-nacl/4.4.3/../../../../x86_64-nacl/lib/../lib64/libcrt_common.a(lib_a-strtol.o)
                0x0000000000080a00                _strtol_r
                0x0000000000080d00                strtol
 .text          0x0000000000080d80     0x32e0 /home/berkeley/nacl_sdk/pepper_42/toolchain/linux_x86_newlib/bin/../lib/gcc/x86_64-nacl/4.4.3/../../../../x86_64-nacl/lib/../lib64/libcrt_common.a(lib_a-svfiprintf.o)
                0x0000000000080d80                __ssprint_r
                0x0000000000081180                _svfiprintf_r
 .text          0x0000000000084060     0x3640 /home/berkeley/nacl_sdk/pepper_42/toolchain/linux_x86_newlib/bin/../lib/gcc/x86_64-nacl/4.4.3/../../../../x86_64-nacl/lib/../lib64/libcrt_common.a(lib_a-vfiprintf.o)
                0x0000000000084060                __sprint_r
                0x0000000000084260                _vfiprintf_r
                0x0000000000087620                vfiprintf
 .text          0x00000000000876a0      0x360 /home/berkeley/nacl_sdk/pepper_42/toolchain/linux_x86_newlib/bin/../lib/gcc/x86_64-nacl/4.4.3/../../../../x86_64-nacl/lib/../lib64/libcrt_common.a(lib_a-wcsnrtombs.o)
                0x00000000000876a0                _wcsnrtombs_r
                0x0000000000087980                wcsnrtombs
 .text          0x0000000000087a00       0x20 /home/berkeley/nacl_sdk/pepper_42/toolchain/linux_x86_newlib/bin/../lib/gcc/x86_64-nacl/4.4.3/../../../../x86_64-nacl/lib/../lib64/libcrt_common.a(lib_a-ctype_.o)
                0x0000000000087a00                __set_ctype
 .text          0x0000000000087a20      0x360 /home/berkeley/nacl_sdk/pepper_42/toolchain/linux_x86_newlib/bin/../lib/gcc/x86_64-nacl/4.4.3/../../../../x86_64-nacl/lib/../lib64/libcrt_common.a(lib_a-fclose.o)
                0x0000000000087a20                _fclose_r
                0x0000000000087d40                fclose
 .text          0x0000000000087d80      0x400 /home/berkeley/nacl_sdk/pepper_42/toolchain/linux_x86_newlib/bin/../lib/gcc/x86_64-nacl/4.4.3/../../../../x86_64-nacl/lib/../lib64/libcrt_common.a(lib_a-fputwc.o)
                0x0000000000087d80                _fputwc_r
                0x00000000000880e0                fputwc
 .text          0x0000000000088180       0xa0 /home/berkeley/nacl_sdk/pepper_42/toolchain/linux_x86_newlib/bin/../lib/gcc/x86_64-nacl/4.4.3/../../../../x86_64-nacl/lib/../lib64/libnacl.a(close_e9b92fbd.o)
                0x0000000000088180                close
 .text          0x0000000000088220       0xe0 /home/berkeley/nacl_sdk/pepper_42/toolchain/linux_x86_newlib/bin/../lib/gcc/x86_64-nacl/4.4.3/../../../../x86_64-nacl/lib/../lib64/libnacl.a(isatty_02f56e94.o)
                0x0000000000088220                isatty
 .text          0x0000000000088300       0xa0 /home/berkeley/nacl_sdk/pepper_42/toolchain/linux_x86_newlib/bin/../lib/gcc/x86_64-nacl/4.4.3/../../../../x86_64-nacl/lib/../lib64/libnacl.a(nacl_irt_fdio_b571b5e7.o)
                0x0000000000088300                __libnacl_irt_dev_fdio_init
 .text          0x00000000000883a0       0xa0 /home/berkeley/nacl_sdk/pepper_42/toolchain/linux_x86_newlib/bin/../lib/gcc/x86_64-nacl/4.4.3/../../../../x86_64-nacl/lib/../lib64/libnacl.a(fstat_0540ff63.o)
                0x00000000000883a0                fstat
 .text          0x0000000000088440       0xa0 /home/berkeley/nacl_sdk/pepper_42/toolchain/linux_x86_newlib/bin/../lib/gcc/x86_64-nacl/4.4.3/../../../../x86_64-nacl/lib/../lib64/libnacl.a(lseek_64d2d05c.o)
                0x0000000000088440                lseek
 .text          0x00000000000884e0       0xa0 /home/berkeley/nacl_sdk/pepper_42/toolchain/linux_x86_newlib/bin/../lib/gcc/x86_64-nacl/4.4.3/../../../../x86_64-nacl/lib/../lib64/libnacl.a(read_df872e10.o)
                0x00000000000884e0                read
 .text          0x0000000000088580       0x80 /home/berkeley/nacl_sdk/pepper_42/toolchain/linux_x86_newlib/bin/../lib/gcc/x86_64-nacl/4.4.3/crtend.o
 .text          0x0000000000088600        0x0 /home/berkeley/nacl_sdk/pepper_42/toolchain/linux_x86_newlib/bin/../lib/gcc/x86_64-nacl/4.4.3/../../../../x86_64-nacl/lib/../lib64/crtn.o
 *(.gnu.warning)

.fini           0x0000000000088600       0x60
 *(SORT(.fini))
 .fini          0x0000000000088600       0x20 /home/berkeley/nacl_sdk/pepper_42/toolchain/linux_x86_newlib/bin/../lib/gcc/x86_64-nacl/4.4.3/../../../../x86_64-nacl/lib/../lib64/crti.o
                0x0000000000088600                _fini
 .fini          0x0000000000088620       0x20 /home/berkeley/nacl_sdk/pepper_42/toolchain/linux_x86_newlib/bin/../lib/gcc/x86_64-nacl/4.4.3/crtbegin.o
 .fini          0x0000000000088640       0x20 /home/berkeley/nacl_sdk/pepper_42/toolchain/linux_x86_newlib/bin/../lib/gcc/x86_64-nacl/4.4.3/../../../../x86_64-nacl/lib/../lib64/crtn.o
                0x0000000000088660                PROVIDE (__etext, .)
                0x0000000000088660                PROVIDE (_etext, .)
                0x0000000000088660                PROVIDE (etext, .)
                0x00000000100201c8                . = (0x10020000 + SIZEOF_HEADERS)

.interp
 *(.interp)

.note.gnu.build-id
                0x00000000100201c8       0x24
 *(.note.gnu.build-id)
 .note.gnu.build-id
                0x00000000100201c8       0x24 /home/berkeley/nacl_sdk/pepper_42/toolchain/linux_x86_newlib/bin/../lib/gcc/x86_64-nacl/4.4.3/../../../../x86_64-nacl/lib/../lib64/crti.o

.hash
 *(.hash)

.gnu.hash
 *(.gnu.hash)

.dynsym
 *(.dynsym)

.dynstr
 *(.dynstr)

.gnu.version
 *(.gnu.version)

.gnu.version_d
 *(.gnu.version_d)

.gnu.version_r
 *(.gnu.version_r)

.rela.dyn       0x00000000100201f0        0x0
 *(.rela.init)
 *(.rela.text .rela.text.* .rela.gnu.linkonce.t.*)
 .rela.text     0x0000000000000000        0x0 /home/berkeley/nacl_sdk/pepper_42/toolchain/linux_x86_newlib/bin/../lib/gcc/x86_64-nacl/4.4.3/crtbegin.o
 .rela.text._ZN19HelloTutorialModule14CreateInstanceEi
                0x0000000000000000        0x0 /home/berkeley/nacl_sdk/pepper_42/toolchain/linux_x86_newlib/bin/../lib/gcc/x86_64-nacl/4.4.3/crtbegin.o
 .rela.text._ZN21HelloTutorialInstance13HandleMessageERKN2pp3VarE
                0x0000000000000000        0x0 /home/berkeley/nacl_sdk/pepper_42/toolchain/linux_x86_newlib/bin/../lib/gcc/x86_64-nacl/4.4.3/crtbegin.o
 .rela.text._ZN21HelloTutorialInstanceD0Ev
                0x0000000000000000        0x0 /home/berkeley/nacl_sdk/pepper_42/toolchain/linux_x86_newlib/bin/../lib/gcc/x86_64-nacl/4.4.3/crtbegin.o
 .rela.text._ZN21HelloTutorialInstanceD1Ev
                0x0000000000000000        0x0 /home/berkeley/nacl_sdk/pepper_42/toolchain/linux_x86_newlib/bin/../lib/gcc/x86_64-nacl/4.4.3/crtbegin.o
 .rela.text._ZN19HelloTutorialModuleD0Ev
                0x0000000000000000        0x0 /home/berkeley/nacl_sdk/pepper_42/toolchain/linux_x86_newlib/bin/../lib/gcc/x86_64-nacl/4.4.3/crtbegin.o
 .rela.text._ZN19HelloTutorialModuleD1Ev
                0x0000000000000000        0x0 /home/berkeley/nacl_sdk/pepper_42/toolchain/linux_x86_newlib/bin/../lib/gcc/x86_64-nacl/4.4.3/crtbegin.o
 .rela.text._ZNSt8_Rb_treeISsSt4pairIKSsPvESt10_Select1stIS3_ESt4lessISsESaIS3_EE8_M_eraseEPSt13_Rb_tree_nodeIS3_E
                0x0000000000000000        0x0 /home/berkeley/nacl_sdk/pepper_42/toolchain/linux_x86_newlib/bin/../lib/gcc/x86_64-nacl/4.4.3/crtbegin.o
 .rela.text._ZNSt8_Rb_treeISsSt4pairIKSsPvESt10_Select1stIS3_ESt4lessISsESaIS3_EE10_M_insert_EPKSt18_Rb_tree_node_baseSC_RKS3_
                0x0000000000000000        0x0 /home/berkeley/nacl_sdk/pepper_42/toolchain/linux_x86_newlib/bin/../lib/gcc/x86_64-nacl/4.4.3/crtbegin.o
 .rela.text._ZNSt8_Rb_treeISsSt4pairIKSsPvESt10_Select1stIS3_ESt4lessISsESaIS3_EE16_M_insert_uniqueERKS3_
                0x0000000000000000        0x0 /home/berkeley/nacl_sdk/pepper_42/toolchain/linux_x86_newlib/bin/../lib/gcc/x86_64-nacl/4.4.3/crtbegin.o
 .rela.text._ZNSt8_Rb_treeISsSt4pairIKSsPvESt10_Select1stIS3_ESt4lessISsESaIS3_EE17_M_insert_unique_ESt23_Rb_tree_const_iteratorIS3_ERKS3_
                0x0000000000000000        0x0 /home/berkeley/nacl_sdk/pepper_42/toolchain/linux_x86_newlib/bin/../lib/gcc/x86_64-nacl/4.4.3/crtbegin.o
 .rela.text._ZNSt8_Rb_treeIiSt4pairIKiPN2pp8InstanceEESt10_Select1stIS5_ESt4lessIiESaIS5_EE8_M_eraseEPSt13_Rb_tree_nodeIS5_E
                0x0000000000000000        0x0 /home/berkeley/nacl_sdk/pepper_42/toolchain/linux_x86_newlib/bin/../lib/gcc/x86_64-nacl/4.4.3/crtbegin.o
 .rela.text._ZNSt8_Rb_treeIiSt4pairIKiPN2pp8InstanceEESt10_Select1stIS5_ESt4lessIiESaIS5_EE10_M_insert_EPKSt18_Rb_tree_node_baseSE_RKS5_
                0x0000000000000000        0x0 /home/berkeley/nacl_sdk/pepper_42/toolchain/linux_x86_newlib/bin/../lib/gcc/x86_64-nacl/4.4.3/crtbegin.o
 .rela.text._ZNSt8_Rb_treeIiSt4pairIKiPN2pp8InstanceEESt10_Select1stIS5_ESt4lessIiESaIS5_EE16_M_insert_uniqueERKS5_
                0x0000000000000000        0x0 /home/berkeley/nacl_sdk/pepper_42/toolchain/linux_x86_newlib/bin/../lib/gcc/x86_64-nacl/4.4.3/crtbegin.o
 .rela.text._ZNSt8_Rb_treeIiSt4pairIKiPN2pp8InstanceEESt10_Select1stIS5_ESt4lessIiESaIS5_EE17_M_insert_unique_ESt23_Rb_tree_const_iteratorIS5_ERKS5_
                0x0000000000000000        0x0 /home/berkeley/nacl_sdk/pepper_42/toolchain/linux_x86_newlib/bin/../lib/gcc/x86_64-nacl/4.4.3/crtbegin.o
 .rela.text._ZN2pp9URLLoaderD1Ev
                0x0000000000000000        0x0 /home/berkeley/nacl_sdk/pepper_42/toolchain/linux_x86_newlib/bin/../lib/gcc/x86_64-nacl/4.4.3/crtbegin.o
 .rela.text._ZN2pp9URLLoaderD0Ev
                0x0000000000000000        0x0 /home/berkeley/nacl_sdk/pepper_42/toolchain/linux_x86_newlib/bin/../lib/gcc/x86_64-nacl/4.4.3/crtbegin.o
 .rela.text._ZN2pp4ViewD1Ev
                0x0000000000000000        0x0 /home/berkeley/nacl_sdk/pepper_42/toolchain/linux_x86_newlib/bin/../lib/gcc/x86_64-nacl/4.4.3/crtbegin.o
 .rela.text._ZN2pp4ViewD0Ev
                0x0000000000000000        0x0 /home/berkeley/nacl_sdk/pepper_42/toolchain/linux_x86_newlib/bin/../lib/gcc/x86_64-nacl/4.4.3/crtbegin.o
 .rela.text._ZNSt8_Rb_treeISsSt4pairIKSsPKvESt10_Select1stIS4_ESt4lessISsESaIS4_EE8_M_eraseEPSt13_Rb_tree_nodeIS4_E
                0x0000000000000000        0x0 /home/berkeley/nacl_sdk/pepper_42/toolchain/linux_x86_newlib/bin/../lib/gcc/x86_64-nacl/4.4.3/crtbegin.o
 .rela.text._ZNSt8_Rb_treeISsSt4pairIKSsPKvESt10_Select1stIS4_ESt4lessISsESaIS4_EE10_M_insert_EPKSt18_Rb_tree_node_baseSD_RKS4_
                0x0000000000000000        0x0 /home/berkeley/nacl_sdk/pepper_42/toolchain/linux_x86_newlib/bin/../lib/gcc/x86_64-nacl/4.4.3/crtbegin.o
 .rela.text._ZNSt8_Rb_treeISsSt4pairIKSsPKvESt10_Select1stIS4_ESt4lessISsESaIS4_EE16_M_insert_uniqueERKS4_
                0x0000000000000000        0x0 /home/berkeley/nacl_sdk/pepper_42/toolchain/linux_x86_newlib/bin/../lib/gcc/x86_64-nacl/4.4.3/crtbegin.o
 .rela.text._ZNSt8_Rb_treeISsSt4pairIKSsPKvESt10_Select1stIS4_ESt4lessISsESaIS4_EE17_M_insert_unique_ESt23_Rb_tree_const_iteratorIS4_ERKS4_
                0x0000000000000000        0x0 /home/berkeley/nacl_sdk/pepper_42/toolchain/linux_x86_newlib/bin/../lib/gcc/x86_64-nacl/4.4.3/crtbegin.o
 .rela.text._ZN2pp15URLResponseInfoD1Ev
                0x0000000000000000        0x0 /home/berkeley/nacl_sdk/pepper_42/toolchain/linux_x86_newlib/bin/../lib/gcc/x86_64-nacl/4.4.3/crtbegin.o
 .rela.text._ZN2pp15URLResponseInfoD0Ev
                0x0000000000000000        0x0 /home/berkeley/nacl_sdk/pepper_42/toolchain/linux_x86_newlib/bin/../lib/gcc/x86_64-nacl/4.4.3/crtbegin.o
 .rela.text._ZN2pp7FileRefD1Ev
                0x0000000000000000        0x0 /home/berkeley/nacl_sdk/pepper_42/toolchain/linux_x86_newlib/bin/../lib/gcc/x86_64-nacl/4.4.3/crtbegin.o
 .rela.text._ZN2pp7FileRefD0Ev
                0x0000000000000000        0x0 /home/berkeley/nacl_sdk/pepper_42/toolchain/linux_x86_newlib/bin/../lib/gcc/x86_64-nacl/4.4.3/crtbegin.o
 .rela.text._ZN2pp13IMEInputEventD0Ev
                0x0000000000000000        0x0 /home/berkeley/nacl_sdk/pepper_42/toolchain/linux_x86_newlib/bin/../lib/gcc/x86_64-nacl/4.4.3/crtbegin.o
 .rela.text._ZN2pp13IMEInputEventD1Ev
                0x0000000000000000        0x0 /home/berkeley/nacl_sdk/pepper_42/toolchain/linux_x86_newlib/bin/../lib/gcc/x86_64-nacl/4.4.3/crtbegin.o
 .rela.text._ZN2pp15TouchInputEventD0Ev
                0x0000000000000000        0x0 /home/berkeley/nacl_sdk/pepper_42/toolchain/linux_x86_newlib/bin/../lib/gcc/x86_64-nacl/4.4.3/crtbegin.o
 .rela.text._ZN2pp15TouchInputEventD1Ev
                0x0000000000000000        0x0 /home/berkeley/nacl_sdk/pepper_42/toolchain/linux_x86_newlib/bin/../lib/gcc/x86_64-nacl/4.4.3/crtbegin.o
 .rela.text._ZN2pp18KeyboardInputEventD0Ev
                0x0000000000000000        0x0 /home/berkeley/nacl_sdk/pepper_42/toolchain/linux_x86_newlib/bin/../lib/gcc/x86_64-nacl/4.4.3/crtbegin.o
 .rela.text._ZN2pp18KeyboardInputEventD1Ev
                0x0000000000000000        0x0 /home/berkeley/nacl_sdk/pepper_42/toolchain/linux_x86_newlib/bin/../lib/gcc/x86_64-nacl/4.4.3/crtbegin.o
 .rela.text._ZN2pp15WheelInputEventD0Ev
                0x0000000000000000        0x0 /home/berkeley/nacl_sdk/pepper_42/toolchain/linux_x86_newlib/bin/../lib/gcc/x86_64-nacl/4.4.3/crtbegin.o
 .rela.text._ZN2pp15WheelInputEventD1Ev
                0x0000000000000000        0x0 /home/berkeley/nacl_sdk/pepper_42/toolchain/linux_x86_newlib/bin/../lib/gcc/x86_64-nacl/4.4.3/crtbegin.o
 .rela.text._ZN2pp15MouseInputEventD0Ev
                0x0000000000000000        0x0 /home/berkeley/nacl_sdk/pepper_42/toolchain/linux_x86_newlib/bin/../lib/gcc/x86_64-nacl/4.4.3/crtbegin.o
 .rela.text._ZN2pp15MouseInputEventD1Ev
                0x0000000000000000        0x0 /home/berkeley/nacl_sdk/pepper_42/toolchain/linux_x86_newlib/bin/../lib/gcc/x86_64-nacl/4.4.3/crtbegin.o
 .rela.text._ZNSs12_S_empty_repEv
                0x0000000000000000        0x0 /home/berkeley/nacl_sdk/pepper_42/toolchain/linux_x86_newlib/bin/../lib/gcc/x86_64-nacl/4.4.3/crtbegin.o
 .rela.text._ZNSsC2Ev
                0x0000000000000000        0x0 /home/berkeley/nacl_sdk/pepper_42/toolchain/linux_x86_newlib/bin/../lib/gcc/x86_64-nacl/4.4.3/crtbegin.o
 .rela.text._ZNSsC1Ev
                0x0000000000000000        0x0 /home/berkeley/nacl_sdk/pepper_42/toolchain/linux_x86_newlib/bin/../lib/gcc/x86_64-nacl/4.4.3/crtbegin.o
 .rela.text._ZNKSs12find_last_ofEcj
                0x0000000000000000        0x0 /home/berkeley/nacl_sdk/pepper_42/toolchain/linux_x86_newlib/bin/../lib/gcc/x86_64-nacl/4.4.3/crtbegin.o
 .rela.text._ZNSs4_Rep12_S_empty_repEv
                0x0000000000000000        0x0 /home/berkeley/nacl_sdk/pepper_42/toolchain/linux_x86_newlib/bin/../lib/gcc/x86_64-nacl/4.4.3/crtbegin.o
 .rela.text._ZNSs4_Rep10_M_refcopyEv
                0x0000000000000000        0x0 /home/berkeley/nacl_sdk/pepper_42/toolchain/linux_x86_newlib/bin/../lib/gcc/x86_64-nacl/4.4.3/crtbegin.o
 .rela.text._ZNSs4_Rep10_M_destroyERKSaIcE
                0x0000000000000000        0x0 /home/berkeley/nacl_sdk/pepper_42/toolchain/linux_x86_newlib/bin/../lib/gcc/x86_64-nacl/4.4.3/crtbegin.o
 .rela.text._ZNSs4_Rep10_M_disposeERKSaIcE
                0x0000000000000000        0x0 /home/berkeley/nacl_sdk/pepper_42/toolchain/linux_x86_newlib/bin/../lib/gcc/x86_64-nacl/4.4.3/crtbegin.o
 .rela.text._ZNKSs15_M_check_lengthEjjPKc
                0x0000000000000000        0x0 /home/berkeley/nacl_sdk/pepper_42/toolchain/linux_x86_newlib/bin/../lib/gcc/x86_64-nacl/4.4.3/crtbegin.o
 .rela.text._ZNSs4_Rep9_S_createEjjRKSaIcE
                0x0000000000000000        0x0 /home/berkeley/nacl_sdk/pepper_42/toolchain/linux_x86_newlib/bin/../lib/gcc/x86_64-nacl/4.4.3/crtbegin.o
 .rela.text._ZNKSs4findERKSsj
                0x0000000000000000        0x0 /home/berkeley/nacl_sdk/pepper_42/toolchain/linux_x86_newlib/bin/../lib/gcc/x86_64-nacl/4.4.3/crtbegin.o
 .rela.text._ZNKSs4findEcj
                0x0000000000000000        0x0 /home/berkeley/nacl_sdk/pepper_42/toolchain/linux_x86_newlib/bin/../lib/gcc/x86_64-nacl/4.4.3/crtbegin.o
 .rela.text._ZNKSs13find_first_ofEcj
                0x0000000000000000        0x0 /home/berkeley/nacl_sdk/pepper_42/toolchain/linux_x86_newlib/bin/../lib/gcc/x86_64-nacl/4.4.3/crtbegin.o
 .rela.text._ZNKSs2atEj
                0x0000000000000000        0x0 /home/berkeley/nacl_sdk/pepper_42/toolchain/linux_x86_newlib/bin/../lib/gcc/x86_64-nacl/4.4.3/crtbegin.o
 .rela.text._ZNKSs8_M_checkEjPKc
                0x0000000000000000        0x0 /home/berkeley/nacl_sdk/pepper_42/toolchain/linux_x86_newlib/bin/../lib/gcc/x86_64-nacl/4.4.3/crtbegin.o
 .rela.text._ZNSs9_M_assignEPcjc
                0x0000000000000000        0x0 /home/berkeley/nacl_sdk/pepper_42/toolchain/linux_x86_newlib/bin/../lib/gcc/x86_64-nacl/4.4.3/crtbegin.o
 .rela.text._ZNSs7_M_moveEPcPKcj
                0x0000000000000000        0x0 /home/berkeley/nacl_sdk/pepper_42/toolchain/linux_x86_newlib/bin/../lib/gcc/x86_64-nacl/4.4.3/crtbegin.o
 .rela.text._ZNSs7_M_copyEPcPKcj
                0x0000000000000000        0x0 /home/berkeley/nacl_sdk/pepper_42/toolchain/linux_x86_newlib/bin/../lib/gcc/x86_64-nacl/4.4.3/crtbegin.o
 .rela.text._ZNKSs16find_last_not_ofEPKcjj
                0x0000000000000000        0x0 /home/berkeley/nacl_sdk/pepper_42/toolchain/linux_x86_newlib/bin/../lib/gcc/x86_64-nacl/4.4.3/crtbegin.o
 .rela.text._ZNKSs16find_last_not_ofERKSsj
                0x0000000000000000        0x0 /home/berkeley/nacl_sdk/pepper_42/toolchain/linux_x86_newlib/bin/../lib/gcc/x86_64-nacl/4.4.3/crtbegin.o
 .rela.text._ZNKSs17find_first_not_ofEPKcjj
                0x0000000000000000        0x0 /home/berkeley/nacl_sdk/pepper_42/toolchain/linux_x86_newlib/bin/../lib/gcc/x86_64-nacl/4.4.3/crtbegin.o
 .rela.text._ZNKSs17find_first_not_ofERKSsj
                0x0000000000000000        0x0 /home/berkeley/nacl_sdk/pepper_42/toolchain/linux_x86_newlib/bin/../lib/gcc/x86_64-nacl/4.4.3/crtbegin.o
 .rela.text._ZNKSs12find_last_ofEPKcjj
                0x0000000000000000        0x0 /home/berkeley/nacl_sdk/pepper_42/toolchain/linux_x86_newlib/bin/../lib/gcc/x86_64-nacl/4.4.3/crtbegin.o
 .rela.text._ZNKSs12find_last_ofERKSsj
                0x0000000000000000        0x0 /home/berkeley/nacl_sdk/pepper_42/toolchain/linux_x86_newlib/bin/../lib/gcc/x86_64-nacl/4.4.3/crtbegin.o
 .rela.text._ZNKSs13find_first_ofEPKcjj
                0x0000000000000000        0x0 /home/berkeley/nacl_sdk/pepper_42/toolchain/linux_x86_newlib/bin/../lib/gcc/x86_64-nacl/4.4.3/crtbegin.o
 .rela.text._ZNKSs13find_first_ofERKSsj
                0x0000000000000000        0x0 /home/berkeley/nacl_sdk/pepper_42/toolchain/linux_x86_newlib/bin/../lib/gcc/x86_64-nacl/4.4.3/crtbegin.o
 .rela.text._ZNKSs5rfindERKSsj
                0x0000000000000000        0x0 /home/berkeley/nacl_sdk/pepper_42/toolchain/linux_x86_newlib/bin/../lib/gcc/x86_64-nacl/4.4.3/crtbegin.o
 .rela.text._ZNKSs7compareEjjPKcj
                0x0000000000000000        0x0 /home/berkeley/nacl_sdk/pepper_42/toolchain/linux_x86_newlib/bin/../lib/gcc/x86_64-nacl/4.4.3/crtbegin.o
 .rela.text._ZNKSs7compareEjjRKSsjj
                0x0000000000000000        0x0 /home/berkeley/nacl_sdk/pepper_42/toolchain/linux_x86_newlib/bin/../lib/gcc/x86_64-nacl/4.4.3/crtbegin.o
 .rela.text._ZNKSs7compareEjjRKSs
                0x0000000000000000        0x0 /home/berkeley/nacl_sdk/pepper_42/toolchain/linux_x86_newlib/bin/../lib/gcc/x86_64-nacl/4.4.3/crtbegin.o
 .rela.text._ZNKSs7compareEPKc
                0x0000000000000000        0x0 /home/berkeley/nacl_sdk/pepper_42/toolchain/linux_x86_newlib/bin/../lib/gcc/x86_64-nacl/4.4.3/crtbegin.o
 .rela.text._ZNKSs5rfindEPKcj
                0x0000000000000000        0x0 /home/berkeley/nacl_sdk/pepper_42/toolchain/linux_x86_newlib/bin/../lib/gcc/x86_64-nacl/4.4.3/crtbegin.o
 .rela.text._ZNKSs4findEPKcj
                0x0000000000000000        0x0 /home/berkeley/nacl_sdk/pepper_42/toolchain/linux_x86_newlib/bin/../lib/gcc/x86_64-nacl/4.4.3/crtbegin.o
 .rela.text._ZNKSs16find_last_not_ofEPKcj
                0x0000000000000000        0x0 /home/berkeley/nacl_sdk/pepper_42/toolchain/linux_x86_newlib/bin/../lib/gcc/x86_64-nacl/4.4.3/crtbegin.o
 .rela.text._ZNKSs17find_first_not_ofEPKcj
                0x0000000000000000        0x0 /home/berkeley/nacl_sdk/pepper_42/toolchain/linux_x86_newlib/bin/../lib/gcc/x86_64-nacl/4.4.3/crtbegin.o
 .rela.text._ZNKSs12find_last_ofEPKcj
                0x0000000000000000        0x0 /home/berkeley/nacl_sdk/pepper_42/toolchain/linux_x86_newlib/bin/../lib/gcc/x86_64-nacl/4.4.3/crtbegin.o
 .rela.text._ZNKSs13find_first_ofEPKcj
                0x0000000000000000        0x0 /home/berkeley/nacl_sdk/pepper_42/toolchain/linux_x86_newlib/bin/../lib/gcc/x86_64-nacl/4.4.3/crtbegin.o
 .rela.text._ZNKSs7compareEjjPKc
                0x0000000000000000        0x0 /home/berkeley/nacl_sdk/pepper_42/toolchain/linux_x86_newlib/bin/../lib/gcc/x86_64-nacl/4.4.3/crtbegin.o
 .rela.text._ZNSsD1Ev
                0x0000000000000000        0x0 /home/berkeley/nacl_sdk/pepper_42/toolchain/linux_x86_newlib/bin/../lib/gcc/x86_64-nacl/4.4.3/crtbegin.o
 .rela.text._ZNSsD2Ev
                0x0000000000000000        0x0 /home/berkeley/nacl_sdk/pepper_42/toolchain/linux_x86_newlib/bin/../lib/gcc/x86_64-nacl/4.4.3/crtbegin.o
 .rela.text._ZNSs13_S_copy_charsEPcS_S_
                0x0000000000000000        0x0 /home/berkeley/nacl_sdk/pepper_42/toolchain/linux_x86_newlib/bin/../lib/gcc/x86_64-nacl/4.4.3/crtbegin.o
 .rela.text._ZNSs13_S_copy_charsEPcPKcS1_
                0x0000000000000000        0x0 /home/berkeley/nacl_sdk/pepper_42/toolchain/linux_x86_newlib/bin/../lib/gcc/x86_64-nacl/4.4.3/crtbegin.o
 .rela.text._ZNSs13_S_copy_charsEPcN9__gnu_cxx17__normal_iteratorIPKcSsEES4_
                0x0000000000000000        0x0 /home/berkeley/nacl_sdk/pepper_42/toolchain/linux_x86_newlib/bin/../lib/gcc/x86_64-nacl/4.4.3/crtbegin.o
 .rela.text._ZNSs13_S_copy_charsEPcN9__gnu_cxx17__normal_iteratorIS_SsEES2_
                0x0000000000000000        0x0 /home/berkeley/nacl_sdk/pepper_42/toolchain/linux_x86_newlib/bin/../lib/gcc/x86_64-nacl/4.4.3/crtbegin.o
 .rela.text._ZNKSs4copyEPcjj
                0x0000000000000000        0x0 /home/berkeley/nacl_sdk/pepper_42/toolchain/linux_x86_newlib/bin/../lib/gcc/x86_64-nacl/4.4.3/crtbegin.o
 .rela.text._ZNSs4_Rep8_M_cloneERKSaIcEj
                0x0000000000000000        0x0 /home/berkeley/nacl_sdk/pepper_42/toolchain/linux_x86_newlib/bin/../lib/gcc/x86_64-nacl/4.4.3/crtbegin.o
 .rela.text._ZNSs4_Rep7_M_grabERKSaIcES2_
                0x0000000000000000        0x0 /home/berkeley/nacl_sdk/pepper_42/toolchain/linux_x86_newlib/bin/../lib/gcc/x86_64-nacl/4.4.3/crtbegin.o
 .rela.text._ZNSs7reserveEj
                0x0000000000000000        0x0 /home/berkeley/nacl_sdk/pepper_42/toolchain/linux_x86_newlib/bin/../lib/gcc/x86_64-nacl/4.4.3/crtbegin.o
 .rela.text._ZNSs9push_backEc
                0x0000000000000000        0x0 /home/berkeley/nacl_sdk/pepper_42/toolchain/linux_x86_newlib/bin/../lib/gcc/x86_64-nacl/4.4.3/crtbegin.o
 .rela.text._ZNSs6appendEjc
                0x0000000000000000        0x0 /home/berkeley/nacl_sdk/pepper_42/toolchain/linux_x86_newlib/bin/../lib/gcc/x86_64-nacl/4.4.3/crtbegin.o
 .rela.text._ZNSs6appendEPKcj
                0x0000000000000000        0x0 /home/berkeley/nacl_sdk/pepper_42/toolchain/linux_x86_newlib/bin/../lib/gcc/x86_64-nacl/4.4.3/crtbegin.o
 .rela.text._ZNSs6appendEPKc
                0x0000000000000000        0x0 /home/berkeley/nacl_sdk/pepper_42/toolchain/linux_x86_newlib/bin/../lib/gcc/x86_64-nacl/4.4.3/crtbegin.o
 .rela.text._ZNSspLEPKc
                0x0000000000000000        0x0 /home/berkeley/nacl_sdk/pepper_42/toolchain/linux_x86_newlib/bin/../lib/gcc/x86_64-nacl/4.4.3/crtbegin.o
 .rela.text._ZNSs6appendERKSsjj
                0x0000000000000000        0x0 /home/berkeley/nacl_sdk/pepper_42/toolchain/linux_x86_newlib/bin/../lib/gcc/x86_64-nacl/4.4.3/crtbegin.o
 .rela.text._ZNSs6appendERKSs
                0x0000000000000000        0x0 /home/berkeley/nacl_sdk/pepper_42/toolchain/linux_x86_newlib/bin/../lib/gcc/x86_64-nacl/4.4.3/crtbegin.o
 .rela.text._ZNSspLERKSs
                0x0000000000000000        0x0 /home/berkeley/nacl_sdk/pepper_42/toolchain/linux_x86_newlib/bin/../lib/gcc/x86_64-nacl/4.4.3/crtbegin.o
 .rela.text._ZStplIcSt11char_traitsIcESaIcEESbIT_T0_T1_ES3_RKS6_
                0x0000000000000000        0x0 /home/berkeley/nacl_sdk/pepper_42/toolchain/linux_x86_newlib/bin/../lib/gcc/x86_64-nacl/4.4.3/crtbegin.o
 .rela.text._ZStplIcSt11char_traitsIcESaIcEESbIT_T0_T1_EPKS3_RKS6_
                0x0000000000000000        0x0 /home/berkeley/nacl_sdk/pepper_42/toolchain/linux_x86_newlib/bin/../lib/gcc/x86_64-nacl/4.4.3/crtbegin.o
 .rela.text._ZNSspLEc
                0x0000000000000000        0x0 /home/berkeley/nacl_sdk/pepper_42/toolchain/linux_x86_newlib/bin/../lib/gcc/x86_64-nacl/4.4.3/crtbegin.o
 .rela.text._ZNSsC1ERKSs
                0x0000000000000000        0x0 /home/berkeley/nacl_sdk/pepper_42/toolchain/linux_x86_newlib/bin/../lib/gcc/x86_64-nacl/4.4.3/crtbegin.o
 .rela.text._ZStplIcSt11char_traitsIcESaIcEESbIT_T0_T1_ERKS6_S8_
                0x0000000000000000        0x0 /home/berkeley/nacl_sdk/pepper_42/toolchain/linux_x86_newlib/bin/../lib/gcc/x86_64-nacl/4.4.3/crtbegin.o
 .rela.text._ZNSsC2ERKSs
                0x0000000000000000        0x0 /home/berkeley/nacl_sdk/pepper_42/toolchain/linux_x86_newlib/bin/../lib/gcc/x86_64-nacl/4.4.3/crtbegin.o
 .rela.text._ZNSs6assignERKSs
                0x0000000000000000        0x0 /home/berkeley/nacl_sdk/pepper_42/toolchain/linux_x86_newlib/bin/../lib/gcc/x86_64-nacl/4.4.3/crtbegin.o
 .rela.text._ZNSsaSERKSs
                0x0000000000000000        0x0 /home/berkeley/nacl_sdk/pepper_42/toolchain/linux_x86_newlib/bin/../lib/gcc/x86_64-nacl/4.4.3/crtbegin.o
 .rela.text._ZNSs12_S_constructIPKcEEPcT_S3_RKSaIcESt20forward_iterator_tag
                0x0000000000000000        0x0 /home/berkeley/nacl_sdk/pepper_42/toolchain/linux_x86_newlib/bin/../lib/gcc/x86_64-nacl/4.4.3/crtbegin.o
 .rela.text._ZNSsC1IPKcEET_S2_RKSaIcE
                0x0000000000000000        0x0 /home/berkeley/nacl_sdk/pepper_42/toolchain/linux_x86_newlib/bin/../lib/gcc/x86_64-nacl/4.4.3/crtbegin.o
 .rela.text._ZNSsC2IPKcEET_S2_RKSaIcE
                0x0000000000000000        0x0 /home/berkeley/nacl_sdk/pepper_42/toolchain/linux_x86_newlib/bin/../lib/gcc/x86_64-nacl/4.4.3/crtbegin.o
 .rela.text._ZNSsC1ESt16initializer_listIcERKSaIcE
                0x0000000000000000        0x0 /home/berkeley/nacl_sdk/pepper_42/toolchain/linux_x86_newlib/bin/../lib/gcc/x86_64-nacl/4.4.3/crtbegin.o
 .rela.text._ZNSsC2ESt16initializer_listIcERKSaIcE
                0x0000000000000000        0x0 /home/berkeley/nacl_sdk/pepper_42/toolchain/linux_x86_newlib/bin/../lib/gcc/x86_64-nacl/4.4.3/crtbegin.o
 .rela.text._ZNSsC1EPKcRKSaIcE
                0x0000000000000000        0x0 /home/berkeley/nacl_sdk/pepper_42/toolchain/linux_x86_newlib/bin/../lib/gcc/x86_64-nacl/4.4.3/crtbegin.o
 .rela.text._ZNSsC2EPKcRKSaIcE
                0x0000000000000000        0x0 /home/berkeley/nacl_sdk/pepper_42/toolchain/linux_x86_newlib/bin/../lib/gcc/x86_64-nacl/4.4.3/crtbegin.o
 .rela.text._ZNSsC1EPKcjRKSaIcE
                0x0000000000000000        0x0 /home/berkeley/nacl_sdk/pepper_42/toolchain/linux_x86_newlib/bin/../lib/gcc/x86_64-nacl/4.4.3/crtbegin.o
 .rela.text._ZNSsC2EPKcjRKSaIcE
                0x0000000000000000        0x0 /home/berkeley/nacl_sdk/pepper_42/toolchain/linux_x86_newlib/bin/../lib/gcc/x86_64-nacl/4.4.3/crtbegin.o
 .rela.text._ZNSs12_S_constructIPcEES0_T_S1_RKSaIcESt20forward_iterator_tag
                0x0000000000000000        0x0 /home/berkeley/nacl_sdk/pepper_42/toolchain/linux_x86_newlib/bin/../lib/gcc/x86_64-nacl/4.4.3/crtbegin.o
 .rela.text._ZNSsC1IPcEET_S1_RKSaIcE
                0x0000000000000000        0x0 /home/berkeley/nacl_sdk/pepper_42/toolchain/linux_x86_newlib/bin/../lib/gcc/x86_64-nacl/4.4.3/crtbegin.o
 .rela.text._ZNSsC2IPcEET_S1_RKSaIcE
                0x0000000000000000        0x0 /home/berkeley/nacl_sdk/pepper_42/toolchain/linux_x86_newlib/bin/../lib/gcc/x86_64-nacl/4.4.3/crtbegin.o
 .rela.text._ZNSsC1ERKSsjjRKSaIcE
                0x0000000000000000        0x0 /home/berkeley/nacl_sdk/pepper_42/toolchain/linux_x86_newlib/bin/../lib/gcc/x86_64-nacl/4.4.3/crtbegin.o
 .rela.text._ZNSsC2ERKSsjjRKSaIcE
                0x0000000000000000        0x0 /home/berkeley/nacl_sdk/pepper_42/toolchain/linux_x86_newlib/bin/../lib/gcc/x86_64-nacl/4.4.3/crtbegin.o
 .rela.text._ZNSsC1ERKSsjj
                0x0000000000000000        0x0 /home/berkeley/nacl_sdk/pepper_42/toolchain/linux_x86_newlib/bin/../lib/gcc/x86_64-nacl/4.4.3/crtbegin.o
 .rela.text._ZNKSs6substrEjj
                0x0000000000000000        0x0 /home/berkeley/nacl_sdk/pepper_42/toolchain/linux_x86_newlib/bin/../lib/gcc/x86_64-nacl/4.4.3/crtbegin.o
 .rela.text._ZNSsC2ERKSsjj
                0x0000000000000000        0x0 /home/berkeley/nacl_sdk/pepper_42/toolchain/linux_x86_newlib/bin/../lib/gcc/x86_64-nacl/4.4.3/crtbegin.o
 .rela.text._ZNSs12_S_constructEjcRKSaIcE
                0x0000000000000000        0x0 /home/berkeley/nacl_sdk/pepper_42/toolchain/linux_x86_newlib/bin/../lib/gcc/x86_64-nacl/4.4.3/crtbegin.o
 .rela.text._ZNSsC1EjcRKSaIcE
                0x0000000000000000        0x0 /home/berkeley/nacl_sdk/pepper_42/toolchain/linux_x86_newlib/bin/../lib/gcc/x86_64-nacl/4.4.3/crtbegin.o
 .rela.text._ZNSsC2EjcRKSaIcE
                0x0000000000000000        0x0 /home/berkeley/nacl_sdk/pepper_42/toolchain/linux_x86_newlib/bin/../lib/gcc/x86_64-nacl/4.4.3/crtbegin.o
 .rela.text._ZNSsC1ERKSaIcE
                0x0000000000000000        0x0 /home/berkeley/nacl_sdk/pepper_42/toolchain/linux_x86_newlib/bin/../lib/gcc/x86_64-nacl/4.4.3/crtbegin.o
 .rela.text._ZNSsC2ERKSaIcE
                0x0000000000000000        0x0 /home/berkeley/nacl_sdk/pepper_42/toolchain/linux_x86_newlib/bin/../lib/gcc/x86_64-nacl/4.4.3/crtbegin.o
 .rela.text._ZNSs12_S_constructIN9__gnu_cxx17__normal_iteratorIPcSsEEEES2_T_S4_RKSaIcESt20forward_iterator_tag
                0x0000000000000000        0x0 /home/berkeley/nacl_sdk/pepper_42/toolchain/linux_x86_newlib/bin/../lib/gcc/x86_64-nacl/4.4.3/crtbegin.o
 .rela.text._ZNSsC1IN9__gnu_cxx17__normal_iteratorIPcSsEEEET_S4_RKSaIcE
                0x0000000000000000        0x0 /home/berkeley/nacl_sdk/pepper_42/toolchain/linux_x86_newlib/bin/../lib/gcc/x86_64-nacl/4.4.3/crtbegin.o
 .rela.text._ZNSsC2IN9__gnu_cxx17__normal_iteratorIPcSsEEEET_S4_RKSaIcE
                0x0000000000000000        0x0 /home/berkeley/nacl_sdk/pepper_42/toolchain/linux_x86_newlib/bin/../lib/gcc/x86_64-nacl/4.4.3/crtbegin.o
 .rela.text._ZNSs9_M_mutateEjjj
                0x0000000000000000        0x0 /home/berkeley/nacl_sdk/pepper_42/toolchain/linux_x86_newlib/bin/../lib/gcc/x86_64-nacl/4.4.3/crtbegin.o
 .rela.text._ZNSs15_M_replace_safeEjjPKcj
                0x0000000000000000        0x0 /home/berkeley/nacl_sdk/pepper_42/toolchain/linux_x86_newlib/bin/../lib/gcc/x86_64-nacl/4.4.3/crtbegin.o
 .rela.text._ZNSs6assignEPKcj
                0x0000000000000000        0x0 /home/berkeley/nacl_sdk/pepper_42/toolchain/linux_x86_newlib/bin/../lib/gcc/x86_64-nacl/4.4.3/crtbegin.o
 .rela.text._ZNSs6assignEPKc
                0x0000000000000000        0x0 /home/berkeley/nacl_sdk/pepper_42/toolchain/linux_x86_newlib/bin/../lib/gcc/x86_64-nacl/4.4.3/crtbegin.o
 .rela.text._ZNSs6assignERKSsjj
                0x0000000000000000        0x0 /home/berkeley/nacl_sdk/pepper_42/toolchain/linux_x86_newlib/bin/../lib/gcc/x86_64-nacl/4.4.3/crtbegin.o
 .rela.text._ZNSsaSEPKc
                0x0000000000000000        0x0 /home/berkeley/nacl_sdk/pepper_42/toolchain/linux_x86_newlib/bin/../lib/gcc/x86_64-nacl/4.4.3/crtbegin.o
 .rela.text._ZNSs14_M_replace_auxEjjjc
                0x0000000000000000        0x0 /home/berkeley/nacl_sdk/pepper_42/toolchain/linux_x86_newlib/bin/../lib/gcc/x86_64-nacl/4.4.3/crtbegin.o
 .rela.text._ZNSs7replaceEN9__gnu_cxx17__normal_iteratorIPcSsEES2_jc
                0x0000000000000000        0x0 /home/berkeley/nacl_sdk/pepper_42/toolchain/linux_x86_newlib/bin/../lib/gcc/x86_64-nacl/4.4.3/crtbegin.o
 .rela.text._ZNSs7replaceEjjjc
                0x0000000000000000        0x0 /home/berkeley/nacl_sdk/pepper_42/toolchain/linux_x86_newlib/bin/../lib/gcc/x86_64-nacl/4.4.3/crtbegin.o
 .rela.text._ZNSs6insertEN9__gnu_cxx17__normal_iteratorIPcSsEEc
                0x0000000000000000        0x0 /home/berkeley/nacl_sdk/pepper_42/toolchain/linux_x86_newlib/bin/../lib/gcc/x86_64-nacl/4.4.3/crtbegin.o
 .rela.text._ZNSs6insertEjjc
                0x0000000000000000        0x0 /home/berkeley/nacl_sdk/pepper_42/toolchain/linux_x86_newlib/bin/../lib/gcc/x86_64-nacl/4.4.3/crtbegin.o
 .rela.text._ZNSs6assignEjc
                0x0000000000000000        0x0 /home/berkeley/nacl_sdk/pepper_42/toolchain/linux_x86_newlib/bin/../lib/gcc/x86_64-nacl/4.4.3/crtbegin.o
 .rela.text._ZNSs6insertEN9__gnu_cxx17__normal_iteratorIPcSsEEjc
                0x0000000000000000        0x0 /home/berkeley/nacl_sdk/pepper_42/toolchain/linux_x86_newlib/bin/../lib/gcc/x86_64-nacl/4.4.3/crtbegin.o
 .rela.text._ZNSsaSEc
                0x0000000000000000        0x0 /home/berkeley/nacl_sdk/pepper_42/toolchain/linux_x86_newlib/bin/../lib/gcc/x86_64-nacl/4.4.3/crtbegin.o
 .rela.text._ZNSs5eraseEN9__gnu_cxx17__normal_iteratorIPcSsEES2_
                0x0000000000000000        0x0 /home/berkeley/nacl_sdk/pepper_42/toolchain/linux_x86_newlib/bin/../lib/gcc/x86_64-nacl/4.4.3/crtbegin.o
 .rela.text._ZNSs5eraseEN9__gnu_cxx17__normal_iteratorIPcSsEE
                0x0000000000000000        0x0 /home/berkeley/nacl_sdk/pepper_42/toolchain/linux_x86_newlib/bin/../lib/gcc/x86_64-nacl/4.4.3/crtbegin.o
 .rela.text._ZNSs5eraseEjj
                0x0000000000000000        0x0 /home/berkeley/nacl_sdk/pepper_42/toolchain/linux_x86_newlib/bin/../lib/gcc/x86_64-nacl/4.4.3/crtbegin.o
 .rela.text._ZNSs5clearEv
                0x0000000000000000        0x0 /home/berkeley/nacl_sdk/pepper_42/toolchain/linux_x86_newlib/bin/../lib/gcc/x86_64-nacl/4.4.3/crtbegin.o
 .rela.text._ZNSs12_M_leak_hardEv
                0x0000000000000000        0x0 /home/berkeley/nacl_sdk/pepper_42/toolchain/linux_x86_newlib/bin/../lib/gcc/x86_64-nacl/4.4.3/crtbegin.o
 .rela.text._ZNSs7_M_leakEv
                0x0000000000000000        0x0 /home/berkeley/nacl_sdk/pepper_42/toolchain/linux_x86_newlib/bin/../lib/gcc/x86_64-nacl/4.4.3/crtbegin.o
 .rela.text._ZNSs2atEj
                0x0000000000000000        0x0 /home/berkeley/nacl_sdk/pepper_42/toolchain/linux_x86_newlib/bin/../lib/gcc/x86_64-nacl/4.4.3/crtbegin.o
 .rela.text._ZNSsixEj
                0x0000000000000000        0x0 /home/berkeley/nacl_sdk/pepper_42/toolchain/linux_x86_newlib/bin/../lib/gcc/x86_64-nacl/4.4.3/crtbegin.o
 .rela.text._ZNSs3endEv
                0x0000000000000000        0x0 /home/berkeley/nacl_sdk/pepper_42/toolchain/linux_x86_newlib/bin/../lib/gcc/x86_64-nacl/4.4.3/crtbegin.o
 .rela.text._ZNSs5beginEv
                0x0000000000000000        0x0 /home/berkeley/nacl_sdk/pepper_42/toolchain/linux_x86_newlib/bin/../lib/gcc/x86_64-nacl/4.4.3/crtbegin.o
 .rela.text._ZNSs4rendEv
                0x0000000000000000        0x0 /home/berkeley/nacl_sdk/pepper_42/toolchain/linux_x86_newlib/bin/../lib/gcc/x86_64-nacl/4.4.3/crtbegin.o
 .rela.text._ZNSs6rbeginEv
                0x0000000000000000        0x0 /home/berkeley/nacl_sdk/pepper_42/toolchain/linux_x86_newlib/bin/../lib/gcc/x86_64-nacl/4.4.3/crtbegin.o
 .rela.text._ZNSs7replaceEjjPKcj
                0x0000000000000000        0x0 /home/berkeley/nacl_sdk/pepper_42/toolchain/linux_x86_newlib/bin/../lib/gcc/x86_64-nacl/4.4.3/crtbegin.o
 .rela.text._ZNSs7replaceEN9__gnu_cxx17__normal_iteratorIPcSsEES2_NS0_IPKcSsEES5_
                0x0000000000000000        0x0 /home/berkeley/nacl_sdk/pepper_42/toolchain/linux_x86_newlib/bin/../lib/gcc/x86_64-nacl/4.4.3/crtbegin.o
 .rela.text._ZNSs7replaceEN9__gnu_cxx17__normal_iteratorIPcSsEES2_S2_S2_
                0x0000000000000000        0x0 /home/berkeley/nacl_sdk/pepper_42/toolchain/linux_x86_newlib/bin/../lib/gcc/x86_64-nacl/4.4.3/crtbegin.o
 .rela.text._ZNSs7replaceEN9__gnu_cxx17__normal_iteratorIPcSsEES2_PKcS4_
                0x0000000000000000        0x0 /home/berkeley/nacl_sdk/pepper_42/toolchain/linux_x86_newlib/bin/../lib/gcc/x86_64-nacl/4.4.3/crtbegin.o
 .rela.text._ZNSs7replaceEN9__gnu_cxx17__normal_iteratorIPcSsEES2_S1_S1_
                0x0000000000000000        0x0 /home/berkeley/nacl_sdk/pepper_42/toolchain/linux_x86_newlib/bin/../lib/gcc/x86_64-nacl/4.4.3/crtbegin.o
 .rela.text._ZNSs7replaceEN9__gnu_cxx17__normal_iteratorIPcSsEES2_PKcj
                0x0000000000000000        0x0 /home/berkeley/nacl_sdk/pepper_42/toolchain/linux_x86_newlib/bin/../lib/gcc/x86_64-nacl/4.4.3/crtbegin.o
 .rela.text._ZNSs7replaceEjjPKc
                0x0000000000000000        0x0 /home/berkeley/nacl_sdk/pepper_42/toolchain/linux_x86_newlib/bin/../lib/gcc/x86_64-nacl/4.4.3/crtbegin.o
 .rela.text._ZNSs7replaceEjjRKSsjj
                0x0000000000000000        0x0 /home/berkeley/nacl_sdk/pepper_42/toolchain/linux_x86_newlib/bin/../lib/gcc/x86_64-nacl/4.4.3/crtbegin.o
 .rela.text._ZNSs7replaceEjjRKSs
                0x0000000000000000        0x0 /home/berkeley/nacl_sdk/pepper_42/toolchain/linux_x86_newlib/bin/../lib/gcc/x86_64-nacl/4.4.3/crtbegin.o
 .rela.text._ZNSs7replaceEN9__gnu_cxx17__normal_iteratorIPcSsEES2_PKc
                0x0000000000000000        0x0 /home/berkeley/nacl_sdk/pepper_42/toolchain/linux_x86_newlib/bin/../lib/gcc/x86_64-nacl/4.4.3/crtbegin.o
 .rela.text._ZNSs7replaceEN9__gnu_cxx17__normal_iteratorIPcSsEES2_RKSs
                0x0000000000000000        0x0 /home/berkeley/nacl_sdk/pepper_42/toolchain/linux_x86_newlib/bin/../lib/gcc/x86_64-nacl/4.4.3/crtbegin.o
 .rela.text._ZNSs7replaceEN9__gnu_cxx17__normal_iteratorIPcSsEES2_St16initializer_listIcE
                0x0000000000000000        0x0 /home/berkeley/nacl_sdk/pepper_42/toolchain/linux_x86_newlib/bin/../lib/gcc/x86_64-nacl/4.4.3/crtbegin.o
 .rela.text._ZNSs6insertEN9__gnu_cxx17__normal_iteratorIPcSsEESt16initializer_listIcE
                0x0000000000000000        0x0 /home/berkeley/nacl_sdk/pepper_42/toolchain/linux_x86_newlib/bin/../lib/gcc/x86_64-nacl/4.4.3/crtbegin.o
 .rela.text._ZNSs6assignESt16initializer_listIcE
                0x0000000000000000        0x0 /home/berkeley/nacl_sdk/pepper_42/toolchain/linux_x86_newlib/bin/../lib/gcc/x86_64-nacl/4.4.3/crtbegin.o
 .rela.text._ZNSsaSESt16initializer_listIcE
                0x0000000000000000        0x0 /home/berkeley/nacl_sdk/pepper_42/toolchain/linux_x86_newlib/bin/../lib/gcc/x86_64-nacl/4.4.3/crtbegin.o
 .rela.text._ZNSs6appendESt16initializer_listIcE
                0x0000000000000000        0x0 /home/berkeley/nacl_sdk/pepper_42/toolchain/linux_x86_newlib/bin/../lib/gcc/x86_64-nacl/4.4.3/crtbegin.o
 .rela.text._ZNSspLESt16initializer_listIcE
                0x0000000000000000        0x0 /home/berkeley/nacl_sdk/pepper_42/toolchain/linux_x86_newlib/bin/../lib/gcc/x86_64-nacl/4.4.3/crtbegin.o
 .rela.text._ZNSs6resizeEjc
                0x0000000000000000        0x0 /home/berkeley/nacl_sdk/pepper_42/toolchain/linux_x86_newlib/bin/../lib/gcc/x86_64-nacl/4.4.3/crtbegin.o
 .rela.text._ZNSs6resizeEj
                0x0000000000000000        0x0 /home/berkeley/nacl_sdk/pepper_42/toolchain/linux_x86_newlib/bin/../lib/gcc/x86_64-nacl/4.4.3/crtbegin.o
 .rela.text._ZNSs6insertEjPKcj
                0x0000000000000000        0x0 /home/berkeley/nacl_sdk/pepper_42/toolchain/linux_x86_newlib/bin/../lib/gcc/x86_64-nacl/4.4.3/crtbegin.o
 .rela.text._ZNSs6insertEjPKc
                0x0000000000000000        0x0 /home/berkeley/nacl_sdk/pepper_42/toolchain/linux_x86_newlib/bin/../lib/gcc/x86_64-nacl/4.4.3/crtbegin.o
 .rela.text._ZNSs6insertEjRKSsjj
                0x0000000000000000        0x0 /home/berkeley/nacl_sdk/pepper_42/toolchain/linux_x86_newlib/bin/../lib/gcc/x86_64-nacl/4.4.3/crtbegin.o
 .rela.text._ZNSs6insertEjRKSs
                0x0000000000000000        0x0 /home/berkeley/nacl_sdk/pepper_42/toolchain/linux_x86_newlib/bin/../lib/gcc/x86_64-nacl/4.4.3/crtbegin.o
 .rela.text._ZL21base_of_encoded_valuehP15_Unwind_Context
                0x0000000000000000        0x0 /home/berkeley/nacl_sdk/pepper_42/toolchain/linux_x86_newlib/bin/../lib/gcc/x86_64-nacl/4.4.3/crtbegin.o
 .rela.text._ZL28read_encoded_value_with_basehjPKhPj
                0x0000000000000000        0x0 /home/berkeley/nacl_sdk/pepper_42/toolchain/linux_x86_newlib/bin/../lib/gcc/x86_64-nacl/4.4.3/crtbegin.o
 .rela.text._ZL17parse_lsda_headerP15_Unwind_ContextPKhP16lsda_header_info
                0x0000000000000000        0x0 /home/berkeley/nacl_sdk/pepper_42/toolchain/linux_x86_newlib/bin/../lib/gcc/x86_64-nacl/4.4.3/crtbegin.o
 .rela.text._ZL15get_ttype_entryP16lsda_header_infom
                0x0000000000000000        0x0 /home/berkeley/nacl_sdk/pepper_42/toolchain/linux_x86_newlib/bin/../lib/gcc/x86_64-nacl/4.4.3/crtbegin.o
 .rela.text.__cxa_call_unexpected
                0x0000000000000000        0x0 /home/berkeley/nacl_sdk/pepper_42/toolchain/linux_x86_newlib/bin/../lib/gcc/x86_64-nacl/4.4.3/crtbegin.o
 .rela.text.__gxx_personality_v0
                0x0000000000000000        0x0 /home/berkeley/nacl_sdk/pepper_42/toolchain/linux_x86_newlib/bin/../lib/gcc/x86_64-nacl/4.4.3/crtbegin.o
 .rela.text._GLOBAL__I___cxa_get_globals_fast
                0x0000000000000000        0x0 /home/berkeley/nacl_sdk/pepper_42/toolchain/linux_x86_newlib/bin/../lib/gcc/x86_64-nacl/4.4.3/crtbegin.o
 .rela.text._ZL15eh_globals_dtorPv
                0x0000000000000000        0x0 /home/berkeley/nacl_sdk/pepper_42/toolchain/linux_x86_newlib/bin/../lib/gcc/x86_64-nacl/4.4.3/crtbegin.o
 .rela.text.__cxa_get_globals
                0x0000000000000000        0x0 /home/berkeley/nacl_sdk/pepper_42/toolchain/linux_x86_newlib/bin/../lib/gcc/x86_64-nacl/4.4.3/crtbegin.o
 .rela.text.__cxa_get_globals_fast
                0x0000000000000000        0x0 /home/berkeley/nacl_sdk/pepper_42/toolchain/linux_x86_newlib/bin/../lib/gcc/x86_64-nacl/4.4.3/crtbegin.o
 .rela.text.__cxa_rethrow
                0x0000000000000000        0x0 /home/berkeley/nacl_sdk/pepper_42/toolchain/linux_x86_newlib/bin/../lib/gcc/x86_64-nacl/4.4.3/crtbegin.o
 .rela.text.__cxa_throw
                0x0000000000000000        0x0 /home/berkeley/nacl_sdk/pepper_42/toolchain/linux_x86_newlib/bin/../lib/gcc/x86_64-nacl/4.4.3/crtbegin.o
 .rela.text._ZL23__gxx_exception_cleanup19_Unwind_Reason_CodeP17_Unwind_Exception
                0x0000000000000000        0x0 /home/berkeley/nacl_sdk/pepper_42/toolchain/linux_x86_newlib/bin/../lib/gcc/x86_64-nacl/4.4.3/crtbegin.o
 .rela.text._ZdlPv
                0x0000000000000000        0x0 /home/berkeley/nacl_sdk/pepper_42/toolchain/linux_x86_newlib/bin/../lib/gcc/x86_64-nacl/4.4.3/crtbegin.o
 .rela.text.__cxa_call_terminate
                0x0000000000000000        0x0 /home/berkeley/nacl_sdk/pepper_42/toolchain/linux_x86_newlib/bin/../lib/gcc/x86_64-nacl/4.4.3/crtbegin.o
 .rela.text.__cxa_guard_acquire
                0x0000000000000000        0x0 /home/berkeley/nacl_sdk/pepper_42/toolchain/linux_x86_newlib/bin/../lib/gcc/x86_64-nacl/4.4.3/crtbegin.o
 .rela.text._ZN9__gnu_cxx26__concurrence_unlock_errorD1Ev
                0x0000000000000000        0x0 /home/berkeley/nacl_sdk/pepper_42/toolchain/linux_x86_newlib/bin/../lib/gcc/x86_64-nacl/4.4.3/crtbegin.o
 .rela.text._ZN9__gnu_cxx24__concurrence_lock_errorD1Ev
                0x0000000000000000        0x0 /home/berkeley/nacl_sdk/pepper_42/toolchain/linux_x86_newlib/bin/../lib/gcc/x86_64-nacl/4.4.3/crtbegin.o
 .rela.text._ZN9__gnu_cxx20recursive_init_errorD1Ev
                0x0000000000000000        0x0 /home/berkeley/nacl_sdk/pepper_42/toolchain/linux_x86_newlib/bin/../lib/gcc/x86_64-nacl/4.4.3/crtbegin.o
 .rela.text._ZN9__gnu_cxx20recursive_init_errorD2Ev
                0x0000000000000000        0x0 /home/berkeley/nacl_sdk/pepper_42/toolchain/linux_x86_newlib/bin/../lib/gcc/x86_64-nacl/4.4.3/crtbegin.o
 .rela.text._ZN9__gnu_cxx26__concurrence_unlock_errorD0Ev
                0x0000000000000000        0x0 /home/berkeley/nacl_sdk/pepper_42/toolchain/linux_x86_newlib/bin/../lib/gcc/x86_64-nacl/4.4.3/crtbegin.o
 .rela.text._ZN9__gnu_cxx24__concurrence_lock_errorD0Ev
                0x0000000000000000        0x0 /home/berkeley/nacl_sdk/pepper_42/toolchain/linux_x86_newlib/bin/../lib/gcc/x86_64-nacl/4.4.3/crtbegin.o
 .rela.text._ZN9__gnu_cxx20recursive_init_errorD0Ev
                0x0000000000000000        0x0 /home/berkeley/nacl_sdk/pepper_42/toolchain/linux_x86_newlib/bin/../lib/gcc/x86_64-nacl/4.4.3/crtbegin.o
 .rela.text._ZNK10__cxxabiv120__si_class_type_info11__do_upcastEPKNS_17__class_type_infoEPKvRNS1_15__upcast_resultE
                0x0000000000000000        0x0 /home/berkeley/nacl_sdk/pepper_42/toolchain/linux_x86_newlib/bin/../lib/gcc/x86_64-nacl/4.4.3/crtbegin.o
 .rela.text._ZN10__cxxabiv120__si_class_type_infoD1Ev
                0x0000000000000000        0x0 /home/berkeley/nacl_sdk/pepper_42/toolchain/linux_x86_newlib/bin/../lib/gcc/x86_64-nacl/4.4.3/crtbegin.o
 .rela.text._ZN10__cxxabiv120__si_class_type_infoD2Ev
                0x0000000000000000        0x0 /home/berkeley/nacl_sdk/pepper_42/toolchain/linux_x86_newlib/bin/../lib/gcc/x86_64-nacl/4.4.3/crtbegin.o
 .rela.text._ZN10__cxxabiv120__si_class_type_infoD0Ev
                0x0000000000000000        0x0 /home/berkeley/nacl_sdk/pepper_42/toolchain/linux_x86_newlib/bin/../lib/gcc/x86_64-nacl/4.4.3/crtbegin.o
 .rela.text._ZSt13set_terminatePFvvE
                0x0000000000000000        0x0 /home/berkeley/nacl_sdk/pepper_42/toolchain/linux_x86_newlib/bin/../lib/gcc/x86_64-nacl/4.4.3/crtbegin.o
 .rela.text._ZSt14set_unexpectedPFvvE
                0x0000000000000000        0x0 /home/berkeley/nacl_sdk/pepper_42/toolchain/linux_x86_newlib/bin/../lib/gcc/x86_64-nacl/4.4.3/crtbegin.o
 .rela.text._ZN10__cxxabiv111__terminateEPFvvE
                0x0000000000000000        0x0 /home/berkeley/nacl_sdk/pepper_42/toolchain/linux_x86_newlib/bin/../lib/gcc/x86_64-nacl/4.4.3/crtbegin.o
 .rela.text._ZSt9terminatev
                0x0000000000000000        0x0 /home/berkeley/nacl_sdk/pepper_42/toolchain/linux_x86_newlib/bin/../lib/gcc/x86_64-nacl/4.4.3/crtbegin.o
 .rela.text._ZSt10unexpectedv
                0x0000000000000000        0x0 /home/berkeley/nacl_sdk/pepper_42/toolchain/linux_x86_newlib/bin/../lib/gcc/x86_64-nacl/4.4.3/crtbegin.o
 .rela.text._ZN10__cxxabiv117__class_type_infoD1Ev
                0x0000000000000000        0x0 /home/berkeley/nacl_sdk/pepper_42/toolchain/linux_x86_newlib/bin/../lib/gcc/x86_64-nacl/4.4.3/crtbegin.o
 .rela.text._ZN10__cxxabiv117__class_type_infoD2Ev
                0x0000000000000000        0x0 /home/berkeley/nacl_sdk/pepper_42/toolchain/linux_x86_newlib/bin/../lib/gcc/x86_64-nacl/4.4.3/crtbegin.o
 .rela.text._ZN10__cxxabiv117__class_type_infoD0Ev
                0x0000000000000000        0x0 /home/berkeley/nacl_sdk/pepper_42/toolchain/linux_x86_newlib/bin/../lib/gcc/x86_64-nacl/4.4.3/crtbegin.o
 .rela.text.__cxa_free_dependent_exception
                0x0000000000000000        0x0 /home/berkeley/nacl_sdk/pepper_42/toolchain/linux_x86_newlib/bin/../lib/gcc/x86_64-nacl/4.4.3/crtbegin.o
 .rela.text.__cxa_free_exception
                0x0000000000000000        0x0 /home/berkeley/nacl_sdk/pepper_42/toolchain/linux_x86_newlib/bin/../lib/gcc/x86_64-nacl/4.4.3/crtbegin.o
 .rela.text.__cxa_allocate_dependent_exception
                0x0000000000000000        0x0 /home/berkeley/nacl_sdk/pepper_42/toolchain/linux_x86_newlib/bin/../lib/gcc/x86_64-nacl/4.4.3/crtbegin.o
 .rela.text.__cxa_allocate_exception
                0x0000000000000000        0x0 /home/berkeley/nacl_sdk/pepper_42/toolchain/linux_x86_newlib/bin/../lib/gcc/x86_64-nacl/4.4.3/crtbegin.o
 .rela.text.__cxa_end_catch
                0x0000000000000000        0x0 /home/berkeley/nacl_sdk/pepper_42/toolchain/linux_x86_newlib/bin/../lib/gcc/x86_64-nacl/4.4.3/crtbegin.o
 .rela.text.__cxa_begin_catch
                0x0000000000000000        0x0 /home/berkeley/nacl_sdk/pepper_42/toolchain/linux_x86_newlib/bin/../lib/gcc/x86_64-nacl/4.4.3/crtbegin.o
 .rela.text._ZNSt9exceptionD2Ev
                0x0000000000000000        0x0 /home/berkeley/nacl_sdk/pepper_42/toolchain/linux_x86_newlib/bin/../lib/gcc/x86_64-nacl/4.4.3/crtbegin.o
 .rela.text._ZNSt9exceptionD1Ev
                0x0000000000000000        0x0 /home/berkeley/nacl_sdk/pepper_42/toolchain/linux_x86_newlib/bin/../lib/gcc/x86_64-nacl/4.4.3/crtbegin.o
 .rela.text._ZNSt13bad_exceptionD2Ev
                0x0000000000000000        0x0 /home/berkeley/nacl_sdk/pepper_42/toolchain/linux_x86_newlib/bin/../lib/gcc/x86_64-nacl/4.4.3/crtbegin.o
 .rela.text._ZNSt13bad_exceptionD1Ev
                0x0000000000000000        0x0 /home/berkeley/nacl_sdk/pepper_42/toolchain/linux_x86_newlib/bin/../lib/gcc/x86_64-nacl/4.4.3/crtbegin.o
 .rela.text._ZN10__cxxabiv115__forced_unwindD2Ev
                0x0000000000000000        0x0 /home/berkeley/nacl_sdk/pepper_42/toolchain/linux_x86_newlib/bin/../lib/gcc/x86_64-nacl/4.4.3/crtbegin.o
 .rela.text._ZN10__cxxabiv115__forced_unwindD1Ev
                0x0000000000000000        0x0 /home/berkeley/nacl_sdk/pepper_42/toolchain/linux_x86_newlib/bin/../lib/gcc/x86_64-nacl/4.4.3/crtbegin.o
 .rela.text._ZN10__cxxabiv119__foreign_exceptionD2Ev
                0x0000000000000000        0x0 /home/berkeley/nacl_sdk/pepper_42/toolchain/linux_x86_newlib/bin/../lib/gcc/x86_64-nacl/4.4.3/crtbegin.o
 .rela.text._ZN10__cxxabiv119__foreign_exceptionD1Ev
                0x0000000000000000        0x0 /home/berkeley/nacl_sdk/pepper_42/toolchain/linux_x86_newlib/bin/../lib/gcc/x86_64-nacl/4.4.3/crtbegin.o
 .rela.text._ZN10__cxxabiv119__foreign_exceptionD0Ev
                0x0000000000000000        0x0 /home/berkeley/nacl_sdk/pepper_42/toolchain/linux_x86_newlib/bin/../lib/gcc/x86_64-nacl/4.4.3/crtbegin.o
 .rela.text._ZN10__cxxabiv115__forced_unwindD0Ev
                0x0000000000000000        0x0 /home/berkeley/nacl_sdk/pepper_42/toolchain/linux_x86_newlib/bin/../lib/gcc/x86_64-nacl/4.4.3/crtbegin.o
 .rela.text._ZNSt9exceptionD0Ev
                0x0000000000000000        0x0 /home/berkeley/nacl_sdk/pepper_42/toolchain/linux_x86_newlib/bin/../lib/gcc/x86_64-nacl/4.4.3/crtbegin.o
 .rela.text._ZNSt13bad_exceptionD0Ev
                0x0000000000000000        0x0 /home/berkeley/nacl_sdk/pepper_42/toolchain/linux_x86_newlib/bin/../lib/gcc/x86_64-nacl/4.4.3/crtbegin.o
 .rela.text.__cxa_pure_virtual
                0x0000000000000000        0x0 /home/berkeley/nacl_sdk/pepper_42/toolchain/linux_x86_newlib/bin/../lib/gcc/x86_64-nacl/4.4.3/crtbegin.o
 .rela.text._Znwj
                0x0000000000000000        0x0 /home/berkeley/nacl_sdk/pepper_42/toolchain/linux_x86_newlib/bin/../lib/gcc/x86_64-nacl/4.4.3/crtbegin.o
 .rela.text._ZNSt9type_infoD2Ev
                0x0000000000000000        0x0 /home/berkeley/nacl_sdk/pepper_42/toolchain/linux_x86_newlib/bin/../lib/gcc/x86_64-nacl/4.4.3/crtbegin.o
 .rela.text._ZNSt9type_infoD1Ev
                0x0000000000000000        0x0 /home/berkeley/nacl_sdk/pepper_42/toolchain/linux_x86_newlib/bin/../lib/gcc/x86_64-nacl/4.4.3/crtbegin.o
 .rela.text._ZNSt9type_infoD0Ev
                0x0000000000000000        0x0 /home/berkeley/nacl_sdk/pepper_42/toolchain/linux_x86_newlib/bin/../lib/gcc/x86_64-nacl/4.4.3/crtbegin.o
 .rela.text._ZSt18__throw_bad_typeidv
                0x0000000000000000        0x0 /home/berkeley/nacl_sdk/pepper_42/toolchain/linux_x86_newlib/bin/../lib/gcc/x86_64-nacl/4.4.3/crtbegin.o
 .rela.text._ZSt16__throw_bad_castv
                0x0000000000000000        0x0 /home/berkeley/nacl_sdk/pepper_42/toolchain/linux_x86_newlib/bin/../lib/gcc/x86_64-nacl/4.4.3/crtbegin.o
 .rela.text._ZSt17__throw_bad_allocv
                0x0000000000000000        0x0 /home/berkeley/nacl_sdk/pepper_42/toolchain/linux_x86_newlib/bin/../lib/gcc/x86_64-nacl/4.4.3/crtbegin.o
 .rela.text._ZSt21__throw_bad_exceptionv
                0x0000000000000000        0x0 /home/berkeley/nacl_sdk/pepper_42/toolchain/linux_x86_newlib/bin/../lib/gcc/x86_64-nacl/4.4.3/crtbegin.o
 .rela.text._ZNSt15underflow_errorD1Ev
                0x0000000000000000        0x0 /home/berkeley/nacl_sdk/pepper_42/toolchain/linux_x86_newlib/bin/../lib/gcc/x86_64-nacl/4.4.3/crtbegin.o
 .rela.text._ZNSt14overflow_errorD1Ev
                0x0000000000000000        0x0 /home/berkeley/nacl_sdk/pepper_42/toolchain/linux_x86_newlib/bin/../lib/gcc/x86_64-nacl/4.4.3/crtbegin.o
 .rela.text._ZNSt11range_errorD1Ev
                0x0000000000000000        0x0 /home/berkeley/nacl_sdk/pepper_42/toolchain/linux_x86_newlib/bin/../lib/gcc/x86_64-nacl/4.4.3/crtbegin.o
 .rela.text._ZNSt15underflow_errorD0Ev
                0x0000000000000000        0x0 /home/berkeley/nacl_sdk/pepper_42/toolchain/linux_x86_newlib/bin/../lib/gcc/x86_64-nacl/4.4.3/crtbegin.o
 .rela.text._ZNSt14overflow_errorD0Ev
                0x0000000000000000        0x0 /home/berkeley/nacl_sdk/pepper_42/toolchain/linux_x86_newlib/bin/../lib/gcc/x86_64-nacl/4.4.3/crtbegin.o
 .rela.text._ZNSt11range_errorD0Ev
                0x0000000000000000        0x0 /home/berkeley/nacl_sdk/pepper_42/toolchain/linux_x86_newlib/bin/../lib/gcc/x86_64-nacl/4.4.3/crtbegin.o
 .rela.text._ZNSt12out_of_rangeD1Ev
                0x0000000000000000        0x0 /home/berkeley/nacl_sdk/pepper_42/toolchain/linux_x86_newlib/bin/../lib/gcc/x86_64-nacl/4.4.3/crtbegin.o
 .rela.text._ZNSt12out_of_rangeD0Ev
                0x0000000000000000        0x0 /home/berkeley/nacl_sdk/pepper_42/toolchain/linux_x86_newlib/bin/../lib/gcc/x86_64-nacl/4.4.3/crtbegin.o
 .rela.text._ZNSt12length_errorD1Ev
                0x0000000000000000        0x0 /home/berkeley/nacl_sdk/pepper_42/toolchain/linux_x86_newlib/bin/../lib/gcc/x86_64-nacl/4.4.3/crtbegin.o
 .rela.text._ZNSt12length_errorD0Ev
                0x0000000000000000        0x0 /home/berkeley/nacl_sdk/pepper_42/toolchain/linux_x86_newlib/bin/../lib/gcc/x86_64-nacl/4.4.3/crtbegin.o
 .rela.text._ZNSt16invalid_argumentD1Ev
                0x0000000000000000        0x0 /home/berkeley/nacl_sdk/pepper_42/toolchain/linux_x86_newlib/bin/../lib/gcc/x86_64-nacl/4.4.3/crtbegin.o
 .rela.text._ZNSt16invalid_argumentD0Ev
                0x0000000000000000        0x0 /home/berkeley/nacl_sdk/pepper_42/toolchain/linux_x86_newlib/bin/../lib/gcc/x86_64-nacl/4.4.3/crtbegin.o
 .rela.text._ZNSt12domain_errorD1Ev
                0x0000000000000000        0x0 /home/berkeley/nacl_sdk/pepper_42/toolchain/linux_x86_newlib/bin/../lib/gcc/x86_64-nacl/4.4.3/crtbegin.o
 .rela.text._ZNSt12domain_errorD0Ev
                0x0000000000000000        0x0 /home/berkeley/nacl_sdk/pepper_42/toolchain/linux_x86_newlib/bin/../lib/gcc/x86_64-nacl/4.4.3/crtbegin.o
 .rela.text._ZSt20__throw_system_errori
                0x0000000000000000        0x0 /home/berkeley/nacl_sdk/pepper_42/toolchain/linux_x86_newlib/bin/../lib/gcc/x86_64-nacl/4.4.3/crtbegin.o
 .rela.text._ZSt19__throw_ios_failurePKc
                0x0000000000000000        0x0 /home/berkeley/nacl_sdk/pepper_42/toolchain/linux_x86_newlib/bin/../lib/gcc/x86_64-nacl/4.4.3/crtbegin.o
 .rela.text._ZSt23__throw_underflow_errorPKc
                0x0000000000000000        0x0 /home/berkeley/nacl_sdk/pepper_42/toolchain/linux_x86_newlib/bin/../lib/gcc/x86_64-nacl/4.4.3/crtbegin.o
 .rela.text._ZSt22__throw_overflow_errorPKc
                0x0000000000000000        0x0 /home/berkeley/nacl_sdk/pepper_42/toolchain/linux_x86_newlib/bin/../lib/gcc/x86_64-nacl/4.4.3/crtbegin.o
 .rela.text._ZSt19__throw_range_errorPKc
                0x0000000000000000        0x0 /home/berkeley/nacl_sdk/pepper_42/toolchain/linux_x86_newlib/bin/../lib/gcc/x86_64-nacl/4.4.3/crtbegin.o
 .rela.text._ZSt21__throw_runtime_errorPKc
                0x0000000000000000        0x0 /home/berkeley/nacl_sdk/pepper_42/toolchain/linux_x86_newlib/bin/../lib/gcc/x86_64-nacl/4.4.3/crtbegin.o
 .rela.text._ZSt20__throw_out_of_rangePKc
                0x0000000000000000        0x0 /home/berkeley/nacl_sdk/pepper_42/toolchain/linux_x86_newlib/bin/../lib/gcc/x86_64-nacl/4.4.3/crtbegin.o
 .rela.text._ZSt20__throw_length_errorPKc
                0x0000000000000000        0x0 /home/berkeley/nacl_sdk/pepper_42/toolchain/linux_x86_newlib/bin/../lib/gcc/x86_64-nacl/4.4.3/crtbegin.o
 .rela.text._ZSt24__throw_invalid_argumentPKc
                0x0000000000000000        0x0 /home/berkeley/nacl_sdk/pepper_42/toolchain/linux_x86_newlib/bin/../lib/gcc/x86_64-nacl/4.4.3/crtbegin.o
 .rela.text._ZSt20__throw_domain_errorPKc
                0x0000000000000000        0x0 /home/berkeley/nacl_sdk/pepper_42/toolchain/linux_x86_newlib/bin/../lib/gcc/x86_64-nacl/4.4.3/crtbegin.o
 .rela.text._ZSt19__throw_logic_errorPKc
                0x0000000000000000        0x0 /home/berkeley/nacl_sdk/pepper_42/toolchain/linux_x86_newlib/bin/../lib/gcc/x86_64-nacl/4.4.3/crtbegin.o
 .rela.text._ZNSt8ios_base7failureC1ERKSs
                0x0000000000000000        0x0 /home/berkeley/nacl_sdk/pepper_42/toolchain/linux_x86_newlib/bin/../lib/gcc/x86_64-nacl/4.4.3/crtbegin.o
 .rela.text._ZNSt8ios_base7failureC2ERKSs
                0x0000000000000000        0x0 /home/berkeley/nacl_sdk/pepper_42/toolchain/linux_x86_newlib/bin/../lib/gcc/x86_64-nacl/4.4.3/crtbegin.o
 .rela.text._ZNSt8ios_base7failureD0Ev
                0x0000000000000000        0x0 /home/berkeley/nacl_sdk/pepper_42/toolchain/linux_x86_newlib/bin/../lib/gcc/x86_64-nacl/4.4.3/crtbegin.o
 .rela.text._ZNSt8ios_base7failureD1Ev
                0x0000000000000000        0x0 /home/berkeley/nacl_sdk/pepper_42/toolchain/linux_x86_newlib/bin/../lib/gcc/x86_64-nacl/4.4.3/crtbegin.o
 .rela.text._ZNSt8ios_base7failureD2Ev
                0x0000000000000000        0x0 /home/berkeley/nacl_sdk/pepper_42/toolchain/linux_x86_newlib/bin/../lib/gcc/x86_64-nacl/4.4.3/crtbegin.o
 .rela.text._ZNSt11logic_errorD2Ev
                0x0000000000000000        0x0 /home/berkeley/nacl_sdk/pepper_42/toolchain/linux_x86_newlib/bin/../lib/gcc/x86_64-nacl/4.4.3/crtbegin.o
 .rela.text._ZNSt13runtime_errorC1ERKSs
                0x0000000000000000        0x0 /home/berkeley/nacl_sdk/pepper_42/toolchain/linux_x86_newlib/bin/../lib/gcc/x86_64-nacl/4.4.3/crtbegin.o
 .rela.text._ZNSt13runtime_errorC2ERKSs
                0x0000000000000000        0x0 /home/berkeley/nacl_sdk/pepper_42/toolchain/linux_x86_newlib/bin/../lib/gcc/x86_64-nacl/4.4.3/crtbegin.o
 .rela.text._ZNSt15underflow_errorC1ERKSs
                0x0000000000000000        0x0 /home/berkeley/nacl_sdk/pepper_42/toolchain/linux_x86_newlib/bin/../lib/gcc/x86_64-nacl/4.4.3/crtbegin.o
 .rela.text._ZNSt15underflow_errorC2ERKSs
                0x0000000000000000        0x0 /home/berkeley/nacl_sdk/pepper_42/toolchain/linux_x86_newlib/bin/../lib/gcc/x86_64-nacl/4.4.3/crtbegin.o
 .rela.text._ZNSt14overflow_errorC1ERKSs
                0x0000000000000000        0x0 /home/berkeley/nacl_sdk/pepper_42/toolchain/linux_x86_newlib/bin/../lib/gcc/x86_64-nacl/4.4.3/crtbegin.o
 .rela.text._ZNSt14overflow_errorC2ERKSs
                0x0000000000000000        0x0 /home/berkeley/nacl_sdk/pepper_42/toolchain/linux_x86_newlib/bin/../lib/gcc/x86_64-nacl/4.4.3/crtbegin.o
 .rela.text._ZNSt11range_errorC1ERKSs
                0x0000000000000000        0x0 /home/berkeley/nacl_sdk/pepper_42/toolchain/linux_x86_newlib/bin/../lib/gcc/x86_64-nacl/4.4.3/crtbegin.o
 .rela.text._ZNSt11range_errorC2ERKSs
                0x0000000000000000        0x0 /home/berkeley/nacl_sdk/pepper_42/toolchain/linux_x86_newlib/bin/../lib/gcc/x86_64-nacl/4.4.3/crtbegin.o
 .rela.text._ZNSt11logic_errorC1ERKSs
                0x0000000000000000        0x0 /home/berkeley/nacl_sdk/pepper_42/toolchain/linux_x86_newlib/bin/../lib/gcc/x86_64-nacl/4.4.3/crtbegin.o
 .rela.text._ZNSt11logic_errorC2ERKSs
                0x0000000000000000        0x0 /home/berkeley/nacl_sdk/pepper_42/toolchain/linux_x86_newlib/bin/../lib/gcc/x86_64-nacl/4.4.3/crtbegin.o
 .rela.text._ZNSt12out_of_rangeC1ERKSs
                0x0000000000000000        0x0 /home/berkeley/nacl_sdk/pepper_42/toolchain/linux_x86_newlib/bin/../lib/gcc/x86_64-nacl/4.4.3/crtbegin.o
 .rela.text._ZNSt12out_of_rangeC2ERKSs
                0x0000000000000000        0x0 /home/berkeley/nacl_sdk/pepper_42/toolchain/linux_x86_newlib/bin/../lib/gcc/x86_64-nacl/4.4.3/crtbegin.o
 .rela.text._ZNSt12length_errorC1ERKSs
                0x0000000000000000        0x0 /home/berkeley/nacl_sdk/pepper_42/toolchain/linux_x86_newlib/bin/../lib/gcc/x86_64-nacl/4.4.3/crtbegin.o
 .rela.text._ZNSt12length_errorC2ERKSs
                0x0000000000000000        0x0 /home/berkeley/nacl_sdk/pepper_42/toolchain/linux_x86_newlib/bin/../lib/gcc/x86_64-nacl/4.4.3/crtbegin.o
 .rela.text._ZNSt16invalid_argumentC1ERKSs
                0x0000000000000000        0x0 /home/berkeley/nacl_sdk/pepper_42/toolchain/linux_x86_newlib/bin/../lib/gcc/x86_64-nacl/4.4.3/crtbegin.o
 .rela.text._ZNSt16invalid_argumentC2ERKSs
                0x0000000000000000        0x0 /home/berkeley/nacl_sdk/pepper_42/toolchain/linux_x86_newlib/bin/../lib/gcc/x86_64-nacl/4.4.3/crtbegin.o
 .rela.text._ZNSt12domain_errorC1ERKSs
                0x0000000000000000        0x0 /home/berkeley/nacl_sdk/pepper_42/toolchain/linux_x86_newlib/bin/../lib/gcc/x86_64-nacl/4.4.3/crtbegin.o
 .rela.text._ZNSt12domain_errorC2ERKSs
                0x0000000000000000        0x0 /home/berkeley/nacl_sdk/pepper_42/toolchain/linux_x86_newlib/bin/../lib/gcc/x86_64-nacl/4.4.3/crtbegin.o
 .rela.text._ZNSt13runtime_errorD0Ev
                0x0000000000000000        0x0 /home/berkeley/nacl_sdk/pepper_42/toolchain/linux_x86_newlib/bin/../lib/gcc/x86_64-nacl/4.4.3/crtbegin.o
 .rela.text._ZNSt13runtime_errorD1Ev
                0x0000000000000000        0x0 /home/berkeley/nacl_sdk/pepper_42/toolchain/linux_x86_newlib/bin/../lib/gcc/x86_64-nacl/4.4.3/crtbegin.o
 .rela.text._ZNSt13runtime_errorD2Ev
                0x0000000000000000        0x0 /home/berkeley/nacl_sdk/pepper_42/toolchain/linux_x86_newlib/bin/../lib/gcc/x86_64-nacl/4.4.3/crtbegin.o
 .rela.text._ZNSt11logic_errorD0Ev
                0x0000000000000000        0x0 /home/berkeley/nacl_sdk/pepper_42/toolchain/linux_x86_newlib/bin/../lib/gcc/x86_64-nacl/4.4.3/crtbegin.o
 .rela.text._ZNSt11logic_errorD1Ev
                0x0000000000000000        0x0 /home/berkeley/nacl_sdk/pepper_42/toolchain/linux_x86_newlib/bin/../lib/gcc/x86_64-nacl/4.4.3/crtbegin.o
 .rela.text._ZNSt14error_categoryD1Ev
                0x0000000000000000        0x0 /home/berkeley/nacl_sdk/pepper_42/toolchain/linux_x86_newlib/bin/../lib/gcc/x86_64-nacl/4.4.3/crtbegin.o
 .rela.text._ZN12_GLOBAL__N_122generic_error_categoryD1Ev
                0x0000000000000000        0x0 /home/berkeley/nacl_sdk/pepper_42/toolchain/linux_x86_newlib/bin/../lib/gcc/x86_64-nacl/4.4.3/crtbegin.o
 .rela.text._ZN12_GLOBAL__N_121system_error_categoryD1Ev
                0x0000000000000000        0x0 /home/berkeley/nacl_sdk/pepper_42/toolchain/linux_x86_newlib/bin/../lib/gcc/x86_64-nacl/4.4.3/crtbegin.o
 .rela.text._ZNSt14error_categoryD0Ev
                0x0000000000000000        0x0 /home/berkeley/nacl_sdk/pepper_42/toolchain/linux_x86_newlib/bin/../lib/gcc/x86_64-nacl/4.4.3/crtbegin.o
 .rela.text._ZN12_GLOBAL__N_122generic_error_categoryD0Ev
                0x0000000000000000        0x0 /home/berkeley/nacl_sdk/pepper_42/toolchain/linux_x86_newlib/bin/../lib/gcc/x86_64-nacl/4.4.3/crtbegin.o
 .rela.text._ZN12_GLOBAL__N_121system_error_categoryD0Ev
                0x0000000000000000        0x0 /home/berkeley/nacl_sdk/pepper_42/toolchain/linux_x86_newlib/bin/../lib/gcc/x86_64-nacl/4.4.3/crtbegin.o
 .rela.text._GLOBAL__I__ZSt15system_categoryv
                0x0000000000000000        0x0 /home/berkeley/nacl_sdk/pepper_42/toolchain/linux_x86_newlib/bin/../lib/gcc/x86_64-nacl/4.4.3/crtbegin.o
 .rela.text._ZNK12_GLOBAL__N_122generic_error_category7messageEi
                0x0000000000000000        0x0 /home/berkeley/nacl_sdk/pepper_42/toolchain/linux_x86_newlib/bin/../lib/gcc/x86_64-nacl/4.4.3/crtbegin.o
 .rela.text._ZNK12_GLOBAL__N_121system_error_category7messageEi
                0x0000000000000000        0x0 /home/berkeley/nacl_sdk/pepper_42/toolchain/linux_x86_newlib/bin/../lib/gcc/x86_64-nacl/4.4.3/crtbegin.o
 .rela.text._ZNSt12system_errorD0Ev
                0x0000000000000000        0x0 /home/berkeley/nacl_sdk/pepper_42/toolchain/linux_x86_newlib/bin/../lib/gcc/x86_64-nacl/4.4.3/crtbegin.o
 .rela.text._ZNSt12system_errorD1Ev
                0x0000000000000000        0x0 /home/berkeley/nacl_sdk/pepper_42/toolchain/linux_x86_newlib/bin/../lib/gcc/x86_64-nacl/4.4.3/crtbegin.o
 .rela.text._ZNSt12system_errorD2Ev
                0x0000000000000000        0x0 /home/berkeley/nacl_sdk/pepper_42/toolchain/linux_x86_newlib/bin/../lib/gcc/x86_64-nacl/4.4.3/crtbegin.o
 .rela.text._ZNSt10bad_typeidD1Ev
                0x0000000000000000        0x0 /home/berkeley/nacl_sdk/pepper_42/toolchain/linux_x86_newlib/bin/../lib/gcc/x86_64-nacl/4.4.3/crtbegin.o
 .rela.text._ZNSt10bad_typeidD2Ev
                0x0000000000000000        0x0 /home/berkeley/nacl_sdk/pepper_42/toolchain/linux_x86_newlib/bin/../lib/gcc/x86_64-nacl/4.4.3/crtbegin.o
 .rela.text._ZNSt10bad_typeidD0Ev
                0x0000000000000000        0x0 /home/berkeley/nacl_sdk/pepper_42/toolchain/linux_x86_newlib/bin/../lib/gcc/x86_64-nacl/4.4.3/crtbegin.o
 .rela.text._ZNSt9bad_allocD1Ev
                0x0000000000000000        0x0 /home/berkeley/nacl_sdk/pepper_42/toolchain/linux_x86_newlib/bin/../lib/gcc/x86_64-nacl/4.4.3/crtbegin.o
 .rela.text._ZNSt9bad_allocD2Ev
                0x0000000000000000        0x0 /home/berkeley/nacl_sdk/pepper_42/toolchain/linux_x86_newlib/bin/../lib/gcc/x86_64-nacl/4.4.3/crtbegin.o
 .rela.text._ZNSt9bad_allocD0Ev
                0x0000000000000000        0x0 /home/berkeley/nacl_sdk/pepper_42/toolchain/linux_x86_newlib/bin/../lib/gcc/x86_64-nacl/4.4.3/crtbegin.o
 .rela.text._ZNSt8bad_castD1Ev
                0x0000000000000000        0x0 /home/berkeley/nacl_sdk/pepper_42/toolchain/linux_x86_newlib/bin/../lib/gcc/x86_64-nacl/4.4.3/crtbegin.o
 .rela.text._ZNSt8bad_castD2Ev
                0x0000000000000000        0x0 /home/berkeley/nacl_sdk/pepper_42/toolchain/linux_x86_newlib/bin/../lib/gcc/x86_64-nacl/4.4.3/crtbegin.o
 .rela.text._ZNSt8bad_castD0Ev
                0x0000000000000000        0x0 /home/berkeley/nacl_sdk/pepper_42/toolchain/linux_x86_newlib/bin/../lib/gcc/x86_64-nacl/4.4.3/crtbegin.o
 .rela.text._ZN9__gnu_cxx27__verbose_terminate_handlerEv
                0x0000000000000000        0x0 /home/berkeley/nacl_sdk/pepper_42/toolchain/linux_x86_newlib/bin/../lib/gcc/x86_64-nacl/4.4.3/crtbegin.o
 *(.rela.fini)
 *(.rela.rodata .rela.rodata.* .rela.gnu.linkonce.r.*)
 .rela.rodata._ZTV19HelloTutorialModule
                0x0000000000000000        0x0 /home/berkeley/nacl_sdk/pepper_42/toolchain/linux_x86_newlib/bin/../lib/gcc/x86_64-nacl/4.4.3/crtbegin.o
 .rela.rodata._ZTI19HelloTutorialModule
                0x0000000000000000        0x0 /home/berkeley/nacl_sdk/pepper_42/toolchain/linux_x86_newlib/bin/../lib/gcc/x86_64-nacl/4.4.3/crtbegin.o
 .rela.rodata._ZTV21HelloTutorialInstance
                0x0000000000000000        0x0 /home/berkeley/nacl_sdk/pepper_42/toolchain/linux_x86_newlib/bin/../lib/gcc/x86_64-nacl/4.4.3/crtbegin.o
 .rela.rodata._ZTI21HelloTutorialInstance
                0x0000000000000000        0x0 /home/berkeley/nacl_sdk/pepper_42/toolchain/linux_x86_newlib/bin/../lib/gcc/x86_64-nacl/4.4.3/crtbegin.o
 .rela.rodata._ZTVN2pp8InstanceE
                0x0000000000000000        0x0 /home/berkeley/nacl_sdk/pepper_42/toolchain/linux_x86_newlib/bin/../lib/gcc/x86_64-nacl/4.4.3/crtbegin.o
 .rela.rodata._ZTIN2pp8InstanceE
                0x0000000000000000        0x0 /home/berkeley/nacl_sdk/pepper_42/toolchain/linux_x86_newlib/bin/../lib/gcc/x86_64-nacl/4.4.3/crtbegin.o
 .rela.rodata._ZTVN2pp6ModuleE
                0x0000000000000000        0x0 /home/berkeley/nacl_sdk/pepper_42/toolchain/linux_x86_newlib/bin/../lib/gcc/x86_64-nacl/4.4.3/crtbegin.o
 .rela.rodata._ZTIN2pp6ModuleE
                0x0000000000000000        0x0 /home/berkeley/nacl_sdk/pepper_42/toolchain/linux_x86_newlib/bin/../lib/gcc/x86_64-nacl/4.4.3/crtbegin.o
 .rela.rodata._ZTVN2pp9URLLoaderE
                0x0000000000000000        0x0 /home/berkeley/nacl_sdk/pepper_42/toolchain/linux_x86_newlib/bin/../lib/gcc/x86_64-nacl/4.4.3/crtbegin.o
 .rela.rodata._ZTIN2pp9URLLoaderE
                0x0000000000000000        0x0 /home/berkeley/nacl_sdk/pepper_42/toolchain/linux_x86_newlib/bin/../lib/gcc/x86_64-nacl/4.4.3/crtbegin.o
 .rela.rodata._ZTVN2pp4ViewE
                0x0000000000000000        0x0 /home/berkeley/nacl_sdk/pepper_42/toolchain/linux_x86_newlib/bin/../lib/gcc/x86_64-nacl/4.4.3/crtbegin.o
 .rela.rodata._ZTIN2pp4ViewE
                0x0000000000000000        0x0 /home/berkeley/nacl_sdk/pepper_42/toolchain/linux_x86_newlib/bin/../lib/gcc/x86_64-nacl/4.4.3/crtbegin.o
 .rela.rodata._ZTVN2pp8ResourceE
                0x0000000000000000        0x0 /home/berkeley/nacl_sdk/pepper_42/toolchain/linux_x86_newlib/bin/../lib/gcc/x86_64-nacl/4.4.3/crtbegin.o
 .rela.rodata._ZTIN2pp8ResourceE
                0x0000000000000000        0x0 /home/berkeley/nacl_sdk/pepper_42/toolchain/linux_x86_newlib/bin/../lib/gcc/x86_64-nacl/4.4.3/crtbegin.o
 .rela.rodata._ZTVN2pp15URLResponseInfoE
                0x0000000000000000        0x0 /home/berkeley/nacl_sdk/pepper_42/toolchain/linux_x86_newlib/bin/../lib/gcc/x86_64-nacl/4.4.3/crtbegin.o
 .rela.rodata._ZTIN2pp15URLResponseInfoE
                0x0000000000000000        0x0 /home/berkeley/nacl_sdk/pepper_42/toolchain/linux_x86_newlib/bin/../lib/gcc/x86_64-nacl/4.4.3/crtbegin.o
 .rela.rodata._ZTVN2pp7FileRefE
                0x0000000000000000        0x0 /home/berkeley/nacl_sdk/pepper_42/toolchain/linux_x86_newlib/bin/../lib/gcc/x86_64-nacl/4.4.3/crtbegin.o
 .rela.rodata._ZTIN2pp7FileRefE
                0x0000000000000000        0x0 /home/berkeley/nacl_sdk/pepper_42/toolchain/linux_x86_newlib/bin/../lib/gcc/x86_64-nacl/4.4.3/crtbegin.o
 .rela.rodata._ZTVN2pp3VarE
                0x0000000000000000        0x0 /home/berkeley/nacl_sdk/pepper_42/toolchain/linux_x86_newlib/bin/../lib/gcc/x86_64-nacl/4.4.3/crtbegin.o
 .rela.rodata._ZTIN2pp3VarE
                0x0000000000000000        0x0 /home/berkeley/nacl_sdk/pepper_42/toolchain/linux_x86_newlib/bin/../lib/gcc/x86_64-nacl/4.4.3/crtbegin.o
 .rela.rodata._ZTVN2pp10InputEventE
                0x0000000000000000        0x0 /home/berkeley/nacl_sdk/pepper_42/toolchain/linux_x86_newlib/bin/../lib/gcc/x86_64-nacl/4.4.3/crtbegin.o
 .rela.rodata._ZTIN2pp10InputEventE
                0x0000000000000000        0x0 /home/berkeley/nacl_sdk/pepper_42/toolchain/linux_x86_newlib/bin/../lib/gcc/x86_64-nacl/4.4.3/crtbegin.o
 .rela.rodata._ZTVN2pp13IMEInputEventE
                0x0000000000000000        0x0 /home/berkeley/nacl_sdk/pepper_42/toolchain/linux_x86_newlib/bin/../lib/gcc/x86_64-nacl/4.4.3/crtbegin.o
 .rela.rodata._ZTIN2pp13IMEInputEventE
                0x0000000000000000        0x0 /home/berkeley/nacl_sdk/pepper_42/toolchain/linux_x86_newlib/bin/../lib/gcc/x86_64-nacl/4.4.3/crtbegin.o
 .rela.rodata._ZTVN2pp15TouchInputEventE
                0x0000000000000000        0x0 /home/berkeley/nacl_sdk/pepper_42/toolchain/linux_x86_newlib/bin/../lib/gcc/x86_64-nacl/4.4.3/crtbegin.o
 .rela.rodata._ZTIN2pp15TouchInputEventE
                0x0000000000000000        0x0 /home/berkeley/nacl_sdk/pepper_42/toolchain/linux_x86_newlib/bin/../lib/gcc/x86_64-nacl/4.4.3/crtbegin.o
 .rela.rodata._ZTVN2pp18KeyboardInputEventE
                0x0000000000000000        0x0 /home/berkeley/nacl_sdk/pepper_42/toolchain/linux_x86_newlib/bin/../lib/gcc/x86_64-nacl/4.4.3/crtbegin.o
 .rela.rodata._ZTIN2pp18KeyboardInputEventE
                0x0000000000000000        0x0 /home/berkeley/nacl_sdk/pepper_42/toolchain/linux_x86_newlib/bin/../lib/gcc/x86_64-nacl/4.4.3/crtbegin.o
 .rela.rodata._ZTVN2pp15WheelInputEventE
                0x0000000000000000        0x0 /home/berkeley/nacl_sdk/pepper_42/toolchain/linux_x86_newlib/bin/../lib/gcc/x86_64-nacl/4.4.3/crtbegin.o
 .rela.rodata._ZTIN2pp15WheelInputEventE
                0x0000000000000000        0x0 /home/berkeley/nacl_sdk/pepper_42/toolchain/linux_x86_newlib/bin/../lib/gcc/x86_64-nacl/4.4.3/crtbegin.o
 .rela.rodata._ZTVN2pp15MouseInputEventE
                0x0000000000000000        0x0 /home/berkeley/nacl_sdk/pepper_42/toolchain/linux_x86_newlib/bin/../lib/gcc/x86_64-nacl/4.4.3/crtbegin.o
 .rela.rodata._ZTIN2pp15MouseInputEventE
                0x0000000000000000        0x0 /home/berkeley/nacl_sdk/pepper_42/toolchain/linux_x86_newlib/bin/../lib/gcc/x86_64-nacl/4.4.3/crtbegin.o
 .rela.rodata._ZTVN9__gnu_cxx20recursive_init_errorE
                0x0000000000000000        0x0 /home/berkeley/nacl_sdk/pepper_42/toolchain/linux_x86_newlib/bin/../lib/gcc/x86_64-nacl/4.4.3/crtbegin.o
 .rela.rodata._ZTIN9__gnu_cxx20recursive_init_errorE
                0x0000000000000000        0x0 /home/berkeley/nacl_sdk/pepper_42/toolchain/linux_x86_newlib/bin/../lib/gcc/x86_64-nacl/4.4.3/crtbegin.o
 .rela.rodata._ZTIN9__gnu_cxx26__concurrence_unlock_errorE
                0x0000000000000000        0x0 /home/berkeley/nacl_sdk/pepper_42/toolchain/linux_x86_newlib/bin/../lib/gcc/x86_64-nacl/4.4.3/crtbegin.o
 .rela.rodata._ZTVN9__gnu_cxx26__concurrence_unlock_errorE
                0x0000000000000000        0x0 /home/berkeley/nacl_sdk/pepper_42/toolchain/linux_x86_newlib/bin/../lib/gcc/x86_64-nacl/4.4.3/crtbegin.o
 .rela.rodata._ZTIN9__gnu_cxx24__concurrence_lock_errorE
                0x0000000000000000        0x0 /home/berkeley/nacl_sdk/pepper_42/toolchain/linux_x86_newlib/bin/../lib/gcc/x86_64-nacl/4.4.3/crtbegin.o
 .rela.rodata._ZTVN9__gnu_cxx24__concurrence_lock_errorE
                0x0000000000000000        0x0 /home/berkeley/nacl_sdk/pepper_42/toolchain/linux_x86_newlib/bin/../lib/gcc/x86_64-nacl/4.4.3/crtbegin.o
 .rela.rodata._ZTVN10__cxxabiv120__si_class_type_infoE
                0x0000000000000000        0x0 /home/berkeley/nacl_sdk/pepper_42/toolchain/linux_x86_newlib/bin/../lib/gcc/x86_64-nacl/4.4.3/crtbegin.o
 .rela.rodata._ZTIN10__cxxabiv120__si_class_type_infoE
                0x0000000000000000        0x0 /home/berkeley/nacl_sdk/pepper_42/toolchain/linux_x86_newlib/bin/../lib/gcc/x86_64-nacl/4.4.3/crtbegin.o
 .rela.rodata._ZTVN10__cxxabiv117__class_type_infoE
                0x0000000000000000        0x0 /home/berkeley/nacl_sdk/pepper_42/toolchain/linux_x86_newlib/bin/../lib/gcc/x86_64-nacl/4.4.3/crtbegin.o
 .rela.rodata._ZTIN10__cxxabiv117__class_type_infoE
                0x0000000000000000        0x0 /home/berkeley/nacl_sdk/pepper_42/toolchain/linux_x86_newlib/bin/../lib/gcc/x86_64-nacl/4.4.3/crtbegin.o
 .rela.rodata._ZTVN10__cxxabiv119__foreign_exceptionE
                0x0000000000000000        0x0 /home/berkeley/nacl_sdk/pepper_42/toolchain/linux_x86_newlib/bin/../lib/gcc/x86_64-nacl/4.4.3/crtbegin.o
 .rela.rodata._ZTVN10__cxxabiv115__forced_unwindE
                0x0000000000000000        0x0 /home/berkeley/nacl_sdk/pepper_42/toolchain/linux_x86_newlib/bin/../lib/gcc/x86_64-nacl/4.4.3/crtbegin.o
 .rela.rodata._ZTVSt13bad_exception
                0x0000000000000000        0x0 /home/berkeley/nacl_sdk/pepper_42/toolchain/linux_x86_newlib/bin/../lib/gcc/x86_64-nacl/4.4.3/crtbegin.o
 .rela.rodata._ZTVSt9exception
                0x0000000000000000        0x0 /home/berkeley/nacl_sdk/pepper_42/toolchain/linux_x86_newlib/bin/../lib/gcc/x86_64-nacl/4.4.3/crtbegin.o
 .rela.rodata._ZTIN10__cxxabiv119__foreign_exceptionE
                0x0000000000000000        0x0 /home/berkeley/nacl_sdk/pepper_42/toolchain/linux_x86_newlib/bin/../lib/gcc/x86_64-nacl/4.4.3/crtbegin.o
 .rela.rodata._ZTIN10__cxxabiv115__forced_unwindE
                0x0000000000000000        0x0 /home/berkeley/nacl_sdk/pepper_42/toolchain/linux_x86_newlib/bin/../lib/gcc/x86_64-nacl/4.4.3/crtbegin.o
 .rela.rodata._ZTISt13bad_exception
                0x0000000000000000        0x0 /home/berkeley/nacl_sdk/pepper_42/toolchain/linux_x86_newlib/bin/../lib/gcc/x86_64-nacl/4.4.3/crtbegin.o
 .rela.rodata._ZTISt9exception
                0x0000000000000000        0x0 /home/berkeley/nacl_sdk/pepper_42/toolchain/linux_x86_newlib/bin/../lib/gcc/x86_64-nacl/4.4.3/crtbegin.o
 .rela.rodata._ZTVSt9type_info
                0x0000000000000000        0x0 /home/berkeley/nacl_sdk/pepper_42/toolchain/linux_x86_newlib/bin/../lib/gcc/x86_64-nacl/4.4.3/crtbegin.o
 .rela.rodata._ZTISt9type_info
                0x0000000000000000        0x0 /home/berkeley/nacl_sdk/pepper_42/toolchain/linux_x86_newlib/bin/../lib/gcc/x86_64-nacl/4.4.3/crtbegin.o
 .rela.rodata._ZTISt15underflow_error
                0x0000000000000000        0x0 /home/berkeley/nacl_sdk/pepper_42/toolchain/linux_x86_newlib/bin/../lib/gcc/x86_64-nacl/4.4.3/crtbegin.o
 .rela.rodata._ZTVSt15underflow_error
                0x0000000000000000        0x0 /home/berkeley/nacl_sdk/pepper_42/toolchain/linux_x86_newlib/bin/../lib/gcc/x86_64-nacl/4.4.3/crtbegin.o
 .rela.rodata._ZTISt14overflow_error
                0x0000000000000000        0x0 /home/berkeley/nacl_sdk/pepper_42/toolchain/linux_x86_newlib/bin/../lib/gcc/x86_64-nacl/4.4.3/crtbegin.o
 .rela.rodata._ZTVSt14overflow_error
                0x0000000000000000        0x0 /home/berkeley/nacl_sdk/pepper_42/toolchain/linux_x86_newlib/bin/../lib/gcc/x86_64-nacl/4.4.3/crtbegin.o
 .rela.rodata._ZTISt11range_error
                0x0000000000000000        0x0 /home/berkeley/nacl_sdk/pepper_42/toolchain/linux_x86_newlib/bin/../lib/gcc/x86_64-nacl/4.4.3/crtbegin.o
 .rela.rodata._ZTVSt11range_error
                0x0000000000000000        0x0 /home/berkeley/nacl_sdk/pepper_42/toolchain/linux_x86_newlib/bin/../lib/gcc/x86_64-nacl/4.4.3/crtbegin.o
 .rela.rodata._ZTISt12out_of_range
                0x0000000000000000        0x0 /home/berkeley/nacl_sdk/pepper_42/toolchain/linux_x86_newlib/bin/../lib/gcc/x86_64-nacl/4.4.3/crtbegin.o
 .rela.rodata._ZTVSt12out_of_range
                0x0000000000000000        0x0 /home/berkeley/nacl_sdk/pepper_42/toolchain/linux_x86_newlib/bin/../lib/gcc/x86_64-nacl/4.4.3/crtbegin.o
 .rela.rodata._ZTISt12length_error
                0x0000000000000000        0x0 /home/berkeley/nacl_sdk/pepper_42/toolchain/linux_x86_newlib/bin/../lib/gcc/x86_64-nacl/4.4.3/crtbegin.o
 .rela.rodata._ZTVSt12length_error
                0x0000000000000000        0x0 /home/berkeley/nacl_sdk/pepper_42/toolchain/linux_x86_newlib/bin/../lib/gcc/x86_64-nacl/4.4.3/crtbegin.o
 .rela.rodata._ZTISt16invalid_argument
                0x0000000000000000        0x0 /home/berkeley/nacl_sdk/pepper_42/toolchain/linux_x86_newlib/bin/../lib/gcc/x86_64-nacl/4.4.3/crtbegin.o
 .rela.rodata._ZTVSt16invalid_argument
                0x0000000000000000        0x0 /home/berkeley/nacl_sdk/pepper_42/toolchain/linux_x86_newlib/bin/../lib/gcc/x86_64-nacl/4.4.3/crtbegin.o
 .rela.rodata._ZTISt12domain_error
                0x0000000000000000        0x0 /home/berkeley/nacl_sdk/pepper_42/toolchain/linux_x86_newlib/bin/../lib/gcc/x86_64-nacl/4.4.3/crtbegin.o
 .rela.rodata._ZTVSt12domain_error
                0x0000000000000000        0x0 /home/berkeley/nacl_sdk/pepper_42/toolchain/linux_x86_newlib/bin/../lib/gcc/x86_64-nacl/4.4.3/crtbegin.o
 .rela.rodata._ZTVNSt8ios_base7failureE
                0x0000000000000000        0x0 /home/berkeley/nacl_sdk/pepper_42/toolchain/linux_x86_newlib/bin/../lib/gcc/x86_64-nacl/4.4.3/crtbegin.o
 .rela.rodata._ZTINSt8ios_base7failureE
                0x0000000000000000        0x0 /home/berkeley/nacl_sdk/pepper_42/toolchain/linux_x86_newlib/bin/../lib/gcc/x86_64-nacl/4.4.3/crtbegin.o
 .rela.rodata._ZTVSt13runtime_error
                0x0000000000000000        0x0 /home/berkeley/nacl_sdk/pepper_42/toolchain/linux_x86_newlib/bin/../lib/gcc/x86_64-nacl/4.4.3/crtbegin.o
 .rela.rodata._ZTVSt11logic_error
                0x0000000000000000        0x0 /home/berkeley/nacl_sdk/pepper_42/toolchain/linux_x86_newlib/bin/../lib/gcc/x86_64-nacl/4.4.3/crtbegin.o
 .rela.rodata._ZTISt13runtime_error
                0x0000000000000000        0x0 /home/berkeley/nacl_sdk/pepper_42/toolchain/linux_x86_newlib/bin/../lib/gcc/x86_64-nacl/4.4.3/crtbegin.o
 .rela.rodata._ZTISt11logic_error
                0x0000000000000000        0x0 /home/berkeley/nacl_sdk/pepper_42/toolchain/linux_x86_newlib/bin/../lib/gcc/x86_64-nacl/4.4.3/crtbegin.o
 .rela.rodata._ZTVSt14error_category
                0x0000000000000000        0x0 /home/berkeley/nacl_sdk/pepper_42/toolchain/linux_x86_newlib/bin/../lib/gcc/x86_64-nacl/4.4.3/crtbegin.o
 .rela.rodata._ZTVSt12system_error
                0x0000000000000000        0x0 /home/berkeley/nacl_sdk/pepper_42/toolchain/linux_x86_newlib/bin/../lib/gcc/x86_64-nacl/4.4.3/crtbegin.o
 .rela.rodata._ZTISt12system_error
                0x0000000000000000        0x0 /home/berkeley/nacl_sdk/pepper_42/toolchain/linux_x86_newlib/bin/../lib/gcc/x86_64-nacl/4.4.3/crtbegin.o
 .rela.rodata._ZTISt14error_category
                0x0000000000000000        0x0 /home/berkeley/nacl_sdk/pepper_42/toolchain/linux_x86_newlib/bin/../lib/gcc/x86_64-nacl/4.4.3/crtbegin.o
 .rela.rodata._ZTIN12_GLOBAL__N_122generic_error_categoryE
                0x0000000000000000        0x0 /home/berkeley/nacl_sdk/pepper_42/toolchain/linux_x86_newlib/bin/../lib/gcc/x86_64-nacl/4.4.3/crtbegin.o
 .rela.rodata._ZTIN12_GLOBAL__N_121system_error_categoryE
                0x0000000000000000        0x0 /home/berkeley/nacl_sdk/pepper_42/toolchain/linux_x86_newlib/bin/../lib/gcc/x86_64-nacl/4.4.3/crtbegin.o
 .rela.rodata._ZTVSt10bad_typeid
                0x0000000000000000        0x0 /home/berkeley/nacl_sdk/pepper_42/toolchain/linux_x86_newlib/bin/../lib/gcc/x86_64-nacl/4.4.3/crtbegin.o
 .rela.rodata._ZTISt10bad_typeid
                0x0000000000000000        0x0 /home/berkeley/nacl_sdk/pepper_42/toolchain/linux_x86_newlib/bin/../lib/gcc/x86_64-nacl/4.4.3/crtbegin.o
 .rela.rodata._ZTVSt9bad_alloc
                0x0000000000000000        0x0 /home/berkeley/nacl_sdk/pepper_42/toolchain/linux_x86_newlib/bin/../lib/gcc/x86_64-nacl/4.4.3/crtbegin.o
 .rela.rodata._ZTISt9bad_alloc
                0x0000000000000000        0x0 /home/berkeley/nacl_sdk/pepper_42/toolchain/linux_x86_newlib/bin/../lib/gcc/x86_64-nacl/4.4.3/crtbegin.o
 .rela.rodata._ZTVSt8bad_cast
                0x0000000000000000        0x0 /home/berkeley/nacl_sdk/pepper_42/toolchain/linux_x86_newlib/bin/../lib/gcc/x86_64-nacl/4.4.3/crtbegin.o
 .rela.rodata._ZTISt8bad_cast
                0x0000000000000000        0x0 /home/berkeley/nacl_sdk/pepper_42/toolchain/linux_x86_newlib/bin/../lib/gcc/x86_64-nacl/4.4.3/crtbegin.o
 *(.rela.data .rela.data.* .rela.gnu.linkonce.d.*)
 .rela.data._ZN10__cxxabiv119__terminate_handlerE
                0x0000000000000000        0x0 /home/berkeley/nacl_sdk/pepper_42/toolchain/linux_x86_newlib/bin/../lib/gcc/x86_64-nacl/4.4.3/crtbegin.o
 *(.rela.tdata .rela.tdata.* .rela.gnu.linkonce.td.*)
 *(.rela.tbss .rela.tbss.* .rela.gnu.linkonce.tb.*)
 *(.rela.ctors)
 *(.rela.dtors)
 *(.rela.got)
 .rela.got      0x0000000000000000        0x0 /home/berkeley/nacl_sdk/pepper_42/toolchain/linux_x86_newlib/bin/../lib/gcc/x86_64-nacl/4.4.3/crtbegin.o
 *(.rela.bss .rela.bss.* .rela.gnu.linkonce.b.*)
 *(.rela.ldata .rela.ldata.* .rela.gnu.linkonce.l.*)
 *(.rela.lbss .rela.lbss.* .rela.gnu.linkonce.lb.*)
 *(.rela.lrodata .rela.lrodata.* .rela.gnu.linkonce.lr.*)
 *(.rela.ifunc)
 .rela.eh_frame
                0x0000000000000000        0x0 /home/berkeley/nacl_sdk/pepper_42/toolchain/linux_x86_newlib/bin/../lib/gcc/x86_64-nacl/4.4.3/crtbegin.o
 .rela.gcc_except_table._Znwj
                0x0000000000000000        0x0 /home/berkeley/nacl_sdk/pepper_42/toolchain/linux_x86_newlib/bin/../lib/gcc/x86_64-nacl/4.4.3/crtbegin.o
 .rela.gcc_except_table._ZN9__gnu_cxx27__verbose_terminate_handlerEv
                0x0000000000000000        0x0 /home/berkeley/nacl_sdk/pepper_42/toolchain/linux_x86_newlib/bin/../lib/gcc/x86_64-nacl/4.4.3/crtbegin.o

.rela.plt       0x00000000100201f0        0x0
 *(.rela.plt)
                0x00000000100201f0                PROVIDE (__rela_iplt_start, .)
 *(.rela.iplt)
 .rela.iplt     0x0000000000000000        0x0 /home/berkeley/nacl_sdk/pepper_42/toolchain/linux_x86_newlib/bin/../lib/gcc/x86_64-nacl/4.4.3/crtbegin.o
                0x00000000100201f0                PROVIDE (__rela_iplt_end, .)

.rodata         0x0000000010020200     0x4ff6
 *(.rodata .rodata.* .gnu.linkonce.r.*)
 .rodata._ZTV19HelloTutorialModule
                0x0000000010020200       0x18 newlib/Release/popcnt_x86_64.o
                0x0000000010020200                _ZTV19HelloTutorialModule
 .rodata._ZTI19HelloTutorialModule
                0x0000000010020218        0xc newlib/Release/popcnt_x86_64.o
                0x0000000010020218                _ZTI19HelloTutorialModule
 *fill*         0x0000000010020224        0xc 
 .rodata._ZTS19HelloTutorialModule
                0x0000000010020230       0x16 newlib/Release/popcnt_x86_64.o
                0x0000000010020230                _ZTS19HelloTutorialModule
 *fill*         0x0000000010020246       0x1a 
 .rodata._ZTV21HelloTutorialInstance
                0x0000000010020260       0x2c newlib/Release/popcnt_x86_64.o
                0x0000000010020260                _ZTV21HelloTutorialInstance
 .rodata._ZTI21HelloTutorialInstance
                0x000000001002028c        0xc newlib/Release/popcnt_x86_64.o
                0x000000001002028c                _ZTI21HelloTutorialInstance
 *fill*         0x0000000010020298        0x8 
 .rodata._ZTS21HelloTutorialInstance
                0x00000000100202a0       0x18 newlib/Release/popcnt_x86_64.o
                0x00000000100202a0                _ZTS21HelloTutorialInstance
 .rodata.str1.1
                0x00000000100202b8       0x58 /home/berkeley/nacl_sdk/pepper_42/lib/newlib_x86_64/Release/libppapi_cpp.a(instance_x86_64.o)
 *fill*         0x0000000010020310       0x10 
 .rodata._ZTVN2pp8InstanceE
                0x0000000010020320       0x2c /home/berkeley/nacl_sdk/pepper_42/lib/newlib_x86_64/Release/libppapi_cpp.a(instance_x86_64.o)
                0x0000000010020320                _ZTVN2pp8InstanceE
 .rodata._ZTSN2pp8InstanceE
                0x000000001002034c        0xf /home/berkeley/nacl_sdk/pepper_42/lib/newlib_x86_64/Release/libppapi_cpp.a(instance_x86_64.o)
                0x000000001002034c                _ZTSN2pp8InstanceE
 *fill*         0x000000001002035b        0x1 
 .rodata._ZTIN2pp8InstanceE
                0x000000001002035c        0x8 /home/berkeley/nacl_sdk/pepper_42/lib/newlib_x86_64/Release/libppapi_cpp.a(instance_x86_64.o)
                0x000000001002035c                _ZTIN2pp8InstanceE
 .rodata.str1.1
                0x0000000010020364       0x43 /home/berkeley/nacl_sdk/pepper_42/lib/newlib_x86_64/Release/libppapi_cpp.a(module_x86_64.o)
 *fill*         0x00000000100203a7        0x9 
 .rodata._ZTVN2pp6ModuleE
                0x00000000100203b0       0x18 /home/berkeley/nacl_sdk/pepper_42/lib/newlib_x86_64/Release/libppapi_cpp.a(module_x86_64.o)
                0x00000000100203b0                _ZTVN2pp6ModuleE
 .rodata._ZTSN2pp6ModuleE
                0x00000000100203c8        0xd /home/berkeley/nacl_sdk/pepper_42/lib/newlib_x86_64/Release/libppapi_cpp.a(module_x86_64.o)
                0x00000000100203c8                _ZTSN2pp6ModuleE
 *fill*         0x00000000100203d5        0x3 
 .rodata._ZTIN2pp6ModuleE
                0x00000000100203d8        0x8 /home/berkeley/nacl_sdk/pepper_42/lib/newlib_x86_64/Release/libppapi_cpp.a(module_x86_64.o)
                0x00000000100203d8                _ZTIN2pp6ModuleE
 .rodata        0x00000000100203e0        0x4 /home/berkeley/nacl_sdk/pepper_42/lib/newlib_x86_64/Release/libppapi_cpp.a(module_x86_64.o)
 *fill*         0x00000000100203e4        0xc 
 .rodata._ZTVN2pp9URLLoaderE
                0x00000000100203f0       0x10 /home/berkeley/nacl_sdk/pepper_42/lib/newlib_x86_64/Release/libppapi_cpp.a(module_x86_64.o)
                0x00000000100203f0                _ZTVN2pp9URLLoaderE
 .rodata._ZTIN2pp9URLLoaderE
                0x0000000010020400        0xc /home/berkeley/nacl_sdk/pepper_42/lib/newlib_x86_64/Release/libppapi_cpp.a(module_x86_64.o)
                0x0000000010020400                _ZTIN2pp9URLLoaderE
 *fill*         0x000000001002040c        0x4 
 .rodata._ZTSN2pp9URLLoaderE
                0x0000000010020410       0x10 /home/berkeley/nacl_sdk/pepper_42/lib/newlib_x86_64/Release/libppapi_cpp.a(module_x86_64.o)
                0x0000000010020410                _ZTSN2pp9URLLoaderE
 .rodata._ZTVN2pp4ViewE
                0x0000000010020420       0x10 /home/berkeley/nacl_sdk/pepper_42/lib/newlib_x86_64/Release/libppapi_cpp.a(module_x86_64.o)
                0x0000000010020420                _ZTVN2pp4ViewE
 .rodata._ZTIN2pp4ViewE
                0x0000000010020430        0xc /home/berkeley/nacl_sdk/pepper_42/lib/newlib_x86_64/Release/libppapi_cpp.a(module_x86_64.o)
                0x0000000010020430                _ZTIN2pp4ViewE
 .rodata._ZTSN2pp4ViewE
                0x000000001002043c        0xb /home/berkeley/nacl_sdk/pepper_42/lib/newlib_x86_64/Release/libppapi_cpp.a(module_x86_64.o)
                0x000000001002043c                _ZTSN2pp4ViewE
 *fill*         0x0000000010020447        0x9 
 .rodata._ZTVN2pp8ResourceE
                0x0000000010020450       0x10 /home/berkeley/nacl_sdk/pepper_42/lib/newlib_x86_64/Release/libppapi_cpp.a(resource_x86_64.o)
                0x0000000010020450                _ZTVN2pp8ResourceE
 .rodata._ZTSN2pp8ResourceE
                0x0000000010020460        0xf /home/berkeley/nacl_sdk/pepper_42/lib/newlib_x86_64/Release/libppapi_cpp.a(resource_x86_64.o)
                0x0000000010020460                _ZTSN2pp8ResourceE
 *fill*         0x000000001002046f        0x1 
 .rodata._ZTIN2pp8ResourceE
                0x0000000010020470        0x8 /home/berkeley/nacl_sdk/pepper_42/lib/newlib_x86_64/Release/libppapi_cpp.a(resource_x86_64.o)
                0x0000000010020470                _ZTIN2pp8ResourceE
 .rodata.str1.1
                0x0000000010020478       0x12 /home/berkeley/nacl_sdk/pepper_42/lib/newlib_x86_64/Release/libppapi_cpp.a(url_loader_x86_64.o)
 *fill*         0x000000001002048a        0x6 
 .rodata._ZTVN2pp15URLResponseInfoE
                0x0000000010020490       0x10 /home/berkeley/nacl_sdk/pepper_42/lib/newlib_x86_64/Release/libppapi_cpp.a(url_loader_x86_64.o)
                0x0000000010020490                _ZTVN2pp15URLResponseInfoE
 .rodata._ZTIN2pp15URLResponseInfoE
                0x00000000100204a0        0xc /home/berkeley/nacl_sdk/pepper_42/lib/newlib_x86_64/Release/libppapi_cpp.a(url_loader_x86_64.o)
                0x00000000100204a0                _ZTIN2pp15URLResponseInfoE
 *fill*         0x00000000100204ac        0x4 
 .rodata._ZTSN2pp15URLResponseInfoE
                0x00000000100204b0       0x17 /home/berkeley/nacl_sdk/pepper_42/lib/newlib_x86_64/Release/libppapi_cpp.a(url_loader_x86_64.o)
                0x00000000100204b0                _ZTSN2pp15URLResponseInfoE
 .rodata.str1.1
                0x00000000100204c7       0x18 /home/berkeley/nacl_sdk/pepper_42/lib/newlib_x86_64/Release/libppapi_cpp.a(url_response_info_x86_64.o)
 *fill*         0x00000000100204df        0x1 
 .rodata._ZTVN2pp7FileRefE
                0x00000000100204e0       0x10 /home/berkeley/nacl_sdk/pepper_42/lib/newlib_x86_64/Release/libppapi_cpp.a(url_response_info_x86_64.o)
                0x00000000100204e0                _ZTVN2pp7FileRefE
 .rodata._ZTIN2pp7FileRefE
                0x00000000100204f0        0xc /home/berkeley/nacl_sdk/pepper_42/lib/newlib_x86_64/Release/libppapi_cpp.a(url_response_info_x86_64.o)
                0x00000000100204f0                _ZTIN2pp7FileRefE
 .rodata._ZTSN2pp7FileRefE
                0x00000000100204fc        0xe /home/berkeley/nacl_sdk/pepper_42/lib/newlib_x86_64/Release/libppapi_cpp.a(url_response_info_x86_64.o)
                0x00000000100204fc                _ZTSN2pp7FileRefE
 .rodata.str1.1
                0x000000001002050a       0xad /home/berkeley/nacl_sdk/pepper_42/lib/newlib_x86_64/Release/libppapi_cpp.a(var_x86_64.o)
 *fill*         0x00000000100205b7        0x1 
 .rodata        0x00000000100205b8       0x30 /home/berkeley/nacl_sdk/pepper_42/lib/newlib_x86_64/Release/libppapi_cpp.a(var_x86_64.o)
 *fill*         0x00000000100205e8        0x8 
 .rodata._ZTVN2pp3VarE
                0x00000000100205f0       0x14 /home/berkeley/nacl_sdk/pepper_42/lib/newlib_x86_64/Release/libppapi_cpp.a(var_x86_64.o)
                0x00000000100205f0                _ZTVN2pp3VarE
 .rodata._ZTSN2pp3VarE
                0x0000000010020604        0xa /home/berkeley/nacl_sdk/pepper_42/lib/newlib_x86_64/Release/libppapi_cpp.a(var_x86_64.o)
                0x0000000010020604                _ZTSN2pp3VarE
 *fill*         0x000000001002060e        0x2 
 .rodata._ZTIN2pp3VarE
                0x0000000010020610        0x8 /home/berkeley/nacl_sdk/pepper_42/lib/newlib_x86_64/Release/libppapi_cpp.a(var_x86_64.o)
                0x0000000010020610                _ZTIN2pp3VarE
 .rodata.str1.1
                0x0000000010020618       0x27 /home/berkeley/nacl_sdk/pepper_42/lib/newlib_x86_64/Release/libppapi_cpp.a(view_x86_64.o)
 *fill*         0x000000001002063f        0x1 
 .rodata.cst4   0x0000000010020640        0x4 /home/berkeley/nacl_sdk/pepper_42/lib/newlib_x86_64/Release/libppapi_cpp.a(view_x86_64.o)
 .rodata.str1.1
                0x0000000010020644       0x30 /home/berkeley/nacl_sdk/pepper_42/lib/newlib_x86_64/Release/libppapi_cpp.a(file_ref_x86_64.o)
 .rodata.str1.1
                0x0000000010020674       0x94 /home/berkeley/nacl_sdk/pepper_42/lib/newlib_x86_64/Release/libppapi_cpp.a(input_event_x86_64.o)
                                         0xa7 (size before relaxing)
 *fill*         0x0000000010020708        0x8 
 .rodata._ZTVN2pp10InputEventE
                0x0000000010020710       0x10 /home/berkeley/nacl_sdk/pepper_42/lib/newlib_x86_64/Release/libppapi_cpp.a(input_event_x86_64.o)
                0x0000000010020710                _ZTVN2pp10InputEventE
 .rodata._ZTSN2pp10InputEventE
                0x0000000010020720       0x12 /home/berkeley/nacl_sdk/pepper_42/lib/newlib_x86_64/Release/libppapi_cpp.a(input_event_x86_64.o)
                0x0000000010020720                _ZTSN2pp10InputEventE
 *fill*         0x0000000010020732        0x2 
 .rodata._ZTIN2pp10InputEventE
                0x0000000010020734        0xc /home/berkeley/nacl_sdk/pepper_42/lib/newlib_x86_64/Release/libppapi_cpp.a(input_event_x86_64.o)
                0x0000000010020734                _ZTIN2pp10InputEventE
 .rodata._ZTVN2pp13IMEInputEventE
                0x0000000010020740       0x10 /home/berkeley/nacl_sdk/pepper_42/lib/newlib_x86_64/Release/libppapi_cpp.a(input_event_x86_64.o)
                0x0000000010020740                _ZTVN2pp13IMEInputEventE
 .rodata._ZTIN2pp13IMEInputEventE
                0x0000000010020750        0xc /home/berkeley/nacl_sdk/pepper_42/lib/newlib_x86_64/Release/libppapi_cpp.a(input_event_x86_64.o)
                0x0000000010020750                _ZTIN2pp13IMEInputEventE
 *fill*         0x000000001002075c        0x4 
 .rodata._ZTSN2pp13IMEInputEventE
                0x0000000010020760       0x15 /home/berkeley/nacl_sdk/pepper_42/lib/newlib_x86_64/Release/libppapi_cpp.a(input_event_x86_64.o)
                0x0000000010020760                _ZTSN2pp13IMEInputEventE
 *fill*         0x0000000010020775        0xb 
 .rodata._ZTVN2pp15TouchInputEventE
                0x0000000010020780       0x10 /home/berkeley/nacl_sdk/pepper_42/lib/newlib_x86_64/Release/libppapi_cpp.a(input_event_x86_64.o)
                0x0000000010020780                _ZTVN2pp15TouchInputEventE
 .rodata._ZTIN2pp15TouchInputEventE
                0x0000000010020790        0xc /home/berkeley/nacl_sdk/pepper_42/lib/newlib_x86_64/Release/libppapi_cpp.a(input_event_x86_64.o)
                0x0000000010020790                _ZTIN2pp15TouchInputEventE
 *fill*         0x000000001002079c        0x4 
 .rodata._ZTSN2pp15TouchInputEventE
                0x00000000100207a0       0x17 /home/berkeley/nacl_sdk/pepper_42/lib/newlib_x86_64/Release/libppapi_cpp.a(input_event_x86_64.o)
                0x00000000100207a0                _ZTSN2pp15TouchInputEventE
 *fill*         0x00000000100207b7        0x9 
 .rodata._ZTVN2pp18KeyboardInputEventE
                0x00000000100207c0       0x10 /home/berkeley/nacl_sdk/pepper_42/lib/newlib_x86_64/Release/libppapi_cpp.a(input_event_x86_64.o)
                0x00000000100207c0                _ZTVN2pp18KeyboardInputEventE
 .rodata._ZTIN2pp18KeyboardInputEventE
                0x00000000100207d0        0xc /home/berkeley/nacl_sdk/pepper_42/lib/newlib_x86_64/Release/libppapi_cpp.a(input_event_x86_64.o)
                0x00000000100207d0                _ZTIN2pp18KeyboardInputEventE
 *fill*         0x00000000100207dc        0x4 
 .rodata._ZTSN2pp18KeyboardInputEventE
                0x00000000100207e0       0x1a /home/berkeley/nacl_sdk/pepper_42/lib/newlib_x86_64/Release/libppapi_cpp.a(input_event_x86_64.o)
                0x00000000100207e0                _ZTSN2pp18KeyboardInputEventE
 *fill*         0x00000000100207fa        0x6 
 .rodata._ZTVN2pp15WheelInputEventE
                0x0000000010020800       0x10 /home/berkeley/nacl_sdk/pepper_42/lib/newlib_x86_64/Release/libppapi_cpp.a(input_event_x86_64.o)
                0x0000000010020800                _ZTVN2pp15WheelInputEventE
 .rodata._ZTIN2pp15WheelInputEventE
                0x0000000010020810        0xc /home/berkeley/nacl_sdk/pepper_42/lib/newlib_x86_64/Release/libppapi_cpp.a(input_event_x86_64.o)
                0x0000000010020810                _ZTIN2pp15WheelInputEventE
 *fill*         0x000000001002081c        0x4 
 .rodata._ZTSN2pp15WheelInputEventE
                0x0000000010020820       0x17 /home/berkeley/nacl_sdk/pepper_42/lib/newlib_x86_64/Release/libppapi_cpp.a(input_event_x86_64.o)
                0x0000000010020820                _ZTSN2pp15WheelInputEventE
 *fill*         0x0000000010020837        0x9 
 .rodata._ZTVN2pp15MouseInputEventE
                0x0000000010020840       0x10 /home/berkeley/nacl_sdk/pepper_42/lib/newlib_x86_64/Release/libppapi_cpp.a(input_event_x86_64.o)
                0x0000000010020840                _ZTVN2pp15MouseInputEventE
 .rodata._ZTIN2pp15MouseInputEventE
                0x0000000010020850        0xc /home/berkeley/nacl_sdk/pepper_42/lib/newlib_x86_64/Release/libppapi_cpp.a(input_event_x86_64.o)
                0x0000000010020850                _ZTIN2pp15MouseInputEventE
 *fill*         0x000000001002085c        0x4 
 .rodata._ZTSN2pp15MouseInputEventE
                0x0000000010020860       0x17 /home/berkeley/nacl_sdk/pepper_42/lib/newlib_x86_64/Release/libppapi_cpp.a(input_event_x86_64.o)
                0x0000000010020860                _ZTSN2pp15MouseInputEventE
 *fill*         0x0000000010020877        0x1 
 .rodata        0x0000000010020878        0xc /home/berkeley/nacl_sdk/pepper_42/toolchain/linux_x86_newlib/bin/../lib/gcc/x86_64-nacl/4.4.3/../../../../x86_64-nacl/lib/../lib64/libppapi_stub.a(ppapi_plugin_main_399d0cf7.o)
 *fill*         0x0000000010020884        0x4 
 .rodata.str1.8
                0x0000000010020888       0x99 /home/berkeley/nacl_sdk/pepper_42/toolchain/linux_x86_newlib/bin/../lib/gcc/x86_64-nacl/4.4.3/../../../../x86_64-nacl/lib/../lib64/libppapi_stub.a(ppapi_plugin_start_8da67623.o)
 .rodata.str1.1
                0x0000000010020921       0x17 /home/berkeley/nacl_sdk/pepper_42/toolchain/linux_x86_newlib/bin/../lib/gcc/x86_64-nacl/4.4.3/../../../../x86_64-nacl/lib/../lib64/libppapi_stub.a(ppapi_plugin_start_8da67623.o)
 .rodata        0x0000000010020938        0x8 /home/berkeley/nacl_sdk/pepper_42/toolchain/linux_x86_newlib/bin/../lib/gcc/x86_64-nacl/4.4.3/../../../../x86_64-nacl/lib/../lib64/libppapi_stub.a(thread_creator_ccf263e1.o)
 .rodata.str1.1
                0x0000000010020940        0xc /home/berkeley/nacl_sdk/pepper_42/toolchain/linux_x86_newlib/bin/../lib/gcc/x86_64-nacl/4.4.3/../../../../x86_64-nacl/lib/../lib64/libpthread.a(nc_thread_7e478b15.o)
 .rodata        0x000000001002094c        0x4 /home/berkeley/nacl_sdk/pepper_42/toolchain/linux_x86_newlib/bin/../lib/gcc/x86_64-nacl/4.4.3/../../../../x86_64-nacl/lib/../lib64/libpthread.a(nc_thread_7e478b15.o)
                0x000000001002094c                __nc_kMaxCachedMemoryBlocks
 .rodata.str1.1
                0x0000000010020950       0x14 /home/berkeley/nacl_sdk/pepper_42/toolchain/linux_x86_newlib/bin/../lib/gcc/x86_64-nacl/4.4.3/../../../../x86_64-nacl/lib/../lib64/libpthread.a(dynamic_annotations_33ba59cc.o)
                                         0x16 (size before relaxing)
 .rodata.str1.1
                0x0000000010020964       0x27 /home/berkeley/nacl_sdk/pepper_42/toolchain/linux_x86_newlib/bin/../lib/gcc/x86_64-nacl/4.4.3/../../../../x86_64-nacl/lib/../lib64/libpthread.a(nc_init_irt_d3daafc0.o)
 .rodata.str1.1
                0x000000001002098b      0x11d /home/berkeley/nacl_sdk/pepper_42/toolchain/linux_x86_newlib/bin/../lib/gcc/x86_64-nacl/4.4.3/../../../../x86_64-nacl/lib/../lib64/libstdc++.a(string-inst.o)
 .rodata.str1.8
                0x0000000010020aa8       0x2a /home/berkeley/nacl_sdk/pepper_42/toolchain/linux_x86_newlib/bin/../lib/gcc/x86_64-nacl/4.4.3/../../../../x86_64-nacl/lib/../lib64/libstdc++.a(string-inst.o)
 *fill*         0x0000000010020ad2        0x2 
 .rodata._ZNSs4nposE
                0x0000000010020ad4        0x4 /home/berkeley/nacl_sdk/pepper_42/toolchain/linux_x86_newlib/bin/../lib/gcc/x86_64-nacl/4.4.3/../../../../x86_64-nacl/lib/../lib64/libstdc++.a(string-inst.o)
                0x0000000010020ad4                _ZNSs4nposE
 .rodata._ZNSs4_Rep11_S_max_sizeE
                0x0000000010020ad8        0x4 /home/berkeley/nacl_sdk/pepper_42/toolchain/linux_x86_newlib/bin/../lib/gcc/x86_64-nacl/4.4.3/../../../../x86_64-nacl/lib/../lib64/libstdc++.a(string-inst.o)
                0x0000000010020ad8                _ZNSs4_Rep11_S_max_sizeE
 .rodata._ZNSs4_Rep11_S_terminalE
                0x0000000010020adc        0x1 /home/berkeley/nacl_sdk/pepper_42/toolchain/linux_x86_newlib/bin/../lib/gcc/x86_64-nacl/4.4.3/../../../../x86_64-nacl/lib/../lib64/libstdc++.a(string-inst.o)
                0x0000000010020adc                _ZNSs4_Rep11_S_terminalE
 *fill*         0x0000000010020add        0x3 
 .rodata._ZL28read_encoded_value_with_basehjPKhPj
                0x0000000010020ae0       0x68 /home/berkeley/nacl_sdk/pepper_42/toolchain/linux_x86_newlib/bin/../lib/gcc/x86_64-nacl/4.4.3/../../../../x86_64-nacl/lib/../lib64/libstdc++.a(eh_personality.o)
 .rodata.str1.8
                0x0000000010020b48       0x4e /home/berkeley/nacl_sdk/pepper_42/toolchain/linux_x86_newlib/bin/../lib/gcc/x86_64-nacl/4.4.3/../../../../x86_64-nacl/lib/../lib64/libstdc++.a(guard.o)
 *fill*         0x0000000010020b96        0xa 
 .rodata._ZTVN9__gnu_cxx20recursive_init_errorE
                0x0000000010020ba0       0x14 /home/berkeley/nacl_sdk/pepper_42/toolchain/linux_x86_newlib/bin/../lib/gcc/x86_64-nacl/4.4.3/../../../../x86_64-nacl/lib/../lib64/libstdc++.a(guard.o)
                0x0000000010020ba0                _ZTVN9__gnu_cxx20recursive_init_errorE
 *fill*         0x0000000010020bb4        0xc 
 .rodata._ZTSN9__gnu_cxx20recursive_init_errorE
                0x0000000010020bc0       0x23 /home/berkeley/nacl_sdk/pepper_42/toolchain/linux_x86_newlib/bin/../lib/gcc/x86_64-nacl/4.4.3/../../../../x86_64-nacl/lib/../lib64/libstdc++.a(guard.o)
                0x0000000010020bc0                _ZTSN9__gnu_cxx20recursive_init_errorE
 *fill*         0x0000000010020be3        0x1 
 .rodata._ZTIN9__gnu_cxx20recursive_init_errorE
                0x0000000010020be4        0xc /home/berkeley/nacl_sdk/pepper_42/toolchain/linux_x86_newlib/bin/../lib/gcc/x86_64-nacl/4.4.3/../../../../x86_64-nacl/lib/../lib64/libstdc++.a(guard.o)
                0x0000000010020be4                _ZTIN9__gnu_cxx20recursive_init_errorE
 .rodata._ZTIN9__gnu_cxx26__concurrence_unlock_errorE
                0x0000000010020bf0        0xc /home/berkeley/nacl_sdk/pepper_42/toolchain/linux_x86_newlib/bin/../lib/gcc/x86_64-nacl/4.4.3/../../../../x86_64-nacl/lib/../lib64/libstdc++.a(guard.o)
                0x0000000010020bf0                _ZTIN9__gnu_cxx26__concurrence_unlock_errorE
 *fill*         0x0000000010020bfc        0x4 
 .rodata._ZTSN9__gnu_cxx26__concurrence_unlock_errorE
                0x0000000010020c00       0x29 /home/berkeley/nacl_sdk/pepper_42/toolchain/linux_x86_newlib/bin/../lib/gcc/x86_64-nacl/4.4.3/../../../../x86_64-nacl/lib/../lib64/libstdc++.a(guard.o)
                0x0000000010020c00                _ZTSN9__gnu_cxx26__concurrence_unlock_errorE
 *fill*         0x0000000010020c29        0x7 
 .rodata._ZTVN9__gnu_cxx26__concurrence_unlock_errorE
                0x0000000010020c30       0x14 /home/berkeley/nacl_sdk/pepper_42/toolchain/linux_x86_newlib/bin/../lib/gcc/x86_64-nacl/4.4.3/../../../../x86_64-nacl/lib/../lib64/libstdc++.a(guard.o)
                0x0000000010020c30                _ZTVN9__gnu_cxx26__concurrence_unlock_errorE
 .rodata._ZTIN9__gnu_cxx24__concurrence_lock_errorE
                0x0000000010020c44        0xc /home/berkeley/nacl_sdk/pepper_42/toolchain/linux_x86_newlib/bin/../lib/gcc/x86_64-nacl/4.4.3/../../../../x86_64-nacl/lib/../lib64/libstdc++.a(guard.o)
                0x0000000010020c44                _ZTIN9__gnu_cxx24__concurrence_lock_errorE
 *fill*         0x0000000010020c50       0x10 
 .rodata._ZTSN9__gnu_cxx24__concurrence_lock_errorE
                0x0000000010020c60       0x27 /home/berkeley/nacl_sdk/pepper_42/toolchain/linux_x86_newlib/bin/../lib/gcc/x86_64-nacl/4.4.3/../../../../x86_64-nacl/lib/../lib64/libstdc++.a(guard.o)
                0x0000000010020c60                _ZTSN9__gnu_cxx24__concurrence_lock_errorE
 *fill*         0x0000000010020c87        0x9 
 .rodata._ZTVN9__gnu_cxx24__concurrence_lock_errorE
                0x0000000010020c90       0x14 /home/berkeley/nacl_sdk/pepper_42/toolchain/linux_x86_newlib/bin/../lib/gcc/x86_64-nacl/4.4.3/../../../../x86_64-nacl/lib/../lib64/libstdc++.a(guard.o)
                0x0000000010020c90                _ZTVN9__gnu_cxx24__concurrence_lock_errorE
 *fill*         0x0000000010020ca4       0x1c 
 .rodata._ZTVN10__cxxabiv120__si_class_type_infoE
                0x0000000010020cc0       0x2c /home/berkeley/nacl_sdk/pepper_42/toolchain/linux_x86_newlib/bin/../lib/gcc/x86_64-nacl/4.4.3/../../../../x86_64-nacl/lib/../lib64/libstdc++.a(si_class_type_info.o)
                0x0000000010020cc0                _ZTVN10__cxxabiv120__si_class_type_infoE
 *fill*         0x0000000010020cec       0x14 
 .rodata._ZTSN10__cxxabiv120__si_class_type_infoE
                0x0000000010020d00       0x25 /home/berkeley/nacl_sdk/pepper_42/toolchain/linux_x86_newlib/bin/../lib/gcc/x86_64-nacl/4.4.3/../../../../x86_64-nacl/lib/../lib64/libstdc++.a(si_class_type_info.o)
                0x0000000010020d00                _ZTSN10__cxxabiv120__si_class_type_infoE
 *fill*         0x0000000010020d25        0x3 
 .rodata._ZTIN10__cxxabiv120__si_class_type_infoE
                0x0000000010020d28        0xc /home/berkeley/nacl_sdk/pepper_42/toolchain/linux_x86_newlib/bin/../lib/gcc/x86_64-nacl/4.4.3/../../../../x86_64-nacl/lib/../lib64/libstdc++.a(si_class_type_info.o)
                0x0000000010020d28                _ZTIN10__cxxabiv120__si_class_type_infoE
 *fill*         0x0000000010020d34        0xc 
 .rodata._ZTVN10__cxxabiv117__class_type_infoE
                0x0000000010020d40       0x2c /home/berkeley/nacl_sdk/pepper_42/toolchain/linux_x86_newlib/bin/../lib/gcc/x86_64-nacl/4.4.3/../../../../x86_64-nacl/lib/../lib64/libstdc++.a(class_type_info.o)
                0x0000000010020d40                _ZTVN10__cxxabiv117__class_type_infoE
 *fill*         0x0000000010020d6c       0x14 
 .rodata._ZTSN10__cxxabiv117__class_type_infoE
                0x0000000010020d80       0x22 /home/berkeley/nacl_sdk/pepper_42/toolchain/linux_x86_newlib/bin/../lib/gcc/x86_64-nacl/4.4.3/../../../../x86_64-nacl/lib/../lib64/libstdc++.a(class_type_info.o)
                0x0000000010020d80                _ZTSN10__cxxabiv117__class_type_infoE
 *fill*         0x0000000010020da2        0x2 
 .rodata._ZTIN10__cxxabiv117__class_type_infoE
                0x0000000010020da4        0xc /home/berkeley/nacl_sdk/pepper_42/toolchain/linux_x86_newlib/bin/../lib/gcc/x86_64-nacl/4.4.3/../../../../x86_64-nacl/lib/../lib64/libstdc++.a(class_type_info.o)
                0x0000000010020da4                _ZTIN10__cxxabiv117__class_type_infoE
 .rodata.str1.8
                0x0000000000000000       0x4e /home/berkeley/nacl_sdk/pepper_42/toolchain/linux_x86_newlib/bin/../lib/gcc/x86_64-nacl/4.4.3/../../../../x86_64-nacl/lib/../lib64/libstdc++.a(eh_alloc.o)
 .rodata.str1.1
                0x0000000010020db0       0x22 /home/berkeley/nacl_sdk/pepper_42/toolchain/linux_x86_newlib/bin/../lib/gcc/x86_64-nacl/4.4.3/../../../../x86_64-nacl/lib/../lib64/libstdc++.a(eh_exception.o)
 *fill*         0x0000000010020dd2        0xe 
 .rodata._ZTVN10__cxxabiv119__foreign_exceptionE
                0x0000000010020de0       0x14 /home/berkeley/nacl_sdk/pepper_42/toolchain/linux_x86_newlib/bin/../lib/gcc/x86_64-nacl/4.4.3/../../../../x86_64-nacl/lib/../lib64/libstdc++.a(eh_exception.o)
                0x0000000010020de0                _ZTVN10__cxxabiv119__foreign_exceptionE
 *fill*         0x0000000010020df4        0xc 
 .rodata._ZTVN10__cxxabiv115__forced_unwindE
                0x0000000010020e00       0x14 /home/berkeley/nacl_sdk/pepper_42/toolchain/linux_x86_newlib/bin/../lib/gcc/x86_64-nacl/4.4.3/../../../../x86_64-nacl/lib/../lib64/libstdc++.a(eh_exception.o)
                0x0000000010020e00                _ZTVN10__cxxabiv115__forced_unwindE
 *fill*         0x0000000010020e14        0xc 
 .rodata._ZTVSt13bad_exception
                0x0000000010020e20       0x14 /home/berkeley/nacl_sdk/pepper_42/toolchain/linux_x86_newlib/bin/../lib/gcc/x86_64-nacl/4.4.3/../../../../x86_64-nacl/lib/../lib64/libstdc++.a(eh_exception.o)
                0x0000000010020e20                _ZTVSt13bad_exception
 *fill*         0x0000000010020e34        0xc 
 .rodata._ZTVSt9exception
                0x0000000010020e40       0x14 /home/berkeley/nacl_sdk/pepper_42/toolchain/linux_x86_newlib/bin/../lib/gcc/x86_64-nacl/4.4.3/../../../../x86_64-nacl/lib/../lib64/libstdc++.a(eh_exception.o)
                0x0000000010020e40                _ZTVSt9exception
 *fill*         0x0000000010020e54        0xc 
 .rodata._ZTSN10__cxxabiv119__foreign_exceptionE
                0x0000000010020e60       0x24 /home/berkeley/nacl_sdk/pepper_42/toolchain/linux_x86_newlib/bin/../lib/gcc/x86_64-nacl/4.4.3/../../../../x86_64-nacl/lib/../lib64/libstdc++.a(eh_exception.o)
                0x0000000010020e60                _ZTSN10__cxxabiv119__foreign_exceptionE
 .rodata._ZTIN10__cxxabiv119__foreign_exceptionE
                0x0000000010020e84        0x8 /home/berkeley/nacl_sdk/pepper_42/toolchain/linux_x86_newlib/bin/../lib/gcc/x86_64-nacl/4.4.3/../../../../x86_64-nacl/lib/../lib64/libstdc++.a(eh_exception.o)
                0x0000000010020e84                _ZTIN10__cxxabiv119__foreign_exceptionE
 *fill*         0x0000000010020e8c       0x14 
 .rodata._ZTSN10__cxxabiv115__forced_unwindE
                0x0000000010020ea0       0x20 /home/berkeley/nacl_sdk/pepper_42/toolchain/linux_x86_newlib/bin/../lib/gcc/x86_64-nacl/4.4.3/../../../../x86_64-nacl/lib/../lib64/libstdc++.a(eh_exception.o)
                0x0000000010020ea0                _ZTSN10__cxxabiv115__forced_unwindE
 .rodata._ZTIN10__cxxabiv115__forced_unwindE
                0x0000000010020ec0        0x8 /home/berkeley/nacl_sdk/pepper_42/toolchain/linux_x86_newlib/bin/../lib/gcc/x86_64-nacl/4.4.3/../../../../x86_64-nacl/lib/../lib64/libstdc++.a(eh_exception.o)
                0x0000000010020ec0                _ZTIN10__cxxabiv115__forced_unwindE
 *fill*         0x0000000010020ec8        0x8 
 .rodata._ZTSSt13bad_exception
                0x0000000010020ed0       0x12 /home/berkeley/nacl_sdk/pepper_42/toolchain/linux_x86_newlib/bin/../lib/gcc/x86_64-nacl/4.4.3/../../../../x86_64-nacl/lib/../lib64/libstdc++.a(eh_exception.o)
                0x0000000010020ed0                _ZTSSt13bad_exception
 *fill*         0x0000000010020ee2        0x2 
 .rodata._ZTISt13bad_exception
                0x0000000010020ee4        0xc /home/berkeley/nacl_sdk/pepper_42/toolchain/linux_x86_newlib/bin/../lib/gcc/x86_64-nacl/4.4.3/../../../../x86_64-nacl/lib/../lib64/libstdc++.a(eh_exception.o)
                0x0000000010020ee4                _ZTISt13bad_exception
 .rodata._ZTSSt9exception
                0x0000000010020ef0        0xd /home/berkeley/nacl_sdk/pepper_42/toolchain/linux_x86_newlib/bin/../lib/gcc/x86_64-nacl/4.4.3/../../../../x86_64-nacl/lib/../lib64/libstdc++.a(eh_exception.o)
                0x0000000010020ef0                _ZTSSt9exception
 *fill*         0x0000000010020efd        0x3 
 .rodata._ZTISt9exception
                0x0000000010020f00        0x8 /home/berkeley/nacl_sdk/pepper_42/toolchain/linux_x86_newlib/bin/../lib/gcc/x86_64-nacl/4.4.3/../../../../x86_64-nacl/lib/../lib64/libstdc++.a(eh_exception.o)
                0x0000000010020f00                _ZTISt9exception
 .rodata.str1.1
                0x0000000010020f08       0x1c /home/berkeley/nacl_sdk/pepper_42/toolchain/linux_x86_newlib/bin/../lib/gcc/x86_64-nacl/4.4.3/../../../../x86_64-nacl/lib/../lib64/libstdc++.a(pure.o)
 *fill*         0x0000000010020f24       0x1c 
 .rodata._ZTVSt9type_info
                0x0000000010020f40       0x20 /home/berkeley/nacl_sdk/pepper_42/toolchain/linux_x86_newlib/bin/../lib/gcc/x86_64-nacl/4.4.3/../../../../x86_64-nacl/lib/../lib64/libstdc++.a(tinfo.o)
                0x0000000010020f40                _ZTVSt9type_info
 .rodata._ZTSSt9type_info
                0x0000000010020f60        0xd /home/berkeley/nacl_sdk/pepper_42/toolchain/linux_x86_newlib/bin/../lib/gcc/x86_64-nacl/4.4.3/../../../../x86_64-nacl/lib/../lib64/libstdc++.a(tinfo.o)
                0x0000000010020f60                _ZTSSt9type_info
 *fill*         0x0000000010020f6d        0x3 
 .rodata._ZTISt9type_info
                0x0000000010020f70        0x8 /home/berkeley/nacl_sdk/pepper_42/toolchain/linux_x86_newlib/bin/../lib/gcc/x86_64-nacl/4.4.3/../../../../x86_64-nacl/lib/../lib64/libstdc++.a(tinfo.o)
                0x0000000010020f70                _ZTISt9type_info
 .rodata.str1.1
                0x0000000000000000       0x1c /home/berkeley/nacl_sdk/pepper_42/toolchain/linux_x86_newlib/bin/../lib/gcc/x86_64-nacl/4.4.3/../../../../x86_64-nacl/lib/../lib64/libstdc++.a(functexcept.o)
                                          0x1 (size before relaxing)
 .rodata._ZTISt15underflow_error
                0x0000000010020f78        0xc /home/berkeley/nacl_sdk/pepper_42/toolchain/linux_x86_newlib/bin/../lib/gcc/x86_64-nacl/4.4.3/../../../../x86_64-nacl/lib/../lib64/libstdc++.a(functexcept.o)
                0x0000000010020f78                _ZTISt15underflow_error
 *fill*         0x0000000010020f84        0xc 
 .rodata._ZTSSt15underflow_error
                0x0000000010020f90       0x14 /home/berkeley/nacl_sdk/pepper_42/toolchain/linux_x86_newlib/bin/../lib/gcc/x86_64-nacl/4.4.3/../../../../x86_64-nacl/lib/../lib64/libstdc++.a(functexcept.o)
                0x0000000010020f90                _ZTSSt15underflow_error
 *fill*         0x0000000010020fa4        0xc 
 .rodata._ZTVSt15underflow_error
                0x0000000010020fb0       0x14 /home/berkeley/nacl_sdk/pepper_42/toolchain/linux_x86_newlib/bin/../lib/gcc/x86_64-nacl/4.4.3/../../../../x86_64-nacl/lib/../lib64/libstdc++.a(functexcept.o)
                0x0000000010020fb0                _ZTVSt15underflow_error
 .rodata._ZTISt14overflow_error
                0x0000000010020fc4        0xc /home/berkeley/nacl_sdk/pepper_42/toolchain/linux_x86_newlib/bin/../lib/gcc/x86_64-nacl/4.4.3/../../../../x86_64-nacl/lib/../lib64/libstdc++.a(functexcept.o)
                0x0000000010020fc4                _ZTISt14overflow_error
 .rodata._ZTSSt14overflow_error
                0x0000000010020fd0       0x13 /home/berkeley/nacl_sdk/pepper_42/toolchain/linux_x86_newlib/bin/../lib/gcc/x86_64-nacl/4.4.3/../../../../x86_64-nacl/lib/../lib64/libstdc++.a(functexcept.o)
                0x0000000010020fd0                _ZTSSt14overflow_error
 *fill*         0x0000000010020fe3        0xd 
 .rodata._ZTVSt14overflow_error
                0x0000000010020ff0       0x14 /home/berkeley/nacl_sdk/pepper_42/toolchain/linux_x86_newlib/bin/../lib/gcc/x86_64-nacl/4.4.3/../../../../x86_64-nacl/lib/../lib64/libstdc++.a(functexcept.o)
                0x0000000010020ff0                _ZTVSt14overflow_error
 .rodata._ZTISt11range_error
                0x0000000010021004        0xc /home/berkeley/nacl_sdk/pepper_42/toolchain/linux_x86_newlib/bin/../lib/gcc/x86_64-nacl/4.4.3/../../../../x86_64-nacl/lib/../lib64/libstdc++.a(functexcept.o)
                0x0000000010021004                _ZTISt11range_error
 .rodata._ZTSSt11range_error
                0x0000000010021010       0x10 /home/berkeley/nacl_sdk/pepper_42/toolchain/linux_x86_newlib/bin/../lib/gcc/x86_64-nacl/4.4.3/../../../../x86_64-nacl/lib/../lib64/libstdc++.a(functexcept.o)
                0x0000000010021010                _ZTSSt11range_error
 .rodata._ZTVSt11range_error
                0x0000000010021020       0x14 /home/berkeley/nacl_sdk/pepper_42/toolchain/linux_x86_newlib/bin/../lib/gcc/x86_64-nacl/4.4.3/../../../../x86_64-nacl/lib/../lib64/libstdc++.a(functexcept.o)
                0x0000000010021020                _ZTVSt11range_error
 .rodata._ZTISt12out_of_range
                0x0000000010021034        0xc /home/berkeley/nacl_sdk/pepper_42/toolchain/linux_x86_newlib/bin/../lib/gcc/x86_64-nacl/4.4.3/../../../../x86_64-nacl/lib/../lib64/libstdc++.a(functexcept.o)
                0x0000000010021034                _ZTISt12out_of_range
 .rodata._ZTSSt12out_of_range
                0x0000000010021040       0x11 /home/berkeley/nacl_sdk/pepper_42/toolchain/linux_x86_newlib/bin/../lib/gcc/x86_64-nacl/4.4.3/../../../../x86_64-nacl/lib/../lib64/libstdc++.a(functexcept.o)
                0x0000000010021040                _ZTSSt12out_of_range
 *fill*         0x0000000010021051        0xf 
 .rodata._ZTVSt12out_of_range
                0x0000000010021060       0x14 /home/berkeley/nacl_sdk/pepper_42/toolchain/linux_x86_newlib/bin/../lib/gcc/x86_64-nacl/4.4.3/../../../../x86_64-nacl/lib/../lib64/libstdc++.a(functexcept.o)
                0x0000000010021060                _ZTVSt12out_of_range
 .rodata._ZTISt12length_error
                0x0000000010021074        0xc /home/berkeley/nacl_sdk/pepper_42/toolchain/linux_x86_newlib/bin/../lib/gcc/x86_64-nacl/4.4.3/../../../../x86_64-nacl/lib/../lib64/libstdc++.a(functexcept.o)
                0x0000000010021074                _ZTISt12length_error
 .rodata._ZTSSt12length_error
                0x0000000010021080       0x11 /home/berkeley/nacl_sdk/pepper_42/toolchain/linux_x86_newlib/bin/../lib/gcc/x86_64-nacl/4.4.3/../../../../x86_64-nacl/lib/../lib64/libstdc++.a(functexcept.o)
                0x0000000010021080                _ZTSSt12length_error
 *fill*         0x0000000010021091        0xf 
 .rodata._ZTVSt12length_error
                0x00000000100210a0       0x14 /home/berkeley/nacl_sdk/pepper_42/toolchain/linux_x86_newlib/bin/../lib/gcc/x86_64-nacl/4.4.3/../../../../x86_64-nacl/lib/../lib64/libstdc++.a(functexcept.o)
                0x00000000100210a0                _ZTVSt12length_error
 .rodata._ZTISt16invalid_argument
                0x00000000100210b4        0xc /home/berkeley/nacl_sdk/pepper_42/toolchain/linux_x86_newlib/bin/../lib/gcc/x86_64-nacl/4.4.3/../../../../x86_64-nacl/lib/../lib64/libstdc++.a(functexcept.o)
                0x00000000100210b4                _ZTISt16invalid_argument
 .rodata._ZTSSt16invalid_argument
                0x00000000100210c0       0x15 /home/berkeley/nacl_sdk/pepper_42/toolchain/linux_x86_newlib/bin/../lib/gcc/x86_64-nacl/4.4.3/../../../../x86_64-nacl/lib/../lib64/libstdc++.a(functexcept.o)
                0x00000000100210c0                _ZTSSt16invalid_argument
 *fill*         0x00000000100210d5        0xb 
 .rodata._ZTVSt16invalid_argument
                0x00000000100210e0       0x14 /home/berkeley/nacl_sdk/pepper_42/toolchain/linux_x86_newlib/bin/../lib/gcc/x86_64-nacl/4.4.3/../../../../x86_64-nacl/lib/../lib64/libstdc++.a(functexcept.o)
                0x00000000100210e0                _ZTVSt16invalid_argument
 .rodata._ZTISt12domain_error
                0x00000000100210f4        0xc /home/berkeley/nacl_sdk/pepper_42/toolchain/linux_x86_newlib/bin/../lib/gcc/x86_64-nacl/4.4.3/../../../../x86_64-nacl/lib/../lib64/libstdc++.a(functexcept.o)
                0x00000000100210f4                _ZTISt12domain_error
 .rodata._ZTSSt12domain_error
                0x0000000010021100       0x11 /home/berkeley/nacl_sdk/pepper_42/toolchain/linux_x86_newlib/bin/../lib/gcc/x86_64-nacl/4.4.3/../../../../x86_64-nacl/lib/../lib64/libstdc++.a(functexcept.o)
                0x0000000010021100                _ZTSSt12domain_error
 *fill*         0x0000000010021111        0xf 
 .rodata._ZTVSt12domain_error
                0x0000000010021120       0x14 /home/berkeley/nacl_sdk/pepper_42/toolchain/linux_x86_newlib/bin/../lib/gcc/x86_64-nacl/4.4.3/../../../../x86_64-nacl/lib/../lib64/libstdc++.a(functexcept.o)
                0x0000000010021120                _ZTVSt12domain_error
 *fill*         0x0000000010021134        0xc 
 .rodata._ZTVNSt8ios_base7failureE
                0x0000000010021140       0x14 /home/berkeley/nacl_sdk/pepper_42/toolchain/linux_x86_newlib/bin/../lib/gcc/x86_64-nacl/4.4.3/../../../../x86_64-nacl/lib/../lib64/libstdc++.a(ios_failure.o)
                0x0000000010021140                _ZTVNSt8ios_base7failureE
 *fill*         0x0000000010021154        0xc 
 .rodata._ZTSNSt8ios_base7failureE
                0x0000000010021160       0x16 /home/berkeley/nacl_sdk/pepper_42/toolchain/linux_x86_newlib/bin/../lib/gcc/x86_64-nacl/4.4.3/../../../../x86_64-nacl/lib/../lib64/libstdc++.a(ios_failure.o)
                0x0000000010021160                _ZTSNSt8ios_base7failureE
 *fill*         0x0000000010021176        0x2 
 .rodata._ZTINSt8ios_base7failureE
                0x0000000010021178        0xc /home/berkeley/nacl_sdk/pepper_42/toolchain/linux_x86_newlib/bin/../lib/gcc/x86_64-nacl/4.4.3/../../../../x86_64-nacl/lib/../lib64/libstdc++.a(ios_failure.o)
                0x0000000010021178                _ZTINSt8ios_base7failureE
 *fill*         0x0000000010021184        0xc 
 .rodata._ZTVSt13runtime_error
                0x0000000010021190       0x14 /home/berkeley/nacl_sdk/pepper_42/toolchain/linux_x86_newlib/bin/../lib/gcc/x86_64-nacl/4.4.3/../../../../x86_64-nacl/lib/../lib64/libstdc++.a(stdexcept.o)
                0x0000000010021190                _ZTVSt13runtime_error
 *fill*         0x00000000100211a4        0xc 
 .rodata._ZTVSt11logic_error
                0x00000000100211b0       0x14 /home/berkeley/nacl_sdk/pepper_42/toolchain/linux_x86_newlib/bin/../lib/gcc/x86_64-nacl/4.4.3/../../../../x86_64-nacl/lib/../lib64/libstdc++.a(stdexcept.o)
                0x00000000100211b0                _ZTVSt11logic_error
 *fill*         0x00000000100211c4        0xc 
 .rodata._ZTSSt13runtime_error
                0x00000000100211d0       0x12 /home/berkeley/nacl_sdk/pepper_42/toolchain/linux_x86_newlib/bin/../lib/gcc/x86_64-nacl/4.4.3/../../../../x86_64-nacl/lib/../lib64/libstdc++.a(stdexcept.o)
                0x00000000100211d0                _ZTSSt13runtime_error
 *fill*         0x00000000100211e2        0x2 
 .rodata._ZTISt13runtime_error
                0x00000000100211e4        0xc /home/berkeley/nacl_sdk/pepper_42/toolchain/linux_x86_newlib/bin/../lib/gcc/x86_64-nacl/4.4.3/../../../../x86_64-nacl/lib/../lib64/libstdc++.a(stdexcept.o)
                0x00000000100211e4                _ZTISt13runtime_error
 .rodata._ZTSSt11logic_error
                0x00000000100211f0       0x10 /home/berkeley/nacl_sdk/pepper_42/toolchain/linux_x86_newlib/bin/../lib/gcc/x86_64-nacl/4.4.3/../../../../x86_64-nacl/lib/../lib64/libstdc++.a(stdexcept.o)
                0x00000000100211f0                _ZTSSt11logic_error
 .rodata._ZTISt11logic_error
                0x0000000010021200        0xc /home/berkeley/nacl_sdk/pepper_42/toolchain/linux_x86_newlib/bin/../lib/gcc/x86_64-nacl/4.4.3/../../../../x86_64-nacl/lib/../lib64/libstdc++.a(stdexcept.o)
                0x0000000010021200                _ZTISt11logic_error
 .rodata.str1.1
                0x000000001002120c        0x8 /home/berkeley/nacl_sdk/pepper_42/toolchain/linux_x86_newlib/bin/../lib/gcc/x86_64-nacl/4.4.3/../../../../x86_64-nacl/lib/../lib64/libstdc++.a(system_error.o)
                                          0xf (size before relaxing)
 *fill*         0x0000000010021214        0xc 
 .rodata._ZTVSt14error_category
                0x0000000010021220       0x24 /home/berkeley/nacl_sdk/pepper_42/toolchain/linux_x86_newlib/bin/../lib/gcc/x86_64-nacl/4.4.3/../../../../x86_64-nacl/lib/../lib64/libstdc++.a(system_error.o)
                0x0000000010021220                _ZTVSt14error_category
 *fill*         0x0000000010021244        0xc 
 .rodata._ZTVSt12system_error
                0x0000000010021250       0x14 /home/berkeley/nacl_sdk/pepper_42/toolchain/linux_x86_newlib/bin/../lib/gcc/x86_64-nacl/4.4.3/../../../../x86_64-nacl/lib/../lib64/libstdc++.a(system_error.o)
                0x0000000010021250                _ZTVSt12system_error
 *fill*         0x0000000010021264        0xc 
 .rodata._ZTSSt12system_error
                0x0000000010021270       0x11 /home/berkeley/nacl_sdk/pepper_42/toolchain/linux_x86_newlib/bin/../lib/gcc/x86_64-nacl/4.4.3/../../../../x86_64-nacl/lib/../lib64/libstdc++.a(system_error.o)
                0x0000000010021270                _ZTSSt12system_error
 *fill*         0x0000000010021281        0x3 
 .rodata._ZTISt12system_error
                0x0000000010021284        0xc /home/berkeley/nacl_sdk/pepper_42/toolchain/linux_x86_newlib/bin/../lib/gcc/x86_64-nacl/4.4.3/../../../../x86_64-nacl/lib/../lib64/libstdc++.a(system_error.o)
                0x0000000010021284                _ZTISt12system_error
 .rodata._ZTSSt14error_category
                0x0000000010021290       0x13 /home/berkeley/nacl_sdk/pepper_42/toolchain/linux_x86_newlib/bin/../lib/gcc/x86_64-nacl/4.4.3/../../../../x86_64-nacl/lib/../lib64/libstdc++.a(system_error.o)
                0x0000000010021290                _ZTSSt14error_category
 *fill*         0x00000000100212a3        0x1 
 .rodata._ZTISt14error_category
                0x00000000100212a4        0x8 /home/berkeley/nacl_sdk/pepper_42/toolchain/linux_x86_newlib/bin/../lib/gcc/x86_64-nacl/4.4.3/../../../../x86_64-nacl/lib/../lib64/libstdc++.a(system_error.o)
                0x00000000100212a4                _ZTISt14error_category
 *fill*         0x00000000100212ac       0x14 
 .rodata._ZTVN12_GLOBAL__N_122generic_error_categoryE
                0x00000000100212c0       0x24 /home/berkeley/nacl_sdk/pepper_42/toolchain/linux_x86_newlib/bin/../lib/gcc/x86_64-nacl/4.4.3/../../../../x86_64-nacl/lib/../lib64/libstdc++.a(system_error.o)
 *fill*         0x00000000100212e4       0x1c 
 .rodata._ZTSN12_GLOBAL__N_122generic_error_categoryE
                0x0000000010021300       0x29 /home/berkeley/nacl_sdk/pepper_42/toolchain/linux_x86_newlib/bin/../lib/gcc/x86_64-nacl/4.4.3/../../../../x86_64-nacl/lib/../lib64/libstdc++.a(system_error.o)
 *fill*         0x0000000010021329       0x17 
 .rodata._ZTVN12_GLOBAL__N_121system_error_categoryE
                0x0000000010021340       0x24 /home/berkeley/nacl_sdk/pepper_42/toolchain/linux_x86_newlib/bin/../lib/gcc/x86_64-nacl/4.4.3/../../../../x86_64-nacl/lib/../lib64/libstdc++.a(system_error.o)
 *fill*         0x0000000010021364       0x1c 
 .rodata._ZTSN12_GLOBAL__N_121system_error_categoryE
                0x0000000010021380       0x28 /home/berkeley/nacl_sdk/pepper_42/toolchain/linux_x86_newlib/bin/../lib/gcc/x86_64-nacl/4.4.3/../../../../x86_64-nacl/lib/../lib64/libstdc++.a(system_error.o)
 .rodata._ZTIN12_GLOBAL__N_122generic_error_categoryE
                0x00000000100213a8        0xc /home/berkeley/nacl_sdk/pepper_42/toolchain/linux_x86_newlib/bin/../lib/gcc/x86_64-nacl/4.4.3/../../../../x86_64-nacl/lib/../lib64/libstdc++.a(system_error.o)
 .rodata._ZTIN12_GLOBAL__N_121system_error_categoryE
                0x00000000100213b4        0xc /home/berkeley/nacl_sdk/pepper_42/toolchain/linux_x86_newlib/bin/../lib/gcc/x86_64-nacl/4.4.3/../../../../x86_64-nacl/lib/../lib64/libstdc++.a(system_error.o)
 .rodata.str1.1
                0x00000000100213c0       0x10 /home/berkeley/nacl_sdk/pepper_42/toolchain/linux_x86_newlib/bin/../lib/gcc/x86_64-nacl/4.4.3/../../../../x86_64-nacl/lib/../lib64/libstdc++.a(bad_typeid.o)
 .rodata._ZTVSt10bad_typeid
                0x00000000100213d0       0x14 /home/berkeley/nacl_sdk/pepper_42/toolchain/linux_x86_newlib/bin/../lib/gcc/x86_64-nacl/4.4.3/../../../../x86_64-nacl/lib/../lib64/libstdc++.a(bad_typeid.o)
                0x00000000100213d0                _ZTVSt10bad_typeid
 .rodata._ZTSSt10bad_typeid
                0x00000000100213e4        0xf /home/berkeley/nacl_sdk/pepper_42/toolchain/linux_x86_newlib/bin/../lib/gcc/x86_64-nacl/4.4.3/../../../../x86_64-nacl/lib/../lib64/libstdc++.a(bad_typeid.o)
                0x00000000100213e4                _ZTSSt10bad_typeid
 *fill*         0x00000000100213f3        0x1 
 .rodata._ZTISt10bad_typeid
                0x00000000100213f4        0xc /home/berkeley/nacl_sdk/pepper_42/toolchain/linux_x86_newlib/bin/../lib/gcc/x86_64-nacl/4.4.3/../../../../x86_64-nacl/lib/../lib64/libstdc++.a(bad_typeid.o)
                0x00000000100213f4                _ZTISt10bad_typeid
 .rodata.str1.1
                0x0000000010021400        0xf /home/berkeley/nacl_sdk/pepper_42/toolchain/linux_x86_newlib/bin/../lib/gcc/x86_64-nacl/4.4.3/../../../../x86_64-nacl/lib/../lib64/libstdc++.a(new_handler.o)
 .rodata._ZSt7nothrow
                0x000000001002140f        0x1 /home/berkeley/nacl_sdk/pepper_42/toolchain/linux_x86_newlib/bin/../lib/gcc/x86_64-nacl/4.4.3/../../../../x86_64-nacl/lib/../lib64/libstdc++.a(new_handler.o)
                0x000000001002140f                _ZSt7nothrow
 .rodata._ZTVSt9bad_alloc
                0x0000000010021410       0x14 /home/berkeley/nacl_sdk/pepper_42/toolchain/linux_x86_newlib/bin/../lib/gcc/x86_64-nacl/4.4.3/../../../../x86_64-nacl/lib/../lib64/libstdc++.a(new_handler.o)
                0x0000000010021410                _ZTVSt9bad_alloc
 .rodata._ZTSSt9bad_alloc
                0x0000000010021424        0xd /home/berkeley/nacl_sdk/pepper_42/toolchain/linux_x86_newlib/bin/../lib/gcc/x86_64-nacl/4.4.3/../../../../x86_64-nacl/lib/../lib64/libstdc++.a(new_handler.o)
                0x0000000010021424                _ZTSSt9bad_alloc
 *fill*         0x0000000010021431        0x3 
 .rodata._ZTISt9bad_alloc
                0x0000000010021434        0xc /home/berkeley/nacl_sdk/pepper_42/toolchain/linux_x86_newlib/bin/../lib/gcc/x86_64-nacl/4.4.3/../../../../x86_64-nacl/lib/../lib64/libstdc++.a(new_handler.o)
                0x0000000010021434                _ZTISt9bad_alloc
 .rodata.str1.1
                0x0000000010021440        0xe /home/berkeley/nacl_sdk/pepper_42/toolchain/linux_x86_newlib/bin/../lib/gcc/x86_64-nacl/4.4.3/../../../../x86_64-nacl/lib/../lib64/libstdc++.a(bad_cast.o)
 *fill*         0x000000001002144e        0x2 
 .rodata._ZTVSt8bad_cast
                0x0000000010021450       0x14 /home/berkeley/nacl_sdk/pepper_42/toolchain/linux_x86_newlib/bin/../lib/gcc/x86_64-nacl/4.4.3/../../../../x86_64-nacl/lib/../lib64/libstdc++.a(bad_cast.o)
                0x0000000010021450                _ZTVSt8bad_cast
 .rodata._ZTSSt8bad_cast
                0x0000000010021464        0xc /home/berkeley/nacl_sdk/pepper_42/toolchain/linux_x86_newlib/bin/../lib/gcc/x86_64-nacl/4.4.3/../../../../x86_64-nacl/lib/../lib64/libstdc++.a(bad_cast.o)
                0x0000000010021464                _ZTSSt8bad_cast
 .rodata._ZTISt8bad_cast
                0x0000000010021470        0xc /home/berkeley/nacl_sdk/pepper_42/toolchain/linux_x86_newlib/bin/../lib/gcc/x86_64-nacl/4.4.3/../../../../x86_64-nacl/lib/../lib64/libstdc++.a(bad_cast.o)
                0x0000000010021470                _ZTISt8bad_cast
 .rodata.str1.1
                0x000000001002147c       0x2d /home/berkeley/nacl_sdk/pepper_42/toolchain/linux_x86_newlib/bin/../lib/gcc/x86_64-nacl/4.4.3/../../../../x86_64-nacl/lib/../lib64/libstdc++.a(vterminate.o)
 *fill*         0x00000000100214a9        0x7 
 .rodata.str1.8
                0x00000000100214b0       0x66 /home/berkeley/nacl_sdk/pepper_42/toolchain/linux_x86_newlib/bin/../lib/gcc/x86_64-nacl/4.4.3/../../../../x86_64-nacl/lib/../lib64/libstdc++.a(vterminate.o)
 *fill*         0x0000000010021516        0xa 
 .rodata        0x0000000010021520     0x1310 /home/berkeley/nacl_sdk/pepper_42/toolchain/linux_x86_newlib/bin/../lib/gcc/x86_64-nacl/4.4.3/../../../../x86_64-nacl/lib/../lib64/libstdc++.a(cp-demangle.o)
 .rodata.str1.1
                0x0000000010022830      0x438 /home/berkeley/nacl_sdk/pepper_42/toolchain/linux_x86_newlib/bin/../lib/gcc/x86_64-nacl/4.4.3/../../../../x86_64-nacl/lib/../lib64/libstdc++.a(cp-demangle.o)
                                        0x4ea (size before relaxing)
 .rodata.str1.8
                0x0000000010022c68       0xeb /home/berkeley/nacl_sdk/pepper_42/toolchain/linux_x86_newlib/bin/../lib/gcc/x86_64-nacl/4.4.3/../../../../x86_64-nacl/lib/../lib64/libstdc++.a(cp-demangle.o)
 *fill*         0x0000000010022d53        0x1 
 .rodata        0x0000000010022d54      0x5b8 /home/berkeley/nacl_sdk/pepper_42/toolchain/linux_x86_newlib/bin/../lib/gcc/x86_64-nacl/4.4.3/libgcc.a(unwind-dw2.o)
 .rodata        0x000000001002330c       0x34 /home/berkeley/nacl_sdk/pepper_42/toolchain/linux_x86_newlib/bin/../lib/gcc/x86_64-nacl/4.4.3/libgcc.a(unwind-dw2-fde-glibc.o)
 .rodata        0x0000000010023340       0x13 /home/berkeley/nacl_sdk/pepper_42/toolchain/linux_x86_newlib/bin/../lib/gcc/x86_64-nacl/4.4.3/../../../../x86_64-nacl/lib/../lib64/libnacl.a(abort_9f6b5845.o)
 .rodata.str1.1
                0x0000000010023353       0x4e /home/berkeley/nacl_sdk/pepper_42/toolchain/linux_x86_newlib/bin/../lib/gcc/x86_64-nacl/4.4.3/../../../../x86_64-nacl/lib/../lib64/libnacl.a(malloc_222c4a1e.o)
 *fill*         0x00000000100233a1        0x7 
 .rodata.str1.8
                0x00000000100233a8       0x5c /home/berkeley/nacl_sdk/pepper_42/toolchain/linux_x86_newlib/bin/../lib/gcc/x86_64-nacl/4.4.3/../../../../x86_64-nacl/lib/../lib64/libnacl.a(nacl_irt_6de1d53f.o)
 .rodata.str1.1
                0x0000000010023404       0x88 /home/berkeley/nacl_sdk/pepper_42/toolchain/linux_x86_newlib/bin/../lib/gcc/x86_64-nacl/4.4.3/../../../../x86_64-nacl/lib/../lib64/libnacl.a(nacl_irt_init_7b4f826e.o)
 .rodata        0x000000001002348c        0x4 /home/berkeley/nacl_sdk/pepper_42/toolchain/linux_x86_newlib/bin/../lib/gcc/x86_64-nacl/4.4.3/../../../../x86_64-nacl/lib/../lib64/libcrt_common.a(lib_a-impure.o)
                0x000000001002348c                _global_impure_ptr
 .rodata.str1.1
                0x0000000000000000       0x88 /home/berkeley/nacl_sdk/pepper_42/toolchain/linux_x86_newlib/bin/../lib/gcc/x86_64-nacl/4.4.3/../../../../x86_64-nacl/lib/../lib64/libcrt_common.a(lib_a-impure.o)
                                          0x2 (size before relaxing)
 .rodata.str1.1
                0x0000000010023490      0x56b /home/berkeley/nacl_sdk/pepper_42/toolchain/linux_x86_newlib/bin/../lib/gcc/x86_64-nacl/4.4.3/../../../../x86_64-nacl/lib/../lib64/libcrt_common.a(lib_a-strerror.o)
                                        0x56c (size before relaxing)
 *fill*         0x00000000100239fb        0x5 
 .rodata.str1.8
                0x0000000010023a00      0x1e0 /home/berkeley/nacl_sdk/pepper_42/toolchain/linux_x86_newlib/bin/../lib/gcc/x86_64-nacl/4.4.3/../../../../x86_64-nacl/lib/../lib64/libcrt_common.a(lib_a-strerror.o)
                                        0x1d9 (size before relaxing)
 .rodata.str1.1
                0x0000000010023be0       0x39 /home/berkeley/nacl_sdk/pepper_42/toolchain/linux_x86_newlib/bin/../lib/gcc/x86_64-nacl/4.4.3/../../../../x86_64-nacl/lib/../lib64/libcrt_common.a(lib_a-svfprintf.o)
                                         0x3b (size before relaxing)
 *fill*         0x0000000010023c19        0x7 
 .rodata        0x0000000010023c20      0x300 /home/berkeley/nacl_sdk/pepper_42/toolchain/linux_x86_newlib/bin/../lib/gcc/x86_64-nacl/4.4.3/../../../../x86_64-nacl/lib/../lib64/libcrt_common.a(lib_a-svfprintf.o)
 .rodata.cst8   0x0000000010023f20       0x20 /home/berkeley/nacl_sdk/pepper_42/toolchain/linux_x86_newlib/bin/../lib/gcc/x86_64-nacl/4.4.3/../../../../x86_64-nacl/lib/../lib64/libcrt_common.a(lib_a-svfprintf.o)
 .rodata.cst16  0x0000000010023f40       0x10 /home/berkeley/nacl_sdk/pepper_42/toolchain/linux_x86_newlib/bin/../lib/gcc/x86_64-nacl/4.4.3/../../../../x86_64-nacl/lib/../lib64/libcrt_common.a(lib_a-svfprintf.o)
 .rodata.str1.1
                0x0000000000000000       0x3b /home/berkeley/nacl_sdk/pepper_42/toolchain/linux_x86_newlib/bin/../lib/gcc/x86_64-nacl/4.4.3/../../../../x86_64-nacl/lib/../lib64/libcrt_common.a(lib_a-vfprintf.o)
 .rodata        0x0000000010023f50      0x300 /home/berkeley/nacl_sdk/pepper_42/toolchain/linux_x86_newlib/bin/../lib/gcc/x86_64-nacl/4.4.3/../../../../x86_64-nacl/lib/../lib64/libcrt_common.a(lib_a-vfprintf.o)
 .rodata.cst8   0x0000000000000000       0x20 /home/berkeley/nacl_sdk/pepper_42/toolchain/linux_x86_newlib/bin/../lib/gcc/x86_64-nacl/4.4.3/../../../../x86_64-nacl/lib/../lib64/libcrt_common.a(lib_a-vfprintf.o)
 .rodata.cst16  0x0000000000000000       0x10 /home/berkeley/nacl_sdk/pepper_42/toolchain/linux_x86_newlib/bin/../lib/gcc/x86_64-nacl/4.4.3/../../../../x86_64-nacl/lib/../lib64/libcrt_common.a(lib_a-vfprintf.o)
 .rodata.str1.1
                0x0000000010024250        0xd /home/berkeley/nacl_sdk/pepper_42/toolchain/linux_x86_newlib/bin/../lib/gcc/x86_64-nacl/4.4.3/../../../../x86_64-nacl/lib/../lib64/libcrt_common.a(lib_a-dtoa.o)
                                          0xf (size before relaxing)
 *fill*         0x000000001002425d        0x3 
 .rodata.cst8   0x0000000010024260       0x40 /home/berkeley/nacl_sdk/pepper_42/toolchain/linux_x86_newlib/bin/../lib/gcc/x86_64-nacl/4.4.3/../../../../x86_64-nacl/lib/../lib64/libcrt_common.a(lib_a-dtoa.o)
                                         0x48 (size before relaxing)
 .rodata.cst16  0x0000000000000000       0x10 /home/berkeley/nacl_sdk/pepper_42/toolchain/linux_x86_newlib/bin/../lib/gcc/x86_64-nacl/4.4.3/../../../../x86_64-nacl/lib/../lib64/libcrt_common.a(lib_a-dtoa.o)
 .rodata.str1.1
                0x00000000100242a0       0xe6 /home/berkeley/nacl_sdk/pepper_42/toolchain/linux_x86_newlib/bin/../lib/gcc/x86_64-nacl/4.4.3/../../../../x86_64-nacl/lib/../lib64/libcrt_common.a(lib_a-locale.o)
                                         0xf4 (size before relaxing)
 *fill*         0x0000000010024386        0xa 
 .rodata        0x0000000010024390      0x1cc /home/berkeley/nacl_sdk/pepper_42/toolchain/linux_x86_newlib/bin/../lib/gcc/x86_64-nacl/4.4.3/../../../../x86_64-nacl/lib/../lib64/libcrt_common.a(lib_a-locale.o)
 *fill*         0x000000001002455c        0x4 
 .rodata        0x0000000010024560      0x280 /home/berkeley/nacl_sdk/pepper_42/toolchain/linux_x86_newlib/bin/../lib/gcc/x86_64-nacl/4.4.3/../../../../x86_64-nacl/lib/../lib64/libcrt_common.a(lib_a-mbtowc_r.o)
 .rodata        0x00000000100247e0      0x154 /home/berkeley/nacl_sdk/pepper_42/toolchain/linux_x86_newlib/bin/../lib/gcc/x86_64-nacl/4.4.3/../../../../x86_64-nacl/lib/../lib64/libcrt_common.a(lib_a-mprec.o)
                0x00000000100247e0                __mprec_tens
                0x00000000100248c0                __mprec_bigtens
                0x0000000010024900                __mprec_tinytens
 .rodata.cst8   0x0000000000000000       0x10 /home/berkeley/nacl_sdk/pepper_42/toolchain/linux_x86_newlib/bin/../lib/gcc/x86_64-nacl/4.4.3/../../../../x86_64-nacl/lib/../lib64/libcrt_common.a(lib_a-mprec.o)
 *fill*         0x0000000010024934        0x4 
 .rodata.cst8   0x0000000010024938        0x8 /home/berkeley/nacl_sdk/pepper_42/toolchain/linux_x86_newlib/bin/../lib/gcc/x86_64-nacl/4.4.3/../../../../x86_64-nacl/lib/../lib64/libcrt_common.a(lib_a-s_frexp.o)
 .rodata.str1.1
                0x0000000000000000       0x29 /home/berkeley/nacl_sdk/pepper_42/toolchain/linux_x86_newlib/bin/../lib/gcc/x86_64-nacl/4.4.3/../../../../x86_64-nacl/lib/../lib64/libcrt_common.a(lib_a-svfiprintf.o)
 .rodata        0x0000000010024940      0x300 /home/berkeley/nacl_sdk/pepper_42/toolchain/linux_x86_newlib/bin/../lib/gcc/x86_64-nacl/4.4.3/../../../../x86_64-nacl/lib/../lib64/libcrt_common.a(lib_a-svfiprintf.o)
 .rodata.str1.1
                0x0000000000000000       0x29 /home/berkeley/nacl_sdk/pepper_42/toolchain/linux_x86_newlib/bin/../lib/gcc/x86_64-nacl/4.4.3/../../../../x86_64-nacl/lib/../lib64/libcrt_common.a(lib_a-vfiprintf.o)
 .rodata        0x0000000010024c40      0x300 /home/berkeley/nacl_sdk/pepper_42/toolchain/linux_x86_newlib/bin/../lib/gcc/x86_64-nacl/4.4.3/../../../../x86_64-nacl/lib/../lib64/libcrt_common.a(lib_a-vfiprintf.o)
 .rodata        0x0000000010024f40      0x2a0 /home/berkeley/nacl_sdk/pepper_42/toolchain/linux_x86_newlib/bin/../lib/gcc/x86_64-nacl/4.4.3/../../../../x86_64-nacl/lib/../lib64/libcrt_common.a(lib_a-ctype_.o)
                0x0000000010024f40                _ctype_
 .rodata.str1.1
                0x00000000100251e0       0x16 /home/berkeley/nacl_sdk/pepper_42/toolchain/linux_x86_newlib/bin/../lib/gcc/x86_64-nacl/4.4.3/../../../../x86_64-nacl/lib/../lib64/libnacl.a(nacl_irt_fdio_b571b5e7.o)
                                         0x3e (size before relaxing)

.rodata1
 *(.rodata1)

.eh_frame_hdr   0x00000000100251f8     0x2034
 *(.eh_frame_hdr)
 .eh_frame_hdr  0x00000000100251f8     0x2034 newlib/Release/popcnt_x86_64.o

.eh_frame       0x0000000010027230     0x74a4
 *(.eh_frame)
 .eh_frame      0x0000000010027230        0x0 /home/berkeley/nacl_sdk/pepper_42/toolchain/linux_x86_newlib/bin/../lib/gcc/x86_64-nacl/4.4.3/crtbegin.o
 .eh_frame      0x0000000010027230      0x120 newlib/Release/popcnt_x86_64.o
                                        0x110 (size before relaxing)
 .eh_frame      0x0000000010027350      0x490 /home/berkeley/nacl_sdk/pepper_42/lib/newlib_x86_64/Release/libppapi_cpp.a(instance_x86_64.o)
                                        0x460 (size before relaxing)
 .eh_frame      0x00000000100277e0      0x408 /home/berkeley/nacl_sdk/pepper_42/lib/newlib_x86_64/Release/libppapi_cpp.a(module_x86_64.o)
 .eh_frame      0x0000000010027be8       0x80 /home/berkeley/nacl_sdk/pepper_42/lib/newlib_x86_64/Release/libppapi_cpp.a(ppp_entrypoints_x86_64.o)
                                         0x88 (size before relaxing)
 .eh_frame      0x0000000010027c68      0x180 /home/berkeley/nacl_sdk/pepper_42/lib/newlib_x86_64/Release/libppapi_cpp.a(resource_x86_64.o)
                                        0x178 (size before relaxing)
 .eh_frame      0x0000000010027de8      0x200 /home/berkeley/nacl_sdk/pepper_42/lib/newlib_x86_64/Release/libppapi_cpp.a(url_loader_x86_64.o)
                                        0x248 (size before relaxing)
 .eh_frame      0x0000000010027fe8       0xd8 /home/berkeley/nacl_sdk/pepper_42/lib/newlib_x86_64/Release/libppapi_cpp.a(url_response_info_x86_64.o)
                                        0x138 (size before relaxing)
 .eh_frame      0x00000000100280c0      0x3b0 /home/berkeley/nacl_sdk/pepper_42/lib/newlib_x86_64/Release/libppapi_cpp.a(var_x86_64.o)
                                        0x3a0 (size before relaxing)
 .eh_frame      0x0000000010028470      0x190 /home/berkeley/nacl_sdk/pepper_42/lib/newlib_x86_64/Release/libppapi_cpp.a(view_x86_64.o)
                                        0x1d8 (size before relaxing)
 .eh_frame      0x0000000010028600       0x30 /home/berkeley/nacl_sdk/pepper_42/lib/newlib_x86_64/Release/libppapi_cpp.a(core_x86_64.o)
                                         0x48 (size before relaxing)
 .eh_frame      0x0000000010028630      0x280 /home/berkeley/nacl_sdk/pepper_42/lib/newlib_x86_64/Release/libppapi_cpp.a(file_ref_x86_64.o)
                                        0x2c8 (size before relaxing)
 .eh_frame      0x00000000100288b0      0x910 /home/berkeley/nacl_sdk/pepper_42/lib/newlib_x86_64/Release/libppapi_cpp.a(input_event_x86_64.o)
                                        0x8b8 (size before relaxing)
 .eh_frame      0x00000000100291c0       0x30 /home/berkeley/nacl_sdk/pepper_42/toolchain/linux_x86_newlib/bin/../lib/gcc/x86_64-nacl/4.4.3/../../../../x86_64-nacl/lib/../lib64/libppapi_stub.a(plugin_main_irt_21ce9d26.o)
 .eh_frame      0x00000000100291f0       0x18 /home/berkeley/nacl_sdk/pepper_42/toolchain/linux_x86_newlib/bin/../lib/gcc/x86_64-nacl/4.4.3/../../../../x86_64-nacl/lib/../lib64/libppapi_stub.a(ppapi_plugin_main_399d0cf7.o)
                                         0x30 (size before relaxing)
 .eh_frame      0x0000000010029208       0x38 /home/berkeley/nacl_sdk/pepper_42/toolchain/linux_x86_newlib/bin/../lib/gcc/x86_64-nacl/4.4.3/../../../../x86_64-nacl/lib/../lib64/libppapi_stub.a(ppapi_plugin_start_8da67623.o)
                                         0x50 (size before relaxing)
 .eh_frame      0x0000000010029240       0x48 /home/berkeley/nacl_sdk/pepper_42/toolchain/linux_x86_newlib/bin/../lib/gcc/x86_64-nacl/4.4.3/../../../../x86_64-nacl/lib/../lib64/libppapi_stub.a(thread_creator_ccf263e1.o)
                                         0x58 (size before relaxing)
 .eh_frame      0x0000000010029288      0x430 /home/berkeley/nacl_sdk/pepper_42/toolchain/linux_x86_newlib/bin/../lib/gcc/x86_64-nacl/4.4.3/../../../../x86_64-nacl/lib/../lib64/libpthread.a(nc_thread_7e478b15.o)
                                        0x3c8 (size before relaxing)
 .eh_frame      0x00000000100296b8       0xb0 /home/berkeley/nacl_sdk/pepper_42/toolchain/linux_x86_newlib/bin/../lib/gcc/x86_64-nacl/4.4.3/../../../../x86_64-nacl/lib/../lib64/libpthread.a(nc_condvar_305aa45a.o)
 .eh_frame      0x0000000010029768      0x390 /home/berkeley/nacl_sdk/pepper_42/toolchain/linux_x86_newlib/bin/../lib/gcc/x86_64-nacl/4.4.3/../../../../x86_64-nacl/lib/../lib64/libpthread.a(dynamic_annotations_33ba59cc.o)
                                        0x310 (size before relaxing)
 .eh_frame      0x0000000010029af8      0x150 /home/berkeley/nacl_sdk/pepper_42/toolchain/linux_x86_newlib/bin/../lib/gcc/x86_64-nacl/4.4.3/../../../../x86_64-nacl/lib/../lib64/libpthread.a(nc_mutex_86341ae1.o)
                                        0x138 (size before relaxing)
 .eh_frame      0x0000000010029c48       0x18 /home/berkeley/nacl_sdk/pepper_42/toolchain/linux_x86_newlib/bin/../lib/gcc/x86_64-nacl/4.4.3/../../../../x86_64-nacl/lib/../lib64/libpthread.a(nc_init_irt_d3daafc0.o)
                                         0x30 (size before relaxing)
 .eh_frame      0x0000000010029c60       0xd8 /home/berkeley/nacl_sdk/pepper_42/toolchain/linux_x86_newlib/bin/../lib/gcc/x86_64-nacl/4.4.3/../../../../x86_64-nacl/lib/../lib64/libstdc++.a(tree.o)
                                         0xd0 (size before relaxing)
 .eh_frame      0x0000000010029d38     0x12f0 /home/berkeley/nacl_sdk/pepper_42/toolchain/linux_x86_newlib/bin/../lib/gcc/x86_64-nacl/4.4.3/../../../../x86_64-nacl/lib/../lib64/libstdc++.a(string-inst.o)
                                       0x1100 (size before relaxing)
 .eh_frame      0x000000001002b028      0x128 /home/berkeley/nacl_sdk/pepper_42/toolchain/linux_x86_newlib/bin/../lib/gcc/x86_64-nacl/4.4.3/../../../../x86_64-nacl/lib/../lib64/libstdc++.a(eh_personality.o)
                                        0x150 (size before relaxing)
 .eh_frame      0x000000001002b150       0x88 /home/berkeley/nacl_sdk/pepper_42/toolchain/linux_x86_newlib/bin/../lib/gcc/x86_64-nacl/4.4.3/../../../../x86_64-nacl/lib/../lib64/libstdc++.a(eh_globals.o)
                                         0xc0 (size before relaxing)
 .eh_frame      0x000000001002b1d8       0x48 /home/berkeley/nacl_sdk/pepper_42/toolchain/linux_x86_newlib/bin/../lib/gcc/x86_64-nacl/4.4.3/../../../../x86_64-nacl/lib/../lib64/libstdc++.a(eh_throw.o)
                                         0x68 (size before relaxing)
 .eh_frame      0x000000001002b220       0x18 /home/berkeley/nacl_sdk/pepper_42/toolchain/linux_x86_newlib/bin/../lib/gcc/x86_64-nacl/4.4.3/../../../../x86_64-nacl/lib/../lib64/libstdc++.a(del_op.o)
                                         0x30 (size before relaxing)
 .eh_frame      0x000000001002b238       0x18 /home/berkeley/nacl_sdk/pepper_42/toolchain/linux_x86_newlib/bin/../lib/gcc/x86_64-nacl/4.4.3/../../../../x86_64-nacl/lib/../lib64/libstdc++.a(eh_call.o)
                                         0x38 (size before relaxing)
 .eh_frame      0x000000001002b250      0x138 /home/berkeley/nacl_sdk/pepper_42/toolchain/linux_x86_newlib/bin/../lib/gcc/x86_64-nacl/4.4.3/../../../../x86_64-nacl/lib/../lib64/libstdc++.a(guard.o)
                                        0x130 (size before relaxing)
 .eh_frame      0x000000001002b388       0x98 /home/berkeley/nacl_sdk/pepper_42/toolchain/linux_x86_newlib/bin/../lib/gcc/x86_64-nacl/4.4.3/../../../../x86_64-nacl/lib/../lib64/libstdc++.a(si_class_type_info.o)
                                         0xa8 (size before relaxing)
 .eh_frame      0x000000001002b420       0x90 /home/berkeley/nacl_sdk/pepper_42/toolchain/linux_x86_newlib/bin/../lib/gcc/x86_64-nacl/4.4.3/../../../../x86_64-nacl/lib/../lib64/libstdc++.a(eh_terminate.o)
                                         0xb8 (size before relaxing)
 .eh_frame      0x000000001002b4b0       0xc8 /home/berkeley/nacl_sdk/pepper_42/toolchain/linux_x86_newlib/bin/../lib/gcc/x86_64-nacl/4.4.3/../../../../x86_64-nacl/lib/../lib64/libstdc++.a(class_type_info.o)
 .eh_frame      0x000000001002b578       0x90 /home/berkeley/nacl_sdk/pepper_42/toolchain/linux_x86_newlib/bin/../lib/gcc/x86_64-nacl/4.4.3/../../../../x86_64-nacl/lib/../lib64/libstdc++.a(eh_alloc.o)
                                        0x138 (size before relaxing)
 .eh_frame      0x000000001002b608       0x68 /home/berkeley/nacl_sdk/pepper_42/toolchain/linux_x86_newlib/bin/../lib/gcc/x86_64-nacl/4.4.3/../../../../x86_64-nacl/lib/../lib64/libstdc++.a(eh_catch.o)
                                         0x98 (size before relaxing)
 .eh_frame      0x000000001002b670      0x150 /home/berkeley/nacl_sdk/pepper_42/toolchain/linux_x86_newlib/bin/../lib/gcc/x86_64-nacl/4.4.3/../../../../x86_64-nacl/lib/../lib64/libstdc++.a(eh_exception.o)
                                        0x138 (size before relaxing)
 .eh_frame      0x000000001002b7c0       0x18 /home/berkeley/nacl_sdk/pepper_42/toolchain/linux_x86_newlib/bin/../lib/gcc/x86_64-nacl/4.4.3/../../../../x86_64-nacl/lib/../lib64/libstdc++.a(pure.o)
                                         0x30 (size before relaxing)
 .eh_frame      0x000000001002b7d8       0x20 /home/berkeley/nacl_sdk/pepper_42/toolchain/linux_x86_newlib/bin/../lib/gcc/x86_64-nacl/4.4.3/../../../../x86_64-nacl/lib/../lib64/libstdc++.a(new_op.o)
                                         0x40 (size before relaxing)
 .eh_frame      0x000000001002b7f8       0xa8 /home/berkeley/nacl_sdk/pepper_42/toolchain/linux_x86_newlib/bin/../lib/gcc/x86_64-nacl/4.4.3/../../../../x86_64-nacl/lib/../lib64/libstdc++.a(tinfo.o)
 .eh_frame      0x000000001002b8a0      0x360 /home/berkeley/nacl_sdk/pepper_42/toolchain/linux_x86_newlib/bin/../lib/gcc/x86_64-nacl/4.4.3/../../../../x86_64-nacl/lib/../lib64/libstdc++.a(functexcept.o)
                                        0x348 (size before relaxing)
 .eh_frame      0x000000001002bc00       0xb8 /home/berkeley/nacl_sdk/pepper_42/toolchain/linux_x86_newlib/bin/../lib/gcc/x86_64-nacl/4.4.3/../../../../x86_64-nacl/lib/../lib64/libstdc++.a(ios_failure.o)
                                         0xe8 (size before relaxing)
 .eh_frame      0x000000001002bcb8      0x2c0 /home/berkeley/nacl_sdk/pepper_42/toolchain/linux_x86_newlib/bin/../lib/gcc/x86_64-nacl/4.4.3/../../../../x86_64-nacl/lib/../lib64/libstdc++.a(stdexcept.o)
                                        0x410 (size before relaxing)
 .eh_frame      0x000000001002bf78      0x1f0 /home/berkeley/nacl_sdk/pepper_42/toolchain/linux_x86_newlib/bin/../lib/gcc/x86_64-nacl/4.4.3/../../../../x86_64-nacl/lib/../lib64/libstdc++.a(system_error.o)
 .eh_frame      0x000000001002c168       0x60 /home/berkeley/nacl_sdk/pepper_42/toolchain/linux_x86_newlib/bin/../lib/gcc/x86_64-nacl/4.4.3/../../../../x86_64-nacl/lib/../lib64/libstdc++.a(bad_typeid.o)
                                         0x70 (size before relaxing)
 .eh_frame      0x000000001002c1c8       0x78 /home/berkeley/nacl_sdk/pepper_42/toolchain/linux_x86_newlib/bin/../lib/gcc/x86_64-nacl/4.4.3/../../../../x86_64-nacl/lib/../lib64/libstdc++.a(new_handler.o)
                                         0x88 (size before relaxing)
 .eh_frame      0x000000001002c240       0x60 /home/berkeley/nacl_sdk/pepper_42/toolchain/linux_x86_newlib/bin/../lib/gcc/x86_64-nacl/4.4.3/../../../../x86_64-nacl/lib/../lib64/libstdc++.a(bad_cast.o)
                                         0x70 (size before relaxing)
 .eh_frame      0x000000001002c2a0       0x20 /home/berkeley/nacl_sdk/pepper_42/toolchain/linux_x86_newlib/bin/../lib/gcc/x86_64-nacl/4.4.3/../../../../x86_64-nacl/lib/../lib64/libstdc++.a(vterminate.o)
                                         0x40 (size before relaxing)
 .eh_frame      0x000000001002c2c0      0x488 /home/berkeley/nacl_sdk/pepper_42/toolchain/linux_x86_newlib/bin/../lib/gcc/x86_64-nacl/4.4.3/../../../../x86_64-nacl/lib/../lib64/libstdc++.a(cp-demangle.o)
                                        0x458 (size before relaxing)
 .eh_frame      0x000000001002c748       0x18 /home/berkeley/nacl_sdk/pepper_42/toolchain/linux_x86_newlib/bin/../lib/gcc/x86_64-nacl/4.4.3/../../../../x86_64-nacl/lib/../lib64/libstdc++.a(eh_type.o)
                                         0x30 (size before relaxing)
 .eh_frame      0x000000001002c760      0x3e0 /home/berkeley/nacl_sdk/pepper_42/toolchain/linux_x86_newlib/bin/../lib/gcc/x86_64-nacl/4.4.3/libgcc.a(unwind-dw2.o)
                                        0x3a0 (size before relaxing)
 .eh_frame      0x000000001002cb40      0x2f0 /home/berkeley/nacl_sdk/pepper_42/toolchain/linux_x86_newlib/bin/../lib/gcc/x86_64-nacl/4.4.3/libgcc.a(unwind-dw2-fde-glibc.o)
                                        0x2c8 (size before relaxing)
 .eh_frame      0x000000001002ce30       0x18 /home/berkeley/nacl_sdk/pepper_42/toolchain/linux_x86_newlib/bin/../lib/gcc/x86_64-nacl/4.4.3/../../../../x86_64-nacl/lib/../lib64/libnacl.a(_exit_710c7d0d.o)
                                         0x30 (size before relaxing)
 .eh_frame      0x000000001002ce48       0x18 /home/berkeley/nacl_sdk/pepper_42/toolchain/linux_x86_newlib/bin/../lib/gcc/x86_64-nacl/4.4.3/../../../../x86_64-nacl/lib/../lib64/libnacl.a(abort_9f6b5845.o)
                                         0x30 (size before relaxing)
 .eh_frame      0x000000001002ce60       0x20 /home/berkeley/nacl_sdk/pepper_42/toolchain/linux_x86_newlib/bin/../lib/gcc/x86_64-nacl/4.4.3/../../../../x86_64-nacl/lib/../lib64/libnacl.a(start_fa9ef7de.o)
                                         0x38 (size before relaxing)
 .eh_frame      0x000000001002ce80      0x3c8 /home/berkeley/nacl_sdk/pepper_42/toolchain/linux_x86_newlib/bin/../lib/gcc/x86_64-nacl/4.4.3/../../../../x86_64-nacl/lib/../lib64/libnacl.a(malloc_222c4a1e.o)
                                        0x388 (size before relaxing)
 .eh_frame      0x000000001002d248      0x128 /home/berkeley/nacl_sdk/pepper_42/toolchain/linux_x86_newlib/bin/../lib/gcc/x86_64-nacl/4.4.3/../../../../x86_64-nacl/lib/../lib64/libnacl.a(nacl_irt_6de1d53f.o)
                                        0x118 (size before relaxing)
 .eh_frame      0x000000001002d370       0x18 /home/berkeley/nacl_sdk/pepper_42/toolchain/linux_x86_newlib/bin/../lib/gcc/x86_64-nacl/4.4.3/../../../../x86_64-nacl/lib/../lib64/libnacl.a(pthread_initialize_minimal_4b6e776b.o)
                                         0x30 (size before relaxing)
 .eh_frame      0x000000001002d388       0x18 /home/berkeley/nacl_sdk/pepper_42/toolchain/linux_x86_newlib/bin/../lib/gcc/x86_64-nacl/4.4.3/../../../../x86_64-nacl/lib/../lib64/libnacl.a(nacl_read_tp_5748ac47.o)
                                         0x30 (size before relaxing)
 .eh_frame      0x000000001002d3a0       0x18 /home/berkeley/nacl_sdk/pepper_42/toolchain/linux_x86_newlib/bin/../lib/gcc/x86_64-nacl/4.4.3/../../../../x86_64-nacl/lib/../lib64/libnacl.a(nacl_add_tp_7312c7c4.o)
                                         0x30 (size before relaxing)
 .eh_frame      0x000000001002d3b8       0x20 /home/berkeley/nacl_sdk/pepper_42/toolchain/linux_x86_newlib/bin/../lib/gcc/x86_64-nacl/4.4.3/../../../../x86_64-nacl/lib/../lib64/libnacl.a(mmap_767fb080.o)
                                         0x38 (size before relaxing)
 .eh_frame      0x000000001002d3d8       0x18 /home/berkeley/nacl_sdk/pepper_42/toolchain/linux_x86_newlib/bin/../lib/gcc/x86_64-nacl/4.4.3/../../../../x86_64-nacl/lib/../lib64/libnacl.a(sched_yield_56c375be.o)
                                         0x30 (size before relaxing)
 .eh_frame      0x000000001002d3f0       0x18 /home/berkeley/nacl_sdk/pepper_42/toolchain/linux_x86_newlib/bin/../lib/gcc/x86_64-nacl/4.4.3/../../../../x86_64-nacl/lib/../lib64/libnacl.a(munmap_d4f09867.o)
                                         0x30 (size before relaxing)
 .eh_frame      0x000000001002d408       0x50 /home/berkeley/nacl_sdk/pepper_42/toolchain/linux_x86_newlib/bin/../lib/gcc/x86_64-nacl/4.4.3/../../../../x86_64-nacl/lib/../lib64/libnacl.a(tls_bba1975b.o)
                                         0x68 (size before relaxing)
 .eh_frame      0x000000001002d458       0x20 /home/berkeley/nacl_sdk/pepper_42/toolchain/linux_x86_newlib/bin/../lib/gcc/x86_64-nacl/4.4.3/../../../../x86_64-nacl/lib/../lib64/libnacl.a(write_fb49787f.o)
                                         0x38 (size before relaxing)
 .eh_frame      0x000000001002d478       0x18 /home/berkeley/nacl_sdk/pepper_42/toolchain/linux_x86_newlib/bin/../lib/gcc/x86_64-nacl/4.4.3/../../../../x86_64-nacl/lib/../lib64/libnacl.a(nacl_tls_get_d2f842b5.o)
                                         0x30 (size before relaxing)
 .eh_frame      0x000000001002d490       0x38 /home/berkeley/nacl_sdk/pepper_42/toolchain/linux_x86_newlib/bin/../lib/gcc/x86_64-nacl/4.4.3/../../../../x86_64-nacl/lib/../lib64/libnacl.a(nacl_irt_init_7b4f826e.o)
                                         0x48 (size before relaxing)
 .eh_frame      0x000000001002d4c8       0x20 /home/berkeley/nacl_sdk/pepper_42/toolchain/linux_x86_newlib/bin/../lib/gcc/x86_64-nacl/4.4.3/../../../../x86_64-nacl/lib/../lib64/libnacl.a(sysconf_ad295ea2.o)
                                         0x38 (size before relaxing)
 .eh_frame      0x000000001002d4e8       0x18 /home/berkeley/nacl_sdk/pepper_42/toolchain/linux_x86_newlib/bin/../lib/gcc/x86_64-nacl/4.4.3/../../../../x86_64-nacl/lib/../lib64/libnacl.a(nacl_tls_init_eb0cd232.o)
                                         0x30 (size before relaxing)
 .eh_frame      0x000000001002d500       0x18 /home/berkeley/nacl_sdk/pepper_42/toolchain/linux_x86_newlib/bin/../lib/gcc/x86_64-nacl/4.4.3/../../../../x86_64-nacl/lib/../lib64/libcrt_common.a(lib_a-atexit.o)
                                         0x30 (size before relaxing)
 .eh_frame      0x000000001002d518       0x18 /home/berkeley/nacl_sdk/pepper_42/toolchain/linux_x86_newlib/bin/../lib/gcc/x86_64-nacl/4.4.3/../../../../x86_64-nacl/lib/../lib64/libcrt_common.a(lib_a-cxa_atexit.o)
                                         0x30 (size before relaxing)
 .eh_frame      0x000000001002d530       0x18 /home/berkeley/nacl_sdk/pepper_42/toolchain/linux_x86_newlib/bin/../lib/gcc/x86_64-nacl/4.4.3/../../../../x86_64-nacl/lib/../lib64/libcrt_common.a(lib_a-errno.o)
                                         0x30 (size before relaxing)
 .eh_frame      0x000000001002d548       0x18 /home/berkeley/nacl_sdk/pepper_42/toolchain/linux_x86_newlib/bin/../lib/gcc/x86_64-nacl/4.4.3/../../../../x86_64-nacl/lib/../lib64/libcrt_common.a(lib_a-exit.o)
                                         0x30 (size before relaxing)
 .eh_frame      0x000000001002d560       0x20 /home/berkeley/nacl_sdk/pepper_42/toolchain/linux_x86_newlib/bin/../lib/gcc/x86_64-nacl/4.4.3/../../../../x86_64-nacl/lib/../lib64/libcrt_common.a(lib_a-fini.o)
                                         0x38 (size before relaxing)
 .eh_frame      0x000000001002d580       0x38 /home/berkeley/nacl_sdk/pepper_42/toolchain/linux_x86_newlib/bin/../lib/gcc/x86_64-nacl/4.4.3/../../../../x86_64-nacl/lib/../lib64/libcrt_common.a(lib_a-fprintf.o)
                                         0x50 (size before relaxing)
 .eh_frame      0x000000001002d5b8       0x40 /home/berkeley/nacl_sdk/pepper_42/toolchain/linux_x86_newlib/bin/../lib/gcc/x86_64-nacl/4.4.3/../../../../x86_64-nacl/lib/../lib64/libcrt_common.a(lib_a-fputc.o)
                                         0x58 (size before relaxing)
 .eh_frame      0x000000001002d5f8       0x40 /home/berkeley/nacl_sdk/pepper_42/toolchain/linux_x86_newlib/bin/../lib/gcc/x86_64-nacl/4.4.3/../../../../x86_64-nacl/lib/../lib64/libcrt_common.a(lib_a-fputs.o)
                                         0x58 (size before relaxing)
 .eh_frame      0x000000001002d638       0x30 /home/berkeley/nacl_sdk/pepper_42/toolchain/linux_x86_newlib/bin/../lib/gcc/x86_64-nacl/4.4.3/../../../../x86_64-nacl/lib/../lib64/libcrt_common.a(lib_a-fvwrite.o)
                                         0x48 (size before relaxing)
 .eh_frame      0x000000001002d668       0x40 /home/berkeley/nacl_sdk/pepper_42/toolchain/linux_x86_newlib/bin/../lib/gcc/x86_64-nacl/4.4.3/../../../../x86_64-nacl/lib/../lib64/libcrt_common.a(lib_a-fwrite.o)
                                         0x58 (size before relaxing)
 .eh_frame      0x000000001002d6a8       0x40 /home/berkeley/nacl_sdk/pepper_42/toolchain/linux_x86_newlib/bin/../lib/gcc/x86_64-nacl/4.4.3/../../../../x86_64-nacl/lib/../lib64/libcrt_common.a(lib_a-getenv.o)
                                         0x50 (size before relaxing)
 .eh_frame      0x000000001002d6e8       0x48 /home/berkeley/nacl_sdk/pepper_42/toolchain/linux_x86_newlib/bin/../lib/gcc/x86_64-nacl/4.4.3/../../../../x86_64-nacl/lib/../lib64/libcrt_common.a(lib_a-getenv_r.o)
                                         0x58 (size before relaxing)
 .eh_frame      0x000000001002d730       0x30 /home/berkeley/nacl_sdk/pepper_42/toolchain/linux_x86_newlib/bin/../lib/gcc/x86_64-nacl/4.4.3/../../../../x86_64-nacl/lib/../lib64/libcrt_common.a(lib_a-impure.o)
                                         0x48 (size before relaxing)
 .eh_frame      0x000000001002d760       0x20 /home/berkeley/nacl_sdk/pepper_42/toolchain/linux_x86_newlib/bin/../lib/gcc/x86_64-nacl/4.4.3/../../../../x86_64-nacl/lib/../lib64/libcrt_common.a(lib_a-init.o)
                                         0x38 (size before relaxing)
 .eh_frame      0x000000001002d780       0x18 /home/berkeley/nacl_sdk/pepper_42/toolchain/linux_x86_newlib/bin/../lib/gcc/x86_64-nacl/4.4.3/../../../../x86_64-nacl/lib/../lib64/libcrt_common.a(lib_a-memchr.o)
                                         0x30 (size before relaxing)
 .eh_frame      0x000000001002d798       0x18 /home/berkeley/nacl_sdk/pepper_42/toolchain/linux_x86_newlib/bin/../lib/gcc/x86_64-nacl/4.4.3/../../../../x86_64-nacl/lib/../lib64/libcrt_common.a(lib_a-memmove.o)
                                         0x30 (size before relaxing)
 .eh_frame      0x000000001002d7b0       0x40 /home/berkeley/nacl_sdk/pepper_42/toolchain/linux_x86_newlib/bin/../lib/gcc/x86_64-nacl/4.4.3/../../../../x86_64-nacl/lib/../lib64/libcrt_common.a(lib_a-putc.o)
                                         0x50 (size before relaxing)
 .eh_frame      0x000000001002d7f0       0x48 /home/berkeley/nacl_sdk/pepper_42/toolchain/linux_x86_newlib/bin/../lib/gcc/x86_64-nacl/4.4.3/../../../../x86_64-nacl/lib/../lib64/libcrt_common.a(lib_a-snprintf.o)
                                         0x60 (size before relaxing)
 .eh_frame      0x000000001002d838       0x38 /home/berkeley/nacl_sdk/pepper_42/toolchain/linux_x86_newlib/bin/../lib/gcc/x86_64-nacl/4.4.3/../../../../x86_64-nacl/lib/../lib64/libcrt_common.a(lib_a-sprintf.o)
                                         0x50 (size before relaxing)
 .eh_frame      0x000000001002d870       0x18 /home/berkeley/nacl_sdk/pepper_42/toolchain/linux_x86_newlib/bin/../lib/gcc/x86_64-nacl/4.4.3/../../../../x86_64-nacl/lib/../lib64/libcrt_common.a(lib_a-strcpy.o)
                                         0x30 (size before relaxing)
 .eh_frame      0x000000001002d888       0x30 /home/berkeley/nacl_sdk/pepper_42/toolchain/linux_x86_newlib/bin/../lib/gcc/x86_64-nacl/4.4.3/../../../../x86_64-nacl/lib/../lib64/libcrt_common.a(lib_a-strerror.o)
                                         0x48 (size before relaxing)
 .eh_frame      0x000000001002d8b8       0x18 /home/berkeley/nacl_sdk/pepper_42/toolchain/linux_x86_newlib/bin/../lib/gcc/x86_64-nacl/4.4.3/../../../../x86_64-nacl/lib/../lib64/libcrt_common.a(lib_a-strlen.o)
                                         0x30 (size before relaxing)
 .eh_frame      0x000000001002d8d0       0x18 /home/berkeley/nacl_sdk/pepper_42/toolchain/linux_x86_newlib/bin/../lib/gcc/x86_64-nacl/4.4.3/../../../../x86_64-nacl/lib/../lib64/libcrt_common.a(lib_a-strncmp.o)
                                         0x30 (size before relaxing)
 .eh_frame      0x000000001002d8e8       0x30 /home/berkeley/nacl_sdk/pepper_42/toolchain/linux_x86_newlib/bin/../lib/gcc/x86_64-nacl/4.4.3/../../../../x86_64-nacl/lib/../lib64/libcrt_common.a(lib_a-svfprintf.o)
                                         0x48 (size before relaxing)
 .eh_frame      0x000000001002d918       0x18 /home/berkeley/nacl_sdk/pepper_42/toolchain/linux_x86_newlib/bin/../lib/gcc/x86_64-nacl/4.4.3/../../../../x86_64-nacl/lib/../lib64/libcrt_common.a(lib_a-u_strerr.o)
                                         0x30 (size before relaxing)
 .eh_frame      0x000000001002d930       0x70 /home/berkeley/nacl_sdk/pepper_42/toolchain/linux_x86_newlib/bin/../lib/gcc/x86_64-nacl/4.4.3/../../../../x86_64-nacl/lib/../lib64/libcrt_common.a(lib_a-vfprintf.o)
                                         0x80 (size before relaxing)
 .eh_frame      0x000000001002d9a0       0x40 /home/berkeley/nacl_sdk/pepper_42/toolchain/linux_x86_newlib/bin/../lib/gcc/x86_64-nacl/4.4.3/../../../../x86_64-nacl/lib/../lib64/libcrt_common.a(lib_a-wbuf.o)
                                         0x58 (size before relaxing)
 .eh_frame      0x000000001002d9e0       0x40 /home/berkeley/nacl_sdk/pepper_42/toolchain/linux_x86_newlib/bin/../lib/gcc/x86_64-nacl/4.4.3/../../../../x86_64-nacl/lib/../lib64/libcrt_common.a(lib_a-wcrtomb.o)
                                         0x58 (size before relaxing)
 .eh_frame      0x000000001002da20       0x38 /home/berkeley/nacl_sdk/pepper_42/toolchain/linux_x86_newlib/bin/../lib/gcc/x86_64-nacl/4.4.3/../../../../x86_64-nacl/lib/../lib64/libcrt_common.a(lib_a-wcsrtombs.o)
                                         0x50 (size before relaxing)
 .eh_frame      0x000000001002da58       0x98 /home/berkeley/nacl_sdk/pepper_42/toolchain/linux_x86_newlib/bin/../lib/gcc/x86_64-nacl/4.4.3/../../../../x86_64-nacl/lib/../lib64/libcrt_common.a(lib_a-wctomb_r.o)
                                         0xa0 (size before relaxing)
 .eh_frame      0x000000001002daf0       0x20 /home/berkeley/nacl_sdk/pepper_42/toolchain/linux_x86_newlib/bin/../lib/gcc/x86_64-nacl/4.4.3/../../../../x86_64-nacl/lib/../lib64/libcrt_common.a(lib_a-wsetup.o)
                                         0x38 (size before relaxing)
 .eh_frame      0x000000001002db10       0x20 /home/berkeley/nacl_sdk/pepper_42/toolchain/linux_x86_newlib/bin/../lib/gcc/x86_64-nacl/4.4.3/../../../../x86_64-nacl/lib/../lib64/libcrt_common.a(lib_a-__atexit.o)
                                         0x38 (size before relaxing)
 .eh_frame      0x000000001002db30       0x30 /home/berkeley/nacl_sdk/pepper_42/toolchain/linux_x86_newlib/bin/../lib/gcc/x86_64-nacl/4.4.3/../../../../x86_64-nacl/lib/../lib64/libcrt_common.a(lib_a-__call_atexit.o)
                                         0x48 (size before relaxing)
 .eh_frame      0x000000001002db60       0x60 /home/berkeley/nacl_sdk/pepper_42/toolchain/linux_x86_newlib/bin/../lib/gcc/x86_64-nacl/4.4.3/../../../../x86_64-nacl/lib/../lib64/libcrt_common.a(lib_a-dtoa.o)
                                         0x70 (size before relaxing)
 .eh_frame      0x000000001002dbc0       0x30 /home/berkeley/nacl_sdk/pepper_42/toolchain/linux_x86_newlib/bin/../lib/gcc/x86_64-nacl/4.4.3/../../../../x86_64-nacl/lib/../lib64/libcrt_common.a(lib_a-envlock.o)
                                         0x40 (size before relaxing)
 .eh_frame      0x000000001002dbf0       0x68 /home/berkeley/nacl_sdk/pepper_42/toolchain/linux_x86_newlib/bin/../lib/gcc/x86_64-nacl/4.4.3/../../../../x86_64-nacl/lib/../lib64/libcrt_common.a(lib_a-fflush.o)
                                         0x80 (size before relaxing)
 .eh_frame      0x000000001002dc58      0x170 /home/berkeley/nacl_sdk/pepper_42/toolchain/linux_x86_newlib/bin/../lib/gcc/x86_64-nacl/4.4.3/../../../../x86_64-nacl/lib/../lib64/libcrt_common.a(lib_a-findfp.o)
                                        0x158 (size before relaxing)
 .eh_frame      0x000000001002ddc8       0x60 /home/berkeley/nacl_sdk/pepper_42/toolchain/linux_x86_newlib/bin/../lib/gcc/x86_64-nacl/4.4.3/../../../../x86_64-nacl/lib/../lib64/libcrt_common.a(lib_a-fwalk.o)
                                         0x70 (size before relaxing)
 .eh_frame      0x000000001002de28      0x140 /home/berkeley/nacl_sdk/pepper_42/toolchain/linux_x86_newlib/bin/../lib/gcc/x86_64-nacl/4.4.3/../../../../x86_64-nacl/lib/../lib64/libcrt_common.a(lib_a-locale.o)
                                        0x138 (size before relaxing)
 .eh_frame      0x000000001002df68       0x20 /home/berkeley/nacl_sdk/pepper_42/toolchain/linux_x86_newlib/bin/../lib/gcc/x86_64-nacl/4.4.3/../../../../x86_64-nacl/lib/../lib64/libcrt_common.a(lib_a-makebuf.o)
                                         0x38 (size before relaxing)
 .eh_frame      0x000000001002df88       0xa0 /home/berkeley/nacl_sdk/pepper_42/toolchain/linux_x86_newlib/bin/../lib/gcc/x86_64-nacl/4.4.3/../../../../x86_64-nacl/lib/../lib64/libcrt_common.a(lib_a-mbtowc_r.o)
                                         0xa8 (size before relaxing)
 .eh_frame      0x000000001002e028      0x270 /home/berkeley/nacl_sdk/pepper_42/toolchain/linux_x86_newlib/bin/../lib/gcc/x86_64-nacl/4.4.3/../../../../x86_64-nacl/lib/../lib64/libcrt_common.a(lib_a-mprec.o)
                                        0x248 (size before relaxing)
 .eh_frame      0x000000001002e298       0x18 /home/berkeley/nacl_sdk/pepper_42/toolchain/linux_x86_newlib/bin/../lib/gcc/x86_64-nacl/4.4.3/../../../../x86_64-nacl/lib/../lib64/libcrt_common.a(lib_a-s_fpclassify.o)
                                         0x30 (size before relaxing)
 .eh_frame      0x000000001002e2b0       0x18 /home/berkeley/nacl_sdk/pepper_42/toolchain/linux_x86_newlib/bin/../lib/gcc/x86_64-nacl/4.4.3/../../../../x86_64-nacl/lib/../lib64/libcrt_common.a(lib_a-s_frexp.o)
                                         0x30 (size before relaxing)
 .eh_frame      0x000000001002e2c8       0x80 /home/berkeley/nacl_sdk/pepper_42/toolchain/linux_x86_newlib/bin/../lib/gcc/x86_64-nacl/4.4.3/../../../../x86_64-nacl/lib/../lib64/libcrt_common.a(lib_a-stdio.o)
                                         0x90 (size before relaxing)
 .eh_frame      0x000000001002e348       0x18 /home/berkeley/nacl_sdk/pepper_42/toolchain/linux_x86_newlib/bin/../lib/gcc/x86_64-nacl/4.4.3/../../../../x86_64-nacl/lib/../lib64/libcrt_common.a(lib_a-strcasecmp.o)
                                         0x30 (size before relaxing)
 .eh_frame      0x000000001002e360       0x18 /home/berkeley/nacl_sdk/pepper_42/toolchain/linux_x86_newlib/bin/../lib/gcc/x86_64-nacl/4.4.3/../../../../x86_64-nacl/lib/../lib64/libcrt_common.a(lib_a-strcat.o)
                                         0x30 (size before relaxing)
 .eh_frame      0x000000001002e378       0x18 /home/berkeley/nacl_sdk/pepper_42/toolchain/linux_x86_newlib/bin/../lib/gcc/x86_64-nacl/4.4.3/../../../../x86_64-nacl/lib/../lib64/libcrt_common.a(lib_a-strchr.o)
                                         0x30 (size before relaxing)
 .eh_frame      0x000000001002e390       0x18 /home/berkeley/nacl_sdk/pepper_42/toolchain/linux_x86_newlib/bin/../lib/gcc/x86_64-nacl/4.4.3/../../../../x86_64-nacl/lib/../lib64/libcrt_common.a(lib_a-strcmp.o)
                                         0x30 (size before relaxing)
 .eh_frame      0x000000001002e3a8       0x18 /home/berkeley/nacl_sdk/pepper_42/toolchain/linux_x86_newlib/bin/../lib/gcc/x86_64-nacl/4.4.3/../../../../x86_64-nacl/lib/../lib64/libcrt_common.a(lib_a-strlcpy.o)
                                         0x30 (size before relaxing)
 .eh_frame      0x000000001002e3c0       0x18 /home/berkeley/nacl_sdk/pepper_42/toolchain/linux_x86_newlib/bin/../lib/gcc/x86_64-nacl/4.4.3/../../../../x86_64-nacl/lib/../lib64/libcrt_common.a(lib_a-strncasecmp.o)
                                         0x30 (size before relaxing)
 .eh_frame      0x000000001002e3d8       0x18 /home/berkeley/nacl_sdk/pepper_42/toolchain/linux_x86_newlib/bin/../lib/gcc/x86_64-nacl/4.4.3/../../../../x86_64-nacl/lib/../lib64/libcrt_common.a(lib_a-strncpy.o)
                                         0x30 (size before relaxing)
 .eh_frame      0x000000001002e3f0       0x48 /home/berkeley/nacl_sdk/pepper_42/toolchain/linux_x86_newlib/bin/../lib/gcc/x86_64-nacl/4.4.3/../../../../x86_64-nacl/lib/../lib64/libcrt_common.a(lib_a-strtol.o)
                                         0x60 (size before relaxing)
 .eh_frame      0x000000001002e438       0x60 /home/berkeley/nacl_sdk/pepper_42/toolchain/linux_x86_newlib/bin/../lib/gcc/x86_64-nacl/4.4.3/../../../../x86_64-nacl/lib/../lib64/libcrt_common.a(lib_a-svfiprintf.o)
                                         0x70 (size before relaxing)
 .eh_frame      0x000000001002e498       0xa0 /home/berkeley/nacl_sdk/pepper_42/toolchain/linux_x86_newlib/bin/../lib/gcc/x86_64-nacl/4.4.3/../../../../x86_64-nacl/lib/../lib64/libcrt_common.a(lib_a-vfiprintf.o)
                                         0xb0 (size before relaxing)
 .eh_frame      0x000000001002e538       0x50 /home/berkeley/nacl_sdk/pepper_42/toolchain/linux_x86_newlib/bin/../lib/gcc/x86_64-nacl/4.4.3/../../../../x86_64-nacl/lib/../lib64/libcrt_common.a(lib_a-wcsnrtombs.o)
                                         0x68 (size before relaxing)
 .eh_frame      0x000000001002e588       0x18 /home/berkeley/nacl_sdk/pepper_42/toolchain/linux_x86_newlib/bin/../lib/gcc/x86_64-nacl/4.4.3/../../../../x86_64-nacl/lib/../lib64/libcrt_common.a(lib_a-ctype_.o)
                                         0x30 (size before relaxing)
 .eh_frame      0x000000001002e5a0       0x38 /home/berkeley/nacl_sdk/pepper_42/toolchain/linux_x86_newlib/bin/../lib/gcc/x86_64-nacl/4.4.3/../../../../x86_64-nacl/lib/../lib64/libcrt_common.a(lib_a-fclose.o)
                                         0x50 (size before relaxing)
 .eh_frame      0x000000001002e5d8       0x50 /home/berkeley/nacl_sdk/pepper_42/toolchain/linux_x86_newlib/bin/../lib/gcc/x86_64-nacl/4.4.3/../../../../x86_64-nacl/lib/../lib64/libcrt_common.a(lib_a-fputwc.o)
                                         0x60 (size before relaxing)
 .eh_frame      0x000000001002e628       0x18 /home/berkeley/nacl_sdk/pepper_42/toolchain/linux_x86_newlib/bin/../lib/gcc/x86_64-nacl/4.4.3/../../../../x86_64-nacl/lib/../lib64/libnacl.a(close_e9b92fbd.o)
                                         0x30 (size before relaxing)
 .eh_frame      0x000000001002e640       0x20 /home/berkeley/nacl_sdk/pepper_42/toolchain/linux_x86_newlib/bin/../lib/gcc/x86_64-nacl/4.4.3/../../../../x86_64-nacl/lib/../lib64/libnacl.a(isatty_02f56e94.o)
                                         0x38 (size before relaxing)
 .eh_frame      0x000000001002e660       0x18 /home/berkeley/nacl_sdk/pepper_42/toolchain/linux_x86_newlib/bin/../lib/gcc/x86_64-nacl/4.4.3/../../../../x86_64-nacl/lib/../lib64/libnacl.a(nacl_irt_fdio_b571b5e7.o)
                                         0x30 (size before relaxing)
 .eh_frame      0x000000001002e678       0x18 /home/berkeley/nacl_sdk/pepper_42/toolchain/linux_x86_newlib/bin/../lib/gcc/x86_64-nacl/4.4.3/../../../../x86_64-nacl/lib/../lib64/libnacl.a(fstat_0540ff63.o)
                                         0x30 (size before relaxing)
 .eh_frame      0x000000001002e690       0x20 /home/berkeley/nacl_sdk/pepper_42/toolchain/linux_x86_newlib/bin/../lib/gcc/x86_64-nacl/4.4.3/../../../../x86_64-nacl/lib/../lib64/libnacl.a(lseek_64d2d05c.o)
                                         0x38 (size before relaxing)
 .eh_frame      0x000000001002e6b0       0x20 /home/berkeley/nacl_sdk/pepper_42/toolchain/linux_x86_newlib/bin/../lib/gcc/x86_64-nacl/4.4.3/../../../../x86_64-nacl/lib/../lib64/libnacl.a(read_df872e10.o)
                                         0x38 (size before relaxing)
 .eh_frame      0x000000001002e6d0        0x4 /home/berkeley/nacl_sdk/pepper_42/toolchain/linux_x86_newlib/bin/../lib/gcc/x86_64-nacl/4.4.3/crtend.o

.gcc_except_table
                0x000000001002e6d4     0x1380
 *(.gcc_except_table .gcc_except_table.*)
 .gcc_except_table
                0x000000001002e6d4       0x3c newlib/Release/popcnt_x86_64.o
 .gcc_except_table
                0x000000001002e710      0x1f5 /home/berkeley/nacl_sdk/pepper_42/lib/newlib_x86_64/Release/libppapi_cpp.a(instance_x86_64.o)
 *fill*         0x000000001002e905        0x3 
 .gcc_except_table
                0x000000001002e908       0xff /home/berkeley/nacl_sdk/pepper_42/lib/newlib_x86_64/Release/libppapi_cpp.a(module_x86_64.o)
 .gcc_except_table
                0x000000001002ea07      0x110 /home/berkeley/nacl_sdk/pepper_42/lib/newlib_x86_64/Release/libppapi_cpp.a(url_loader_x86_64.o)
 .gcc_except_table
                0x000000001002eb17       0x3d /home/berkeley/nacl_sdk/pepper_42/lib/newlib_x86_64/Release/libppapi_cpp.a(url_response_info_x86_64.o)
 .gcc_except_table
                0x000000001002eb54      0x185 /home/berkeley/nacl_sdk/pepper_42/lib/newlib_x86_64/Release/libppapi_cpp.a(var_x86_64.o)
 .gcc_except_table
                0x000000001002ecd9      0x18f /home/berkeley/nacl_sdk/pepper_42/lib/newlib_x86_64/Release/libppapi_cpp.a(view_x86_64.o)
 .gcc_except_table
                0x000000001002ee68      0x270 /home/berkeley/nacl_sdk/pepper_42/lib/newlib_x86_64/Release/libppapi_cpp.a(file_ref_x86_64.o)
 .gcc_except_table
                0x000000001002f0d8      0x567 /home/berkeley/nacl_sdk/pepper_42/lib/newlib_x86_64/Release/libppapi_cpp.a(input_event_x86_64.o)
 .gcc_except_table._ZNSs4_Rep9_S_createEjjRKSaIcE
                0x000000001002f63f        0xe /home/berkeley/nacl_sdk/pepper_42/toolchain/linux_x86_newlib/bin/../lib/gcc/x86_64-nacl/4.4.3/../../../../x86_64-nacl/lib/../lib64/libstdc++.a(string-inst.o)
 .gcc_except_table._ZNSs7reserveEj
                0x000000001002f64d        0xe /home/berkeley/nacl_sdk/pepper_42/toolchain/linux_x86_newlib/bin/../lib/gcc/x86_64-nacl/4.4.3/../../../../x86_64-nacl/lib/../lib64/libstdc++.a(string-inst.o)
 .gcc_except_table._ZStplIcSt11char_traitsIcESaIcEESbIT_T0_T1_ES3_RKS6_
                0x000000001002f65b        0xe /home/berkeley/nacl_sdk/pepper_42/toolchain/linux_x86_newlib/bin/../lib/gcc/x86_64-nacl/4.4.3/../../../../x86_64-nacl/lib/../lib64/libstdc++.a(string-inst.o)
 .gcc_except_table._ZStplIcSt11char_traitsIcESaIcEESbIT_T0_T1_EPKS3_RKS6_
                0x000000001002f669        0xe /home/berkeley/nacl_sdk/pepper_42/toolchain/linux_x86_newlib/bin/../lib/gcc/x86_64-nacl/4.4.3/../../../../x86_64-nacl/lib/../lib64/libstdc++.a(string-inst.o)
 .gcc_except_table._ZNSsC1ERKSs
                0x000000001002f677        0xe /home/berkeley/nacl_sdk/pepper_42/toolchain/linux_x86_newlib/bin/../lib/gcc/x86_64-nacl/4.4.3/../../../../x86_64-nacl/lib/../lib64/libstdc++.a(string-inst.o)
 .gcc_except_table._ZStplIcSt11char_traitsIcESaIcEESbIT_T0_T1_ERKS6_S8_
                0x000000001002f685       0x11 /home/berkeley/nacl_sdk/pepper_42/toolchain/linux_x86_newlib/bin/../lib/gcc/x86_64-nacl/4.4.3/../../../../x86_64-nacl/lib/../lib64/libstdc++.a(string-inst.o)
 .gcc_except_table._ZNSsC2ERKSs
                0x000000001002f696        0xe /home/berkeley/nacl_sdk/pepper_42/toolchain/linux_x86_newlib/bin/../lib/gcc/x86_64-nacl/4.4.3/../../../../x86_64-nacl/lib/../lib64/libstdc++.a(string-inst.o)
 .gcc_except_table._ZNSs6assignERKSs
                0x000000001002f6a4        0xf /home/berkeley/nacl_sdk/pepper_42/toolchain/linux_x86_newlib/bin/../lib/gcc/x86_64-nacl/4.4.3/../../../../x86_64-nacl/lib/../lib64/libstdc++.a(string-inst.o)
 .gcc_except_table._ZNSsC1ERKSsjj
                0x000000001002f6b3        0xe /home/berkeley/nacl_sdk/pepper_42/toolchain/linux_x86_newlib/bin/../lib/gcc/x86_64-nacl/4.4.3/../../../../x86_64-nacl/lib/../lib64/libstdc++.a(string-inst.o)
 .gcc_except_table._ZNSsC2ERKSsjj
                0x000000001002f6c1        0xe /home/berkeley/nacl_sdk/pepper_42/toolchain/linux_x86_newlib/bin/../lib/gcc/x86_64-nacl/4.4.3/../../../../x86_64-nacl/lib/../lib64/libstdc++.a(string-inst.o)
 .gcc_except_table._ZNSs9_M_mutateEjjj
                0x000000001002f6cf        0xf /home/berkeley/nacl_sdk/pepper_42/toolchain/linux_x86_newlib/bin/../lib/gcc/x86_64-nacl/4.4.3/../../../../x86_64-nacl/lib/../lib64/libstdc++.a(string-inst.o)
 .gcc_except_table._ZNSs7replaceEjjPKcj
                0x000000001002f6de       0x20 /home/berkeley/nacl_sdk/pepper_42/toolchain/linux_x86_newlib/bin/../lib/gcc/x86_64-nacl/4.4.3/../../../../x86_64-nacl/lib/../lib64/libstdc++.a(string-inst.o)
 *fill*         0x000000001002f6fe        0x2 
 .gcc_except_table.__cxa_call_unexpected
                0x000000001002f700       0x24 /home/berkeley/nacl_sdk/pepper_42/toolchain/linux_x86_newlib/bin/../lib/gcc/x86_64-nacl/4.4.3/../../../../x86_64-nacl/lib/../lib64/libstdc++.a(eh_personality.o)
 .gcc_except_table.__gxx_personality_v0
                0x000000001002f724       0x28 /home/berkeley/nacl_sdk/pepper_42/toolchain/linux_x86_newlib/bin/../lib/gcc/x86_64-nacl/4.4.3/../../../../x86_64-nacl/lib/../lib64/libstdc++.a(eh_personality.o)
 .gcc_except_table.__cxa_get_globals
                0x000000001002f74c       0x15 /home/berkeley/nacl_sdk/pepper_42/toolchain/linux_x86_newlib/bin/../lib/gcc/x86_64-nacl/4.4.3/../../../../x86_64-nacl/lib/../lib64/libstdc++.a(eh_globals.o)
 *fill*         0x000000001002f761        0x3 
 .gcc_except_table.__cxa_get_globals_fast
                0x000000001002f764       0x15 /home/berkeley/nacl_sdk/pepper_42/toolchain/linux_x86_newlib/bin/../lib/gcc/x86_64-nacl/4.4.3/../../../../x86_64-nacl/lib/../lib64/libstdc++.a(eh_globals.o)
 *fill*         0x000000001002f779        0x3 
 .gcc_except_table._ZN10__cxxabiv111__terminateEPFvvE
                0x000000001002f77c       0x1c /home/berkeley/nacl_sdk/pepper_42/toolchain/linux_x86_newlib/bin/../lib/gcc/x86_64-nacl/4.4.3/../../../../x86_64-nacl/lib/../lib64/libstdc++.a(eh_terminate.o)
 .gcc_except_table.__cxa_allocate_dependent_exception
                0x000000001002f798       0x15 /home/berkeley/nacl_sdk/pepper_42/toolchain/linux_x86_newlib/bin/../lib/gcc/x86_64-nacl/4.4.3/../../../../x86_64-nacl/lib/../lib64/libstdc++.a(eh_alloc.o)
 *fill*         0x000000001002f7ad        0x3 
 .gcc_except_table.__cxa_allocate_exception
                0x000000001002f7b0       0x15 /home/berkeley/nacl_sdk/pepper_42/toolchain/linux_x86_newlib/bin/../lib/gcc/x86_64-nacl/4.4.3/../../../../x86_64-nacl/lib/../lib64/libstdc++.a(eh_alloc.o)
 *fill*         0x000000001002f7c5        0x3 
 .gcc_except_table.__cxa_begin_catch
                0x000000001002f7c8       0x15 /home/berkeley/nacl_sdk/pepper_42/toolchain/linux_x86_newlib/bin/../lib/gcc/x86_64-nacl/4.4.3/../../../../x86_64-nacl/lib/../lib64/libstdc++.a(eh_catch.o)
 *fill*         0x000000001002f7dd        0x3 
 .gcc_except_table._Znwj
                0x000000001002f7e0       0x1a /home/berkeley/nacl_sdk/pepper_42/toolchain/linux_x86_newlib/bin/../lib/gcc/x86_64-nacl/4.4.3/../../../../x86_64-nacl/lib/../lib64/libstdc++.a(new_op.o)
 .gcc_except_table._ZSt20__throw_system_errori
                0x000000001002f7fa       0x1c /home/berkeley/nacl_sdk/pepper_42/toolchain/linux_x86_newlib/bin/../lib/gcc/x86_64-nacl/4.4.3/../../../../x86_64-nacl/lib/../lib64/libstdc++.a(functexcept.o)
 .gcc_except_table._ZSt19__throw_ios_failurePKc
                0x000000001002f816        0xe /home/berkeley/nacl_sdk/pepper_42/toolchain/linux_x86_newlib/bin/../lib/gcc/x86_64-nacl/4.4.3/../../../../x86_64-nacl/lib/../lib64/libstdc++.a(functexcept.o)
 .gcc_except_table._ZSt23__throw_underflow_errorPKc
                0x000000001002f824       0x25 /home/berkeley/nacl_sdk/pepper_42/toolchain/linux_x86_newlib/bin/../lib/gcc/x86_64-nacl/4.4.3/../../../../x86_64-nacl/lib/../lib64/libstdc++.a(functexcept.o)
 *fill*         0x000000001002f849        0x3 
 .gcc_except_table._ZSt22__throw_overflow_errorPKc
                0x000000001002f84c       0x25 /home/berkeley/nacl_sdk/pepper_42/toolchain/linux_x86_newlib/bin/../lib/gcc/x86_64-nacl/4.4.3/../../../../x86_64-nacl/lib/../lib64/libstdc++.a(functexcept.o)
 *fill*         0x000000001002f871        0x3 
 .gcc_except_table._ZSt19__throw_range_errorPKc
                0x000000001002f874       0x25 /home/berkeley/nacl_sdk/pepper_42/toolchain/linux_x86_newlib/bin/../lib/gcc/x86_64-nacl/4.4.3/../../../../x86_64-nacl/lib/../lib64/libstdc++.a(functexcept.o)
 *fill*         0x000000001002f899        0x3 
 .gcc_except_table._ZSt21__throw_runtime_errorPKc
                0x000000001002f89c       0x25 /home/berkeley/nacl_sdk/pepper_42/toolchain/linux_x86_newlib/bin/../lib/gcc/x86_64-nacl/4.4.3/../../../../x86_64-nacl/lib/../lib64/libstdc++.a(functexcept.o)
 *fill*         0x000000001002f8c1        0x3 
 .gcc_except_table._ZSt20__throw_out_of_rangePKc
                0x000000001002f8c4       0x25 /home/berkeley/nacl_sdk/pepper_42/toolchain/linux_x86_newlib/bin/../lib/gcc/x86_64-nacl/4.4.3/../../../../x86_64-nacl/lib/../lib64/libstdc++.a(functexcept.o)
 *fill*         0x000000001002f8e9        0x3 
 .gcc_except_table._ZSt20__throw_length_errorPKc
                0x000000001002f8ec       0x25 /home/berkeley/nacl_sdk/pepper_42/toolchain/linux_x86_newlib/bin/../lib/gcc/x86_64-nacl/4.4.3/../../../../x86_64-nacl/lib/../lib64/libstdc++.a(functexcept.o)
 *fill*         0x000000001002f911        0x3 
 .gcc_except_table._ZSt24__throw_invalid_argumentPKc
                0x000000001002f914       0x25 /home/berkeley/nacl_sdk/pepper_42/toolchain/linux_x86_newlib/bin/../lib/gcc/x86_64-nacl/4.4.3/../../../../x86_64-nacl/lib/../lib64/libstdc++.a(functexcept.o)
 *fill*         0x000000001002f939        0x3 
 .gcc_except_table._ZSt20__throw_domain_errorPKc
                0x000000001002f93c       0x25 /home/berkeley/nacl_sdk/pepper_42/toolchain/linux_x86_newlib/bin/../lib/gcc/x86_64-nacl/4.4.3/../../../../x86_64-nacl/lib/../lib64/libstdc++.a(functexcept.o)
 *fill*         0x000000001002f961        0x3 
 .gcc_except_table._ZSt19__throw_logic_errorPKc
                0x000000001002f964       0x25 /home/berkeley/nacl_sdk/pepper_42/toolchain/linux_x86_newlib/bin/../lib/gcc/x86_64-nacl/4.4.3/../../../../x86_64-nacl/lib/../lib64/libstdc++.a(functexcept.o)
 *fill*         0x000000001002f989        0x3 
 .gcc_except_table._ZNSt8ios_base7failureC1ERKSs
                0x000000001002f98c       0x15 /home/berkeley/nacl_sdk/pepper_42/toolchain/linux_x86_newlib/bin/../lib/gcc/x86_64-nacl/4.4.3/../../../../x86_64-nacl/lib/../lib64/libstdc++.a(ios_failure.o)
 *fill*         0x000000001002f9a1        0x3 
 .gcc_except_table._ZNSt8ios_base7failureC2ERKSs
                0x000000001002f9a4       0x15 /home/berkeley/nacl_sdk/pepper_42/toolchain/linux_x86_newlib/bin/../lib/gcc/x86_64-nacl/4.4.3/../../../../x86_64-nacl/lib/../lib64/libstdc++.a(ios_failure.o)
 .gcc_except_table._ZNSt13runtime_errorC1ERKSs
                0x000000001002f9b9        0xc /home/berkeley/nacl_sdk/pepper_42/toolchain/linux_x86_newlib/bin/../lib/gcc/x86_64-nacl/4.4.3/../../../../x86_64-nacl/lib/../lib64/libstdc++.a(stdexcept.o)
 .gcc_except_table._ZNSt13runtime_errorC2ERKSs
                0x000000001002f9c5        0xc /home/berkeley/nacl_sdk/pepper_42/toolchain/linux_x86_newlib/bin/../lib/gcc/x86_64-nacl/4.4.3/../../../../x86_64-nacl/lib/../lib64/libstdc++.a(stdexcept.o)
 .gcc_except_table._ZNSt11logic_errorC1ERKSs
                0x000000001002f9d1        0xc /home/berkeley/nacl_sdk/pepper_42/toolchain/linux_x86_newlib/bin/../lib/gcc/x86_64-nacl/4.4.3/../../../../x86_64-nacl/lib/../lib64/libstdc++.a(stdexcept.o)
 .gcc_except_table._ZNSt11logic_errorC2ERKSs
                0x000000001002f9dd        0xc /home/berkeley/nacl_sdk/pepper_42/toolchain/linux_x86_newlib/bin/../lib/gcc/x86_64-nacl/4.4.3/../../../../x86_64-nacl/lib/../lib64/libstdc++.a(stdexcept.o)
 .gcc_except_table._ZNK12_GLOBAL__N_122generic_error_category7messageEi
                0x000000001002f9e9        0xc /home/berkeley/nacl_sdk/pepper_42/toolchain/linux_x86_newlib/bin/../lib/gcc/x86_64-nacl/4.4.3/../../../../x86_64-nacl/lib/../lib64/libstdc++.a(system_error.o)
 .gcc_except_table._ZNK12_GLOBAL__N_121system_error_category7messageEi
                0x000000001002f9f5        0xc /home/berkeley/nacl_sdk/pepper_42/toolchain/linux_x86_newlib/bin/../lib/gcc/x86_64-nacl/4.4.3/../../../../x86_64-nacl/lib/../lib64/libstdc++.a(system_error.o)
 *fill*         0x000000001002fa01        0x3 
 .gcc_except_table._ZN9__gnu_cxx27__verbose_terminate_handlerEv
                0x000000001002fa04       0x50 /home/berkeley/nacl_sdk/pepper_42/toolchain/linux_x86_newlib/bin/../lib/gcc/x86_64-nacl/4.4.3/../../../../x86_64-nacl/lib/../lib64/libstdc++.a(vterminate.o)

.exception_ranges
 *(.exception_ranges .exception_ranges*)
                0x000000001002fa54                . = (ALIGN (0x10000) - ((0x10000 - .) & 0xffff))
                0x0000000010030000                . = DATA_SEGMENT_ALIGN (0x10000, 0x10000)

.eh_frame
 *(.eh_frame)

.gcc_except_table
 *(.gcc_except_table .gcc_except_table.*)

.exception_ranges
 *(.exception_ranges .exception_ranges*)

.tdata          0x0000000010030000      0x478
 *(.tdata .tdata.* .gnu.linkonce.td.*)
 .tdata         0x0000000010030000      0x478 /home/berkeley/nacl_sdk/pepper_42/toolchain/linux_x86_newlib/bin/../lib/gcc/x86_64-nacl/4.4.3/../../../../x86_64-nacl/lib/../lib64/libcrt_common.a(lib_a-impure.o)
                0x0000000010030000                _impure_ptr

.tbss           0x0000000010030478        0x8
 *(.tbss .tbss.* .gnu.linkonce.tb.*)
 .tbss          0x0000000010030478        0x8 /home/berkeley/nacl_sdk/pepper_42/toolchain/linux_x86_newlib/bin/../lib/gcc/x86_64-nacl/4.4.3/../../../../x86_64-nacl/lib/../lib64/libpthread.a(nc_thread_7e478b15.o)
 *(.tcommon)

.preinit_array  0x0000000010030478        0x0
                0x0000000010030478                PROVIDE (__preinit_array_start, .)
 *(.preinit_array)
                0x0000000010030478                PROVIDE (__preinit_array_end, .)

.init_array     0x0000000010030478        0xc
                0x0000000010030478                PROVIDE (__init_array_start, .)
 *(SORT(.init_array.*) SORT(.ctors.*))
 *(.init_array EXCLUDE_FILE(*crtend?.o *crtend.o *crtbegin?.o *crtbegin.o) .ctors)
 .ctors         0x0000000010030478        0x4 /home/berkeley/nacl_sdk/pepper_42/toolchain/linux_x86_newlib/bin/../lib/gcc/x86_64-nacl/4.4.3/../../../../x86_64-nacl/lib/../lib64/libstdc++.a(eh_globals.o)
 .ctors         0x000000001003047c        0x4 /home/berkeley/nacl_sdk/pepper_42/toolchain/linux_x86_newlib/bin/../lib/gcc/x86_64-nacl/4.4.3/../../../../x86_64-nacl/lib/../lib64/libstdc++.a(eh_alloc.o)
 .ctors         0x0000000010030480        0x4 /home/berkeley/nacl_sdk/pepper_42/toolchain/linux_x86_newlib/bin/../lib/gcc/x86_64-nacl/4.4.3/../../../../x86_64-nacl/lib/../lib64/libstdc++.a(system_error.o)
                0x0000000010030484                PROVIDE (__init_array_end, .)

.fini_array     0x0000000010030484        0x0
                0x0000000010030484                PROVIDE (__fini_array_start, .)
 *(SORT(.fini_array.*) SORT(.dtors.*))
 *(.fini_array EXCLUDE_FILE(*crtend?.o *crtend.o *crtbegin?.o *crtbegin.o) .dtors)
                0x0000000010030484                PROVIDE (__fini_array_end, .)

.ctors          0x0000000010030484        0x8
 *crtbegin.o(.ctors)
 .ctors         0x0000000010030484        0x4 /home/berkeley/nacl_sdk/pepper_42/toolchain/linux_x86_newlib/bin/../lib/gcc/x86_64-nacl/4.4.3/crtbegin.o
 *crtbegin?.o(.ctors)
 *(EXCLUDE_FILE(*crtend?.o *crtend.o) .ctors)
 *(SORT(.ctors.*))
 *(.ctors)
 .ctors         0x0000000010030488        0x4 /home/berkeley/nacl_sdk/pepper_42/toolchain/linux_x86_newlib/bin/../lib/gcc/x86_64-nacl/4.4.3/crtend.o

.dtors          0x000000001003048c        0x8
 *crtbegin.o(.dtors)
 .dtors         0x000000001003048c        0x4 /home/berkeley/nacl_sdk/pepper_42/toolchain/linux_x86_newlib/bin/../lib/gcc/x86_64-nacl/4.4.3/crtbegin.o
 *crtbegin?.o(.dtors)
 *(EXCLUDE_FILE(*crtend?.o *crtend.o) .dtors)
 *(SORT(.dtors.*))
 *(.dtors)
 .dtors         0x0000000010030490        0x4 /home/berkeley/nacl_sdk/pepper_42/toolchain/linux_x86_newlib/bin/../lib/gcc/x86_64-nacl/4.4.3/crtend.o
                0x0000000010030490                __DTOR_END__

.jcr            0x0000000010030494        0x4
 *(.jcr)
 .jcr           0x0000000010030494        0x0 /home/berkeley/nacl_sdk/pepper_42/toolchain/linux_x86_newlib/bin/../lib/gcc/x86_64-nacl/4.4.3/crtbegin.o
 .jcr           0x0000000010030494        0x4 /home/berkeley/nacl_sdk/pepper_42/toolchain/linux_x86_newlib/bin/../lib/gcc/x86_64-nacl/4.4.3/crtend.o

.data.rel.ro
 *(.data.rel.ro.local* .gnu.linkonce.d.rel.ro.local.*)
 *(.data.rel.ro .data.rel.ro.* .gnu.linkonce.d.rel.ro.*)

.dynamic
 *(.dynamic)

.got            0x0000000010030498        0x0
 *(.got)
 .got           0x0000000000000000        0x0 /home/berkeley/nacl_sdk/pepper_42/toolchain/linux_x86_newlib/bin/../lib/gcc/x86_64-nacl/4.4.3/crtbegin.o
 *(.igot)
                0x0000000010030498                . = DATA_SEGMENT_RELRO_END (., (SIZEOF (.got.plt) >= 0x18)?0x18:0x0)

.got.plt        0x0000000010030498       0x18
 *(.got.plt)
 .got.plt       0x0000000010030498       0x18 /home/berkeley/nacl_sdk/pepper_42/toolchain/linux_x86_newlib/bin/../lib/gcc/x86_64-nacl/4.4.3/crtbegin.o
                0x0000000010030498                _GLOBAL_OFFSET_TABLE_
 *(.igot.plt)
 .igot.plt      0x0000000000000000        0x0 /home/berkeley/nacl_sdk/pepper_42/toolchain/linux_x86_newlib/bin/../lib/gcc/x86_64-nacl/4.4.3/crtbegin.o

.data           0x00000000100304c0      0x708
 *(.data .data.* .gnu.linkonce.d.*)
 .data          0x00000000100304c0        0x0 /home/berkeley/nacl_sdk/pepper_42/toolchain/linux_x86_newlib/bin/../lib/gcc/x86_64-nacl/4.4.3/../../../../x86_64-nacl/lib/../lib64/crti.o
 .data          0x00000000100304c0        0x4 /home/berkeley/nacl_sdk/pepper_42/toolchain/linux_x86_newlib/bin/../lib/gcc/x86_64-nacl/4.4.3/crtbegin.o
                0x00000000100304c0                __dso_handle
 .data          0x00000000100304c4        0x0 newlib/Release/popcnt_x86_64.o
 .data          0x00000000100304c4        0xc /home/berkeley/nacl_sdk/pepper_42/lib/newlib_x86_64/Release/libppapi_cpp.a(instance_x86_64.o)
 .data          0x00000000100304d0       0x18 /home/berkeley/nacl_sdk/pepper_42/lib/newlib_x86_64/Release/libppapi_cpp.a(module_x86_64.o)
 .data          0x00000000100304e8        0x0 /home/berkeley/nacl_sdk/pepper_42/lib/newlib_x86_64/Release/libppapi_cpp.a(ppp_entrypoints_x86_64.o)
 .data          0x00000000100304e8        0x0 /home/berkeley/nacl_sdk/pepper_42/lib/newlib_x86_64/Release/libppapi_cpp.a(resource_x86_64.o)
 .data          0x00000000100304e8        0x0 /home/berkeley/nacl_sdk/pepper_42/lib/newlib_x86_64/Release/libppapi_cpp.a(url_loader_x86_64.o)
 .data          0x00000000100304e8        0x0 /home/berkeley/nacl_sdk/pepper_42/lib/newlib_x86_64/Release/libppapi_cpp.a(url_response_info_x86_64.o)
 .data          0x00000000100304e8        0x0 /home/berkeley/nacl_sdk/pepper_42/lib/newlib_x86_64/Release/libppapi_cpp.a(var_x86_64.o)
 .data          0x00000000100304e8        0x0 /home/berkeley/nacl_sdk/pepper_42/lib/newlib_x86_64/Release/libppapi_cpp.a(view_x86_64.o)
 .data          0x00000000100304e8        0x0 /home/berkeley/nacl_sdk/pepper_42/lib/newlib_x86_64/Release/libppapi_cpp.a(core_x86_64.o)
 .data          0x00000000100304e8        0x0 /home/berkeley/nacl_sdk/pepper_42/lib/newlib_x86_64/Release/libppapi_cpp.a(file_ref_x86_64.o)
 .data          0x00000000100304e8        0x0 /home/berkeley/nacl_sdk/pepper_42/lib/newlib_x86_64/Release/libppapi_cpp.a(input_event_x86_64.o)
 .data          0x00000000100304e8        0x0 /home/berkeley/nacl_sdk/pepper_42/toolchain/linux_x86_newlib/bin/../lib/gcc/x86_64-nacl/4.4.3/../../../../x86_64-nacl/lib/../lib64/libppapi_stub.a(plugin_main_irt_21ce9d26.o)
 .data          0x00000000100304e8        0x0 /home/berkeley/nacl_sdk/pepper_42/toolchain/linux_x86_newlib/bin/../lib/gcc/x86_64-nacl/4.4.3/../../../../x86_64-nacl/lib/../lib64/libppapi_stub.a(ppapi_plugin_main_399d0cf7.o)
 .data          0x00000000100304e8        0x0 /home/berkeley/nacl_sdk/pepper_42/toolchain/linux_x86_newlib/bin/../lib/gcc/x86_64-nacl/4.4.3/../../../../x86_64-nacl/lib/../lib64/libppapi_stub.a(ppapi_plugin_start_8da67623.o)
 .data          0x00000000100304e8        0x0 /home/berkeley/nacl_sdk/pepper_42/toolchain/linux_x86_newlib/bin/../lib/gcc/x86_64-nacl/4.4.3/../../../../x86_64-nacl/lib/../lib64/libppapi_stub.a(thread_creator_ccf263e1.o)
 .data          0x00000000100304e8        0x4 /home/berkeley/nacl_sdk/pepper_42/toolchain/linux_x86_newlib/bin/../lib/gcc/x86_64-nacl/4.4.3/../../../../x86_64-nacl/lib/../lib64/libpthread.a(nc_thread_7e478b15.o)
                0x00000000100304e8                __nc_running_threads_counter
 .data          0x00000000100304ec        0x0 /home/berkeley/nacl_sdk/pepper_42/toolchain/linux_x86_newlib/bin/../lib/gcc/x86_64-nacl/4.4.3/../../../../x86_64-nacl/lib/../lib64/libpthread.a(nc_condvar_305aa45a.o)
 .data          0x00000000100304ec        0x4 /home/berkeley/nacl_sdk/pepper_42/toolchain/linux_x86_newlib/bin/../lib/gcc/x86_64-nacl/4.4.3/../../../../x86_64-nacl/lib/../lib64/libpthread.a(dynamic_annotations_33ba59cc.o)
 .data          0x00000000100304f0        0x0 /home/berkeley/nacl_sdk/pepper_42/toolchain/linux_x86_newlib/bin/../lib/gcc/x86_64-nacl/4.4.3/../../../../x86_64-nacl/lib/../lib64/libpthread.a(nc_mutex_86341ae1.o)
 .data          0x00000000100304f0        0x0 /home/berkeley/nacl_sdk/pepper_42/toolchain/linux_x86_newlib/bin/../lib/gcc/x86_64-nacl/4.4.3/../../../../x86_64-nacl/lib/../lib64/libpthread.a(nc_init_irt_d3daafc0.o)
 .data          0x00000000100304f0        0x0 /home/berkeley/nacl_sdk/pepper_42/toolchain/linux_x86_newlib/bin/../lib/gcc/x86_64-nacl/4.4.3/../../../../x86_64-nacl/lib/../lib64/libstdc++.a(tree.o)
 .data          0x00000000100304f0        0x0 /home/berkeley/nacl_sdk/pepper_42/toolchain/linux_x86_newlib/bin/../lib/gcc/x86_64-nacl/4.4.3/../../../../x86_64-nacl/lib/../lib64/libstdc++.a(string-inst.o)
 .data          0x00000000100304f0        0x0 /home/berkeley/nacl_sdk/pepper_42/toolchain/linux_x86_newlib/bin/../lib/gcc/x86_64-nacl/4.4.3/../../../../x86_64-nacl/lib/../lib64/libstdc++.a(eh_personality.o)
 .data          0x00000000100304f0        0x0 /home/berkeley/nacl_sdk/pepper_42/toolchain/linux_x86_newlib/bin/../lib/gcc/x86_64-nacl/4.4.3/../../../../x86_64-nacl/lib/../lib64/libstdc++.a(eh_globals.o)
 .data          0x00000000100304f0        0x0 /home/berkeley/nacl_sdk/pepper_42/toolchain/linux_x86_newlib/bin/../lib/gcc/x86_64-nacl/4.4.3/../../../../x86_64-nacl/lib/../lib64/libstdc++.a(eh_throw.o)
 .data          0x00000000100304f0        0x0 /home/berkeley/nacl_sdk/pepper_42/toolchain/linux_x86_newlib/bin/../lib/gcc/x86_64-nacl/4.4.3/../../../../x86_64-nacl/lib/../lib64/libstdc++.a(del_op.o)
 .data          0x00000000100304f0        0x0 /home/berkeley/nacl_sdk/pepper_42/toolchain/linux_x86_newlib/bin/../lib/gcc/x86_64-nacl/4.4.3/../../../../x86_64-nacl/lib/../lib64/libstdc++.a(eh_call.o)
 .data          0x00000000100304f0        0x0 /home/berkeley/nacl_sdk/pepper_42/toolchain/linux_x86_newlib/bin/../lib/gcc/x86_64-nacl/4.4.3/../../../../x86_64-nacl/lib/../lib64/libstdc++.a(guard.o)
 .data          0x00000000100304f0        0x0 /home/berkeley/nacl_sdk/pepper_42/toolchain/linux_x86_newlib/bin/../lib/gcc/x86_64-nacl/4.4.3/../../../../x86_64-nacl/lib/../lib64/libstdc++.a(si_class_type_info.o)
 .data          0x00000000100304f0        0x0 /home/berkeley/nacl_sdk/pepper_42/toolchain/linux_x86_newlib/bin/../lib/gcc/x86_64-nacl/4.4.3/../../../../x86_64-nacl/lib/../lib64/libstdc++.a(eh_terminate.o)
 .data          0x00000000100304f0        0x0 /home/berkeley/nacl_sdk/pepper_42/toolchain/linux_x86_newlib/bin/../lib/gcc/x86_64-nacl/4.4.3/../../../../x86_64-nacl/lib/../lib64/libstdc++.a(class_type_info.o)
 .data          0x00000000100304f0        0x0 /home/berkeley/nacl_sdk/pepper_42/toolchain/linux_x86_newlib/bin/../lib/gcc/x86_64-nacl/4.4.3/../../../../x86_64-nacl/lib/../lib64/libstdc++.a(eh_alloc.o)
 .data          0x00000000100304f0        0x0 /home/berkeley/nacl_sdk/pepper_42/toolchain/linux_x86_newlib/bin/../lib/gcc/x86_64-nacl/4.4.3/../../../../x86_64-nacl/lib/../lib64/libstdc++.a(eh_catch.o)
 .data          0x00000000100304f0        0x0 /home/berkeley/nacl_sdk/pepper_42/toolchain/linux_x86_newlib/bin/../lib/gcc/x86_64-nacl/4.4.3/../../../../x86_64-nacl/lib/../lib64/libstdc++.a(eh_exception.o)
 .data          0x00000000100304f0        0x0 /home/berkeley/nacl_sdk/pepper_42/toolchain/linux_x86_newlib/bin/../lib/gcc/x86_64-nacl/4.4.3/../../../../x86_64-nacl/lib/../lib64/libstdc++.a(pure.o)
 .data          0x00000000100304f0        0x0 /home/berkeley/nacl_sdk/pepper_42/toolchain/linux_x86_newlib/bin/../lib/gcc/x86_64-nacl/4.4.3/../../../../x86_64-nacl/lib/../lib64/libstdc++.a(new_op.o)
 .data          0x00000000100304f0        0x0 /home/berkeley/nacl_sdk/pepper_42/toolchain/linux_x86_newlib/bin/../lib/gcc/x86_64-nacl/4.4.3/../../../../x86_64-nacl/lib/../lib64/libstdc++.a(tinfo.o)
 .data          0x00000000100304f0        0x0 /home/berkeley/nacl_sdk/pepper_42/toolchain/linux_x86_newlib/bin/../lib/gcc/x86_64-nacl/4.4.3/../../../../x86_64-nacl/lib/../lib64/libstdc++.a(functexcept.o)
 .data          0x00000000100304f0        0x0 /home/berkeley/nacl_sdk/pepper_42/toolchain/linux_x86_newlib/bin/../lib/gcc/x86_64-nacl/4.4.3/../../../../x86_64-nacl/lib/../lib64/libstdc++.a(ios_failure.o)
 .data          0x00000000100304f0        0x0 /home/berkeley/nacl_sdk/pepper_42/toolchain/linux_x86_newlib/bin/../lib/gcc/x86_64-nacl/4.4.3/../../../../x86_64-nacl/lib/../lib64/libstdc++.a(stdexcept.o)
 .data          0x00000000100304f0        0x0 /home/berkeley/nacl_sdk/pepper_42/toolchain/linux_x86_newlib/bin/../lib/gcc/x86_64-nacl/4.4.3/../../../../x86_64-nacl/lib/../lib64/libstdc++.a(system_error.o)
 .data          0x00000000100304f0        0x0 /home/berkeley/nacl_sdk/pepper_42/toolchain/linux_x86_newlib/bin/../lib/gcc/x86_64-nacl/4.4.3/../../../../x86_64-nacl/lib/../lib64/libstdc++.a(eh_unex_handler.o)
 .data._ZN10__cxxabiv120__unexpected_handlerE
                0x00000000100304f0        0x4 /home/berkeley/nacl_sdk/pepper_42/toolchain/linux_x86_newlib/bin/../lib/gcc/x86_64-nacl/4.4.3/../../../../x86_64-nacl/lib/../lib64/libstdc++.a(eh_unex_handler.o)
                0x00000000100304f0                _ZN10__cxxabiv120__unexpected_handlerE
 .data          0x00000000100304f4        0x0 /home/berkeley/nacl_sdk/pepper_42/toolchain/linux_x86_newlib/bin/../lib/gcc/x86_64-nacl/4.4.3/../../../../x86_64-nacl/lib/../lib64/libstdc++.a(eh_term_handler.o)
 .data._ZN10__cxxabiv119__terminate_handlerE
                0x00000000100304f4        0x4 /home/berkeley/nacl_sdk/pepper_42/toolchain/linux_x86_newlib/bin/../lib/gcc/x86_64-nacl/4.4.3/../../../../x86_64-nacl/lib/../lib64/libstdc++.a(eh_term_handler.o)
                0x00000000100304f4                _ZN10__cxxabiv119__terminate_handlerE
 .data          0x00000000100304f8        0x0 /home/berkeley/nacl_sdk/pepper_42/toolchain/linux_x86_newlib/bin/../lib/gcc/x86_64-nacl/4.4.3/../../../../x86_64-nacl/lib/../lib64/libstdc++.a(bad_typeid.o)
 .data          0x00000000100304f8        0x0 /home/berkeley/nacl_sdk/pepper_42/toolchain/linux_x86_newlib/bin/../lib/gcc/x86_64-nacl/4.4.3/../../../../x86_64-nacl/lib/../lib64/libstdc++.a(new_handler.o)
 .data          0x00000000100304f8        0x0 /home/berkeley/nacl_sdk/pepper_42/toolchain/linux_x86_newlib/bin/../lib/gcc/x86_64-nacl/4.4.3/../../../../x86_64-nacl/lib/../lib64/libstdc++.a(bad_cast.o)
 .data          0x00000000100304f8        0x0 /home/berkeley/nacl_sdk/pepper_42/toolchain/linux_x86_newlib/bin/../lib/gcc/x86_64-nacl/4.4.3/../../../../x86_64-nacl/lib/../lib64/libstdc++.a(vterminate.o)
 .data          0x00000000100304f8        0x0 /home/berkeley/nacl_sdk/pepper_42/toolchain/linux_x86_newlib/bin/../lib/gcc/x86_64-nacl/4.4.3/../../../../x86_64-nacl/lib/../lib64/libstdc++.a(cp-demangle.o)
 .data          0x00000000100304f8        0x0 /home/berkeley/nacl_sdk/pepper_42/toolchain/linux_x86_newlib/bin/../lib/gcc/x86_64-nacl/4.4.3/../../../../x86_64-nacl/lib/../lib64/libstdc++.a(eh_type.o)
 .data          0x00000000100304f8        0x0 /home/berkeley/nacl_sdk/pepper_42/toolchain/linux_x86_newlib/bin/../lib/gcc/x86_64-nacl/4.4.3/libgcc.a(unwind-dw2.o)
 .data          0x00000000100304f8        0x0 /home/berkeley/nacl_sdk/pepper_42/toolchain/linux_x86_newlib/bin/../lib/gcc/x86_64-nacl/4.4.3/libgcc.a(unwind-dw2-fde-glibc.o)
 .data          0x00000000100304f8        0x0 /home/berkeley/nacl_sdk/pepper_42/toolchain/linux_x86_newlib/bin/../lib/gcc/x86_64-nacl/4.4.3/../../../../x86_64-nacl/lib/../lib64/libnacl.a(_exit_710c7d0d.o)
 .data          0x00000000100304f8        0x0 /home/berkeley/nacl_sdk/pepper_42/toolchain/linux_x86_newlib/bin/../lib/gcc/x86_64-nacl/4.4.3/../../../../x86_64-nacl/lib/../lib64/libnacl.a(abort_9f6b5845.o)
 .data          0x00000000100304f8        0x4 /home/berkeley/nacl_sdk/pepper_42/toolchain/linux_x86_newlib/bin/../lib/gcc/x86_64-nacl/4.4.3/../../../../x86_64-nacl/lib/../lib64/libnacl.a(environ_25cd24d8.o)
                0x00000000100304f8                environ
 .data          0x00000000100304fc        0x0 /home/berkeley/nacl_sdk/pepper_42/toolchain/linux_x86_newlib/bin/../lib/gcc/x86_64-nacl/4.4.3/../../../../x86_64-nacl/lib/../lib64/libnacl.a(start_fa9ef7de.o)
 .data          0x00000000100304fc        0x0 /home/berkeley/nacl_sdk/pepper_42/toolchain/linux_x86_newlib/bin/../lib/gcc/x86_64-nacl/4.4.3/../../../../x86_64-nacl/lib/../lib64/libnacl.a(malloc_222c4a1e.o)
 *fill*         0x00000000100304fc        0x4 
 .data          0x0000000010030500       0x20 /home/berkeley/nacl_sdk/pepper_42/toolchain/linux_x86_newlib/bin/../lib/gcc/x86_64-nacl/4.4.3/../../../../x86_64-nacl/lib/../lib64/libnacl.a(nacl_irt_6de1d53f.o)
                0x0000000010030500                __libnacl_irt_fdio
 .data          0x0000000010030520        0x0 /home/berkeley/nacl_sdk/pepper_42/toolchain/linux_x86_newlib/bin/../lib/gcc/x86_64-nacl/4.4.3/../../../../x86_64-nacl/lib/../lib64/libnacl.a(pthread_initialize_minimal_4b6e776b.o)
 .data          0x0000000010030520        0x0 /home/berkeley/nacl_sdk/pepper_42/toolchain/linux_x86_newlib/bin/../lib/gcc/x86_64-nacl/4.4.3/../../../../x86_64-nacl/lib/../lib64/libnacl.a(nacl_read_tp_5748ac47.o)
 .data          0x0000000010030520        0x0 /home/berkeley/nacl_sdk/pepper_42/toolchain/linux_x86_newlib/bin/../lib/gcc/x86_64-nacl/4.4.3/../../../../x86_64-nacl/lib/../lib64/libnacl.a(nacl_add_tp_7312c7c4.o)
 .data          0x0000000010030520        0x0 /home/berkeley/nacl_sdk/pepper_42/toolchain/linux_x86_newlib/bin/../lib/gcc/x86_64-nacl/4.4.3/../../../../x86_64-nacl/lib/../lib64/libnacl.a(mmap_767fb080.o)
 .data          0x0000000010030520        0x0 /home/berkeley/nacl_sdk/pepper_42/toolchain/linux_x86_newlib/bin/../lib/gcc/x86_64-nacl/4.4.3/../../../../x86_64-nacl/lib/../lib64/libnacl.a(sched_yield_56c375be.o)
 .data          0x0000000010030520        0x0 /home/berkeley/nacl_sdk/pepper_42/toolchain/linux_x86_newlib/bin/../lib/gcc/x86_64-nacl/4.4.3/../../../../x86_64-nacl/lib/../lib64/libnacl.a(munmap_d4f09867.o)
 .data          0x0000000010030520        0x0 /home/berkeley/nacl_sdk/pepper_42/toolchain/linux_x86_newlib/bin/../lib/gcc/x86_64-nacl/4.4.3/../../../../x86_64-nacl/lib/../lib64/libnacl.a(tls_bba1975b.o)
 .data          0x0000000010030520        0x0 /home/berkeley/nacl_sdk/pepper_42/toolchain/linux_x86_newlib/bin/../lib/gcc/x86_64-nacl/4.4.3/../../../../x86_64-nacl/lib/../lib64/libnacl.a(write_fb49787f.o)
 .data          0x0000000010030520        0x0 /home/berkeley/nacl_sdk/pepper_42/toolchain/linux_x86_newlib/bin/../lib/gcc/x86_64-nacl/4.4.3/../../../../x86_64-nacl/lib/../lib64/libnacl.a(nacl_tls_get_d2f842b5.o)
 .data          0x0000000010030520        0x0 /home/berkeley/nacl_sdk/pepper_42/toolchain/linux_x86_newlib/bin/../lib/gcc/x86_64-nacl/4.4.3/../../../../x86_64-nacl/lib/../lib64/libnacl.a(nacl_irt_init_7b4f826e.o)
 .data          0x0000000010030520        0x0 /home/berkeley/nacl_sdk/pepper_42/toolchain/linux_x86_newlib/bin/../lib/gcc/x86_64-nacl/4.4.3/../../../../x86_64-nacl/lib/../lib64/libnacl.a(sysconf_ad295ea2.o)
 .data          0x0000000010030520        0x0 /home/berkeley/nacl_sdk/pepper_42/toolchain/linux_x86_newlib/bin/../lib/gcc/x86_64-nacl/4.4.3/../../../../x86_64-nacl/lib/../lib64/libnacl.a(nacl_tls_init_eb0cd232.o)
 .data          0x0000000010030520        0x0 /home/berkeley/nacl_sdk/pepper_42/toolchain/linux_x86_newlib/bin/../lib/gcc/x86_64-nacl/4.4.3/../../../../x86_64-nacl/lib/../lib64/libcrt_common.a(lib_a-atexit.o)
 .data          0x0000000010030520        0x0 /home/berkeley/nacl_sdk/pepper_42/toolchain/linux_x86_newlib/bin/../lib/gcc/x86_64-nacl/4.4.3/../../../../x86_64-nacl/lib/../lib64/libcrt_common.a(lib_a-cxa_atexit.o)
 .data          0x0000000010030520        0x0 /home/berkeley/nacl_sdk/pepper_42/toolchain/linux_x86_newlib/bin/../lib/gcc/x86_64-nacl/4.4.3/../../../../x86_64-nacl/lib/../lib64/libcrt_common.a(lib_a-errno.o)
 .data          0x0000000010030520        0x0 /home/berkeley/nacl_sdk/pepper_42/toolchain/linux_x86_newlib/bin/../lib/gcc/x86_64-nacl/4.4.3/../../../../x86_64-nacl/lib/../lib64/libcrt_common.a(lib_a-exit.o)
 .data          0x0000000010030520        0x0 /home/berkeley/nacl_sdk/pepper_42/toolchain/linux_x86_newlib/bin/../lib/gcc/x86_64-nacl/4.4.3/../../../../x86_64-nacl/lib/../lib64/libcrt_common.a(lib_a-fini.o)
 .data          0x0000000010030520        0x0 /home/berkeley/nacl_sdk/pepper_42/toolchain/linux_x86_newlib/bin/../lib/gcc/x86_64-nacl/4.4.3/../../../../x86_64-nacl/lib/../lib64/libcrt_common.a(lib_a-fprintf.o)
 .data          0x0000000010030520        0x0 /home/berkeley/nacl_sdk/pepper_42/toolchain/linux_x86_newlib/bin/../lib/gcc/x86_64-nacl/4.4.3/../../../../x86_64-nacl/lib/../lib64/libcrt_common.a(lib_a-fputc.o)
 .data          0x0000000010030520        0x0 /home/berkeley/nacl_sdk/pepper_42/toolchain/linux_x86_newlib/bin/../lib/gcc/x86_64-nacl/4.4.3/../../../../x86_64-nacl/lib/../lib64/libcrt_common.a(lib_a-fputs.o)
 .data          0x0000000010030520        0x0 /home/berkeley/nacl_sdk/pepper_42/toolchain/linux_x86_newlib/bin/../lib/gcc/x86_64-nacl/4.4.3/../../../../x86_64-nacl/lib/../lib64/libcrt_common.a(lib_a-fvwrite.o)
 .data          0x0000000010030520        0x0 /home/berkeley/nacl_sdk/pepper_42/toolchain/linux_x86_newlib/bin/../lib/gcc/x86_64-nacl/4.4.3/../../../../x86_64-nacl/lib/../lib64/libcrt_common.a(lib_a-fwrite.o)
 .data          0x0000000010030520        0x0 /home/berkeley/nacl_sdk/pepper_42/toolchain/linux_x86_newlib/bin/../lib/gcc/x86_64-nacl/4.4.3/../../../../x86_64-nacl/lib/../lib64/libcrt_common.a(lib_a-getenv.o)
 .data          0x0000000010030520        0x0 /home/berkeley/nacl_sdk/pepper_42/toolchain/linux_x86_newlib/bin/../lib/gcc/x86_64-nacl/4.4.3/../../../../x86_64-nacl/lib/../lib64/libcrt_common.a(lib_a-getenv_r.o)
 .data          0x0000000010030520      0x470 /home/berkeley/nacl_sdk/pepper_42/toolchain/linux_x86_newlib/bin/../lib/gcc/x86_64-nacl/4.4.3/../../../../x86_64-nacl/lib/../lib64/libcrt_common.a(lib_a-impure.o)
 .data          0x0000000010030990        0x0 /home/berkeley/nacl_sdk/pepper_42/toolchain/linux_x86_newlib/bin/../lib/gcc/x86_64-nacl/4.4.3/../../../../x86_64-nacl/lib/../lib64/libcrt_common.a(lib_a-init.o)
 .data          0x0000000010030990        0x0 /home/berkeley/nacl_sdk/pepper_42/toolchain/linux_x86_newlib/bin/../lib/gcc/x86_64-nacl/4.4.3/../../../../x86_64-nacl/lib/../lib64/libcrt_common.a(lib_a-memchr.o)
 .data          0x0000000010030990        0x0 /home/berkeley/nacl_sdk/pepper_42/toolchain/linux_x86_newlib/bin/../lib/gcc/x86_64-nacl/4.4.3/../../../../x86_64-nacl/lib/../lib64/libcrt_common.a(lib_a-memcpy.o)
 .data          0x0000000010030990        0x0 /home/berkeley/nacl_sdk/pepper_42/toolchain/linux_x86_newlib/bin/../lib/gcc/x86_64-nacl/4.4.3/../../../../x86_64-nacl/lib/../lib64/libcrt_common.a(lib_a-memmove.o)
 .data          0x0000000010030990        0x0 /home/berkeley/nacl_sdk/pepper_42/toolchain/linux_x86_newlib/bin/../lib/gcc/x86_64-nacl/4.4.3/../../../../x86_64-nacl/lib/../lib64/libcrt_common.a(lib_a-memset.o)
 .data          0x0000000010030990        0x0 /home/berkeley/nacl_sdk/pepper_42/toolchain/linux_x86_newlib/bin/../lib/gcc/x86_64-nacl/4.4.3/../../../../x86_64-nacl/lib/../lib64/libcrt_common.a(lib_a-putc.o)
 .data          0x0000000010030990        0x0 /home/berkeley/nacl_sdk/pepper_42/toolchain/linux_x86_newlib/bin/../lib/gcc/x86_64-nacl/4.4.3/../../../../x86_64-nacl/lib/../lib64/libcrt_common.a(lib_a-snprintf.o)
 .data          0x0000000010030990        0x0 /home/berkeley/nacl_sdk/pepper_42/toolchain/linux_x86_newlib/bin/../lib/gcc/x86_64-nacl/4.4.3/../../../../x86_64-nacl/lib/../lib64/libcrt_common.a(lib_a-sprintf.o)
 .data          0x0000000010030990        0x0 /home/berkeley/nacl_sdk/pepper_42/toolchain/linux_x86_newlib/bin/../lib/gcc/x86_64-nacl/4.4.3/../../../../x86_64-nacl/lib/../lib64/libcrt_common.a(lib_a-strcpy.o)
 .data          0x0000000010030990        0x0 /home/berkeley/nacl_sdk/pepper_42/toolchain/linux_x86_newlib/bin/../lib/gcc/x86_64-nacl/4.4.3/../../../../x86_64-nacl/lib/../lib64/libcrt_common.a(lib_a-strerror.o)
 .data          0x0000000010030990        0x0 /home/berkeley/nacl_sdk/pepper_42/toolchain/linux_x86_newlib/bin/../lib/gcc/x86_64-nacl/4.4.3/../../../../x86_64-nacl/lib/../lib64/libcrt_common.a(lib_a-strlen.o)
 .data          0x0000000010030990        0x0 /home/berkeley/nacl_sdk/pepper_42/toolchain/linux_x86_newlib/bin/../lib/gcc/x86_64-nacl/4.4.3/../../../../x86_64-nacl/lib/../lib64/libcrt_common.a(lib_a-strncmp.o)
 .data          0x0000000010030990        0x0 /home/berkeley/nacl_sdk/pepper_42/toolchain/linux_x86_newlib/bin/../lib/gcc/x86_64-nacl/4.4.3/../../../../x86_64-nacl/lib/../lib64/libcrt_common.a(lib_a-svfprintf.o)
 .data          0x0000000010030990        0x0 /home/berkeley/nacl_sdk/pepper_42/toolchain/linux_x86_newlib/bin/../lib/gcc/x86_64-nacl/4.4.3/../../../../x86_64-nacl/lib/../lib64/libcrt_common.a(lib_a-u_strerr.o)
 .data          0x0000000010030990        0x0 /home/berkeley/nacl_sdk/pepper_42/toolchain/linux_x86_newlib/bin/../lib/gcc/x86_64-nacl/4.4.3/../../../../x86_64-nacl/lib/../lib64/libcrt_common.a(lib_a-vfprintf.o)
 .data          0x0000000010030990        0x0 /home/berkeley/nacl_sdk/pepper_42/toolchain/linux_x86_newlib/bin/../lib/gcc/x86_64-nacl/4.4.3/../../../../x86_64-nacl/lib/../lib64/libcrt_common.a(lib_a-wbuf.o)
 .data          0x0000000010030990        0x0 /home/berkeley/nacl_sdk/pepper_42/toolchain/linux_x86_newlib/bin/../lib/gcc/x86_64-nacl/4.4.3/../../../../x86_64-nacl/lib/../lib64/libcrt_common.a(lib_a-wcrtomb.o)
 .data          0x0000000010030990        0x0 /home/berkeley/nacl_sdk/pepper_42/toolchain/linux_x86_newlib/bin/../lib/gcc/x86_64-nacl/4.4.3/../../../../x86_64-nacl/lib/../lib64/libcrt_common.a(lib_a-wcsrtombs.o)
 .data          0x0000000010030990        0x4 /home/berkeley/nacl_sdk/pepper_42/toolchain/linux_x86_newlib/bin/../lib/gcc/x86_64-nacl/4.4.3/../../../../x86_64-nacl/lib/../lib64/libcrt_common.a(lib_a-wctomb_r.o)
                0x0000000010030990                __wctomb
 .data          0x0000000010030994        0x0 /home/berkeley/nacl_sdk/pepper_42/toolchain/linux_x86_newlib/bin/../lib/gcc/x86_64-nacl/4.4.3/../../../../x86_64-nacl/lib/../lib64/libcrt_common.a(lib_a-wsetup.o)
 .data          0x0000000010030994        0x0 /home/berkeley/nacl_sdk/pepper_42/toolchain/linux_x86_newlib/bin/../lib/gcc/x86_64-nacl/4.4.3/../../../../x86_64-nacl/lib/../lib64/libcrt_common.a(lib_a-__atexit.o)
 *fill*         0x0000000010030994        0xc 
 .data          0x00000000100309a0       0x14 /home/berkeley/nacl_sdk/pepper_42/toolchain/linux_x86_newlib/bin/../lib/gcc/x86_64-nacl/4.4.3/../../../../x86_64-nacl/lib/../lib64/libcrt_common.a(lib_a-__call_atexit.o)
                0x00000000100309a0                __atexit_lock
 .data          0x00000000100309b4        0x0 /home/berkeley/nacl_sdk/pepper_42/toolchain/linux_x86_newlib/bin/../lib/gcc/x86_64-nacl/4.4.3/../../../../x86_64-nacl/lib/../lib64/libcrt_common.a(lib_a-dtoa.o)
 *fill*         0x00000000100309b4        0xc 
 .data          0x00000000100309c0       0x14 /home/berkeley/nacl_sdk/pepper_42/toolchain/linux_x86_newlib/bin/../lib/gcc/x86_64-nacl/4.4.3/../../../../x86_64-nacl/lib/../lib64/libcrt_common.a(lib_a-envlock.o)
 .data          0x00000000100309d4        0x0 /home/berkeley/nacl_sdk/pepper_42/toolchain/linux_x86_newlib/bin/../lib/gcc/x86_64-nacl/4.4.3/../../../../x86_64-nacl/lib/../lib64/libcrt_common.a(lib_a-fflush.o)
 *fill*         0x00000000100309d4        0xc 
 .data          0x00000000100309e0       0x34 /home/berkeley/nacl_sdk/pepper_42/toolchain/linux_x86_newlib/bin/../lib/gcc/x86_64-nacl/4.4.3/../../../../x86_64-nacl/lib/../lib64/libcrt_common.a(lib_a-findfp.o)
 .data          0x0000000010030a14        0x0 /home/berkeley/nacl_sdk/pepper_42/toolchain/linux_x86_newlib/bin/../lib/gcc/x86_64-nacl/4.4.3/../../../../x86_64-nacl/lib/../lib64/libcrt_common.a(lib_a-fwalk.o)
 *fill*         0x0000000010030a14        0xc 
 .data          0x0000000010030a20      0x1a0 /home/berkeley/nacl_sdk/pepper_42/toolchain/linux_x86_newlib/bin/../lib/gcc/x86_64-nacl/4.4.3/../../../../x86_64-nacl/lib/../lib64/libcrt_common.a(lib_a-locale.o)
                0x0000000010030a20                __mb_cur_max
                0x0000000010030a40                __default_locale
 .data          0x0000000010030bc0        0x0 /home/berkeley/nacl_sdk/pepper_42/toolchain/linux_x86_newlib/bin/../lib/gcc/x86_64-nacl/4.4.3/../../../../x86_64-nacl/lib/../lib64/libcrt_common.a(lib_a-makebuf.o)
 .data          0x0000000010030bc0        0x4 /home/berkeley/nacl_sdk/pepper_42/toolchain/linux_x86_newlib/bin/../lib/gcc/x86_64-nacl/4.4.3/../../../../x86_64-nacl/lib/../lib64/libcrt_common.a(lib_a-mbtowc_r.o)
                0x0000000010030bc0                __mbtowc
 .data          0x0000000010030bc4        0x0 /home/berkeley/nacl_sdk/pepper_42/toolchain/linux_x86_newlib/bin/../lib/gcc/x86_64-nacl/4.4.3/../../../../x86_64-nacl/lib/../lib64/libcrt_common.a(lib_a-mprec.o)
 .data          0x0000000010030bc4        0x0 /home/berkeley/nacl_sdk/pepper_42/toolchain/linux_x86_newlib/bin/../lib/gcc/x86_64-nacl/4.4.3/../../../../x86_64-nacl/lib/../lib64/libcrt_common.a(lib_a-s_fpclassify.o)
 .data          0x0000000010030bc4        0x0 /home/berkeley/nacl_sdk/pepper_42/toolchain/linux_x86_newlib/bin/../lib/gcc/x86_64-nacl/4.4.3/../../../../x86_64-nacl/lib/../lib64/libcrt_common.a(lib_a-s_frexp.o)
 .data          0x0000000010030bc4        0x0 /home/berkeley/nacl_sdk/pepper_42/toolchain/linux_x86_newlib/bin/../lib/gcc/x86_64-nacl/4.4.3/../../../../x86_64-nacl/lib/../lib64/libcrt_common.a(lib_a-stdio.o)
 .data          0x0000000010030bc4        0x0 /home/berkeley/nacl_sdk/pepper_42/toolchain/linux_x86_newlib/bin/../lib/gcc/x86_64-nacl/4.4.3/../../../../x86_64-nacl/lib/../lib64/libcrt_common.a(lib_a-strcasecmp.o)
 .data          0x0000000010030bc4        0x0 /home/berkeley/nacl_sdk/pepper_42/toolchain/linux_x86_newlib/bin/../lib/gcc/x86_64-nacl/4.4.3/../../../../x86_64-nacl/lib/../lib64/libcrt_common.a(lib_a-strcat.o)
 .data          0x0000000010030bc4        0x0 /home/berkeley/nacl_sdk/pepper_42/toolchain/linux_x86_newlib/bin/../lib/gcc/x86_64-nacl/4.4.3/../../../../x86_64-nacl/lib/../lib64/libcrt_common.a(lib_a-strchr.o)
 .data          0x0000000010030bc4        0x0 /home/berkeley/nacl_sdk/pepper_42/toolchain/linux_x86_newlib/bin/../lib/gcc/x86_64-nacl/4.4.3/../../../../x86_64-nacl/lib/../lib64/libcrt_common.a(lib_a-strcmp.o)
 .data          0x0000000010030bc4        0x0 /home/berkeley/nacl_sdk/pepper_42/toolchain/linux_x86_newlib/bin/../lib/gcc/x86_64-nacl/4.4.3/../../../../x86_64-nacl/lib/../lib64/libcrt_common.a(lib_a-strlcpy.o)
 .data          0x0000000010030bc4        0x0 /home/berkeley/nacl_sdk/pepper_42/toolchain/linux_x86_newlib/bin/../lib/gcc/x86_64-nacl/4.4.3/../../../../x86_64-nacl/lib/../lib64/libcrt_common.a(lib_a-strncasecmp.o)
 .data          0x0000000010030bc4        0x0 /home/berkeley/nacl_sdk/pepper_42/toolchain/linux_x86_newlib/bin/../lib/gcc/x86_64-nacl/4.4.3/../../../../x86_64-nacl/lib/../lib64/libcrt_common.a(lib_a-strncpy.o)
 .data          0x0000000010030bc4        0x0 /home/berkeley/nacl_sdk/pepper_42/toolchain/linux_x86_newlib/bin/../lib/gcc/x86_64-nacl/4.4.3/../../../../x86_64-nacl/lib/../lib64/libcrt_common.a(lib_a-strtol.o)
 .data          0x0000000010030bc4        0x0 /home/berkeley/nacl_sdk/pepper_42/toolchain/linux_x86_newlib/bin/../lib/gcc/x86_64-nacl/4.4.3/../../../../x86_64-nacl/lib/../lib64/libcrt_common.a(lib_a-svfiprintf.o)
 .data          0x0000000010030bc4        0x0 /home/berkeley/nacl_sdk/pepper_42/toolchain/linux_x86_newlib/bin/../lib/gcc/x86_64-nacl/4.4.3/../../../../x86_64-nacl/lib/../lib64/libcrt_common.a(lib_a-vfiprintf.o)
 .data          0x0000000010030bc4        0x0 /home/berkeley/nacl_sdk/pepper_42/toolchain/linux_x86_newlib/bin/../lib/gcc/x86_64-nacl/4.4.3/../../../../x86_64-nacl/lib/../lib64/libcrt_common.a(lib_a-wcsnrtombs.o)
 .data          0x0000000010030bc4        0x4 /home/berkeley/nacl_sdk/pepper_42/toolchain/linux_x86_newlib/bin/../lib/gcc/x86_64-nacl/4.4.3/../../../../x86_64-nacl/lib/../lib64/libcrt_common.a(lib_a-ctype_.o)
                0x0000000010030bc4                __ctype_ptr__
 .data          0x0000000010030bc8        0x0 /home/berkeley/nacl_sdk/pepper_42/toolchain/linux_x86_newlib/bin/../lib/gcc/x86_64-nacl/4.4.3/../../../../x86_64-nacl/lib/../lib64/libcrt_common.a(lib_a-fclose.o)
 .data          0x0000000010030bc8        0x0 /home/berkeley/nacl_sdk/pepper_42/toolchain/linux_x86_newlib/bin/../lib/gcc/x86_64-nacl/4.4.3/../../../../x86_64-nacl/lib/../lib64/libcrt_common.a(lib_a-fputwc.o)
 .data          0x0000000010030bc8        0x0 /home/berkeley/nacl_sdk/pepper_42/toolchain/linux_x86_newlib/bin/../lib/gcc/x86_64-nacl/4.4.3/../../../../x86_64-nacl/lib/../lib64/libnacl.a(close_e9b92fbd.o)
 .data          0x0000000010030bc8        0x0 /home/berkeley/nacl_sdk/pepper_42/toolchain/linux_x86_newlib/bin/../lib/gcc/x86_64-nacl/4.4.3/../../../../x86_64-nacl/lib/../lib64/libnacl.a(isatty_02f56e94.o)
 .data          0x0000000010030bc8        0x0 /home/berkeley/nacl_sdk/pepper_42/toolchain/linux_x86_newlib/bin/../lib/gcc/x86_64-nacl/4.4.3/../../../../x86_64-nacl/lib/../lib64/libnacl.a(nacl_irt_fdio_b571b5e7.o)
 .data          0x0000000010030bc8        0x0 /home/berkeley/nacl_sdk/pepper_42/toolchain/linux_x86_newlib/bin/../lib/gcc/x86_64-nacl/4.4.3/../../../../x86_64-nacl/lib/../lib64/libnacl.a(fstat_0540ff63.o)
 .data          0x0000000010030bc8        0x0 /home/berkeley/nacl_sdk/pepper_42/toolchain/linux_x86_newlib/bin/../lib/gcc/x86_64-nacl/4.4.3/../../../../x86_64-nacl/lib/../lib64/libnacl.a(lseek_64d2d05c.o)
 .data          0x0000000010030bc8        0x0 /home/berkeley/nacl_sdk/pepper_42/toolchain/linux_x86_newlib/bin/../lib/gcc/x86_64-nacl/4.4.3/../../../../x86_64-nacl/lib/../lib64/libnacl.a(read_df872e10.o)
 .data          0x0000000010030bc8        0x0 /home/berkeley/nacl_sdk/pepper_42/toolchain/linux_x86_newlib/bin/../lib/gcc/x86_64-nacl/4.4.3/crtend.o
 .data          0x0000000010030bc8        0x0 /home/berkeley/nacl_sdk/pepper_42/toolchain/linux_x86_newlib/bin/../lib/gcc/x86_64-nacl/4.4.3/../../../../x86_64-nacl/lib/../lib64/crtn.o

.data1
 *(.data1)
                0x0000000010030bc8                _edata = .
                0x0000000010030bc8                PROVIDE (edata, .)
                0x0000000010030bc8                . = .
                0x0000000010030bc8                __bss_start = .

.bss            0x0000000010030be0     0x6308
 *(.dynbss)
 *(.bss .bss.* .gnu.linkonce.b.*)
 .bss           0x0000000010030be0        0x0 /home/berkeley/nacl_sdk/pepper_42/toolchain/linux_x86_newlib/bin/../lib/gcc/x86_64-nacl/4.4.3/../../../../x86_64-nacl/lib/../lib64/crti.o
 .bss           0x0000000010030be0       0x28 /home/berkeley/nacl_sdk/pepper_42/toolchain/linux_x86_newlib/bin/../lib/gcc/x86_64-nacl/4.4.3/crtbegin.o
 .bss           0x0000000010030c08        0x0 newlib/Release/popcnt_x86_64.o
 .bss           0x0000000010030c08       0x4c /home/berkeley/nacl_sdk/pepper_42/lib/newlib_x86_64/Release/libppapi_cpp.a(instance_x86_64.o)
 .bss           0x0000000010030c54        0x0 /home/berkeley/nacl_sdk/pepper_42/lib/newlib_x86_64/Release/libppapi_cpp.a(module_x86_64.o)
 .bss           0x0000000010030c54        0x8 /home/berkeley/nacl_sdk/pepper_42/lib/newlib_x86_64/Release/libppapi_cpp.a(ppp_entrypoints_x86_64.o)
 .bss           0x0000000010030c5c        0x0 /home/berkeley/nacl_sdk/pepper_42/lib/newlib_x86_64/Release/libppapi_cpp.a(resource_x86_64.o)
 *fill*         0x0000000010030c5c        0x4 
 .bss           0x0000000010030c60        0xc /home/berkeley/nacl_sdk/pepper_42/lib/newlib_x86_64/Release/libppapi_cpp.a(url_loader_x86_64.o)
 *fill*         0x0000000010030c6c        0x4 
 .bss           0x0000000010030c70        0xc /home/berkeley/nacl_sdk/pepper_42/lib/newlib_x86_64/Release/libppapi_cpp.a(url_response_info_x86_64.o)
 *fill*         0x0000000010030c7c        0x4 
 .bss           0x0000000010030c80       0x2c /home/berkeley/nacl_sdk/pepper_42/lib/newlib_x86_64/Release/libppapi_cpp.a(var_x86_64.o)
 *fill*         0x0000000010030cac        0x4 
 .bss           0x0000000010030cb0       0x2c /home/berkeley/nacl_sdk/pepper_42/lib/newlib_x86_64/Release/libppapi_cpp.a(view_x86_64.o)
 .bss           0x0000000010030cdc        0x0 /home/berkeley/nacl_sdk/pepper_42/lib/newlib_x86_64/Release/libppapi_cpp.a(core_x86_64.o)
 *fill*         0x0000000010030cdc        0x4 
 .bss           0x0000000010030ce0       0x2c /home/berkeley/nacl_sdk/pepper_42/lib/newlib_x86_64/Release/libppapi_cpp.a(file_ref_x86_64.o)
 *fill*         0x0000000010030d0c        0x4 
 .bss           0x0000000010030d10       0x6c /home/berkeley/nacl_sdk/pepper_42/lib/newlib_x86_64/Release/libppapi_cpp.a(input_event_x86_64.o)
 .bss           0x0000000010030d7c        0x0 /home/berkeley/nacl_sdk/pepper_42/toolchain/linux_x86_newlib/bin/../lib/gcc/x86_64-nacl/4.4.3/../../../../x86_64-nacl/lib/../lib64/libppapi_stub.a(plugin_main_irt_21ce9d26.o)
 .bss           0x0000000010030d7c        0x0 /home/berkeley/nacl_sdk/pepper_42/toolchain/linux_x86_newlib/bin/../lib/gcc/x86_64-nacl/4.4.3/../../../../x86_64-nacl/lib/../lib64/libppapi_stub.a(ppapi_plugin_main_399d0cf7.o)
 .bss           0x0000000010030d7c        0x0 /home/berkeley/nacl_sdk/pepper_42/toolchain/linux_x86_newlib/bin/../lib/gcc/x86_64-nacl/4.4.3/../../../../x86_64-nacl/lib/../lib64/libppapi_stub.a(ppapi_plugin_start_8da67623.o)
 .bss           0x0000000010030d7c        0x0 /home/berkeley/nacl_sdk/pepper_42/toolchain/linux_x86_newlib/bin/../lib/gcc/x86_64-nacl/4.4.3/../../../../x86_64-nacl/lib/../lib64/libppapi_stub.a(thread_creator_ccf263e1.o)
 *fill*         0x0000000010030d7c        0x4 
 .bss           0x0000000010030d80     0x1020 /home/berkeley/nacl_sdk/pepper_42/toolchain/linux_x86_newlib/bin/../lib/gcc/x86_64-nacl/4.4.3/../../../../x86_64-nacl/lib/../lib64/libpthread.a(nc_thread_7e478b15.o)
 .bss           0x0000000010031da0        0x0 /home/berkeley/nacl_sdk/pepper_42/toolchain/linux_x86_newlib/bin/../lib/gcc/x86_64-nacl/4.4.3/../../../../x86_64-nacl/lib/../lib64/libpthread.a(nc_condvar_305aa45a.o)
 .bss           0x0000000010031da0        0x0 /home/berkeley/nacl_sdk/pepper_42/toolchain/linux_x86_newlib/bin/../lib/gcc/x86_64-nacl/4.4.3/../../../../x86_64-nacl/lib/../lib64/libpthread.a(dynamic_annotations_33ba59cc.o)
 .bss           0x0000000010031da0        0x0 /home/berkeley/nacl_sdk/pepper_42/toolchain/linux_x86_newlib/bin/../lib/gcc/x86_64-nacl/4.4.3/../../../../x86_64-nacl/lib/../lib64/libpthread.a(nc_mutex_86341ae1.o)
 .bss           0x0000000010031da0        0x0 /home/berkeley/nacl_sdk/pepper_42/toolchain/linux_x86_newlib/bin/../lib/gcc/x86_64-nacl/4.4.3/../../../../x86_64-nacl/lib/../lib64/libpthread.a(nc_init_irt_d3daafc0.o)
 .bss           0x0000000010031da0        0x0 /home/berkeley/nacl_sdk/pepper_42/toolchain/linux_x86_newlib/bin/../lib/gcc/x86_64-nacl/4.4.3/../../../../x86_64-nacl/lib/../lib64/libstdc++.a(tree.o)
 .bss           0x0000000010031da0        0x0 /home/berkeley/nacl_sdk/pepper_42/toolchain/linux_x86_newlib/bin/../lib/gcc/x86_64-nacl/4.4.3/../../../../x86_64-nacl/lib/../lib64/libstdc++.a(string-inst.o)
 .bss._ZNSs4_Rep20_S_empty_rep_storageE
                0x0000000010031da0       0x10 /home/berkeley/nacl_sdk/pepper_42/toolchain/linux_x86_newlib/bin/../lib/gcc/x86_64-nacl/4.4.3/../../../../x86_64-nacl/lib/../lib64/libstdc++.a(string-inst.o)
                0x0000000010031da0                _ZNSs4_Rep20_S_empty_rep_storageE
 .bss           0x0000000010031db0        0x0 /home/berkeley/nacl_sdk/pepper_42/toolchain/linux_x86_newlib/bin/../lib/gcc/x86_64-nacl/4.4.3/../../../../x86_64-nacl/lib/../lib64/libstdc++.a(eh_personality.o)
 .bss           0x0000000010031db0        0x0 /home/berkeley/nacl_sdk/pepper_42/toolchain/linux_x86_newlib/bin/../lib/gcc/x86_64-nacl/4.4.3/../../../../x86_64-nacl/lib/../lib64/libstdc++.a(eh_globals.o)
 .bss._ZL4init  0x0000000010031db0        0x8 /home/berkeley/nacl_sdk/pepper_42/toolchain/linux_x86_newlib/bin/../lib/gcc/x86_64-nacl/4.4.3/../../../../x86_64-nacl/lib/../lib64/libstdc++.a(eh_globals.o)
 .bss._ZL10eh_globals
                0x0000000010031db8        0x8 /home/berkeley/nacl_sdk/pepper_42/toolchain/linux_x86_newlib/bin/../lib/gcc/x86_64-nacl/4.4.3/../../../../x86_64-nacl/lib/../lib64/libstdc++.a(eh_globals.o)
 .bss           0x0000000010031dc0        0x0 /home/berkeley/nacl_sdk/pepper_42/toolchain/linux_x86_newlib/bin/../lib/gcc/x86_64-nacl/4.4.3/../../../../x86_64-nacl/lib/../lib64/libstdc++.a(eh_throw.o)
 .bss           0x0000000010031dc0        0x0 /home/berkeley/nacl_sdk/pepper_42/toolchain/linux_x86_newlib/bin/../lib/gcc/x86_64-nacl/4.4.3/../../../../x86_64-nacl/lib/../lib64/libstdc++.a(del_op.o)
 .bss           0x0000000010031dc0        0x0 /home/berkeley/nacl_sdk/pepper_42/toolchain/linux_x86_newlib/bin/../lib/gcc/x86_64-nacl/4.4.3/../../../../x86_64-nacl/lib/../lib64/libstdc++.a(eh_call.o)
 .bss           0x0000000010031dc0        0x0 /home/berkeley/nacl_sdk/pepper_42/toolchain/linux_x86_newlib/bin/../lib/gcc/x86_64-nacl/4.4.3/../../../../x86_64-nacl/lib/../lib64/libstdc++.a(guard.o)
 .bss._ZN12_GLOBAL__N_1L12static_mutexE
                0x0000000010031dc0        0x4 /home/berkeley/nacl_sdk/pepper_42/toolchain/linux_x86_newlib/bin/../lib/gcc/x86_64-nacl/4.4.3/../../../../x86_64-nacl/lib/../lib64/libstdc++.a(guard.o)
 *fill*         0x0000000010031dc4        0xc 
 .bss._ZN12_GLOBAL__N_110fake_mutexE
                0x0000000010031dd0       0x14 /home/berkeley/nacl_sdk/pepper_42/toolchain/linux_x86_newlib/bin/../lib/gcc/x86_64-nacl/4.4.3/../../../../x86_64-nacl/lib/../lib64/libstdc++.a(guard.o)
 .bss           0x0000000010031de4        0x0 /home/berkeley/nacl_sdk/pepper_42/toolchain/linux_x86_newlib/bin/../lib/gcc/x86_64-nacl/4.4.3/../../../../x86_64-nacl/lib/../lib64/libstdc++.a(si_class_type_info.o)
 .bss           0x0000000010031de4        0x0 /home/berkeley/nacl_sdk/pepper_42/toolchain/linux_x86_newlib/bin/../lib/gcc/x86_64-nacl/4.4.3/../../../../x86_64-nacl/lib/../lib64/libstdc++.a(eh_terminate.o)
 .bss           0x0000000010031de4        0x0 /home/berkeley/nacl_sdk/pepper_42/toolchain/linux_x86_newlib/bin/../lib/gcc/x86_64-nacl/4.4.3/../../../../x86_64-nacl/lib/../lib64/libstdc++.a(class_type_info.o)
 .bss           0x0000000010031de4        0x0 /home/berkeley/nacl_sdk/pepper_42/toolchain/linux_x86_newlib/bin/../lib/gcc/x86_64-nacl/4.4.3/../../../../x86_64-nacl/lib/../lib64/libstdc++.a(eh_alloc.o)
 *fill*         0x0000000010031de4       0x1c 
 .bss._ZL17dependents_buffer
                0x0000000010031e00      0xa00 /home/berkeley/nacl_sdk/pepper_42/toolchain/linux_x86_newlib/bin/../lib/gcc/x86_64-nacl/4.4.3/../../../../x86_64-nacl/lib/../lib64/libstdc++.a(eh_alloc.o)
 .bss._ZL15dependents_used
                0x0000000010032800        0x4 /home/berkeley/nacl_sdk/pepper_42/toolchain/linux_x86_newlib/bin/../lib/gcc/x86_64-nacl/4.4.3/../../../../x86_64-nacl/lib/../lib64/libstdc++.a(eh_alloc.o)
 *fill*         0x0000000010032804       0x1c 
 .bss._ZL16emergency_buffer
                0x0000000010032820     0x4000 /home/berkeley/nacl_sdk/pepper_42/toolchain/linux_x86_newlib/bin/../lib/gcc/x86_64-nacl/4.4.3/../../../../x86_64-nacl/lib/../lib64/libstdc++.a(eh_alloc.o)
 .bss._ZL14emergency_used
                0x0000000010036820        0x4 /home/berkeley/nacl_sdk/pepper_42/toolchain/linux_x86_newlib/bin/../lib/gcc/x86_64-nacl/4.4.3/../../../../x86_64-nacl/lib/../lib64/libstdc++.a(eh_alloc.o)
 .bss           0x0000000010036824        0x0 /home/berkeley/nacl_sdk/pepper_42/toolchain/linux_x86_newlib/bin/../lib/gcc/x86_64-nacl/4.4.3/../../../../x86_64-nacl/lib/../lib64/libstdc++.a(eh_catch.o)
 .bss           0x0000000010036824        0x0 /home/berkeley/nacl_sdk/pepper_42/toolchain/linux_x86_newlib/bin/../lib/gcc/x86_64-nacl/4.4.3/../../../../x86_64-nacl/lib/../lib64/libstdc++.a(eh_exception.o)
 .bss           0x0000000010036824        0x0 /home/berkeley/nacl_sdk/pepper_42/toolchain/linux_x86_newlib/bin/../lib/gcc/x86_64-nacl/4.4.3/../../../../x86_64-nacl/lib/../lib64/libstdc++.a(pure.o)
 .bss           0x0000000010036824        0x0 /home/berkeley/nacl_sdk/pepper_42/toolchain/linux_x86_newlib/bin/../lib/gcc/x86_64-nacl/4.4.3/../../../../x86_64-nacl/lib/../lib64/libstdc++.a(new_op.o)
 .bss           0x0000000010036824        0x0 /home/berkeley/nacl_sdk/pepper_42/toolchain/linux_x86_newlib/bin/../lib/gcc/x86_64-nacl/4.4.3/../../../../x86_64-nacl/lib/../lib64/libstdc++.a(tinfo.o)
 .bss           0x0000000010036824        0x0 /home/berkeley/nacl_sdk/pepper_42/toolchain/linux_x86_newlib/bin/../lib/gcc/x86_64-nacl/4.4.3/../../../../x86_64-nacl/lib/../lib64/libstdc++.a(functexcept.o)
 .bss           0x0000000010036824        0x0 /home/berkeley/nacl_sdk/pepper_42/toolchain/linux_x86_newlib/bin/../lib/gcc/x86_64-nacl/4.4.3/../../../../x86_64-nacl/lib/../lib64/libstdc++.a(ios_failure.o)
 .bss           0x0000000010036824        0x0 /home/berkeley/nacl_sdk/pepper_42/toolchain/linux_x86_newlib/bin/../lib/gcc/x86_64-nacl/4.4.3/../../../../x86_64-nacl/lib/../lib64/libstdc++.a(stdexcept.o)
 .bss           0x0000000010036824        0x0 /home/berkeley/nacl_sdk/pepper_42/toolchain/linux_x86_newlib/bin/../lib/gcc/x86_64-nacl/4.4.3/../../../../x86_64-nacl/lib/../lib64/libstdc++.a(system_error.o)
 .bss._ZN12_GLOBAL__N_1L25generic_category_instanceE
                0x0000000010036824        0x4 /home/berkeley/nacl_sdk/pepper_42/toolchain/linux_x86_newlib/bin/../lib/gcc/x86_64-nacl/4.4.3/../../../../x86_64-nacl/lib/../lib64/libstdc++.a(system_error.o)
 .bss._ZN12_GLOBAL__N_1L24system_category_instanceE
                0x0000000010036828        0x4 /home/berkeley/nacl_sdk/pepper_42/toolchain/linux_x86_newlib/bin/../lib/gcc/x86_64-nacl/4.4.3/../../../../x86_64-nacl/lib/../lib64/libstdc++.a(system_error.o)
 .bss           0x000000001003682c        0x0 /home/berkeley/nacl_sdk/pepper_42/toolchain/linux_x86_newlib/bin/../lib/gcc/x86_64-nacl/4.4.3/../../../../x86_64-nacl/lib/../lib64/libstdc++.a(eh_unex_handler.o)
 .bss           0x000000001003682c        0x0 /home/berkeley/nacl_sdk/pepper_42/toolchain/linux_x86_newlib/bin/../lib/gcc/x86_64-nacl/4.4.3/../../../../x86_64-nacl/lib/../lib64/libstdc++.a(eh_term_handler.o)
 .bss           0x000000001003682c        0x0 /home/berkeley/nacl_sdk/pepper_42/toolchain/linux_x86_newlib/bin/../lib/gcc/x86_64-nacl/4.4.3/../../../../x86_64-nacl/lib/../lib64/libstdc++.a(bad_typeid.o)
 .bss           0x000000001003682c        0x0 /home/berkeley/nacl_sdk/pepper_42/toolchain/linux_x86_newlib/bin/../lib/gcc/x86_64-nacl/4.4.3/../../../../x86_64-nacl/lib/../lib64/libstdc++.a(new_handler.o)
 .bss.__new_handler
                0x000000001003682c        0x4 /home/berkeley/nacl_sdk/pepper_42/toolchain/linux_x86_newlib/bin/../lib/gcc/x86_64-nacl/4.4.3/../../../../x86_64-nacl/lib/../lib64/libstdc++.a(new_handler.o)
                0x000000001003682c                __new_handler
 .bss           0x0000000010036830        0x0 /home/berkeley/nacl_sdk/pepper_42/toolchain/linux_x86_newlib/bin/../lib/gcc/x86_64-nacl/4.4.3/../../../../x86_64-nacl/lib/../lib64/libstdc++.a(bad_cast.o)
 .bss           0x0000000010036830        0x0 /home/berkeley/nacl_sdk/pepper_42/toolchain/linux_x86_newlib/bin/../lib/gcc/x86_64-nacl/4.4.3/../../../../x86_64-nacl/lib/../lib64/libstdc++.a(vterminate.o)
 .bss._ZZN9__gnu_cxx27__verbose_terminate_handlerEvE11terminating
                0x0000000010036830        0x1 /home/berkeley/nacl_sdk/pepper_42/toolchain/linux_x86_newlib/bin/../lib/gcc/x86_64-nacl/4.4.3/../../../../x86_64-nacl/lib/../lib64/libstdc++.a(vterminate.o)
 *fill*         0x0000000010036831        0x3 
 .bss           0x0000000010036834        0x0 /home/berkeley/nacl_sdk/pepper_42/toolchain/linux_x86_newlib/bin/../lib/gcc/x86_64-nacl/4.4.3/../../../../x86_64-nacl/lib/../lib64/libstdc++.a(cp-demangle.o)
 .bss           0x0000000010036834        0x0 /home/berkeley/nacl_sdk/pepper_42/toolchain/linux_x86_newlib/bin/../lib/gcc/x86_64-nacl/4.4.3/../../../../x86_64-nacl/lib/../lib64/libstdc++.a(eh_type.o)
 *fill*         0x0000000010036834        0xc 
 .bss           0x0000000010036840       0x12 /home/berkeley/nacl_sdk/pepper_42/toolchain/linux_x86_newlib/bin/../lib/gcc/x86_64-nacl/4.4.3/libgcc.a(unwind-dw2.o)
 *fill*         0x0000000010036852        0x2 
 .bss           0x0000000010036854        0xc /home/berkeley/nacl_sdk/pepper_42/toolchain/linux_x86_newlib/bin/../lib/gcc/x86_64-nacl/4.4.3/libgcc.a(unwind-dw2-fde-glibc.o)
 .bss           0x0000000010036860        0x0 /home/berkeley/nacl_sdk/pepper_42/toolchain/linux_x86_newlib/bin/../lib/gcc/x86_64-nacl/4.4.3/../../../../x86_64-nacl/lib/../lib64/libnacl.a(_exit_710c7d0d.o)
 .bss           0x0000000010036860        0x0 /home/berkeley/nacl_sdk/pepper_42/toolchain/linux_x86_newlib/bin/../lib/gcc/x86_64-nacl/4.4.3/../../../../x86_64-nacl/lib/../lib64/libnacl.a(abort_9f6b5845.o)
 .bss           0x0000000010036860        0x4 /home/berkeley/nacl_sdk/pepper_42/toolchain/linux_x86_newlib/bin/../lib/gcc/x86_64-nacl/4.4.3/../../../../x86_64-nacl/lib/../lib64/libnacl.a(environ_25cd24d8.o)
 .bss           0x0000000010036864        0x0 /home/berkeley/nacl_sdk/pepper_42/toolchain/linux_x86_newlib/bin/../lib/gcc/x86_64-nacl/4.4.3/../../../../x86_64-nacl/lib/../lib64/libnacl.a(start_fa9ef7de.o)
 *fill*         0x0000000010036864       0x1c 
 .bss           0x0000000010036880      0x21c /home/berkeley/nacl_sdk/pepper_42/toolchain/linux_x86_newlib/bin/../lib/gcc/x86_64-nacl/4.4.3/../../../../x86_64-nacl/lib/../lib64/libnacl.a(malloc_222c4a1e.o)
 .bss           0x0000000010036a9c        0x0 /home/berkeley/nacl_sdk/pepper_42/toolchain/linux_x86_newlib/bin/../lib/gcc/x86_64-nacl/4.4.3/../../../../x86_64-nacl/lib/../lib64/libnacl.a(nacl_irt_6de1d53f.o)
 .bss           0x0000000010036a9c        0x0 /home/berkeley/nacl_sdk/pepper_42/toolchain/linux_x86_newlib/bin/../lib/gcc/x86_64-nacl/4.4.3/../../../../x86_64-nacl/lib/../lib64/libnacl.a(pthread_initialize_minimal_4b6e776b.o)
 .bss           0x0000000010036a9c        0x0 /home/berkeley/nacl_sdk/pepper_42/toolchain/linux_x86_newlib/bin/../lib/gcc/x86_64-nacl/4.4.3/../../../../x86_64-nacl/lib/../lib64/libnacl.a(nacl_read_tp_5748ac47.o)
 .bss           0x0000000010036a9c        0x0 /home/berkeley/nacl_sdk/pepper_42/toolchain/linux_x86_newlib/bin/../lib/gcc/x86_64-nacl/4.4.3/../../../../x86_64-nacl/lib/../lib64/libnacl.a(nacl_add_tp_7312c7c4.o)
 .bss           0x0000000010036a9c        0x0 /home/berkeley/nacl_sdk/pepper_42/toolchain/linux_x86_newlib/bin/../lib/gcc/x86_64-nacl/4.4.3/../../../../x86_64-nacl/lib/../lib64/libnacl.a(mmap_767fb080.o)
 .bss           0x0000000010036a9c        0x0 /home/berkeley/nacl_sdk/pepper_42/toolchain/linux_x86_newlib/bin/../lib/gcc/x86_64-nacl/4.4.3/../../../../x86_64-nacl/lib/../lib64/libnacl.a(sched_yield_56c375be.o)
 .bss           0x0000000010036a9c        0x0 /home/berkeley/nacl_sdk/pepper_42/toolchain/linux_x86_newlib/bin/../lib/gcc/x86_64-nacl/4.4.3/../../../../x86_64-nacl/lib/../lib64/libnacl.a(munmap_d4f09867.o)
 *fill*         0x0000000010036a9c        0x4 
 .bss           0x0000000010036aa0       0x10 /home/berkeley/nacl_sdk/pepper_42/toolchain/linux_x86_newlib/bin/../lib/gcc/x86_64-nacl/4.4.3/../../../../x86_64-nacl/lib/../lib64/libnacl.a(tls_bba1975b.o)
 .bss           0x0000000010036ab0        0x0 /home/berkeley/nacl_sdk/pepper_42/toolchain/linux_x86_newlib/bin/../lib/gcc/x86_64-nacl/4.4.3/../../../../x86_64-nacl/lib/../lib64/libnacl.a(write_fb49787f.o)
 .bss           0x0000000010036ab0        0x0 /home/berkeley/nacl_sdk/pepper_42/toolchain/linux_x86_newlib/bin/../lib/gcc/x86_64-nacl/4.4.3/../../../../x86_64-nacl/lib/../lib64/libnacl.a(nacl_tls_get_d2f842b5.o)
 .bss           0x0000000010036ab0        0x0 /home/berkeley/nacl_sdk/pepper_42/toolchain/linux_x86_newlib/bin/../lib/gcc/x86_64-nacl/4.4.3/../../../../x86_64-nacl/lib/../lib64/libnacl.a(nacl_irt_init_7b4f826e.o)
 .bss           0x0000000010036ab0        0x0 /home/berkeley/nacl_sdk/pepper_42/toolchain/linux_x86_newlib/bin/../lib/gcc/x86_64-nacl/4.4.3/../../../../x86_64-nacl/lib/../lib64/libnacl.a(sysconf_ad295ea2.o)
 .bss           0x0000000010036ab0        0x0 /home/berkeley/nacl_sdk/pepper_42/toolchain/linux_x86_newlib/bin/../lib/gcc/x86_64-nacl/4.4.3/../../../../x86_64-nacl/lib/../lib64/libnacl.a(nacl_tls_init_eb0cd232.o)
 .bss           0x0000000010036ab0        0x0 /home/berkeley/nacl_sdk/pepper_42/toolchain/linux_x86_newlib/bin/../lib/gcc/x86_64-nacl/4.4.3/../../../../x86_64-nacl/lib/../lib64/libcrt_common.a(lib_a-atexit.o)
 .bss           0x0000000010036ab0        0x0 /home/berkeley/nacl_sdk/pepper_42/toolchain/linux_x86_newlib/bin/../lib/gcc/x86_64-nacl/4.4.3/../../../../x86_64-nacl/lib/../lib64/libcrt_common.a(lib_a-cxa_atexit.o)
 .bss           0x0000000010036ab0        0x0 /home/berkeley/nacl_sdk/pepper_42/toolchain/linux_x86_newlib/bin/../lib/gcc/x86_64-nacl/4.4.3/../../../../x86_64-nacl/lib/../lib64/libcrt_common.a(lib_a-errno.o)
 .bss           0x0000000010036ab0        0x0 /home/berkeley/nacl_sdk/pepper_42/toolchain/linux_x86_newlib/bin/../lib/gcc/x86_64-nacl/4.4.3/../../../../x86_64-nacl/lib/../lib64/libcrt_common.a(lib_a-exit.o)
 .bss           0x0000000010036ab0        0x0 /home/berkeley/nacl_sdk/pepper_42/toolchain/linux_x86_newlib/bin/../lib/gcc/x86_64-nacl/4.4.3/../../../../x86_64-nacl/lib/../lib64/libcrt_common.a(lib_a-fini.o)
 .bss           0x0000000010036ab0        0x0 /home/berkeley/nacl_sdk/pepper_42/toolchain/linux_x86_newlib/bin/../lib/gcc/x86_64-nacl/4.4.3/../../../../x86_64-nacl/lib/../lib64/libcrt_common.a(lib_a-fprintf.o)
 .bss           0x0000000010036ab0        0x0 /home/berkeley/nacl_sdk/pepper_42/toolchain/linux_x86_newlib/bin/../lib/gcc/x86_64-nacl/4.4.3/../../../../x86_64-nacl/lib/../lib64/libcrt_common.a(lib_a-fputc.o)
 .bss           0x0000000010036ab0        0x0 /home/berkeley/nacl_sdk/pepper_42/toolchain/linux_x86_newlib/bin/../lib/gcc/x86_64-nacl/4.4.3/../../../../x86_64-nacl/lib/../lib64/libcrt_common.a(lib_a-fputs.o)
 .bss           0x0000000010036ab0        0x0 /home/berkeley/nacl_sdk/pepper_42/toolchain/linux_x86_newlib/bin/../lib/gcc/x86_64-nacl/4.4.3/../../../../x86_64-nacl/lib/../lib64/libcrt_common.a(lib_a-fvwrite.o)
 .bss           0x0000000010036ab0        0x0 /home/berkeley/nacl_sdk/pepper_42/toolchain/linux_x86_newlib/bin/../lib/gcc/x86_64-nacl/4.4.3/../../../../x86_64-nacl/lib/../lib64/libcrt_common.a(lib_a-fwrite.o)
 .bss           0x0000000010036ab0        0x0 /home/berkeley/nacl_sdk/pepper_42/toolchain/linux_x86_newlib/bin/../lib/gcc/x86_64-nacl/4.4.3/../../../../x86_64-nacl/lib/../lib64/libcrt_common.a(lib_a-getenv.o)
 .bss           0x0000000010036ab0        0x0 /home/berkeley/nacl_sdk/pepper_42/toolchain/linux_x86_newlib/bin/../lib/gcc/x86_64-nacl/4.4.3/../../../../x86_64-nacl/lib/../lib64/libcrt_common.a(lib_a-getenv_r.o)
 .bss           0x0000000010036ab0        0x0 /home/berkeley/nacl_sdk/pepper_42/toolchain/linux_x86_newlib/bin/../lib/gcc/x86_64-nacl/4.4.3/../../../../x86_64-nacl/lib/../lib64/libcrt_common.a(lib_a-impure.o)
 .bss           0x0000000010036ab0        0x0 /home/berkeley/nacl_sdk/pepper_42/toolchain/linux_x86_newlib/bin/../lib/gcc/x86_64-nacl/4.4.3/../../../../x86_64-nacl/lib/../lib64/libcrt_common.a(lib_a-init.o)
 .bss           0x0000000010036ab0        0x0 /home/berkeley/nacl_sdk/pepper_42/toolchain/linux_x86_newlib/bin/../lib/gcc/x86_64-nacl/4.4.3/../../../../x86_64-nacl/lib/../lib64/libcrt_common.a(lib_a-memchr.o)
 .bss           0x0000000010036ab0        0x0 /home/berkeley/nacl_sdk/pepper_42/toolchain/linux_x86_newlib/bin/../lib/gcc/x86_64-nacl/4.4.3/../../../../x86_64-nacl/lib/../lib64/libcrt_common.a(lib_a-memcpy.o)
 .bss           0x0000000010036ab0        0x0 /home/berkeley/nacl_sdk/pepper_42/toolchain/linux_x86_newlib/bin/../lib/gcc/x86_64-nacl/4.4.3/../../../../x86_64-nacl/lib/../lib64/libcrt_common.a(lib_a-memmove.o)
 .bss           0x0000000010036ab0        0x0 /home/berkeley/nacl_sdk/pepper_42/toolchain/linux_x86_newlib/bin/../lib/gcc/x86_64-nacl/4.4.3/../../../../x86_64-nacl/lib/../lib64/libcrt_common.a(lib_a-memset.o)
 .bss           0x0000000010036ab0        0x0 /home/berkeley/nacl_sdk/pepper_42/toolchain/linux_x86_newlib/bin/../lib/gcc/x86_64-nacl/4.4.3/../../../../x86_64-nacl/lib/../lib64/libcrt_common.a(lib_a-putc.o)
 .bss           0x0000000010036ab0        0x0 /home/berkeley/nacl_sdk/pepper_42/toolchain/linux_x86_newlib/bin/../lib/gcc/x86_64-nacl/4.4.3/../../../../x86_64-nacl/lib/../lib64/libcrt_common.a(lib_a-snprintf.o)
 .bss           0x0000000010036ab0        0x0 /home/berkeley/nacl_sdk/pepper_42/toolchain/linux_x86_newlib/bin/../lib/gcc/x86_64-nacl/4.4.3/../../../../x86_64-nacl/lib/../lib64/libcrt_common.a(lib_a-sprintf.o)
 .bss           0x0000000010036ab0        0x0 /home/berkeley/nacl_sdk/pepper_42/toolchain/linux_x86_newlib/bin/../lib/gcc/x86_64-nacl/4.4.3/../../../../x86_64-nacl/lib/../lib64/libcrt_common.a(lib_a-strcpy.o)
 .bss           0x0000000010036ab0        0x0 /home/berkeley/nacl_sdk/pepper_42/toolchain/linux_x86_newlib/bin/../lib/gcc/x86_64-nacl/4.4.3/../../../../x86_64-nacl/lib/../lib64/libcrt_common.a(lib_a-strerror.o)
 .bss           0x0000000010036ab0        0x0 /home/berkeley/nacl_sdk/pepper_42/toolchain/linux_x86_newlib/bin/../lib/gcc/x86_64-nacl/4.4.3/../../../../x86_64-nacl/lib/../lib64/libcrt_common.a(lib_a-strlen.o)
 .bss           0x0000000010036ab0        0x0 /home/berkeley/nacl_sdk/pepper_42/toolchain/linux_x86_newlib/bin/../lib/gcc/x86_64-nacl/4.4.3/../../../../x86_64-nacl/lib/../lib64/libcrt_common.a(lib_a-strncmp.o)
 .bss           0x0000000010036ab0        0x0 /home/berkeley/nacl_sdk/pepper_42/toolchain/linux_x86_newlib/bin/../lib/gcc/x86_64-nacl/4.4.3/../../../../x86_64-nacl/lib/../lib64/libcrt_common.a(lib_a-svfprintf.o)
 .bss           0x0000000010036ab0        0x0 /home/berkeley/nacl_sdk/pepper_42/toolchain/linux_x86_newlib/bin/../lib/gcc/x86_64-nacl/4.4.3/../../../../x86_64-nacl/lib/../lib64/libcrt_common.a(lib_a-u_strerr.o)
 .bss           0x0000000010036ab0        0x0 /home/berkeley/nacl_sdk/pepper_42/toolchain/linux_x86_newlib/bin/../lib/gcc/x86_64-nacl/4.4.3/../../../../x86_64-nacl/lib/../lib64/libcrt_common.a(lib_a-vfprintf.o)
 .bss           0x0000000010036ab0        0x0 /home/berkeley/nacl_sdk/pepper_42/toolchain/linux_x86_newlib/bin/../lib/gcc/x86_64-nacl/4.4.3/../../../../x86_64-nacl/lib/../lib64/libcrt_common.a(lib_a-wbuf.o)
 .bss           0x0000000010036ab0        0x0 /home/berkeley/nacl_sdk/pepper_42/toolchain/linux_x86_newlib/bin/../lib/gcc/x86_64-nacl/4.4.3/../../../../x86_64-nacl/lib/../lib64/libcrt_common.a(lib_a-wcrtomb.o)
 .bss           0x0000000010036ab0        0x0 /home/berkeley/nacl_sdk/pepper_42/toolchain/linux_x86_newlib/bin/../lib/gcc/x86_64-nacl/4.4.3/../../../../x86_64-nacl/lib/../lib64/libcrt_common.a(lib_a-wcsrtombs.o)
 .bss           0x0000000010036ab0        0x0 /home/berkeley/nacl_sdk/pepper_42/toolchain/linux_x86_newlib/bin/../lib/gcc/x86_64-nacl/4.4.3/../../../../x86_64-nacl/lib/../lib64/libcrt_common.a(lib_a-wctomb_r.o)
 .bss           0x0000000010036ab0        0x0 /home/berkeley/nacl_sdk/pepper_42/toolchain/linux_x86_newlib/bin/../lib/gcc/x86_64-nacl/4.4.3/../../../../x86_64-nacl/lib/../lib64/libcrt_common.a(lib_a-wsetup.o)
 .bss           0x0000000010036ab0        0x0 /home/berkeley/nacl_sdk/pepper_42/toolchain/linux_x86_newlib/bin/../lib/gcc/x86_64-nacl/4.4.3/../../../../x86_64-nacl/lib/../lib64/libcrt_common.a(lib_a-__atexit.o)
 .bss           0x0000000010036ab0        0x0 /home/berkeley/nacl_sdk/pepper_42/toolchain/linux_x86_newlib/bin/../lib/gcc/x86_64-nacl/4.4.3/../../../../x86_64-nacl/lib/../lib64/libcrt_common.a(lib_a-__call_atexit.o)
 .bss           0x0000000010036ab0        0x0 /home/berkeley/nacl_sdk/pepper_42/toolchain/linux_x86_newlib/bin/../lib/gcc/x86_64-nacl/4.4.3/../../../../x86_64-nacl/lib/../lib64/libcrt_common.a(lib_a-dtoa.o)
 .bss           0x0000000010036ab0        0x0 /home/berkeley/nacl_sdk/pepper_42/toolchain/linux_x86_newlib/bin/../lib/gcc/x86_64-nacl/4.4.3/../../../../x86_64-nacl/lib/../lib64/libcrt_common.a(lib_a-envlock.o)
 .bss           0x0000000010036ab0        0x0 /home/berkeley/nacl_sdk/pepper_42/toolchain/linux_x86_newlib/bin/../lib/gcc/x86_64-nacl/4.4.3/../../../../x86_64-nacl/lib/../lib64/libcrt_common.a(lib_a-fflush.o)
 .bss           0x0000000010036ab0        0x0 /home/berkeley/nacl_sdk/pepper_42/toolchain/linux_x86_newlib/bin/../lib/gcc/x86_64-nacl/4.4.3/../../../../x86_64-nacl/lib/../lib64/libcrt_common.a(lib_a-findfp.o)
 .bss           0x0000000010036ab0        0x0 /home/berkeley/nacl_sdk/pepper_42/toolchain/linux_x86_newlib/bin/../lib/gcc/x86_64-nacl/4.4.3/../../../../x86_64-nacl/lib/../lib64/libcrt_common.a(lib_a-fwalk.o)
 *fill*         0x0000000010036ab0       0x10 
 .bss           0x0000000010036ac0      0x2c7 /home/berkeley/nacl_sdk/pepper_42/toolchain/linux_x86_newlib/bin/../lib/gcc/x86_64-nacl/4.4.3/../../../../x86_64-nacl/lib/../lib64/libcrt_common.a(lib_a-locale.o)
                0x0000000010036ac0                __nlocale_changed
                0x0000000010036ac4                __mlocale_changed
                0x0000000010036ac8                _PathLocale
 *fill*         0x0000000010036d87        0x1 
 .bss           0x0000000010036d88        0x0 /home/berkeley/nacl_sdk/pepper_42/toolchain/linux_x86_newlib/bin/../lib/gcc/x86_64-nacl/4.4.3/../../../../x86_64-nacl/lib/../lib64/libcrt_common.a(lib_a-makebuf.o)
 .bss           0x0000000010036d88        0x0 /home/berkeley/nacl_sdk/pepper_42/toolchain/linux_x86_newlib/bin/../lib/gcc/x86_64-nacl/4.4.3/../../../../x86_64-nacl/lib/../lib64/libcrt_common.a(lib_a-mbtowc_r.o)
 .bss           0x0000000010036d88        0x0 /home/berkeley/nacl_sdk/pepper_42/toolchain/linux_x86_newlib/bin/../lib/gcc/x86_64-nacl/4.4.3/../../../../x86_64-nacl/lib/../lib64/libcrt_common.a(lib_a-mprec.o)
 .bss           0x0000000010036d88        0x0 /home/berkeley/nacl_sdk/pepper_42/toolchain/linux_x86_newlib/bin/../lib/gcc/x86_64-nacl/4.4.3/../../../../x86_64-nacl/lib/../lib64/libcrt_common.a(lib_a-s_fpclassify.o)
 .bss           0x0000000010036d88        0x0 /home/berkeley/nacl_sdk/pepper_42/toolchain/linux_x86_newlib/bin/../lib/gcc/x86_64-nacl/4.4.3/../../../../x86_64-nacl/lib/../lib64/libcrt_common.a(lib_a-s_frexp.o)
 .bss           0x0000000010036d88        0x0 /home/berkeley/nacl_sdk/pepper_42/toolchain/linux_x86_newlib/bin/../lib/gcc/x86_64-nacl/4.4.3/../../../../x86_64-nacl/lib/../lib64/libcrt_common.a(lib_a-stdio.o)
 .bss           0x0000000010036d88        0x0 /home/berkeley/nacl_sdk/pepper_42/toolchain/linux_x86_newlib/bin/../lib/gcc/x86_64-nacl/4.4.3/../../../../x86_64-nacl/lib/../lib64/libcrt_common.a(lib_a-strcasecmp.o)
 .bss           0x0000000010036d88        0x0 /home/berkeley/nacl_sdk/pepper_42/toolchain/linux_x86_newlib/bin/../lib/gcc/x86_64-nacl/4.4.3/../../../../x86_64-nacl/lib/../lib64/libcrt_common.a(lib_a-strcat.o)
 .bss           0x0000000010036d88        0x0 /home/berkeley/nacl_sdk/pepper_42/toolchain/linux_x86_newlib/bin/../lib/gcc/x86_64-nacl/4.4.3/../../../../x86_64-nacl/lib/../lib64/libcrt_common.a(lib_a-strchr.o)
 .bss           0x0000000010036d88        0x0 /home/berkeley/nacl_sdk/pepper_42/toolchain/linux_x86_newlib/bin/../lib/gcc/x86_64-nacl/4.4.3/../../../../x86_64-nacl/lib/../lib64/libcrt_common.a(lib_a-strcmp.o)
 .bss           0x0000000010036d88        0x0 /home/berkeley/nacl_sdk/pepper_42/toolchain/linux_x86_newlib/bin/../lib/gcc/x86_64-nacl/4.4.3/../../../../x86_64-nacl/lib/../lib64/libcrt_common.a(lib_a-strlcpy.o)
 .bss           0x0000000010036d88        0x0 /home/berkeley/nacl_sdk/pepper_42/toolchain/linux_x86_newlib/bin/../lib/gcc/x86_64-nacl/4.4.3/../../../../x86_64-nacl/lib/../lib64/libcrt_common.a(lib_a-strncasecmp.o)
 .bss           0x0000000010036d88        0x0 /home/berkeley/nacl_sdk/pepper_42/toolchain/linux_x86_newlib/bin/../lib/gcc/x86_64-nacl/4.4.3/../../../../x86_64-nacl/lib/../lib64/libcrt_common.a(lib_a-strncpy.o)
 .bss           0x0000000010036d88        0x0 /home/berkeley/nacl_sdk/pepper_42/toolchain/linux_x86_newlib/bin/../lib/gcc/x86_64-nacl/4.4.3/../../../../x86_64-nacl/lib/../lib64/libcrt_common.a(lib_a-strtol.o)
 .bss           0x0000000010036d88        0x0 /home/berkeley/nacl_sdk/pepper_42/toolchain/linux_x86_newlib/bin/../lib/gcc/x86_64-nacl/4.4.3/../../../../x86_64-nacl/lib/../lib64/libcrt_common.a(lib_a-svfiprintf.o)
 .bss           0x0000000010036d88        0x0 /home/berkeley/nacl_sdk/pepper_42/toolchain/linux_x86_newlib/bin/../lib/gcc/x86_64-nacl/4.4.3/../../../../x86_64-nacl/lib/../lib64/libcrt_common.a(lib_a-vfiprintf.o)
 .bss           0x0000000010036d88        0x0 /home/berkeley/nacl_sdk/pepper_42/toolchain/linux_x86_newlib/bin/../lib/gcc/x86_64-nacl/4.4.3/../../../../x86_64-nacl/lib/../lib64/libcrt_common.a(lib_a-wcsnrtombs.o)
 .bss           0x0000000010036d88        0x0 /home/berkeley/nacl_sdk/pepper_42/toolchain/linux_x86_newlib/bin/../lib/gcc/x86_64-nacl/4.4.3/../../../../x86_64-nacl/lib/../lib64/libcrt_common.a(lib_a-ctype_.o)
 .bss           0x0000000010036d88        0x0 /home/berkeley/nacl_sdk/pepper_42/toolchain/linux_x86_newlib/bin/../lib/gcc/x86_64-nacl/4.4.3/../../../../x86_64-nacl/lib/../lib64/libcrt_common.a(lib_a-fclose.o)
 .bss           0x0000000010036d88        0x0 /home/berkeley/nacl_sdk/pepper_42/toolchain/linux_x86_newlib/bin/../lib/gcc/x86_64-nacl/4.4.3/../../../../x86_64-nacl/lib/../lib64/libcrt_common.a(lib_a-fputwc.o)
 .bss           0x0000000010036d88        0x0 /home/berkeley/nacl_sdk/pepper_42/toolchain/linux_x86_newlib/bin/../lib/gcc/x86_64-nacl/4.4.3/../../../../x86_64-nacl/lib/../lib64/libnacl.a(close_e9b92fbd.o)
 .bss           0x0000000010036d88        0x0 /home/berkeley/nacl_sdk/pepper_42/toolchain/linux_x86_newlib/bin/../lib/gcc/x86_64-nacl/4.4.3/../../../../x86_64-nacl/lib/../lib64/libnacl.a(isatty_02f56e94.o)
 .bss           0x0000000010036d88        0x0 /home/berkeley/nacl_sdk/pepper_42/toolchain/linux_x86_newlib/bin/../lib/gcc/x86_64-nacl/4.4.3/../../../../x86_64-nacl/lib/../lib64/libnacl.a(nacl_irt_fdio_b571b5e7.o)
 .bss           0x0000000010036d88        0x0 /home/berkeley/nacl_sdk/pepper_42/toolchain/linux_x86_newlib/bin/../lib/gcc/x86_64-nacl/4.4.3/../../../../x86_64-nacl/lib/../lib64/libnacl.a(fstat_0540ff63.o)
 .bss           0x0000000010036d88        0x0 /home/berkeley/nacl_sdk/pepper_42/toolchain/linux_x86_newlib/bin/../lib/gcc/x86_64-nacl/4.4.3/../../../../x86_64-nacl/lib/../lib64/libnacl.a(lseek_64d2d05c.o)
 .bss           0x0000000010036d88        0x0 /home/berkeley/nacl_sdk/pepper_42/toolchain/linux_x86_newlib/bin/../lib/gcc/x86_64-nacl/4.4.3/../../../../x86_64-nacl/lib/../lib64/libnacl.a(read_df872e10.o)
 .bss           0x0000000010036d88        0x0 /home/berkeley/nacl_sdk/pepper_42/toolchain/linux_x86_newlib/bin/../lib/gcc/x86_64-nacl/4.4.3/crtend.o
 .bss           0x0000000010036d88        0x0 /home/berkeley/nacl_sdk/pepper_42/toolchain/linux_x86_newlib/bin/../lib/gcc/x86_64-nacl/4.4.3/../../../../x86_64-nacl/lib/../lib64/crtn.o
 *(COMMON)
 *fill*         0x0000000010036d88        0x8 
 COMMON         0x0000000010036d90       0x4c /home/berkeley/nacl_sdk/pepper_42/toolchain/linux_x86_newlib/bin/../lib/gcc/x86_64-nacl/4.4.3/../../../../x86_64-nacl/lib/../lib64/libpthread.a(nc_thread_7e478b15.o)
                0x0000000010036d90                __nc_thread_initialized
                0x0000000010036da0                __nc_thread_management_lock
                0x0000000010036db4                __nc_memory_block_counter
                0x0000000010036dbc                __nc_initial_thread_id
                0x0000000010036dc0                __nc_thread_memory_blocks
                0x0000000010036dd0                __libnacl_irt_thread
 COMMON         0x0000000010036ddc        0x8 /home/berkeley/nacl_sdk/pepper_42/toolchain/linux_x86_newlib/bin/../lib/gcc/x86_64-nacl/4.4.3/../../../../x86_64-nacl/lib/../lib64/libpthread.a(nc_init_irt_d3daafc0.o)
                0x0000000010036ddc                __libnacl_irt_futex
 COMMON         0x0000000010036de4        0x4 /home/berkeley/nacl_sdk/pepper_42/toolchain/linux_x86_newlib/bin/../lib/gcc/x86_64-nacl/4.4.3/../../../../x86_64-nacl/lib/../lib64/libnacl.a(start_fa9ef7de.o)
                0x0000000010036de4                __nacl_initial_thread_stack_end
 *fill*         0x0000000010036de8       0x18 
 COMMON         0x0000000010036e00       0xe4 /home/berkeley/nacl_sdk/pepper_42/toolchain/linux_x86_newlib/bin/../lib/gcc/x86_64-nacl/4.4.3/../../../../x86_64-nacl/lib/../lib64/libnacl.a(nacl_irt_6de1d53f.o)
                0x0000000010036e00                __nacl_irt_query
                0x0000000010036e20                __libnacl_irt_dev_filename
                0x0000000010036e60                __libnacl_irt_clock
                0x0000000010036e68                __libnacl_irt_memory
                0x0000000010036e80                __libnacl_irt_dev_fdio
                0x0000000010036ec0                __libnacl_irt_basic
                0x0000000010036ed8                __libnacl_irt_tls
                0x0000000010036ee0                __libnacl_irt_dev_getpid
                0x0000000010036ee8                . = ALIGN ((. != 0x0)?0x8:0x1)
 *fill*         0x0000000010036ee4        0x4 

.lbss
 *(.dynlbss)
 *(.lbss .lbss.* .gnu.linkonce.lb.*)
 *(LARGE_COMMON)
                0x0000000010036ee8                . = ALIGN (0x8)
                0x0000000010036ee8                . = SEGMENT_START ("ldata-segment", .)

.lrodata
 *(.lrodata .lrodata.* .gnu.linkonce.lr.*)

.ldata          0x0000000010056ee8        0x0
 *(.ldata .ldata.* .gnu.linkonce.l.*)
                0x0000000010056ee8                . = ALIGN ((. != 0x0)?0x8:0x1)
                0x0000000010056ee8                . = ALIGN (0x8)
                0x0000000010056ee8                _end = .
                0x0000000010056ee8                PROVIDE (end, .)
                0x0000000010056ee8                . = DATA_SEGMENT_END (.)

.stab
 *(.stab)

.stabstr
 *(.stabstr)

.stab.excl
 *(.stab.excl)

.stab.exclstr
 *(.stab.exclstr)

.stab.index
 *(.stab.index)

.stab.indexstr
 *(.stab.indexstr)

.comment        0x0000000000000000       0x66
 *(.comment)
 .comment       0x0000000000000000       0x66 /home/berkeley/nacl_sdk/pepper_42/toolchain/linux_x86_newlib/bin/../lib/gcc/x86_64-nacl/4.4.3/crtbegin.o
                                         0x67 (size before relaxing)
 .comment       0x0000000000000000       0x67 newlib/Release/popcnt_x86_64.o
 .comment       0x0000000000000000       0x67 /home/berkeley/nacl_sdk/pepper_42/lib/newlib_x86_64/Release/libppapi_cpp.a(instance_x86_64.o)
 .comment       0x0000000000000000       0x67 /home/berkeley/nacl_sdk/pepper_42/lib/newlib_x86_64/Release/libppapi_cpp.a(module_x86_64.o)
 .comment       0x0000000000000000       0x67 /home/berkeley/nacl_sdk/pepper_42/lib/newlib_x86_64/Release/libppapi_cpp.a(ppp_entrypoints_x86_64.o)
 .comment       0x0000000000000000       0x67 /home/berkeley/nacl_sdk/pepper_42/lib/newlib_x86_64/Release/libppapi_cpp.a(resource_x86_64.o)
 .comment       0x0000000000000000       0x67 /home/berkeley/nacl_sdk/pepper_42/lib/newlib_x86_64/Release/libppapi_cpp.a(url_loader_x86_64.o)
 .comment       0x0000000000000000       0x67 /home/berkeley/nacl_sdk/pepper_42/lib/newlib_x86_64/Release/libppapi_cpp.a(url_response_info_x86_64.o)
 .comment       0x0000000000000000       0x67 /home/berkeley/nacl_sdk/pepper_42/lib/newlib_x86_64/Release/libppapi_cpp.a(var_x86_64.o)
 .comment       0x0000000000000000       0x67 /home/berkeley/nacl_sdk/pepper_42/lib/newlib_x86_64/Release/libppapi_cpp.a(view_x86_64.o)
 .comment       0x0000000000000000       0x67 /home/berkeley/nacl_sdk/pepper_42/lib/newlib_x86_64/Release/libppapi_cpp.a(core_x86_64.o)
 .comment       0x0000000000000000       0x67 /home/berkeley/nacl_sdk/pepper_42/lib/newlib_x86_64/Release/libppapi_cpp.a(file_ref_x86_64.o)
 .comment       0x0000000000000000       0x67 /home/berkeley/nacl_sdk/pepper_42/lib/newlib_x86_64/Release/libppapi_cpp.a(input_event_x86_64.o)
 .comment       0x0000000000000000       0x67 /home/berkeley/nacl_sdk/pepper_42/toolchain/linux_x86_newlib/bin/../lib/gcc/x86_64-nacl/4.4.3/../../../../x86_64-nacl/lib/../lib64/libppapi_stub.a(plugin_main_irt_21ce9d26.o)
 .comment       0x0000000000000000       0x67 /home/berkeley/nacl_sdk/pepper_42/toolchain/linux_x86_newlib/bin/../lib/gcc/x86_64-nacl/4.4.3/../../../../x86_64-nacl/lib/../lib64/libppapi_stub.a(ppapi_plugin_main_399d0cf7.o)
 .comment       0x0000000000000000       0x67 /home/berkeley/nacl_sdk/pepper_42/toolchain/linux_x86_newlib/bin/../lib/gcc/x86_64-nacl/4.4.3/../../../../x86_64-nacl/lib/../lib64/libppapi_stub.a(ppapi_plugin_start_8da67623.o)
 .comment       0x0000000000000000       0x67 /home/berkeley/nacl_sdk/pepper_42/toolchain/linux_x86_newlib/bin/../lib/gcc/x86_64-nacl/4.4.3/../../../../x86_64-nacl/lib/../lib64/libppapi_stub.a(thread_creator_ccf263e1.o)
 .comment       0x0000000000000000       0x67 /home/berkeley/nacl_sdk/pepper_42/toolchain/linux_x86_newlib/bin/../lib/gcc/x86_64-nacl/4.4.3/../../../../x86_64-nacl/lib/../lib64/libpthread.a(nc_thread_7e478b15.o)
 .comment       0x0000000000000000       0x67 /home/berkeley/nacl_sdk/pepper_42/toolchain/linux_x86_newlib/bin/../lib/gcc/x86_64-nacl/4.4.3/../../../../x86_64-nacl/lib/../lib64/libpthread.a(nc_condvar_305aa45a.o)
 .comment       0x0000000000000000       0x67 /home/berkeley/nacl_sdk/pepper_42/toolchain/linux_x86_newlib/bin/../lib/gcc/x86_64-nacl/4.4.3/../../../../x86_64-nacl/lib/../lib64/libpthread.a(dynamic_annotations_33ba59cc.o)
 .comment       0x0000000000000000       0x67 /home/berkeley/nacl_sdk/pepper_42/toolchain/linux_x86_newlib/bin/../lib/gcc/x86_64-nacl/4.4.3/../../../../x86_64-nacl/lib/../lib64/libpthread.a(nc_mutex_86341ae1.o)
 .comment       0x0000000000000000       0x67 /home/berkeley/nacl_sdk/pepper_42/toolchain/linux_x86_newlib/bin/../lib/gcc/x86_64-nacl/4.4.3/../../../../x86_64-nacl/lib/../lib64/libpthread.a(nc_init_irt_d3daafc0.o)
 .comment       0x0000000000000000       0x67 /home/berkeley/nacl_sdk/pepper_42/toolchain/linux_x86_newlib/bin/../lib/gcc/x86_64-nacl/4.4.3/../../../../x86_64-nacl/lib/../lib64/libstdc++.a(tree.o)
 .comment       0x0000000000000000       0x67 /home/berkeley/nacl_sdk/pepper_42/toolchain/linux_x86_newlib/bin/../lib/gcc/x86_64-nacl/4.4.3/../../../../x86_64-nacl/lib/../lib64/libstdc++.a(string-inst.o)
 .comment       0x0000000000000000       0x67 /home/berkeley/nacl_sdk/pepper_42/toolchain/linux_x86_newlib/bin/../lib/gcc/x86_64-nacl/4.4.3/../../../../x86_64-nacl/lib/../lib64/libstdc++.a(eh_personality.o)
 .comment       0x0000000000000000       0x67 /home/berkeley/nacl_sdk/pepper_42/toolchain/linux_x86_newlib/bin/../lib/gcc/x86_64-nacl/4.4.3/../../../../x86_64-nacl/lib/../lib64/libstdc++.a(eh_globals.o)
 .comment       0x0000000000000000       0x67 /home/berkeley/nacl_sdk/pepper_42/toolchain/linux_x86_newlib/bin/../lib/gcc/x86_64-nacl/4.4.3/../../../../x86_64-nacl/lib/../lib64/libstdc++.a(eh_throw.o)
 .comment       0x0000000000000000       0x67 /home/berkeley/nacl_sdk/pepper_42/toolchain/linux_x86_newlib/bin/../lib/gcc/x86_64-nacl/4.4.3/../../../../x86_64-nacl/lib/../lib64/libstdc++.a(del_op.o)
 .comment       0x0000000000000000       0x67 /home/berkeley/nacl_sdk/pepper_42/toolchain/linux_x86_newlib/bin/../lib/gcc/x86_64-nacl/4.4.3/../../../../x86_64-nacl/lib/../lib64/libstdc++.a(eh_call.o)
 .comment       0x0000000000000000       0x67 /home/berkeley/nacl_sdk/pepper_42/toolchain/linux_x86_newlib/bin/../lib/gcc/x86_64-nacl/4.4.3/../../../../x86_64-nacl/lib/../lib64/libstdc++.a(guard.o)
 .comment       0x0000000000000000       0x67 /home/berkeley/nacl_sdk/pepper_42/toolchain/linux_x86_newlib/bin/../lib/gcc/x86_64-nacl/4.4.3/../../../../x86_64-nacl/lib/../lib64/libstdc++.a(si_class_type_info.o)
 .comment       0x0000000000000000       0x67 /home/berkeley/nacl_sdk/pepper_42/toolchain/linux_x86_newlib/bin/../lib/gcc/x86_64-nacl/4.4.3/../../../../x86_64-nacl/lib/../lib64/libstdc++.a(eh_terminate.o)
 .comment       0x0000000000000000       0x67 /home/berkeley/nacl_sdk/pepper_42/toolchain/linux_x86_newlib/bin/../lib/gcc/x86_64-nacl/4.4.3/../../../../x86_64-nacl/lib/../lib64/libstdc++.a(class_type_info.o)
 .comment       0x0000000000000000       0x67 /home/berkeley/nacl_sdk/pepper_42/toolchain/linux_x86_newlib/bin/../lib/gcc/x86_64-nacl/4.4.3/../../../../x86_64-nacl/lib/../lib64/libstdc++.a(eh_alloc.o)
 .comment       0x0000000000000000       0x67 /home/berkeley/nacl_sdk/pepper_42/toolchain/linux_x86_newlib/bin/../lib/gcc/x86_64-nacl/4.4.3/../../../../x86_64-nacl/lib/../lib64/libstdc++.a(eh_catch.o)
 .comment       0x0000000000000000       0x67 /home/berkeley/nacl_sdk/pepper_42/toolchain/linux_x86_newlib/bin/../lib/gcc/x86_64-nacl/4.4.3/../../../../x86_64-nacl/lib/../lib64/libstdc++.a(eh_exception.o)
 .comment       0x0000000000000000       0x67 /home/berkeley/nacl_sdk/pepper_42/toolchain/linux_x86_newlib/bin/../lib/gcc/x86_64-nacl/4.4.3/../../../../x86_64-nacl/lib/../lib64/libstdc++.a(pure.o)
 .comment       0x0000000000000000       0x67 /home/berkeley/nacl_sdk/pepper_42/toolchain/linux_x86_newlib/bin/../lib/gcc/x86_64-nacl/4.4.3/../../../../x86_64-nacl/lib/../lib64/libstdc++.a(new_op.o)
 .comment       0x0000000000000000       0x67 /home/berkeley/nacl_sdk/pepper_42/toolchain/linux_x86_newlib/bin/../lib/gcc/x86_64-nacl/4.4.3/../../../../x86_64-nacl/lib/../lib64/libstdc++.a(tinfo.o)
 .comment       0x0000000000000000       0x67 /home/berkeley/nacl_sdk/pepper_42/toolchain/linux_x86_newlib/bin/../lib/gcc/x86_64-nacl/4.4.3/../../../../x86_64-nacl/lib/../lib64/libstdc++.a(functexcept.o)
 .comment       0x0000000000000000       0x67 /home/berkeley/nacl_sdk/pepper_42/toolchain/linux_x86_newlib/bin/../lib/gcc/x86_64-nacl/4.4.3/../../../../x86_64-nacl/lib/../lib64/libstdc++.a(ios_failure.o)
 .comment       0x0000000000000000       0x67 /home/berkeley/nacl_sdk/pepper_42/toolchain/linux_x86_newlib/bin/../lib/gcc/x86_64-nacl/4.4.3/../../../../x86_64-nacl/lib/../lib64/libstdc++.a(stdexcept.o)
 .comment       0x0000000000000000       0x67 /home/berkeley/nacl_sdk/pepper_42/toolchain/linux_x86_newlib/bin/../lib/gcc/x86_64-nacl/4.4.3/../../../../x86_64-nacl/lib/../lib64/libstdc++.a(system_error.o)
 .comment       0x0000000000000000       0x67 /home/berkeley/nacl_sdk/pepper_42/toolchain/linux_x86_newlib/bin/../lib/gcc/x86_64-nacl/4.4.3/../../../../x86_64-nacl/lib/../lib64/libstdc++.a(eh_unex_handler.o)
 .comment       0x0000000000000000       0x67 /home/berkeley/nacl_sdk/pepper_42/toolchain/linux_x86_newlib/bin/../lib/gcc/x86_64-nacl/4.4.3/../../../../x86_64-nacl/lib/../lib64/libstdc++.a(eh_term_handler.o)
 .comment       0x0000000000000000       0x67 /home/berkeley/nacl_sdk/pepper_42/toolchain/linux_x86_newlib/bin/../lib/gcc/x86_64-nacl/4.4.3/../../../../x86_64-nacl/lib/../lib64/libstdc++.a(bad_typeid.o)
 .comment       0x0000000000000000       0x67 /home/berkeley/nacl_sdk/pepper_42/toolchain/linux_x86_newlib/bin/../lib/gcc/x86_64-nacl/4.4.3/../../../../x86_64-nacl/lib/../lib64/libstdc++.a(new_handler.o)
 .comment       0x0000000000000000       0x67 /home/berkeley/nacl_sdk/pepper_42/toolchain/linux_x86_newlib/bin/../lib/gcc/x86_64-nacl/4.4.3/../../../../x86_64-nacl/lib/../lib64/libstdc++.a(bad_cast.o)
 .comment       0x0000000000000000       0x67 /home/berkeley/nacl_sdk/pepper_42/toolchain/linux_x86_newlib/bin/../lib/gcc/x86_64-nacl/4.4.3/../../../../x86_64-nacl/lib/../lib64/libstdc++.a(vterminate.o)
 .comment       0x0000000000000000       0x67 /home/berkeley/nacl_sdk/pepper_42/toolchain/linux_x86_newlib/bin/../lib/gcc/x86_64-nacl/4.4.3/../../../../x86_64-nacl/lib/../lib64/libstdc++.a(cp-demangle.o)
 .comment       0x0000000000000000       0x67 /home/berkeley/nacl_sdk/pepper_42/toolchain/linux_x86_newlib/bin/../lib/gcc/x86_64-nacl/4.4.3/../../../../x86_64-nacl/lib/../lib64/libstdc++.a(eh_type.o)
 .comment       0x0000000000000000       0x67 /home/berkeley/nacl_sdk/pepper_42/toolchain/linux_x86_newlib/bin/../lib/gcc/x86_64-nacl/4.4.3/libgcc.a(unwind-dw2.o)
 .comment       0x0000000000000000       0x67 /home/berkeley/nacl_sdk/pepper_42/toolchain/linux_x86_newlib/bin/../lib/gcc/x86_64-nacl/4.4.3/libgcc.a(unwind-dw2-fde-glibc.o)
 .comment       0x0000000000000000       0x67 /home/berkeley/nacl_sdk/pepper_42/toolchain/linux_x86_newlib/bin/../lib/gcc/x86_64-nacl/4.4.3/../../../../x86_64-nacl/lib/../lib64/libnacl.a(_exit_710c7d0d.o)
 .comment       0x0000000000000000       0x67 /home/berkeley/nacl_sdk/pepper_42/toolchain/linux_x86_newlib/bin/../lib/gcc/x86_64-nacl/4.4.3/../../../../x86_64-nacl/lib/../lib64/libnacl.a(abort_9f6b5845.o)
 .comment       0x0000000000000000       0x67 /home/berkeley/nacl_sdk/pepper_42/toolchain/linux_x86_newlib/bin/../lib/gcc/x86_64-nacl/4.4.3/../../../../x86_64-nacl/lib/../lib64/libnacl.a(environ_25cd24d8.o)
 .comment       0x0000000000000000       0x67 /home/berkeley/nacl_sdk/pepper_42/toolchain/linux_x86_newlib/bin/../lib/gcc/x86_64-nacl/4.4.3/../../../../x86_64-nacl/lib/../lib64/libnacl.a(start_fa9ef7de.o)
 .comment       0x0000000000000000       0x67 /home/berkeley/nacl_sdk/pepper_42/toolchain/linux_x86_newlib/bin/../lib/gcc/x86_64-nacl/4.4.3/../../../../x86_64-nacl/lib/../lib64/libnacl.a(malloc_222c4a1e.o)
 .comment       0x0000000000000000       0x67 /home/berkeley/nacl_sdk/pepper_42/toolchain/linux_x86_newlib/bin/../lib/gcc/x86_64-nacl/4.4.3/../../../../x86_64-nacl/lib/../lib64/libnacl.a(nacl_irt_6de1d53f.o)
 .comment       0x0000000000000000       0x67 /home/berkeley/nacl_sdk/pepper_42/toolchain/linux_x86_newlib/bin/../lib/gcc/x86_64-nacl/4.4.3/../../../../x86_64-nacl/lib/../lib64/libnacl.a(pthread_initialize_minimal_4b6e776b.o)
 .comment       0x0000000000000000       0x67 /home/berkeley/nacl_sdk/pepper_42/toolchain/linux_x86_newlib/bin/../lib/gcc/x86_64-nacl/4.4.3/../../../../x86_64-nacl/lib/../lib64/libnacl.a(nacl_read_tp_5748ac47.o)
 .comment       0x0000000000000000       0x67 /home/berkeley/nacl_sdk/pepper_42/toolchain/linux_x86_newlib/bin/../lib/gcc/x86_64-nacl/4.4.3/../../../../x86_64-nacl/lib/../lib64/libnacl.a(nacl_add_tp_7312c7c4.o)
 .comment       0x0000000000000000       0x67 /home/berkeley/nacl_sdk/pepper_42/toolchain/linux_x86_newlib/bin/../lib/gcc/x86_64-nacl/4.4.3/../../../../x86_64-nacl/lib/../lib64/libnacl.a(mmap_767fb080.o)
 .comment       0x0000000000000000       0x67 /home/berkeley/nacl_sdk/pepper_42/toolchain/linux_x86_newlib/bin/../lib/gcc/x86_64-nacl/4.4.3/../../../../x86_64-nacl/lib/../lib64/libnacl.a(sched_yield_56c375be.o)
 .comment       0x0000000000000000       0x67 /home/berkeley/nacl_sdk/pepper_42/toolchain/linux_x86_newlib/bin/../lib/gcc/x86_64-nacl/4.4.3/../../../../x86_64-nacl/lib/../lib64/libnacl.a(munmap_d4f09867.o)
 .comment       0x0000000000000000       0x67 /home/berkeley/nacl_sdk/pepper_42/toolchain/linux_x86_newlib/bin/../lib/gcc/x86_64-nacl/4.4.3/../../../../x86_64-nacl/lib/../lib64/libnacl.a(tls_bba1975b.o)
 .comment       0x0000000000000000       0x67 /home/berkeley/nacl_sdk/pepper_42/toolchain/linux_x86_newlib/bin/../lib/gcc/x86_64-nacl/4.4.3/../../../../x86_64-nacl/lib/../lib64/libnacl.a(write_fb49787f.o)
 .comment       0x0000000000000000       0x67 /home/berkeley/nacl_sdk/pepper_42/toolchain/linux_x86_newlib/bin/../lib/gcc/x86_64-nacl/4.4.3/../../../../x86_64-nacl/lib/../lib64/libnacl.a(nacl_tls_get_d2f842b5.o)
 .comment       0x0000000000000000       0x67 /home/berkeley/nacl_sdk/pepper_42/toolchain/linux_x86_newlib/bin/../lib/gcc/x86_64-nacl/4.4.3/../../../../x86_64-nacl/lib/../lib64/libnacl.a(nacl_irt_init_7b4f826e.o)
 .comment       0x0000000000000000       0x67 /home/berkeley/nacl_sdk/pepper_42/toolchain/linux_x86_newlib/bin/../lib/gcc/x86_64-nacl/4.4.3/../../../../x86_64-nacl/lib/../lib64/libnacl.a(sysconf_ad295ea2.o)
 .comment       0x0000000000000000       0x67 /home/berkeley/nacl_sdk/pepper_42/toolchain/linux_x86_newlib/bin/../lib/gcc/x86_64-nacl/4.4.3/../../../../x86_64-nacl/lib/../lib64/libnacl.a(nacl_tls_init_eb0cd232.o)
 .comment       0x0000000000000000       0x67 /home/berkeley/nacl_sdk/pepper_42/toolchain/linux_x86_newlib/bin/../lib/gcc/x86_64-nacl/4.4.3/../../../../x86_64-nacl/lib/../lib64/libcrt_common.a(lib_a-atexit.o)
 .comment       0x0000000000000000       0x67 /home/berkeley/nacl_sdk/pepper_42/toolchain/linux_x86_newlib/bin/../lib/gcc/x86_64-nacl/4.4.3/../../../../x86_64-nacl/lib/../lib64/libcrt_common.a(lib_a-cxa_atexit.o)
 .comment       0x0000000000000000       0x67 /home/berkeley/nacl_sdk/pepper_42/toolchain/linux_x86_newlib/bin/../lib/gcc/x86_64-nacl/4.4.3/../../../../x86_64-nacl/lib/../lib64/libcrt_common.a(lib_a-errno.o)
 .comment       0x0000000000000000       0x67 /home/berkeley/nacl_sdk/pepper_42/toolchain/linux_x86_newlib/bin/../lib/gcc/x86_64-nacl/4.4.3/../../../../x86_64-nacl/lib/../lib64/libcrt_common.a(lib_a-exit.o)
 .comment       0x0000000000000000       0x67 /home/berkeley/nacl_sdk/pepper_42/toolchain/linux_x86_newlib/bin/../lib/gcc/x86_64-nacl/4.4.3/../../../../x86_64-nacl/lib/../lib64/libcrt_common.a(lib_a-fini.o)
 .comment       0x0000000000000000       0x67 /home/berkeley/nacl_sdk/pepper_42/toolchain/linux_x86_newlib/bin/../lib/gcc/x86_64-nacl/4.4.3/../../../../x86_64-nacl/lib/../lib64/libcrt_common.a(lib_a-fprintf.o)
 .comment       0x0000000000000000       0x67 /home/berkeley/nacl_sdk/pepper_42/toolchain/linux_x86_newlib/bin/../lib/gcc/x86_64-nacl/4.4.3/../../../../x86_64-nacl/lib/../lib64/libcrt_common.a(lib_a-fputc.o)
 .comment       0x0000000000000000       0x67 /home/berkeley/nacl_sdk/pepper_42/toolchain/linux_x86_newlib/bin/../lib/gcc/x86_64-nacl/4.4.3/../../../../x86_64-nacl/lib/../lib64/libcrt_common.a(lib_a-fputs.o)
 .comment       0x0000000000000000       0x67 /home/berkeley/nacl_sdk/pepper_42/toolchain/linux_x86_newlib/bin/../lib/gcc/x86_64-nacl/4.4.3/../../../../x86_64-nacl/lib/../lib64/libcrt_common.a(lib_a-fvwrite.o)
 .comment       0x0000000000000000       0x67 /home/berkeley/nacl_sdk/pepper_42/toolchain/linux_x86_newlib/bin/../lib/gcc/x86_64-nacl/4.4.3/../../../../x86_64-nacl/lib/../lib64/libcrt_common.a(lib_a-fwrite.o)
 .comment       0x0000000000000000       0x67 /home/berkeley/nacl_sdk/pepper_42/toolchain/linux_x86_newlib/bin/../lib/gcc/x86_64-nacl/4.4.3/../../../../x86_64-nacl/lib/../lib64/libcrt_common.a(lib_a-getenv.o)
 .comment       0x0000000000000000       0x67 /home/berkeley/nacl_sdk/pepper_42/toolchain/linux_x86_newlib/bin/../lib/gcc/x86_64-nacl/4.4.3/../../../../x86_64-nacl/lib/../lib64/libcrt_common.a(lib_a-getenv_r.o)
 .comment       0x0000000000000000       0x67 /home/berkeley/nacl_sdk/pepper_42/toolchain/linux_x86_newlib/bin/../lib/gcc/x86_64-nacl/4.4.3/../../../../x86_64-nacl/lib/../lib64/libcrt_common.a(lib_a-impure.o)
 .comment       0x0000000000000000       0x67 /home/berkeley/nacl_sdk/pepper_42/toolchain/linux_x86_newlib/bin/../lib/gcc/x86_64-nacl/4.4.3/../../../../x86_64-nacl/lib/../lib64/libcrt_common.a(lib_a-init.o)
 .comment       0x0000000000000000       0x67 /home/berkeley/nacl_sdk/pepper_42/toolchain/linux_x86_newlib/bin/../lib/gcc/x86_64-nacl/4.4.3/../../../../x86_64-nacl/lib/../lib64/libcrt_common.a(lib_a-memchr.o)
 .comment       0x0000000000000000       0x67 /home/berkeley/nacl_sdk/pepper_42/toolchain/linux_x86_newlib/bin/../lib/gcc/x86_64-nacl/4.4.3/../../../../x86_64-nacl/lib/../lib64/libcrt_common.a(lib_a-memmove.o)
 .comment       0x0000000000000000       0x67 /home/berkeley/nacl_sdk/pepper_42/toolchain/linux_x86_newlib/bin/../lib/gcc/x86_64-nacl/4.4.3/../../../../x86_64-nacl/lib/../lib64/libcrt_common.a(lib_a-putc.o)
 .comment       0x0000000000000000       0x67 /home/berkeley/nacl_sdk/pepper_42/toolchain/linux_x86_newlib/bin/../lib/gcc/x86_64-nacl/4.4.3/../../../../x86_64-nacl/lib/../lib64/libcrt_common.a(lib_a-snprintf.o)
 .comment       0x0000000000000000       0x67 /home/berkeley/nacl_sdk/pepper_42/toolchain/linux_x86_newlib/bin/../lib/gcc/x86_64-nacl/4.4.3/../../../../x86_64-nacl/lib/../lib64/libcrt_common.a(lib_a-sprintf.o)
 .comment       0x0000000000000000       0x67 /home/berkeley/nacl_sdk/pepper_42/toolchain/linux_x86_newlib/bin/../lib/gcc/x86_64-nacl/4.4.3/../../../../x86_64-nacl/lib/../lib64/libcrt_common.a(lib_a-strcpy.o)
 .comment       0x0000000000000000       0x67 /home/berkeley/nacl_sdk/pepper_42/toolchain/linux_x86_newlib/bin/../lib/gcc/x86_64-nacl/4.4.3/../../../../x86_64-nacl/lib/../lib64/libcrt_common.a(lib_a-strerror.o)
 .comment       0x0000000000000000       0x67 /home/berkeley/nacl_sdk/pepper_42/toolchain/linux_x86_newlib/bin/../lib/gcc/x86_64-nacl/4.4.3/../../../../x86_64-nacl/lib/../lib64/libcrt_common.a(lib_a-strlen.o)
 .comment       0x0000000000000000       0x67 /home/berkeley/nacl_sdk/pepper_42/toolchain/linux_x86_newlib/bin/../lib/gcc/x86_64-nacl/4.4.3/../../../../x86_64-nacl/lib/../lib64/libcrt_common.a(lib_a-strncmp.o)
 .comment       0x0000000000000000       0x67 /home/berkeley/nacl_sdk/pepper_42/toolchain/linux_x86_newlib/bin/../lib/gcc/x86_64-nacl/4.4.3/../../../../x86_64-nacl/lib/../lib64/libcrt_common.a(lib_a-svfprintf.o)
 .comment       0x0000000000000000       0x67 /home/berkeley/nacl_sdk/pepper_42/toolchain/linux_x86_newlib/bin/../lib/gcc/x86_64-nacl/4.4.3/../../../../x86_64-nacl/lib/../lib64/libcrt_common.a(lib_a-u_strerr.o)
 .comment       0x0000000000000000       0x67 /home/berkeley/nacl_sdk/pepper_42/toolchain/linux_x86_newlib/bin/../lib/gcc/x86_64-nacl/4.4.3/../../../../x86_64-nacl/lib/../lib64/libcrt_common.a(lib_a-vfprintf.o)
 .comment       0x0000000000000000       0x67 /home/berkeley/nacl_sdk/pepper_42/toolchain/linux_x86_newlib/bin/../lib/gcc/x86_64-nacl/4.4.3/../../../../x86_64-nacl/lib/../lib64/libcrt_common.a(lib_a-wbuf.o)
 .comment       0x0000000000000000       0x67 /home/berkeley/nacl_sdk/pepper_42/toolchain/linux_x86_newlib/bin/../lib/gcc/x86_64-nacl/4.4.3/../../../../x86_64-nacl/lib/../lib64/libcrt_common.a(lib_a-wcrtomb.o)
 .comment       0x0000000000000000       0x67 /home/berkeley/nacl_sdk/pepper_42/toolchain/linux_x86_newlib/bin/../lib/gcc/x86_64-nacl/4.4.3/../../../../x86_64-nacl/lib/../lib64/libcrt_common.a(lib_a-wcsrtombs.o)
 .comment       0x0000000000000000       0x67 /home/berkeley/nacl_sdk/pepper_42/toolchain/linux_x86_newlib/bin/../lib/gcc/x86_64-nacl/4.4.3/../../../../x86_64-nacl/lib/../lib64/libcrt_common.a(lib_a-wctomb_r.o)
 .comment       0x0000000000000000       0x67 /home/berkeley/nacl_sdk/pepper_42/toolchain/linux_x86_newlib/bin/../lib/gcc/x86_64-nacl/4.4.3/../../../../x86_64-nacl/lib/../lib64/libcrt_common.a(lib_a-wsetup.o)
 .comment       0x0000000000000000       0x67 /home/berkeley/nacl_sdk/pepper_42/toolchain/linux_x86_newlib/bin/../lib/gcc/x86_64-nacl/4.4.3/../../../../x86_64-nacl/lib/../lib64/libcrt_common.a(lib_a-__atexit.o)
 .comment       0x0000000000000000       0x67 /home/berkeley/nacl_sdk/pepper_42/toolchain/linux_x86_newlib/bin/../lib/gcc/x86_64-nacl/4.4.3/../../../../x86_64-nacl/lib/../lib64/libcrt_common.a(lib_a-__call_atexit.o)
 .comment       0x0000000000000000       0x67 /home/berkeley/nacl_sdk/pepper_42/toolchain/linux_x86_newlib/bin/../lib/gcc/x86_64-nacl/4.4.3/../../../../x86_64-nacl/lib/../lib64/libcrt_common.a(lib_a-dtoa.o)
 .comment       0x0000000000000000       0x67 /home/berkeley/nacl_sdk/pepper_42/toolchain/linux_x86_newlib/bin/../lib/gcc/x86_64-nacl/4.4.3/../../../../x86_64-nacl/lib/../lib64/libcrt_common.a(lib_a-envlock.o)
 .comment       0x0000000000000000       0x67 /home/berkeley/nacl_sdk/pepper_42/toolchain/linux_x86_newlib/bin/../lib/gcc/x86_64-nacl/4.4.3/../../../../x86_64-nacl/lib/../lib64/libcrt_common.a(lib_a-fflush.o)
 .comment       0x0000000000000000       0x67 /home/berkeley/nacl_sdk/pepper_42/toolchain/linux_x86_newlib/bin/../lib/gcc/x86_64-nacl/4.4.3/../../../../x86_64-nacl/lib/../lib64/libcrt_common.a(lib_a-findfp.o)
 .comment       0x0000000000000000       0x67 /home/berkeley/nacl_sdk/pepper_42/toolchain/linux_x86_newlib/bin/../lib/gcc/x86_64-nacl/4.4.3/../../../../x86_64-nacl/lib/../lib64/libcrt_common.a(lib_a-fwalk.o)
 .comment       0x0000000000000000       0x67 /home/berkeley/nacl_sdk/pepper_42/toolchain/linux_x86_newlib/bin/../lib/gcc/x86_64-nacl/4.4.3/../../../../x86_64-nacl/lib/../lib64/libcrt_common.a(lib_a-locale.o)
 .comment       0x0000000000000000       0x67 /home/berkeley/nacl_sdk/pepper_42/toolchain/linux_x86_newlib/bin/../lib/gcc/x86_64-nacl/4.4.3/../../../../x86_64-nacl/lib/../lib64/libcrt_common.a(lib_a-makebuf.o)
 .comment       0x0000000000000000       0x67 /home/berkeley/nacl_sdk/pepper_42/toolchain/linux_x86_newlib/bin/../lib/gcc/x86_64-nacl/4.4.3/../../../../x86_64-nacl/lib/../lib64/libcrt_common.a(lib_a-mbtowc_r.o)
 .comment       0x0000000000000000       0x67 /home/berkeley/nacl_sdk/pepper_42/toolchain/linux_x86_newlib/bin/../lib/gcc/x86_64-nacl/4.4.3/../../../../x86_64-nacl/lib/../lib64/libcrt_common.a(lib_a-mprec.o)
 .comment       0x0000000000000000       0x67 /home/berkeley/nacl_sdk/pepper_42/toolchain/linux_x86_newlib/bin/../lib/gcc/x86_64-nacl/4.4.3/../../../../x86_64-nacl/lib/../lib64/libcrt_common.a(lib_a-s_fpclassify.o)
 .comment       0x0000000000000000       0x67 /home/berkeley/nacl_sdk/pepper_42/toolchain/linux_x86_newlib/bin/../lib/gcc/x86_64-nacl/4.4.3/../../../../x86_64-nacl/lib/../lib64/libcrt_common.a(lib_a-s_frexp.o)
 .comment       0x0000000000000000       0x67 /home/berkeley/nacl_sdk/pepper_42/toolchain/linux_x86_newlib/bin/../lib/gcc/x86_64-nacl/4.4.3/../../../../x86_64-nacl/lib/../lib64/libcrt_common.a(lib_a-stdio.o)
 .comment       0x0000000000000000       0x67 /home/berkeley/nacl_sdk/pepper_42/toolchain/linux_x86_newlib/bin/../lib/gcc/x86_64-nacl/4.4.3/../../../../x86_64-nacl/lib/../lib64/libcrt_common.a(lib_a-strcasecmp.o)
 .comment       0x0000000000000000       0x67 /home/berkeley/nacl_sdk/pepper_42/toolchain/linux_x86_newlib/bin/../lib/gcc/x86_64-nacl/4.4.3/../../../../x86_64-nacl/lib/../lib64/libcrt_common.a(lib_a-strcat.o)
 .comment       0x0000000000000000       0x67 /home/berkeley/nacl_sdk/pepper_42/toolchain/linux_x86_newlib/bin/../lib/gcc/x86_64-nacl/4.4.3/../../../../x86_64-nacl/lib/../lib64/libcrt_common.a(lib_a-strchr.o)
 .comment       0x0000000000000000       0x67 /home/berkeley/nacl_sdk/pepper_42/toolchain/linux_x86_newlib/bin/../lib/gcc/x86_64-nacl/4.4.3/../../../../x86_64-nacl/lib/../lib64/libcrt_common.a(lib_a-strcmp.o)
 .comment       0x0000000000000000       0x67 /home/berkeley/nacl_sdk/pepper_42/toolchain/linux_x86_newlib/bin/../lib/gcc/x86_64-nacl/4.4.3/../../../../x86_64-nacl/lib/../lib64/libcrt_common.a(lib_a-strlcpy.o)
 .comment       0x0000000000000000       0x67 /home/berkeley/nacl_sdk/pepper_42/toolchain/linux_x86_newlib/bin/../lib/gcc/x86_64-nacl/4.4.3/../../../../x86_64-nacl/lib/../lib64/libcrt_common.a(lib_a-strncasecmp.o)
 .comment       0x0000000000000000       0x67 /home/berkeley/nacl_sdk/pepper_42/toolchain/linux_x86_newlib/bin/../lib/gcc/x86_64-nacl/4.4.3/../../../../x86_64-nacl/lib/../lib64/libcrt_common.a(lib_a-strncpy.o)
 .comment       0x0000000000000000       0x67 /home/berkeley/nacl_sdk/pepper_42/toolchain/linux_x86_newlib/bin/../lib/gcc/x86_64-nacl/4.4.3/../../../../x86_64-nacl/lib/../lib64/libcrt_common.a(lib_a-strtol.o)
 .comment       0x0000000000000000       0x67 /home/berkeley/nacl_sdk/pepper_42/toolchain/linux_x86_newlib/bin/../lib/gcc/x86_64-nacl/4.4.3/../../../../x86_64-nacl/lib/../lib64/libcrt_common.a(lib_a-svfiprintf.o)
 .comment       0x0000000000000000       0x67 /home/berkeley/nacl_sdk/pepper_42/toolchain/linux_x86_newlib/bin/../lib/gcc/x86_64-nacl/4.4.3/../../../../x86_64-nacl/lib/../lib64/libcrt_common.a(lib_a-vfiprintf.o)
 .comment       0x0000000000000000       0x67 /home/berkeley/nacl_sdk/pepper_42/toolchain/linux_x86_newlib/bin/../lib/gcc/x86_64-nacl/4.4.3/../../../../x86_64-nacl/lib/../lib64/libcrt_common.a(lib_a-wcsnrtombs.o)
 .comment       0x0000000000000000       0x67 /home/berkeley/nacl_sdk/pepper_42/toolchain/linux_x86_newlib/bin/../lib/gcc/x86_64-nacl/4.4.3/../../../../x86_64-nacl/lib/../lib64/libcrt_common.a(lib_a-ctype_.o)
 .comment       0x0000000000000000       0x67 /home/berkeley/nacl_sdk/pepper_42/toolchain/linux_x86_newlib/bin/../lib/gcc/x86_64-nacl/4.4.3/../../../../x86_64-nacl/lib/../lib64/libcrt_common.a(lib_a-fclose.o)
 .comment       0x0000000000000000       0x67 /home/berkeley/nacl_sdk/pepper_42/toolchain/linux_x86_newlib/bin/../lib/gcc/x86_64-nacl/4.4.3/../../../../x86_64-nacl/lib/../lib64/libcrt_common.a(lib_a-fputwc.o)
 .comment       0x0000000000000000       0x67 /home/berkeley/nacl_sdk/pepper_42/toolchain/linux_x86_newlib/bin/../lib/gcc/x86_64-nacl/4.4.3/../../../../x86_64-nacl/lib/../lib64/libnacl.a(close_e9b92fbd.o)
 .comment       0x0000000000000000       0x67 /home/berkeley/nacl_sdk/pepper_42/toolchain/linux_x86_newlib/bin/../lib/gcc/x86_64-nacl/4.4.3/../../../../x86_64-nacl/lib/../lib64/libnacl.a(isatty_02f56e94.o)
 .comment       0x0000000000000000       0x67 /home/berkeley/nacl_sdk/pepper_42/toolchain/linux_x86_newlib/bin/../lib/gcc/x86_64-nacl/4.4.3/../../../../x86_64-nacl/lib/../lib64/libnacl.a(nacl_irt_fdio_b571b5e7.o)
 .comment       0x0000000000000000       0x67 /home/berkeley/nacl_sdk/pepper_42/toolchain/linux_x86_newlib/bin/../lib/gcc/x86_64-nacl/4.4.3/../../../../x86_64-nacl/lib/../lib64/libnacl.a(fstat_0540ff63.o)
 .comment       0x0000000000000000       0x67 /home/berkeley/nacl_sdk/pepper_42/toolchain/linux_x86_newlib/bin/../lib/gcc/x86_64-nacl/4.4.3/../../../../x86_64-nacl/lib/../lib64/libnacl.a(lseek_64d2d05c.o)
 .comment       0x0000000000000000       0x67 /home/berkeley/nacl_sdk/pepper_42/toolchain/linux_x86_newlib/bin/../lib/gcc/x86_64-nacl/4.4.3/../../../../x86_64-nacl/lib/../lib64/libnacl.a(read_df872e10.o)
 .comment       0x0000000000000000       0x67 /home/berkeley/nacl_sdk/pepper_42/toolchain/linux_x86_newlib/bin/../lib/gcc/x86_64-nacl/4.4.3/crtend.o

.debug
 *(.debug)

.line
 *(.line)

.debug_srcinfo
 *(.debug_srcinfo)

.debug_sfnames
 *(.debug_sfnames)

.debug_aranges  0x0000000000000000     0x26e0
 *(.debug_aranges)
 .debug_aranges
                0x0000000000000000       0x90 newlib/Release/popcnt_x86_64.o
 .debug_aranges
                0x0000000000000090       0x70 /home/berkeley/nacl_sdk/pepper_42/lib/newlib_x86_64/Release/libppapi_cpp.a(instance_x86_64.o)
 .debug_aranges
                0x0000000000000100       0xf0 /home/berkeley/nacl_sdk/pepper_42/lib/newlib_x86_64/Release/libppapi_cpp.a(module_x86_64.o)
 .debug_aranges
                0x00000000000001f0       0x30 /home/berkeley/nacl_sdk/pepper_42/lib/newlib_x86_64/Release/libppapi_cpp.a(ppp_entrypoints_x86_64.o)
 .debug_aranges
                0x0000000000000220       0x30 /home/berkeley/nacl_sdk/pepper_42/lib/newlib_x86_64/Release/libppapi_cpp.a(resource_x86_64.o)
 .debug_aranges
                0x0000000000000250       0x70 /home/berkeley/nacl_sdk/pepper_42/lib/newlib_x86_64/Release/libppapi_cpp.a(url_loader_x86_64.o)
 .debug_aranges
                0x00000000000002c0       0x70 /home/berkeley/nacl_sdk/pepper_42/lib/newlib_x86_64/Release/libppapi_cpp.a(url_response_info_x86_64.o)
 .debug_aranges
                0x0000000000000330       0x30 /home/berkeley/nacl_sdk/pepper_42/lib/newlib_x86_64/Release/libppapi_cpp.a(var_x86_64.o)
 .debug_aranges
                0x0000000000000360       0x50 /home/berkeley/nacl_sdk/pepper_42/lib/newlib_x86_64/Release/libppapi_cpp.a(view_x86_64.o)
 .debug_aranges
                0x00000000000003b0       0x30 /home/berkeley/nacl_sdk/pepper_42/lib/newlib_x86_64/Release/libppapi_cpp.a(core_x86_64.o)
 .debug_aranges
                0x00000000000003e0       0x60 /home/berkeley/nacl_sdk/pepper_42/lib/newlib_x86_64/Release/libppapi_cpp.a(file_ref_x86_64.o)
 .debug_aranges
                0x0000000000000440       0xd0 /home/berkeley/nacl_sdk/pepper_42/lib/newlib_x86_64/Release/libppapi_cpp.a(input_event_x86_64.o)
 .debug_aranges
                0x0000000000000510       0x30 /home/berkeley/nacl_sdk/pepper_42/toolchain/linux_x86_newlib/bin/../lib/gcc/x86_64-nacl/4.4.3/../../../../x86_64-nacl/lib/../lib64/libppapi_stub.a(plugin_main_irt_21ce9d26.o)
 .debug_aranges
                0x0000000000000540       0x30 /home/berkeley/nacl_sdk/pepper_42/toolchain/linux_x86_newlib/bin/../lib/gcc/x86_64-nacl/4.4.3/../../../../x86_64-nacl/lib/../lib64/libppapi_stub.a(ppapi_plugin_main_399d0cf7.o)
 .debug_aranges
                0x0000000000000570       0x30 /home/berkeley/nacl_sdk/pepper_42/toolchain/linux_x86_newlib/bin/../lib/gcc/x86_64-nacl/4.4.3/../../../../x86_64-nacl/lib/../lib64/libppapi_stub.a(ppapi_plugin_start_8da67623.o)
 .debug_aranges
                0x00000000000005a0       0x30 /home/berkeley/nacl_sdk/pepper_42/toolchain/linux_x86_newlib/bin/../lib/gcc/x86_64-nacl/4.4.3/../../../../x86_64-nacl/lib/../lib64/libppapi_stub.a(thread_creator_ccf263e1.o)
 .debug_aranges
                0x00000000000005d0       0x30 /home/berkeley/nacl_sdk/pepper_42/toolchain/linux_x86_newlib/bin/../lib/gcc/x86_64-nacl/4.4.3/../../../../x86_64-nacl/lib/../lib64/libpthread.a(nc_thread_7e478b15.o)
 .debug_aranges
                0x0000000000000600       0x30 /home/berkeley/nacl_sdk/pepper_42/toolchain/linux_x86_newlib/bin/../lib/gcc/x86_64-nacl/4.4.3/../../../../x86_64-nacl/lib/../lib64/libpthread.a(nc_condvar_305aa45a.o)
 .debug_aranges
                0x0000000000000630       0x30 /home/berkeley/nacl_sdk/pepper_42/toolchain/linux_x86_newlib/bin/../lib/gcc/x86_64-nacl/4.4.3/../../../../x86_64-nacl/lib/../lib64/libpthread.a(dynamic_annotations_33ba59cc.o)
 .debug_aranges
                0x0000000000000660       0x30 /home/berkeley/nacl_sdk/pepper_42/toolchain/linux_x86_newlib/bin/../lib/gcc/x86_64-nacl/4.4.3/../../../../x86_64-nacl/lib/../lib64/libpthread.a(nc_mutex_86341ae1.o)
 .debug_aranges
                0x0000000000000690       0x30 /home/berkeley/nacl_sdk/pepper_42/toolchain/linux_x86_newlib/bin/../lib/gcc/x86_64-nacl/4.4.3/../../../../x86_64-nacl/lib/../lib64/libpthread.a(nc_init_irt_d3daafc0.o)
 .debug_aranges
                0x00000000000006c0       0xb0 /home/berkeley/nacl_sdk/pepper_42/toolchain/linux_x86_newlib/bin/../lib/gcc/x86_64-nacl/4.4.3/../../../../x86_64-nacl/lib/../lib64/libstdc++.a(tree.o)
 .debug_aranges
                0x0000000000000770      0xb20 /home/berkeley/nacl_sdk/pepper_42/toolchain/linux_x86_newlib/bin/../lib/gcc/x86_64-nacl/4.4.3/../../../../x86_64-nacl/lib/../lib64/libstdc++.a(string-inst.o)
 .debug_aranges
                0x0000000000001290       0xa0 /home/berkeley/nacl_sdk/pepper_42/toolchain/linux_x86_newlib/bin/../lib/gcc/x86_64-nacl/4.4.3/../../../../x86_64-nacl/lib/../lib64/libstdc++.a(eh_personality.o)
 .debug_aranges
                0x0000000000001330       0x70 /home/berkeley/nacl_sdk/pepper_42/toolchain/linux_x86_newlib/bin/../lib/gcc/x86_64-nacl/4.4.3/../../../../x86_64-nacl/lib/../lib64/libstdc++.a(eh_globals.o)
 .debug_aranges
                0x00000000000013a0       0x50 /home/berkeley/nacl_sdk/pepper_42/toolchain/linux_x86_newlib/bin/../lib/gcc/x86_64-nacl/4.4.3/../../../../x86_64-nacl/lib/../lib64/libstdc++.a(eh_throw.o)
 .debug_aranges
                0x00000000000013f0       0x30 /home/berkeley/nacl_sdk/pepper_42/toolchain/linux_x86_newlib/bin/../lib/gcc/x86_64-nacl/4.4.3/../../../../x86_64-nacl/lib/../lib64/libstdc++.a(del_op.o)
 .debug_aranges
                0x0000000000001420       0x30 /home/berkeley/nacl_sdk/pepper_42/toolchain/linux_x86_newlib/bin/../lib/gcc/x86_64-nacl/4.4.3/../../../../x86_64-nacl/lib/../lib64/libstdc++.a(eh_call.o)
 .debug_aranges
                0x0000000000001450       0xf0 /home/berkeley/nacl_sdk/pepper_42/toolchain/linux_x86_newlib/bin/../lib/gcc/x86_64-nacl/4.4.3/../../../../x86_64-nacl/lib/../lib64/libstdc++.a(guard.o)
 .debug_aranges
                0x0000000000001540       0x80 /home/berkeley/nacl_sdk/pepper_42/toolchain/linux_x86_newlib/bin/../lib/gcc/x86_64-nacl/4.4.3/../../../../x86_64-nacl/lib/../lib64/libstdc++.a(si_class_type_info.o)
 .debug_aranges
                0x00000000000015c0       0x80 /home/berkeley/nacl_sdk/pepper_42/toolchain/linux_x86_newlib/bin/../lib/gcc/x86_64-nacl/4.4.3/../../../../x86_64-nacl/lib/../lib64/libstdc++.a(eh_terminate.o)
 .debug_aranges
                0x0000000000001640       0xa0 /home/berkeley/nacl_sdk/pepper_42/toolchain/linux_x86_newlib/bin/../lib/gcc/x86_64-nacl/4.4.3/../../../../x86_64-nacl/lib/../lib64/libstdc++.a(class_type_info.o)
 .debug_aranges
                0x00000000000016e0       0xd0 /home/berkeley/nacl_sdk/pepper_42/toolchain/linux_x86_newlib/bin/../lib/gcc/x86_64-nacl/4.4.3/../../../../x86_64-nacl/lib/../lib64/libstdc++.a(eh_alloc.o)
 .debug_aranges
                0x00000000000017b0       0x60 /home/berkeley/nacl_sdk/pepper_42/toolchain/linux_x86_newlib/bin/../lib/gcc/x86_64-nacl/4.4.3/../../../../x86_64-nacl/lib/../lib64/libstdc++.a(eh_catch.o)
 .debug_aranges
                0x0000000000001810      0x100 /home/berkeley/nacl_sdk/pepper_42/toolchain/linux_x86_newlib/bin/../lib/gcc/x86_64-nacl/4.4.3/../../../../x86_64-nacl/lib/../lib64/libstdc++.a(eh_exception.o)
 .debug_aranges
                0x0000000000001910       0x30 /home/berkeley/nacl_sdk/pepper_42/toolchain/linux_x86_newlib/bin/../lib/gcc/x86_64-nacl/4.4.3/../../../../x86_64-nacl/lib/../lib64/libstdc++.a(pure.o)
 .debug_aranges
                0x0000000000001940       0x30 /home/berkeley/nacl_sdk/pepper_42/toolchain/linux_x86_newlib/bin/../lib/gcc/x86_64-nacl/4.4.3/../../../../x86_64-nacl/lib/../lib64/libstdc++.a(new_op.o)
 .debug_aranges
                0x0000000000001970       0x90 /home/berkeley/nacl_sdk/pepper_42/toolchain/linux_x86_newlib/bin/../lib/gcc/x86_64-nacl/4.4.3/../../../../x86_64-nacl/lib/../lib64/libstdc++.a(tinfo.o)
 .debug_aranges
                0x0000000000001a00      0x1f0 /home/berkeley/nacl_sdk/pepper_42/toolchain/linux_x86_newlib/bin/../lib/gcc/x86_64-nacl/4.4.3/../../../../x86_64-nacl/lib/../lib64/libstdc++.a(functexcept.o)
 .debug_aranges
                0x0000000000001bf0       0x80 /home/berkeley/nacl_sdk/pepper_42/toolchain/linux_x86_newlib/bin/../lib/gcc/x86_64-nacl/4.4.3/../../../../x86_64-nacl/lib/../lib64/libstdc++.a(ios_failure.o)
 .debug_aranges
                0x0000000000001c70      0x2a0 /home/berkeley/nacl_sdk/pepper_42/toolchain/linux_x86_newlib/bin/../lib/gcc/x86_64-nacl/4.4.3/../../../../x86_64-nacl/lib/../lib64/libstdc++.a(stdexcept.o)
 .debug_aranges
                0x0000000000001f10      0x160 /home/berkeley/nacl_sdk/pepper_42/toolchain/linux_x86_newlib/bin/../lib/gcc/x86_64-nacl/4.4.3/../../../../x86_64-nacl/lib/../lib64/libstdc++.a(system_error.o)
 .debug_aranges
                0x0000000000002070       0x60 /home/berkeley/nacl_sdk/pepper_42/toolchain/linux_x86_newlib/bin/../lib/gcc/x86_64-nacl/4.4.3/../../../../x86_64-nacl/lib/../lib64/libstdc++.a(bad_typeid.o)
 .debug_aranges
                0x00000000000020d0       0x70 /home/berkeley/nacl_sdk/pepper_42/toolchain/linux_x86_newlib/bin/../lib/gcc/x86_64-nacl/4.4.3/../../../../x86_64-nacl/lib/../lib64/libstdc++.a(new_handler.o)
 .debug_aranges
                0x0000000000002140       0x60 /home/berkeley/nacl_sdk/pepper_42/toolchain/linux_x86_newlib/bin/../lib/gcc/x86_64-nacl/4.4.3/../../../../x86_64-nacl/lib/../lib64/libstdc++.a(bad_cast.o)
 .debug_aranges
                0x00000000000021a0       0x30 /home/berkeley/nacl_sdk/pepper_42/toolchain/linux_x86_newlib/bin/../lib/gcc/x86_64-nacl/4.4.3/../../../../x86_64-nacl/lib/../lib64/libstdc++.a(vterminate.o)
 .debug_aranges
                0x00000000000021d0       0x30 /home/berkeley/nacl_sdk/pepper_42/toolchain/linux_x86_newlib/bin/../lib/gcc/x86_64-nacl/4.4.3/../../../../x86_64-nacl/lib/../lib64/libstdc++.a(cp-demangle.o)
 .debug_aranges
                0x0000000000002200       0x30 /home/berkeley/nacl_sdk/pepper_42/toolchain/linux_x86_newlib/bin/../lib/gcc/x86_64-nacl/4.4.3/../../../../x86_64-nacl/lib/../lib64/libstdc++.a(eh_type.o)
 .debug_aranges
                0x0000000000002230       0x30 /home/berkeley/nacl_sdk/pepper_42/toolchain/linux_x86_newlib/bin/../lib/gcc/x86_64-nacl/4.4.3/libgcc.a(unwind-dw2.o)
 .debug_aranges
                0x0000000000002260       0x30 /home/berkeley/nacl_sdk/pepper_42/toolchain/linux_x86_newlib/bin/../lib/gcc/x86_64-nacl/4.4.3/libgcc.a(unwind-dw2-fde-glibc.o)
 .debug_aranges
                0x0000000000002290       0x30 /home/berkeley/nacl_sdk/pepper_42/toolchain/linux_x86_newlib/bin/../lib/gcc/x86_64-nacl/4.4.3/../../../../x86_64-nacl/lib/../lib64/libnacl.a(_exit_710c7d0d.o)
 .debug_aranges
                0x00000000000022c0       0x30 /home/berkeley/nacl_sdk/pepper_42/toolchain/linux_x86_newlib/bin/../lib/gcc/x86_64-nacl/4.4.3/../../../../x86_64-nacl/lib/../lib64/libnacl.a(abort_9f6b5845.o)
 .debug_aranges
                0x00000000000022f0       0x30 /home/berkeley/nacl_sdk/pepper_42/toolchain/linux_x86_newlib/bin/../lib/gcc/x86_64-nacl/4.4.3/../../../../x86_64-nacl/lib/../lib64/libnacl.a(start_fa9ef7de.o)
 .debug_aranges
                0x0000000000002320       0x30 /home/berkeley/nacl_sdk/pepper_42/toolchain/linux_x86_newlib/bin/../lib/gcc/x86_64-nacl/4.4.3/../../../../x86_64-nacl/lib/../lib64/libnacl.a(malloc_222c4a1e.o)
 .debug_aranges
                0x0000000000002350       0x30 /home/berkeley/nacl_sdk/pepper_42/toolchain/linux_x86_newlib/bin/../lib/gcc/x86_64-nacl/4.4.3/../../../../x86_64-nacl/lib/../lib64/libnacl.a(nacl_irt_6de1d53f.o)
 .debug_aranges
                0x0000000000002380       0x30 /home/berkeley/nacl_sdk/pepper_42/toolchain/linux_x86_newlib/bin/../lib/gcc/x86_64-nacl/4.4.3/../../../../x86_64-nacl/lib/../lib64/libnacl.a(pthread_initialize_minimal_4b6e776b.o)
 .debug_aranges
                0x00000000000023b0       0x30 /home/berkeley/nacl_sdk/pepper_42/toolchain/linux_x86_newlib/bin/../lib/gcc/x86_64-nacl/4.4.3/../../../../x86_64-nacl/lib/../lib64/libnacl.a(nacl_read_tp_5748ac47.o)
 .debug_aranges
                0x00000000000023e0       0x30 /home/berkeley/nacl_sdk/pepper_42/toolchain/linux_x86_newlib/bin/../lib/gcc/x86_64-nacl/4.4.3/../../../../x86_64-nacl/lib/../lib64/libnacl.a(nacl_add_tp_7312c7c4.o)
 .debug_aranges
                0x0000000000002410       0x30 /home/berkeley/nacl_sdk/pepper_42/toolchain/linux_x86_newlib/bin/../lib/gcc/x86_64-nacl/4.4.3/../../../../x86_64-nacl/lib/../lib64/libnacl.a(mmap_767fb080.o)
 .debug_aranges
                0x0000000000002440       0x30 /home/berkeley/nacl_sdk/pepper_42/toolchain/linux_x86_newlib/bin/../lib/gcc/x86_64-nacl/4.4.3/../../../../x86_64-nacl/lib/../lib64/libnacl.a(sched_yield_56c375be.o)
 .debug_aranges
                0x0000000000002470       0x30 /home/berkeley/nacl_sdk/pepper_42/toolchain/linux_x86_newlib/bin/../lib/gcc/x86_64-nacl/4.4.3/../../../../x86_64-nacl/lib/../lib64/libnacl.a(munmap_d4f09867.o)
 .debug_aranges
                0x00000000000024a0       0x30 /home/berkeley/nacl_sdk/pepper_42/toolchain/linux_x86_newlib/bin/../lib/gcc/x86_64-nacl/4.4.3/../../../../x86_64-nacl/lib/../lib64/libnacl.a(tls_bba1975b.o)
 .debug_aranges
                0x00000000000024d0       0x30 /home/berkeley/nacl_sdk/pepper_42/toolchain/linux_x86_newlib/bin/../lib/gcc/x86_64-nacl/4.4.3/../../../../x86_64-nacl/lib/../lib64/libnacl.a(write_fb49787f.o)
 .debug_aranges
                0x0000000000002500       0x30 /home/berkeley/nacl_sdk/pepper_42/toolchain/linux_x86_newlib/bin/../lib/gcc/x86_64-nacl/4.4.3/../../../../x86_64-nacl/lib/../lib64/libnacl.a(nacl_tls_get_d2f842b5.o)
 .debug_aranges
                0x0000000000002530       0x30 /home/berkeley/nacl_sdk/pepper_42/toolchain/linux_x86_newlib/bin/../lib/gcc/x86_64-nacl/4.4.3/../../../../x86_64-nacl/lib/../lib64/libnacl.a(nacl_irt_init_7b4f826e.o)
 .debug_aranges
                0x0000000000002560       0x30 /home/berkeley/nacl_sdk/pepper_42/toolchain/linux_x86_newlib/bin/../lib/gcc/x86_64-nacl/4.4.3/../../../../x86_64-nacl/lib/../lib64/libnacl.a(sysconf_ad295ea2.o)
 .debug_aranges
                0x0000000000002590       0x30 /home/berkeley/nacl_sdk/pepper_42/toolchain/linux_x86_newlib/bin/../lib/gcc/x86_64-nacl/4.4.3/../../../../x86_64-nacl/lib/../lib64/libnacl.a(nacl_tls_init_eb0cd232.o)
 .debug_aranges
                0x00000000000025c0       0x30 /home/berkeley/nacl_sdk/pepper_42/toolchain/linux_x86_newlib/bin/../lib/gcc/x86_64-nacl/4.4.3/../../../../x86_64-nacl/lib/../lib64/libnacl.a(close_e9b92fbd.o)
 .debug_aranges
                0x00000000000025f0       0x30 /home/berkeley/nacl_sdk/pepper_42/toolchain/linux_x86_newlib/bin/../lib/gcc/x86_64-nacl/4.4.3/../../../../x86_64-nacl/lib/../lib64/libnacl.a(isatty_02f56e94.o)
 .debug_aranges
                0x0000000000002620       0x30 /home/berkeley/nacl_sdk/pepper_42/toolchain/linux_x86_newlib/bin/../lib/gcc/x86_64-nacl/4.4.3/../../../../x86_64-nacl/lib/../lib64/libnacl.a(nacl_irt_fdio_b571b5e7.o)
 .debug_aranges
                0x0000000000002650       0x30 /home/berkeley/nacl_sdk/pepper_42/toolchain/linux_x86_newlib/bin/../lib/gcc/x86_64-nacl/4.4.3/../../../../x86_64-nacl/lib/../lib64/libnacl.a(fstat_0540ff63.o)
 .debug_aranges
                0x0000000000002680       0x30 /home/berkeley/nacl_sdk/pepper_42/toolchain/linux_x86_newlib/bin/../lib/gcc/x86_64-nacl/4.4.3/../../../../x86_64-nacl/lib/../lib64/libnacl.a(lseek_64d2d05c.o)
 .debug_aranges
                0x00000000000026b0       0x30 /home/berkeley/nacl_sdk/pepper_42/toolchain/linux_x86_newlib/bin/../lib/gcc/x86_64-nacl/4.4.3/../../../../x86_64-nacl/lib/../lib64/libnacl.a(read_df872e10.o)

.debug_pubnames
                0x0000000000000000     0xa4fe
 *(.debug_pubnames)
 .debug_pubnames
                0x0000000000000000      0x144 newlib/Release/popcnt_x86_64.o
 .debug_pubnames
                0x0000000000000144      0xbd2 /home/berkeley/nacl_sdk/pepper_42/lib/newlib_x86_64/Release/libppapi_cpp.a(instance_x86_64.o)
 .debug_pubnames
                0x0000000000000d16      0xdf5 /home/berkeley/nacl_sdk/pepper_42/lib/newlib_x86_64/Release/libppapi_cpp.a(module_x86_64.o)
 .debug_pubnames
                0x0000000000001b0b       0x8d /home/berkeley/nacl_sdk/pepper_42/lib/newlib_x86_64/Release/libppapi_cpp.a(ppp_entrypoints_x86_64.o)
 .debug_pubnames
                0x0000000000001b98      0x1b4 /home/berkeley/nacl_sdk/pepper_42/lib/newlib_x86_64/Release/libppapi_cpp.a(resource_x86_64.o)
 .debug_pubnames
                0x0000000000001d4c      0x25f /home/berkeley/nacl_sdk/pepper_42/lib/newlib_x86_64/Release/libppapi_cpp.a(url_loader_x86_64.o)
 .debug_pubnames
                0x0000000000001fab      0x18d /home/berkeley/nacl_sdk/pepper_42/lib/newlib_x86_64/Release/libppapi_cpp.a(url_response_info_x86_64.o)
 .debug_pubnames
                0x0000000000002138      0x24f /home/berkeley/nacl_sdk/pepper_42/lib/newlib_x86_64/Release/libppapi_cpp.a(var_x86_64.o)
 .debug_pubnames
                0x0000000000002387      0x15a /home/berkeley/nacl_sdk/pepper_42/lib/newlib_x86_64/Release/libppapi_cpp.a(view_x86_64.o)
 .debug_pubnames
                0x00000000000024e1       0x4c /home/berkeley/nacl_sdk/pepper_42/lib/newlib_x86_64/Release/libppapi_cpp.a(core_x86_64.o)
 .debug_pubnames
                0x000000000000252d      0x246 /home/berkeley/nacl_sdk/pepper_42/lib/newlib_x86_64/Release/libppapi_cpp.a(file_ref_x86_64.o)
 .debug_pubnames
                0x0000000000002773      0xafd /home/berkeley/nacl_sdk/pepper_42/lib/newlib_x86_64/Release/libppapi_cpp.a(input_event_x86_64.o)
 .debug_pubnames
                0x0000000000003270       0x1b /home/berkeley/nacl_sdk/pepper_42/toolchain/linux_x86_newlib/bin/../lib/gcc/x86_64-nacl/4.4.3/../../../../x86_64-nacl/lib/../lib64/libppapi_stub.a(plugin_main_irt_21ce9d26.o)
 .debug_pubnames
                0x000000000000328b       0x26 /home/berkeley/nacl_sdk/pepper_42/toolchain/linux_x86_newlib/bin/../lib/gcc/x86_64-nacl/4.4.3/../../../../x86_64-nacl/lib/../lib64/libppapi_stub.a(ppapi_plugin_main_399d0cf7.o)
 .debug_pubnames
                0x00000000000032b1       0x27 /home/berkeley/nacl_sdk/pepper_42/toolchain/linux_x86_newlib/bin/../lib/gcc/x86_64-nacl/4.4.3/../../../../x86_64-nacl/lib/../lib64/libppapi_stub.a(ppapi_plugin_start_8da67623.o)
 .debug_pubnames
                0x00000000000032d8       0x35 /home/berkeley/nacl_sdk/pepper_42/toolchain/linux_x86_newlib/bin/../lib/gcc/x86_64-nacl/4.4.3/../../../../x86_64-nacl/lib/../lib64/libppapi_stub.a(thread_creator_ccf263e1.o)
 .debug_pubnames
                0x000000000000330d      0x473 /home/berkeley/nacl_sdk/pepper_42/toolchain/linux_x86_newlib/bin/../lib/gcc/x86_64-nacl/4.4.3/../../../../x86_64-nacl/lib/../lib64/libpthread.a(nc_thread_7e478b15.o)
 .debug_pubnames
                0x0000000000003780       0xa9 /home/berkeley/nacl_sdk/pepper_42/toolchain/linux_x86_newlib/bin/../lib/gcc/x86_64-nacl/4.4.3/../../../../x86_64-nacl/lib/../lib64/libpthread.a(nc_condvar_305aa45a.o)
 .debug_pubnames
                0x0000000000003829      0x4a6 /home/berkeley/nacl_sdk/pepper_42/toolchain/linux_x86_newlib/bin/../lib/gcc/x86_64-nacl/4.4.3/../../../../x86_64-nacl/lib/../lib64/libpthread.a(dynamic_annotations_33ba59cc.o)
 .debug_pubnames
                0x0000000000003ccf      0x12f /home/berkeley/nacl_sdk/pepper_42/toolchain/linux_x86_newlib/bin/../lib/gcc/x86_64-nacl/4.4.3/../../../../x86_64-nacl/lib/../lib64/libpthread.a(nc_mutex_86341ae1.o)
 .debug_pubnames
                0x0000000000003dfe       0x49 /home/berkeley/nacl_sdk/pepper_42/toolchain/linux_x86_newlib/bin/../lib/gcc/x86_64-nacl/4.4.3/../../../../x86_64-nacl/lib/../lib64/libpthread.a(nc_init_irt_d3daafc0.o)
 .debug_pubnames
                0x0000000000003e47      0x12a /home/berkeley/nacl_sdk/pepper_42/toolchain/linux_x86_newlib/bin/../lib/gcc/x86_64-nacl/4.4.3/../../../../x86_64-nacl/lib/../lib64/libstdc++.a(tree.o)
 .debug_pubnames
                0x0000000000003f71     0x3ea9 /home/berkeley/nacl_sdk/pepper_42/toolchain/linux_x86_newlib/bin/../lib/gcc/x86_64-nacl/4.4.3/../../../../x86_64-nacl/lib/../lib64/libstdc++.a(string-inst.o)
 .debug_pubnames
                0x0000000000007e1a       0x5d /home/berkeley/nacl_sdk/pepper_42/toolchain/linux_x86_newlib/bin/../lib/gcc/x86_64-nacl/4.4.3/../../../../x86_64-nacl/lib/../lib64/libstdc++.a(eh_personality.o)
 .debug_pubnames
                0x0000000000007e77       0x85 /home/berkeley/nacl_sdk/pepper_42/toolchain/linux_x86_newlib/bin/../lib/gcc/x86_64-nacl/4.4.3/../../../../x86_64-nacl/lib/../lib64/libstdc++.a(eh_globals.o)
 .debug_pubnames
                0x0000000000007efc       0x4c /home/berkeley/nacl_sdk/pepper_42/toolchain/linux_x86_newlib/bin/../lib/gcc/x86_64-nacl/4.4.3/../../../../x86_64-nacl/lib/../lib64/libstdc++.a(eh_throw.o)
 .debug_pubnames
                0x0000000000007f48       0x26 /home/berkeley/nacl_sdk/pepper_42/toolchain/linux_x86_newlib/bin/../lib/gcc/x86_64-nacl/4.4.3/../../../../x86_64-nacl/lib/../lib64/libstdc++.a(del_op.o)
 .debug_pubnames
                0x0000000000007f6e       0x2b /home/berkeley/nacl_sdk/pepper_42/toolchain/linux_x86_newlib/bin/../lib/gcc/x86_64-nacl/4.4.3/../../../../x86_64-nacl/lib/../lib64/libstdc++.a(eh_call.o)
 .debug_pubnames
                0x0000000000007f99      0x29f /home/berkeley/nacl_sdk/pepper_42/toolchain/linux_x86_newlib/bin/../lib/gcc/x86_64-nacl/4.4.3/../../../../x86_64-nacl/lib/../lib64/libstdc++.a(guard.o)
 .debug_pubnames
                0x0000000000008238      0x166 /home/berkeley/nacl_sdk/pepper_42/toolchain/linux_x86_newlib/bin/../lib/gcc/x86_64-nacl/4.4.3/../../../../x86_64-nacl/lib/../lib64/libstdc++.a(si_class_type_info.o)
 .debug_pubnames
                0x000000000000839e       0xa1 /home/berkeley/nacl_sdk/pepper_42/toolchain/linux_x86_newlib/bin/../lib/gcc/x86_64-nacl/4.4.3/../../../../x86_64-nacl/lib/../lib64/libstdc++.a(eh_terminate.o)
 .debug_pubnames
                0x000000000000843f      0x1a8 /home/berkeley/nacl_sdk/pepper_42/toolchain/linux_x86_newlib/bin/../lib/gcc/x86_64-nacl/4.4.3/../../../../x86_64-nacl/lib/../lib64/libstdc++.a(class_type_info.o)
 .debug_pubnames
                0x00000000000085e7      0x234 /home/berkeley/nacl_sdk/pepper_42/toolchain/linux_x86_newlib/bin/../lib/gcc/x86_64-nacl/4.4.3/../../../../x86_64-nacl/lib/../lib64/libstdc++.a(eh_alloc.o)
 .debug_pubnames
                0x000000000000881b       0x98 /home/berkeley/nacl_sdk/pepper_42/toolchain/linux_x86_newlib/bin/../lib/gcc/x86_64-nacl/4.4.3/../../../../x86_64-nacl/lib/../lib64/libstdc++.a(eh_catch.o)
 .debug_pubnames
                0x00000000000088b3      0x25e /home/berkeley/nacl_sdk/pepper_42/toolchain/linux_x86_newlib/bin/../lib/gcc/x86_64-nacl/4.4.3/../../../../x86_64-nacl/lib/../lib64/libstdc++.a(eh_exception.o)
 .debug_pubnames
                0x0000000000008b11       0x35 /home/berkeley/nacl_sdk/pepper_42/toolchain/linux_x86_newlib/bin/../lib/gcc/x86_64-nacl/4.4.3/../../../../x86_64-nacl/lib/../lib64/libstdc++.a(pure.o)
 .debug_pubnames
                0x0000000000008b46       0x23 /home/berkeley/nacl_sdk/pepper_42/toolchain/linux_x86_newlib/bin/../lib/gcc/x86_64-nacl/4.4.3/../../../../x86_64-nacl/lib/../lib64/libstdc++.a(new_op.o)
 .debug_pubnames
                0x0000000000008b69       0xf5 /home/berkeley/nacl_sdk/pepper_42/toolchain/linux_x86_newlib/bin/../lib/gcc/x86_64-nacl/4.4.3/../../../../x86_64-nacl/lib/../lib64/libstdc++.a(tinfo.o)
 .debug_pubnames
                0x0000000000008c5e      0x3f9 /home/berkeley/nacl_sdk/pepper_42/toolchain/linux_x86_newlib/bin/../lib/gcc/x86_64-nacl/4.4.3/../../../../x86_64-nacl/lib/../lib64/libstdc++.a(functexcept.o)
 .debug_pubnames
                0x0000000000009057       0xea /home/berkeley/nacl_sdk/pepper_42/toolchain/linux_x86_newlib/bin/../lib/gcc/x86_64-nacl/4.4.3/../../../../x86_64-nacl/lib/../lib64/libstdc++.a(ios_failure.o)
 .debug_pubnames
                0x0000000000009141      0x5f6 /home/berkeley/nacl_sdk/pepper_42/toolchain/linux_x86_newlib/bin/../lib/gcc/x86_64-nacl/4.4.3/../../../../x86_64-nacl/lib/../lib64/libstdc++.a(stdexcept.o)
 .debug_pubnames
                0x0000000000009737      0x1ac /home/berkeley/nacl_sdk/pepper_42/toolchain/linux_x86_newlib/bin/../lib/gcc/x86_64-nacl/4.4.3/../../../../x86_64-nacl/lib/../lib64/libstdc++.a(system_error.o)
 .debug_pubnames
                0x00000000000098e3       0x37 /home/berkeley/nacl_sdk/pepper_42/toolchain/linux_x86_newlib/bin/../lib/gcc/x86_64-nacl/4.4.3/../../../../x86_64-nacl/lib/../lib64/libstdc++.a(eh_unex_handler.o)
 .debug_pubnames
                0x000000000000991a       0x36 /home/berkeley/nacl_sdk/pepper_42/toolchain/linux_x86_newlib/bin/../lib/gcc/x86_64-nacl/4.4.3/../../../../x86_64-nacl/lib/../lib64/libstdc++.a(eh_term_handler.o)
 .debug_pubnames
                0x0000000000009950       0x8f /home/berkeley/nacl_sdk/pepper_42/toolchain/linux_x86_newlib/bin/../lib/gcc/x86_64-nacl/4.4.3/../../../../x86_64-nacl/lib/../lib64/libstdc++.a(bad_typeid.o)
 .debug_pubnames
                0x00000000000099df       0xc4 /home/berkeley/nacl_sdk/pepper_42/toolchain/linux_x86_newlib/bin/../lib/gcc/x86_64-nacl/4.4.3/../../../../x86_64-nacl/lib/../lib64/libstdc++.a(new_handler.o)
 .debug_pubnames
                0x0000000000009aa3       0x81 /home/berkeley/nacl_sdk/pepper_42/toolchain/linux_x86_newlib/bin/../lib/gcc/x86_64-nacl/4.4.3/../../../../x86_64-nacl/lib/../lib64/libstdc++.a(bad_cast.o)
 .debug_pubnames
                0x0000000000009b24       0x3d /home/berkeley/nacl_sdk/pepper_42/toolchain/linux_x86_newlib/bin/../lib/gcc/x86_64-nacl/4.4.3/../../../../x86_64-nacl/lib/../lib64/libstdc++.a(vterminate.o)
 .debug_pubnames
                0x0000000000009b61       0x47 /home/berkeley/nacl_sdk/pepper_42/toolchain/linux_x86_newlib/bin/../lib/gcc/x86_64-nacl/4.4.3/../../../../x86_64-nacl/lib/../lib64/libstdc++.a(cp-demangle.o)
 .debug_pubnames
                0x0000000000009ba8       0x3f /home/berkeley/nacl_sdk/pepper_42/toolchain/linux_x86_newlib/bin/../lib/gcc/x86_64-nacl/4.4.3/../../../../x86_64-nacl/lib/../lib64/libstdc++.a(eh_type.o)
 .debug_pubnames
                0x0000000000009be7      0x1c7 /home/berkeley/nacl_sdk/pepper_42/toolchain/linux_x86_newlib/bin/../lib/gcc/x86_64-nacl/4.4.3/libgcc.a(unwind-dw2.o)
 .debug_pubnames
                0x0000000000009dae      0x12c /home/berkeley/nacl_sdk/pepper_42/toolchain/linux_x86_newlib/bin/../lib/gcc/x86_64-nacl/4.4.3/libgcc.a(unwind-dw2-fde-glibc.o)
 .debug_pubnames
                0x0000000000009eda       0x1c /home/berkeley/nacl_sdk/pepper_42/toolchain/linux_x86_newlib/bin/../lib/gcc/x86_64-nacl/4.4.3/../../../../x86_64-nacl/lib/../lib64/libnacl.a(_exit_710c7d0d.o)
 .debug_pubnames
                0x0000000000009ef6       0x1c /home/berkeley/nacl_sdk/pepper_42/toolchain/linux_x86_newlib/bin/../lib/gcc/x86_64-nacl/4.4.3/../../../../x86_64-nacl/lib/../lib64/libnacl.a(abort_9f6b5845.o)
 .debug_pubnames
                0x0000000000009f12       0x1e /home/berkeley/nacl_sdk/pepper_42/toolchain/linux_x86_newlib/bin/../lib/gcc/x86_64-nacl/4.4.3/../../../../x86_64-nacl/lib/../lib64/libnacl.a(environ_25cd24d8.o)
 .debug_pubnames
                0x0000000000009f30       0x41 /home/berkeley/nacl_sdk/pepper_42/toolchain/linux_x86_newlib/bin/../lib/gcc/x86_64-nacl/4.4.3/../../../../x86_64-nacl/lib/../lib64/libnacl.a(start_fa9ef7de.o)
 .debug_pubnames
                0x0000000000009f71      0x1b7 /home/berkeley/nacl_sdk/pepper_42/toolchain/linux_x86_newlib/bin/../lib/gcc/x86_64-nacl/4.4.3/../../../../x86_64-nacl/lib/../lib64/libnacl.a(malloc_222c4a1e.o)
 .debug_pubnames
                0x000000000000a128      0x148 /home/berkeley/nacl_sdk/pepper_42/toolchain/linux_x86_newlib/bin/../lib/gcc/x86_64-nacl/4.4.3/../../../../x86_64-nacl/lib/../lib64/libnacl.a(nacl_irt_6de1d53f.o)
 .debug_pubnames
                0x000000000000a270       0x33 /home/berkeley/nacl_sdk/pepper_42/toolchain/linux_x86_newlib/bin/../lib/gcc/x86_64-nacl/4.4.3/../../../../x86_64-nacl/lib/../lib64/libnacl.a(pthread_initialize_minimal_4b6e776b.o)
 .debug_pubnames
                0x000000000000a2a3       0x25 /home/berkeley/nacl_sdk/pepper_42/toolchain/linux_x86_newlib/bin/../lib/gcc/x86_64-nacl/4.4.3/../../../../x86_64-nacl/lib/../lib64/libnacl.a(nacl_read_tp_5748ac47.o)
 .debug_pubnames
                0x000000000000a2c8       0x24 /home/berkeley/nacl_sdk/pepper_42/toolchain/linux_x86_newlib/bin/../lib/gcc/x86_64-nacl/4.4.3/../../../../x86_64-nacl/lib/../lib64/libnacl.a(nacl_add_tp_7312c7c4.o)
 .debug_pubnames
                0x000000000000a2ec       0x1b /home/berkeley/nacl_sdk/pepper_42/toolchain/linux_x86_newlib/bin/../lib/gcc/x86_64-nacl/4.4.3/../../../../x86_64-nacl/lib/../lib64/libnacl.a(mmap_767fb080.o)
 .debug_pubnames
                0x000000000000a307       0x22 /home/berkeley/nacl_sdk/pepper_42/toolchain/linux_x86_newlib/bin/../lib/gcc/x86_64-nacl/4.4.3/../../../../x86_64-nacl/lib/../lib64/libnacl.a(sched_yield_56c375be.o)
 .debug_pubnames
                0x000000000000a329       0x1d /home/berkeley/nacl_sdk/pepper_42/toolchain/linux_x86_newlib/bin/../lib/gcc/x86_64-nacl/4.4.3/../../../../x86_64-nacl/lib/../lib64/libnacl.a(munmap_d4f09867.o)
 .debug_pubnames
                0x000000000000a346       0x50 /home/berkeley/nacl_sdk/pepper_42/toolchain/linux_x86_newlib/bin/../lib/gcc/x86_64-nacl/4.4.3/../../../../x86_64-nacl/lib/../lib64/libnacl.a(tls_bba1975b.o)
 .debug_pubnames
                0x000000000000a396       0x1c /home/berkeley/nacl_sdk/pepper_42/toolchain/linux_x86_newlib/bin/../lib/gcc/x86_64-nacl/4.4.3/../../../../x86_64-nacl/lib/../lib64/libnacl.a(write_fb49787f.o)
 .debug_pubnames
                0x000000000000a3b2       0x23 /home/berkeley/nacl_sdk/pepper_42/toolchain/linux_x86_newlib/bin/../lib/gcc/x86_64-nacl/4.4.3/../../../../x86_64-nacl/lib/../lib64/libnacl.a(nacl_tls_get_d2f842b5.o)
 .debug_pubnames
                0x000000000000a3d5       0x29 /home/berkeley/nacl_sdk/pepper_42/toolchain/linux_x86_newlib/bin/../lib/gcc/x86_64-nacl/4.4.3/../../../../x86_64-nacl/lib/../lib64/libnacl.a(nacl_irt_init_7b4f826e.o)
 .debug_pubnames
                0x000000000000a3fe       0x1e /home/berkeley/nacl_sdk/pepper_42/toolchain/linux_x86_newlib/bin/../lib/gcc/x86_64-nacl/4.4.3/../../../../x86_64-nacl/lib/../lib64/libnacl.a(sysconf_ad295ea2.o)
 .debug_pubnames
                0x000000000000a41c       0x24 /home/berkeley/nacl_sdk/pepper_42/toolchain/linux_x86_newlib/bin/../lib/gcc/x86_64-nacl/4.4.3/../../../../x86_64-nacl/lib/../lib64/libnacl.a(nacl_tls_init_eb0cd232.o)
 .debug_pubnames
                0x000000000000a440       0x1c /home/berkeley/nacl_sdk/pepper_42/toolchain/linux_x86_newlib/bin/../lib/gcc/x86_64-nacl/4.4.3/../../../../x86_64-nacl/lib/../lib64/libnacl.a(close_e9b92fbd.o)
 .debug_pubnames
                0x000000000000a45c       0x1d /home/berkeley/nacl_sdk/pepper_42/toolchain/linux_x86_newlib/bin/../lib/gcc/x86_64-nacl/4.4.3/../../../../x86_64-nacl/lib/../lib64/libnacl.a(isatty_02f56e94.o)
 .debug_pubnames
                0x000000000000a479       0x32 /home/berkeley/nacl_sdk/pepper_42/toolchain/linux_x86_newlib/bin/../lib/gcc/x86_64-nacl/4.4.3/../../../../x86_64-nacl/lib/../lib64/libnacl.a(nacl_irt_fdio_b571b5e7.o)
 .debug_pubnames
                0x000000000000a4ab       0x1c /home/berkeley/nacl_sdk/pepper_42/toolchain/linux_x86_newlib/bin/../lib/gcc/x86_64-nacl/4.4.3/../../../../x86_64-nacl/lib/../lib64/libnacl.a(fstat_0540ff63.o)
 .debug_pubnames
                0x000000000000a4c7       0x1c /home/berkeley/nacl_sdk/pepper_42/toolchain/linux_x86_newlib/bin/../lib/gcc/x86_64-nacl/4.4.3/../../../../x86_64-nacl/lib/../lib64/libnacl.a(lseek_64d2d05c.o)
 .debug_pubnames
                0x000000000000a4e3       0x1b /home/berkeley/nacl_sdk/pepper_42/toolchain/linux_x86_newlib/bin/../lib/gcc/x86_64-nacl/4.4.3/../../../../x86_64-nacl/lib/../lib64/libnacl.a(read_df872e10.o)

.debug_info     0x0000000000000000    0x75af5
 *(.debug_info .gnu.linkonce.wi.*)
 .debug_info    0x0000000000000000     0x1b4f newlib/Release/popcnt_x86_64.o
 .debug_info    0x0000000000001b4f     0x9bee /home/berkeley/nacl_sdk/pepper_42/lib/newlib_x86_64/Release/libppapi_cpp.a(instance_x86_64.o)
 .debug_info    0x000000000000b73d     0xbdb1 /home/berkeley/nacl_sdk/pepper_42/lib/newlib_x86_64/Release/libppapi_cpp.a(module_x86_64.o)
 .debug_info    0x00000000000174ee     0x1875 /home/berkeley/nacl_sdk/pepper_42/lib/newlib_x86_64/Release/libppapi_cpp.a(ppp_entrypoints_x86_64.o)
 .debug_info    0x0000000000018d63     0x23bd /home/berkeley/nacl_sdk/pepper_42/lib/newlib_x86_64/Release/libppapi_cpp.a(resource_x86_64.o)
 .debug_info    0x000000000001b120     0x3269 /home/berkeley/nacl_sdk/pepper_42/lib/newlib_x86_64/Release/libppapi_cpp.a(url_loader_x86_64.o)
 .debug_info    0x000000000001e389     0x2091 /home/berkeley/nacl_sdk/pepper_42/lib/newlib_x86_64/Release/libppapi_cpp.a(url_response_info_x86_64.o)
 .debug_info    0x000000000002041a     0x53f4 /home/berkeley/nacl_sdk/pepper_42/lib/newlib_x86_64/Release/libppapi_cpp.a(var_x86_64.o)
 .debug_info    0x000000000002580e     0x336e /home/berkeley/nacl_sdk/pepper_42/lib/newlib_x86_64/Release/libppapi_cpp.a(view_x86_64.o)
 .debug_info    0x0000000000028b7c     0x1ab5 /home/berkeley/nacl_sdk/pepper_42/lib/newlib_x86_64/Release/libppapi_cpp.a(core_x86_64.o)
 .debug_info    0x000000000002a631     0x49c1 /home/berkeley/nacl_sdk/pepper_42/lib/newlib_x86_64/Release/libppapi_cpp.a(file_ref_x86_64.o)
 .debug_info    0x000000000002eff2     0x6ec8 /home/berkeley/nacl_sdk/pepper_42/lib/newlib_x86_64/Release/libppapi_cpp.a(input_event_x86_64.o)
 .debug_info    0x0000000000035eba       0x9e /home/berkeley/nacl_sdk/pepper_42/toolchain/linux_x86_newlib/bin/../lib/gcc/x86_64-nacl/4.4.3/../../../../x86_64-nacl/lib/../lib64/libppapi_stub.a(plugin_main_irt_21ce9d26.o)
 .debug_info    0x0000000000035f58      0x163 /home/berkeley/nacl_sdk/pepper_42/toolchain/linux_x86_newlib/bin/../lib/gcc/x86_64-nacl/4.4.3/../../../../x86_64-nacl/lib/../lib64/libppapi_stub.a(ppapi_plugin_main_399d0cf7.o)
 .debug_info    0x00000000000360bb      0x423 /home/berkeley/nacl_sdk/pepper_42/toolchain/linux_x86_newlib/bin/../lib/gcc/x86_64-nacl/4.4.3/../../../../x86_64-nacl/lib/../lib64/libppapi_stub.a(ppapi_plugin_start_8da67623.o)
 .debug_info    0x00000000000364de      0x308 /home/berkeley/nacl_sdk/pepper_42/toolchain/linux_x86_newlib/bin/../lib/gcc/x86_64-nacl/4.4.3/../../../../x86_64-nacl/lib/../lib64/libppapi_stub.a(thread_creator_ccf263e1.o)
 .debug_info    0x00000000000367e6     0x15e1 /home/berkeley/nacl_sdk/pepper_42/toolchain/linux_x86_newlib/bin/../lib/gcc/x86_64-nacl/4.4.3/../../../../x86_64-nacl/lib/../lib64/libpthread.a(nc_thread_7e478b15.o)
 .debug_info    0x0000000000037dc7      0x604 /home/berkeley/nacl_sdk/pepper_42/toolchain/linux_x86_newlib/bin/../lib/gcc/x86_64-nacl/4.4.3/../../../../x86_64-nacl/lib/../lib64/libpthread.a(nc_condvar_305aa45a.o)
 .debug_info    0x00000000000383cb      0xbd1 /home/berkeley/nacl_sdk/pepper_42/toolchain/linux_x86_newlib/bin/../lib/gcc/x86_64-nacl/4.4.3/../../../../x86_64-nacl/lib/../lib64/libpthread.a(dynamic_annotations_33ba59cc.o)
 .debug_info    0x0000000000038f9c      0x85f /home/berkeley/nacl_sdk/pepper_42/toolchain/linux_x86_newlib/bin/../lib/gcc/x86_64-nacl/4.4.3/../../../../x86_64-nacl/lib/../lib64/libpthread.a(nc_mutex_86341ae1.o)
 .debug_info    0x00000000000397fb      0x248 /home/berkeley/nacl_sdk/pepper_42/toolchain/linux_x86_newlib/bin/../lib/gcc/x86_64-nacl/4.4.3/../../../../x86_64-nacl/lib/../lib64/libpthread.a(nc_init_irt_d3daafc0.o)
 .debug_info    0x0000000000039a43      0xa0a /home/berkeley/nacl_sdk/pepper_42/toolchain/linux_x86_newlib/bin/../lib/gcc/x86_64-nacl/4.4.3/../../../../x86_64-nacl/lib/../lib64/libstdc++.a(tree.o)
 .debug_info    0x000000000003a44d     0xdb0e /home/berkeley/nacl_sdk/pepper_42/toolchain/linux_x86_newlib/bin/../lib/gcc/x86_64-nacl/4.4.3/../../../../x86_64-nacl/lib/../lib64/libstdc++.a(string-inst.o)
 .debug_info    0x0000000000047f5b     0x180e /home/berkeley/nacl_sdk/pepper_42/toolchain/linux_x86_newlib/bin/../lib/gcc/x86_64-nacl/4.4.3/../../../../x86_64-nacl/lib/../lib64/libstdc++.a(eh_personality.o)
 .debug_info    0x0000000000049769      0xa29 /home/berkeley/nacl_sdk/pepper_42/toolchain/linux_x86_newlib/bin/../lib/gcc/x86_64-nacl/4.4.3/../../../../x86_64-nacl/lib/../lib64/libstdc++.a(eh_globals.o)
 .debug_info    0x000000000004a192      0x556 /home/berkeley/nacl_sdk/pepper_42/toolchain/linux_x86_newlib/bin/../lib/gcc/x86_64-nacl/4.4.3/../../../../x86_64-nacl/lib/../lib64/libstdc++.a(eh_throw.o)
 .debug_info    0x000000000004a6e8      0x45b /home/berkeley/nacl_sdk/pepper_42/toolchain/linux_x86_newlib/bin/../lib/gcc/x86_64-nacl/4.4.3/../../../../x86_64-nacl/lib/../lib64/libstdc++.a(del_op.o)
 .debug_info    0x000000000004ab43      0x702 /home/berkeley/nacl_sdk/pepper_42/toolchain/linux_x86_newlib/bin/../lib/gcc/x86_64-nacl/4.4.3/../../../../x86_64-nacl/lib/../lib64/libstdc++.a(eh_call.o)
 .debug_info    0x000000000004b245      0xc38 /home/berkeley/nacl_sdk/pepper_42/toolchain/linux_x86_newlib/bin/../lib/gcc/x86_64-nacl/4.4.3/../../../../x86_64-nacl/lib/../lib64/libstdc++.a(guard.o)
 .debug_info    0x000000000004be7d      0x6b6 /home/berkeley/nacl_sdk/pepper_42/toolchain/linux_x86_newlib/bin/../lib/gcc/x86_64-nacl/4.4.3/../../../../x86_64-nacl/lib/../lib64/libstdc++.a(si_class_type_info.o)
 .debug_info    0x000000000004c533      0x68d /home/berkeley/nacl_sdk/pepper_42/toolchain/linux_x86_newlib/bin/../lib/gcc/x86_64-nacl/4.4.3/../../../../x86_64-nacl/lib/../lib64/libstdc++.a(eh_terminate.o)
 .debug_info    0x000000000004cbc0      0x803 /home/berkeley/nacl_sdk/pepper_42/toolchain/linux_x86_newlib/bin/../lib/gcc/x86_64-nacl/4.4.3/../../../../x86_64-nacl/lib/../lib64/libstdc++.a(class_type_info.o)
 .debug_info    0x000000000004d3c3     0x111e /home/berkeley/nacl_sdk/pepper_42/toolchain/linux_x86_newlib/bin/../lib/gcc/x86_64-nacl/4.4.3/../../../../x86_64-nacl/lib/../lib64/libstdc++.a(eh_alloc.o)
 .debug_info    0x000000000004e4e1      0x902 /home/berkeley/nacl_sdk/pepper_42/toolchain/linux_x86_newlib/bin/../lib/gcc/x86_64-nacl/4.4.3/../../../../x86_64-nacl/lib/../lib64/libstdc++.a(eh_catch.o)
 .debug_info    0x000000000004ede3      0x5a4 /home/berkeley/nacl_sdk/pepper_42/toolchain/linux_x86_newlib/bin/../lib/gcc/x86_64-nacl/4.4.3/../../../../x86_64-nacl/lib/../lib64/libstdc++.a(eh_exception.o)
 .debug_info    0x000000000004f387      0x137 /home/berkeley/nacl_sdk/pepper_42/toolchain/linux_x86_newlib/bin/../lib/gcc/x86_64-nacl/4.4.3/../../../../x86_64-nacl/lib/../lib64/libstdc++.a(pure.o)
 .debug_info    0x000000000004f4be      0x540 /home/berkeley/nacl_sdk/pepper_42/toolchain/linux_x86_newlib/bin/../lib/gcc/x86_64-nacl/4.4.3/../../../../x86_64-nacl/lib/../lib64/libstdc++.a(new_op.o)
 .debug_info    0x000000000004f9fe      0x49d /home/berkeley/nacl_sdk/pepper_42/toolchain/linux_x86_newlib/bin/../lib/gcc/x86_64-nacl/4.4.3/../../../../x86_64-nacl/lib/../lib64/libstdc++.a(tinfo.o)
 .debug_info    0x000000000004fe9b     0x5c16 /home/berkeley/nacl_sdk/pepper_42/toolchain/linux_x86_newlib/bin/../lib/gcc/x86_64-nacl/4.4.3/../../../../x86_64-nacl/lib/../lib64/libstdc++.a(functexcept.o)
 .debug_info    0x0000000000055ab1     0x41a1 /home/berkeley/nacl_sdk/pepper_42/toolchain/linux_x86_newlib/bin/../lib/gcc/x86_64-nacl/4.4.3/../../../../x86_64-nacl/lib/../lib64/libstdc++.a(ios_failure.o)
 .debug_info    0x0000000000059c52     0x4210 /home/berkeley/nacl_sdk/pepper_42/toolchain/linux_x86_newlib/bin/../lib/gcc/x86_64-nacl/4.4.3/../../../../x86_64-nacl/lib/../lib64/libstdc++.a(stdexcept.o)
 .debug_info    0x000000000005de62     0x4271 /home/berkeley/nacl_sdk/pepper_42/toolchain/linux_x86_newlib/bin/../lib/gcc/x86_64-nacl/4.4.3/../../../../x86_64-nacl/lib/../lib64/libstdc++.a(system_error.o)
 .debug_info    0x00000000000620d3      0x111 /home/berkeley/nacl_sdk/pepper_42/toolchain/linux_x86_newlib/bin/../lib/gcc/x86_64-nacl/4.4.3/../../../../x86_64-nacl/lib/../lib64/libstdc++.a(eh_unex_handler.o)
 .debug_info    0x00000000000621e4      0x111 /home/berkeley/nacl_sdk/pepper_42/toolchain/linux_x86_newlib/bin/../lib/gcc/x86_64-nacl/4.4.3/../../../../x86_64-nacl/lib/../lib64/libstdc++.a(eh_term_handler.o)
 .debug_info    0x00000000000622f5      0x1a7 /home/berkeley/nacl_sdk/pepper_42/toolchain/linux_x86_newlib/bin/../lib/gcc/x86_64-nacl/4.4.3/../../../../x86_64-nacl/lib/../lib64/libstdc++.a(bad_typeid.o)
 .debug_info    0x000000000006249c      0x290 /home/berkeley/nacl_sdk/pepper_42/toolchain/linux_x86_newlib/bin/../lib/gcc/x86_64-nacl/4.4.3/../../../../x86_64-nacl/lib/../lib64/libstdc++.a(new_handler.o)
 .debug_info    0x000000000006272c      0x1a7 /home/berkeley/nacl_sdk/pepper_42/toolchain/linux_x86_newlib/bin/../lib/gcc/x86_64-nacl/4.4.3/../../../../x86_64-nacl/lib/../lib64/libstdc++.a(bad_cast.o)
 .debug_info    0x00000000000628d3     0x1264 /home/berkeley/nacl_sdk/pepper_42/toolchain/linux_x86_newlib/bin/../lib/gcc/x86_64-nacl/4.4.3/../../../../x86_64-nacl/lib/../lib64/libstdc++.a(vterminate.o)
 .debug_info    0x0000000000063b37     0x3a52 /home/berkeley/nacl_sdk/pepper_42/toolchain/linux_x86_newlib/bin/../lib/gcc/x86_64-nacl/4.4.3/../../../../x86_64-nacl/lib/../lib64/libstdc++.a(cp-demangle.o)
 .debug_info    0x0000000000067589      0x4b7 /home/berkeley/nacl_sdk/pepper_42/toolchain/linux_x86_newlib/bin/../lib/gcc/x86_64-nacl/4.4.3/../../../../x86_64-nacl/lib/../lib64/libstdc++.a(eh_type.o)
 .debug_info    0x0000000000067a40     0x3987 /home/berkeley/nacl_sdk/pepper_42/toolchain/linux_x86_newlib/bin/../lib/gcc/x86_64-nacl/4.4.3/libgcc.a(unwind-dw2.o)
 .debug_info    0x000000000006b3c7     0x1c75 /home/berkeley/nacl_sdk/pepper_42/toolchain/linux_x86_newlib/bin/../lib/gcc/x86_64-nacl/4.4.3/libgcc.a(unwind-dw2-fde-glibc.o)
 .debug_info    0x000000000006d03c      0x24d /home/berkeley/nacl_sdk/pepper_42/toolchain/linux_x86_newlib/bin/../lib/gcc/x86_64-nacl/4.4.3/../../../../x86_64-nacl/lib/../lib64/libnacl.a(_exit_710c7d0d.o)
 .debug_info    0x000000000006d289       0xca /home/berkeley/nacl_sdk/pepper_42/toolchain/linux_x86_newlib/bin/../lib/gcc/x86_64-nacl/4.4.3/../../../../x86_64-nacl/lib/../lib64/libnacl.a(abort_9f6b5845.o)
 .debug_info    0x000000000006d353       0x7f /home/berkeley/nacl_sdk/pepper_42/toolchain/linux_x86_newlib/bin/../lib/gcc/x86_64-nacl/4.4.3/../../../../x86_64-nacl/lib/../lib64/libnacl.a(environ_25cd24d8.o)
 .debug_info    0x000000000006d3d2      0x365 /home/berkeley/nacl_sdk/pepper_42/toolchain/linux_x86_newlib/bin/../lib/gcc/x86_64-nacl/4.4.3/../../../../x86_64-nacl/lib/../lib64/libnacl.a(start_fa9ef7de.o)
 .debug_info    0x000000000006d737     0x43dc /home/berkeley/nacl_sdk/pepper_42/toolchain/linux_x86_newlib/bin/../lib/gcc/x86_64-nacl/4.4.3/../../../../x86_64-nacl/lib/../lib64/libnacl.a(malloc_222c4a1e.o)
 .debug_info    0x0000000000071b13      0xd97 /home/berkeley/nacl_sdk/pepper_42/toolchain/linux_x86_newlib/bin/../lib/gcc/x86_64-nacl/4.4.3/../../../../x86_64-nacl/lib/../lib64/libnacl.a(nacl_irt_6de1d53f.o)
 .debug_info    0x00000000000728aa       0xe4 /home/berkeley/nacl_sdk/pepper_42/toolchain/linux_x86_newlib/bin/../lib/gcc/x86_64-nacl/4.4.3/../../../../x86_64-nacl/lib/../lib64/libnacl.a(pthread_initialize_minimal_4b6e776b.o)
 .debug_info    0x000000000007298e       0xa0 /home/berkeley/nacl_sdk/pepper_42/toolchain/linux_x86_newlib/bin/../lib/gcc/x86_64-nacl/4.4.3/../../../../x86_64-nacl/lib/../lib64/libnacl.a(nacl_read_tp_5748ac47.o)
 .debug_info    0x0000000000072a2e       0xbc /home/berkeley/nacl_sdk/pepper_42/toolchain/linux_x86_newlib/bin/../lib/gcc/x86_64-nacl/4.4.3/../../../../x86_64-nacl/lib/../lib64/libnacl.a(nacl_add_tp_7312c7c4.o)
 .debug_info    0x0000000000072aea      0x205 /home/berkeley/nacl_sdk/pepper_42/toolchain/linux_x86_newlib/bin/../lib/gcc/x86_64-nacl/4.4.3/../../../../x86_64-nacl/lib/../lib64/libnacl.a(mmap_767fb080.o)
 .debug_info    0x0000000000072cef      0x251 /home/berkeley/nacl_sdk/pepper_42/toolchain/linux_x86_newlib/bin/../lib/gcc/x86_64-nacl/4.4.3/../../../../x86_64-nacl/lib/../lib64/libnacl.a(sched_yield_56c375be.o)
 .debug_info    0x0000000000072f40      0x1b3 /home/berkeley/nacl_sdk/pepper_42/toolchain/linux_x86_newlib/bin/../lib/gcc/x86_64-nacl/4.4.3/../../../../x86_64-nacl/lib/../lib64/libnacl.a(munmap_d4f09867.o)
 .debug_info    0x00000000000730f3      0x873 /home/berkeley/nacl_sdk/pepper_42/toolchain/linux_x86_newlib/bin/../lib/gcc/x86_64-nacl/4.4.3/../../../../x86_64-nacl/lib/../lib64/libnacl.a(tls_bba1975b.o)
 .debug_info    0x0000000000073966      0x2d3 /home/berkeley/nacl_sdk/pepper_42/toolchain/linux_x86_newlib/bin/../lib/gcc/x86_64-nacl/4.4.3/../../../../x86_64-nacl/lib/../lib64/libnacl.a(write_fb49787f.o)
 .debug_info    0x0000000000073c39       0xfb /home/berkeley/nacl_sdk/pepper_42/toolchain/linux_x86_newlib/bin/../lib/gcc/x86_64-nacl/4.4.3/../../../../x86_64-nacl/lib/../lib64/libnacl.a(nacl_tls_get_d2f842b5.o)
 .debug_info    0x0000000000073d34      0x6d7 /home/berkeley/nacl_sdk/pepper_42/toolchain/linux_x86_newlib/bin/../lib/gcc/x86_64-nacl/4.4.3/../../../../x86_64-nacl/lib/../lib64/libnacl.a(nacl_irt_init_7b4f826e.o)
 .debug_info    0x000000000007440b      0x26f /home/berkeley/nacl_sdk/pepper_42/toolchain/linux_x86_newlib/bin/../lib/gcc/x86_64-nacl/4.4.3/../../../../x86_64-nacl/lib/../lib64/libnacl.a(sysconf_ad295ea2.o)
 .debug_info    0x000000000007467a      0x10f /home/berkeley/nacl_sdk/pepper_42/toolchain/linux_x86_newlib/bin/../lib/gcc/x86_64-nacl/4.4.3/../../../../x86_64-nacl/lib/../lib64/libnacl.a(nacl_tls_init_eb0cd232.o)
 .debug_info    0x0000000000074789      0x2a6 /home/berkeley/nacl_sdk/pepper_42/toolchain/linux_x86_newlib/bin/../lib/gcc/x86_64-nacl/4.4.3/../../../../x86_64-nacl/lib/../lib64/libnacl.a(close_e9b92fbd.o)
 .debug_info    0x0000000000074a2f      0x349 /home/berkeley/nacl_sdk/pepper_42/toolchain/linux_x86_newlib/bin/../lib/gcc/x86_64-nacl/4.4.3/../../../../x86_64-nacl/lib/../lib64/libnacl.a(isatty_02f56e94.o)
 .debug_info    0x0000000000074d78      0x314 /home/berkeley/nacl_sdk/pepper_42/toolchain/linux_x86_newlib/bin/../lib/gcc/x86_64-nacl/4.4.3/../../../../x86_64-nacl/lib/../lib64/libnacl.a(nacl_irt_fdio_b571b5e7.o)
 .debug_info    0x000000000007508c      0x4ad /home/berkeley/nacl_sdk/pepper_42/toolchain/linux_x86_newlib/bin/../lib/gcc/x86_64-nacl/4.4.3/../../../../x86_64-nacl/lib/../lib64/libnacl.a(fstat_0540ff63.o)
 .debug_info    0x0000000000075539      0x2e9 /home/berkeley/nacl_sdk/pepper_42/toolchain/linux_x86_newlib/bin/../lib/gcc/x86_64-nacl/4.4.3/../../../../x86_64-nacl/lib/../lib64/libnacl.a(lseek_64d2d05c.o)
 .debug_info    0x0000000000075822      0x2d3 /home/berkeley/nacl_sdk/pepper_42/toolchain/linux_x86_newlib/bin/../lib/gcc/x86_64-nacl/4.4.3/../../../../x86_64-nacl/lib/../lib64/libnacl.a(read_df872e10.o)

.debug_abbrev   0x0000000000000000     0xcab2
 *(.debug_abbrev)
 .debug_abbrev  0x0000000000000000      0x44e newlib/Release/popcnt_x86_64.o
 .debug_abbrev  0x000000000000044e      0x832 /home/berkeley/nacl_sdk/pepper_42/lib/newlib_x86_64/Release/libppapi_cpp.a(instance_x86_64.o)
 .debug_abbrev  0x0000000000000c80      0x865 /home/berkeley/nacl_sdk/pepper_42/lib/newlib_x86_64/Release/libppapi_cpp.a(module_x86_64.o)
 .debug_abbrev  0x00000000000014e5      0x2e8 /home/berkeley/nacl_sdk/pepper_42/lib/newlib_x86_64/Release/libppapi_cpp.a(ppp_entrypoints_x86_64.o)
 .debug_abbrev  0x00000000000017cd      0x462 /home/berkeley/nacl_sdk/pepper_42/lib/newlib_x86_64/Release/libppapi_cpp.a(resource_x86_64.o)
 .debug_abbrev  0x0000000000001c2f      0x4d1 /home/berkeley/nacl_sdk/pepper_42/lib/newlib_x86_64/Release/libppapi_cpp.a(url_loader_x86_64.o)
 .debug_abbrev  0x0000000000002100      0x3f7 /home/berkeley/nacl_sdk/pepper_42/lib/newlib_x86_64/Release/libppapi_cpp.a(url_response_info_x86_64.o)
 .debug_abbrev  0x00000000000024f7      0x730 /home/berkeley/nacl_sdk/pepper_42/lib/newlib_x86_64/Release/libppapi_cpp.a(var_x86_64.o)
 .debug_abbrev  0x0000000000002c27      0x493 /home/berkeley/nacl_sdk/pepper_42/lib/newlib_x86_64/Release/libppapi_cpp.a(view_x86_64.o)
 .debug_abbrev  0x00000000000030ba      0x372 /home/berkeley/nacl_sdk/pepper_42/lib/newlib_x86_64/Release/libppapi_cpp.a(core_x86_64.o)
 .debug_abbrev  0x000000000000342c      0x63e /home/berkeley/nacl_sdk/pepper_42/lib/newlib_x86_64/Release/libppapi_cpp.a(file_ref_x86_64.o)
 .debug_abbrev  0x0000000000003a6a      0x70f /home/berkeley/nacl_sdk/pepper_42/lib/newlib_x86_64/Release/libppapi_cpp.a(input_event_x86_64.o)
 .debug_abbrev  0x0000000000004179       0x4a /home/berkeley/nacl_sdk/pepper_42/toolchain/linux_x86_newlib/bin/../lib/gcc/x86_64-nacl/4.4.3/../../../../x86_64-nacl/lib/../lib64/libppapi_stub.a(plugin_main_irt_21ce9d26.o)
 .debug_abbrev  0x00000000000041c3       0xbb /home/berkeley/nacl_sdk/pepper_42/toolchain/linux_x86_newlib/bin/../lib/gcc/x86_64-nacl/4.4.3/../../../../x86_64-nacl/lib/../lib64/libppapi_stub.a(ppapi_plugin_main_399d0cf7.o)
 .debug_abbrev  0x000000000000427e      0x19e /home/berkeley/nacl_sdk/pepper_42/toolchain/linux_x86_newlib/bin/../lib/gcc/x86_64-nacl/4.4.3/../../../../x86_64-nacl/lib/../lib64/libppapi_stub.a(ppapi_plugin_start_8da67623.o)
 .debug_abbrev  0x000000000000441c      0x109 /home/berkeley/nacl_sdk/pepper_42/toolchain/linux_x86_newlib/bin/../lib/gcc/x86_64-nacl/4.4.3/../../../../x86_64-nacl/lib/../lib64/libppapi_stub.a(thread_creator_ccf263e1.o)
 .debug_abbrev  0x0000000000004525      0x448 /home/berkeley/nacl_sdk/pepper_42/toolchain/linux_x86_newlib/bin/../lib/gcc/x86_64-nacl/4.4.3/../../../../x86_64-nacl/lib/../lib64/libpthread.a(nc_thread_7e478b15.o)
 .debug_abbrev  0x000000000000496d      0x19c /home/berkeley/nacl_sdk/pepper_42/toolchain/linux_x86_newlib/bin/../lib/gcc/x86_64-nacl/4.4.3/../../../../x86_64-nacl/lib/../lib64/libpthread.a(nc_condvar_305aa45a.o)
 .debug_abbrev  0x0000000000004b09       0xfc /home/berkeley/nacl_sdk/pepper_42/toolchain/linux_x86_newlib/bin/../lib/gcc/x86_64-nacl/4.4.3/../../../../x86_64-nacl/lib/../lib64/libpthread.a(dynamic_annotations_33ba59cc.o)
 .debug_abbrev  0x0000000000004c05      0x213 /home/berkeley/nacl_sdk/pepper_42/toolchain/linux_x86_newlib/bin/../lib/gcc/x86_64-nacl/4.4.3/../../../../x86_64-nacl/lib/../lib64/libpthread.a(nc_mutex_86341ae1.o)
 .debug_abbrev  0x0000000000004e18       0xed /home/berkeley/nacl_sdk/pepper_42/toolchain/linux_x86_newlib/bin/../lib/gcc/x86_64-nacl/4.4.3/../../../../x86_64-nacl/lib/../lib64/libpthread.a(nc_init_irt_d3daafc0.o)
 .debug_abbrev  0x0000000000004f05      0x312 /home/berkeley/nacl_sdk/pepper_42/toolchain/linux_x86_newlib/bin/../lib/gcc/x86_64-nacl/4.4.3/../../../../x86_64-nacl/lib/../lib64/libstdc++.a(tree.o)
 .debug_abbrev  0x0000000000005217      0x7af /home/berkeley/nacl_sdk/pepper_42/toolchain/linux_x86_newlib/bin/../lib/gcc/x86_64-nacl/4.4.3/../../../../x86_64-nacl/lib/../lib64/libstdc++.a(string-inst.o)
 .debug_abbrev  0x00000000000059c6      0x491 /home/berkeley/nacl_sdk/pepper_42/toolchain/linux_x86_newlib/bin/../lib/gcc/x86_64-nacl/4.4.3/../../../../x86_64-nacl/lib/../lib64/libstdc++.a(eh_personality.o)
 .debug_abbrev  0x0000000000005e57      0x2e6 /home/berkeley/nacl_sdk/pepper_42/toolchain/linux_x86_newlib/bin/../lib/gcc/x86_64-nacl/4.4.3/../../../../x86_64-nacl/lib/../lib64/libstdc++.a(eh_globals.o)
 .debug_abbrev  0x000000000000613d      0x239 /home/berkeley/nacl_sdk/pepper_42/toolchain/linux_x86_newlib/bin/../lib/gcc/x86_64-nacl/4.4.3/../../../../x86_64-nacl/lib/../lib64/libstdc++.a(eh_throw.o)
 .debug_abbrev  0x0000000000006376      0x125 /home/berkeley/nacl_sdk/pepper_42/toolchain/linux_x86_newlib/bin/../lib/gcc/x86_64-nacl/4.4.3/../../../../x86_64-nacl/lib/../lib64/libstdc++.a(del_op.o)
 .debug_abbrev  0x000000000000649b      0x1f3 /home/berkeley/nacl_sdk/pepper_42/toolchain/linux_x86_newlib/bin/../lib/gcc/x86_64-nacl/4.4.3/../../../../x86_64-nacl/lib/../lib64/libstdc++.a(eh_call.o)
 .debug_abbrev  0x000000000000668e      0x49b /home/berkeley/nacl_sdk/pepper_42/toolchain/linux_x86_newlib/bin/../lib/gcc/x86_64-nacl/4.4.3/../../../../x86_64-nacl/lib/../lib64/libstdc++.a(guard.o)
 .debug_abbrev  0x0000000000006b29      0x313 /home/berkeley/nacl_sdk/pepper_42/toolchain/linux_x86_newlib/bin/../lib/gcc/x86_64-nacl/4.4.3/../../../../x86_64-nacl/lib/../lib64/libstdc++.a(si_class_type_info.o)
 .debug_abbrev  0x0000000000006e3c      0x1e3 /home/berkeley/nacl_sdk/pepper_42/toolchain/linux_x86_newlib/bin/../lib/gcc/x86_64-nacl/4.4.3/../../../../x86_64-nacl/lib/../lib64/libstdc++.a(eh_terminate.o)
 .debug_abbrev  0x000000000000701f      0x383 /home/berkeley/nacl_sdk/pepper_42/toolchain/linux_x86_newlib/bin/../lib/gcc/x86_64-nacl/4.4.3/../../../../x86_64-nacl/lib/../lib64/libstdc++.a(class_type_info.o)
 .debug_abbrev  0x00000000000073a2      0x439 /home/berkeley/nacl_sdk/pepper_42/toolchain/linux_x86_newlib/bin/../lib/gcc/x86_64-nacl/4.4.3/../../../../x86_64-nacl/lib/../lib64/libstdc++.a(eh_alloc.o)
 .debug_abbrev  0x00000000000077db      0x284 /home/berkeley/nacl_sdk/pepper_42/toolchain/linux_x86_newlib/bin/../lib/gcc/x86_64-nacl/4.4.3/../../../../x86_64-nacl/lib/../lib64/libstdc++.a(eh_catch.o)
 .debug_abbrev  0x0000000000007a5f      0x1e8 /home/berkeley/nacl_sdk/pepper_42/toolchain/linux_x86_newlib/bin/../lib/gcc/x86_64-nacl/4.4.3/../../../../x86_64-nacl/lib/../lib64/libstdc++.a(eh_exception.o)
 .debug_abbrev  0x0000000000007c47       0xb1 /home/berkeley/nacl_sdk/pepper_42/toolchain/linux_x86_newlib/bin/../lib/gcc/x86_64-nacl/4.4.3/../../../../x86_64-nacl/lib/../lib64/libstdc++.a(pure.o)
 .debug_abbrev  0x0000000000007cf8      0x1b7 /home/berkeley/nacl_sdk/pepper_42/toolchain/linux_x86_newlib/bin/../lib/gcc/x86_64-nacl/4.4.3/../../../../x86_64-nacl/lib/../lib64/libstdc++.a(new_op.o)
 .debug_abbrev  0x0000000000007eaf      0x239 /home/berkeley/nacl_sdk/pepper_42/toolchain/linux_x86_newlib/bin/../lib/gcc/x86_64-nacl/4.4.3/../../../../x86_64-nacl/lib/../lib64/libstdc++.a(tinfo.o)
 .debug_abbrev  0x00000000000080e8      0x71b /home/berkeley/nacl_sdk/pepper_42/toolchain/linux_x86_newlib/bin/../lib/gcc/x86_64-nacl/4.4.3/../../../../x86_64-nacl/lib/../lib64/libstdc++.a(functexcept.o)
 .debug_abbrev  0x0000000000008803      0x661 /home/berkeley/nacl_sdk/pepper_42/toolchain/linux_x86_newlib/bin/../lib/gcc/x86_64-nacl/4.4.3/../../../../x86_64-nacl/lib/../lib64/libstdc++.a(ios_failure.o)
 .debug_abbrev  0x0000000000008e64      0x54e /home/berkeley/nacl_sdk/pepper_42/toolchain/linux_x86_newlib/bin/../lib/gcc/x86_64-nacl/4.4.3/../../../../x86_64-nacl/lib/../lib64/libstdc++.a(stdexcept.o)
 .debug_abbrev  0x00000000000093b2      0x6d0 /home/berkeley/nacl_sdk/pepper_42/toolchain/linux_x86_newlib/bin/../lib/gcc/x86_64-nacl/4.4.3/../../../../x86_64-nacl/lib/../lib64/libstdc++.a(system_error.o)
 .debug_abbrev  0x0000000000009a82       0xb1 /home/berkeley/nacl_sdk/pepper_42/toolchain/linux_x86_newlib/bin/../lib/gcc/x86_64-nacl/4.4.3/../../../../x86_64-nacl/lib/../lib64/libstdc++.a(eh_unex_handler.o)
 .debug_abbrev  0x0000000000009b33       0xb1 /home/berkeley/nacl_sdk/pepper_42/toolchain/linux_x86_newlib/bin/../lib/gcc/x86_64-nacl/4.4.3/../../../../x86_64-nacl/lib/../lib64/libstdc++.a(eh_term_handler.o)
 .debug_abbrev  0x0000000000009be4      0x10e /home/berkeley/nacl_sdk/pepper_42/toolchain/linux_x86_newlib/bin/../lib/gcc/x86_64-nacl/4.4.3/../../../../x86_64-nacl/lib/../lib64/libstdc++.a(bad_typeid.o)
 .debug_abbrev  0x0000000000009cf2      0x1c0 /home/berkeley/nacl_sdk/pepper_42/toolchain/linux_x86_newlib/bin/../lib/gcc/x86_64-nacl/4.4.3/../../../../x86_64-nacl/lib/../lib64/libstdc++.a(new_handler.o)
 .debug_abbrev  0x0000000000009eb2      0x10e /home/berkeley/nacl_sdk/pepper_42/toolchain/linux_x86_newlib/bin/../lib/gcc/x86_64-nacl/4.4.3/../../../../x86_64-nacl/lib/../lib64/libstdc++.a(bad_cast.o)
 .debug_abbrev  0x0000000000009fc0      0x2b7 /home/berkeley/nacl_sdk/pepper_42/toolchain/linux_x86_newlib/bin/../lib/gcc/x86_64-nacl/4.4.3/../../../../x86_64-nacl/lib/../lib64/libstdc++.a(vterminate.o)
 .debug_abbrev  0x000000000000a277      0x31b /home/berkeley/nacl_sdk/pepper_42/toolchain/linux_x86_newlib/bin/../lib/gcc/x86_64-nacl/4.4.3/../../../../x86_64-nacl/lib/../lib64/libstdc++.a(cp-demangle.o)
 .debug_abbrev  0x000000000000a592      0x1b8 /home/berkeley/nacl_sdk/pepper_42/toolchain/linux_x86_newlib/bin/../lib/gcc/x86_64-nacl/4.4.3/../../../../x86_64-nacl/lib/../lib64/libstdc++.a(eh_type.o)
 .debug_abbrev  0x000000000000a74a      0x589 /home/berkeley/nacl_sdk/pepper_42/toolchain/linux_x86_newlib/bin/../lib/gcc/x86_64-nacl/4.4.3/libgcc.a(unwind-dw2.o)
 .debug_abbrev  0x000000000000acd3      0x47a /home/berkeley/nacl_sdk/pepper_42/toolchain/linux_x86_newlib/bin/../lib/gcc/x86_64-nacl/4.4.3/libgcc.a(unwind-dw2-fde-glibc.o)
 .debug_abbrev  0x000000000000b14d       0xcb /home/berkeley/nacl_sdk/pepper_42/toolchain/linux_x86_newlib/bin/../lib/gcc/x86_64-nacl/4.4.3/../../../../x86_64-nacl/lib/../lib64/libnacl.a(_exit_710c7d0d.o)
 .debug_abbrev  0x000000000000b218       0x72 /home/berkeley/nacl_sdk/pepper_42/toolchain/linux_x86_newlib/bin/../lib/gcc/x86_64-nacl/4.4.3/../../../../x86_64-nacl/lib/../lib64/libnacl.a(abort_9f6b5845.o)
 .debug_abbrev  0x000000000000b28a       0x63 /home/berkeley/nacl_sdk/pepper_42/toolchain/linux_x86_newlib/bin/../lib/gcc/x86_64-nacl/4.4.3/../../../../x86_64-nacl/lib/../lib64/libnacl.a(environ_25cd24d8.o)
 .debug_abbrev  0x000000000000b2ed      0x197 /home/berkeley/nacl_sdk/pepper_42/toolchain/linux_x86_newlib/bin/../lib/gcc/x86_64-nacl/4.4.3/../../../../x86_64-nacl/lib/../lib64/libnacl.a(start_fa9ef7de.o)
 .debug_abbrev  0x000000000000b484      0x3f9 /home/berkeley/nacl_sdk/pepper_42/toolchain/linux_x86_newlib/bin/../lib/gcc/x86_64-nacl/4.4.3/../../../../x86_64-nacl/lib/../lib64/libnacl.a(malloc_222c4a1e.o)
 .debug_abbrev  0x000000000000b87d      0x215 /home/berkeley/nacl_sdk/pepper_42/toolchain/linux_x86_newlib/bin/../lib/gcc/x86_64-nacl/4.4.3/../../../../x86_64-nacl/lib/../lib64/libnacl.a(nacl_irt_6de1d53f.o)
 .debug_abbrev  0x000000000000ba92       0x89 /home/berkeley/nacl_sdk/pepper_42/toolchain/linux_x86_newlib/bin/../lib/gcc/x86_64-nacl/4.4.3/../../../../x86_64-nacl/lib/../lib64/libnacl.a(pthread_initialize_minimal_4b6e776b.o)
 .debug_abbrev  0x000000000000bb1b       0x51 /home/berkeley/nacl_sdk/pepper_42/toolchain/linux_x86_newlib/bin/../lib/gcc/x86_64-nacl/4.4.3/../../../../x86_64-nacl/lib/../lib64/libnacl.a(nacl_read_tp_5748ac47.o)
 .debug_abbrev  0x000000000000bb6c       0x6d /home/berkeley/nacl_sdk/pepper_42/toolchain/linux_x86_newlib/bin/../lib/gcc/x86_64-nacl/4.4.3/../../../../x86_64-nacl/lib/../lib64/libnacl.a(nacl_add_tp_7312c7c4.o)
 .debug_abbrev  0x000000000000bbd9       0xc8 /home/berkeley/nacl_sdk/pepper_42/toolchain/linux_x86_newlib/bin/../lib/gcc/x86_64-nacl/4.4.3/../../../../x86_64-nacl/lib/../lib64/libnacl.a(mmap_767fb080.o)
 .debug_abbrev  0x000000000000bca1       0xcd /home/berkeley/nacl_sdk/pepper_42/toolchain/linux_x86_newlib/bin/../lib/gcc/x86_64-nacl/4.4.3/../../../../x86_64-nacl/lib/../lib64/libnacl.a(sched_yield_56c375be.o)
 .debug_abbrev  0x000000000000bd6e       0xc8 /home/berkeley/nacl_sdk/pepper_42/toolchain/linux_x86_newlib/bin/../lib/gcc/x86_64-nacl/4.4.3/../../../../x86_64-nacl/lib/../lib64/libnacl.a(munmap_d4f09867.o)
 .debug_abbrev  0x000000000000be36      0x22f /home/berkeley/nacl_sdk/pepper_42/toolchain/linux_x86_newlib/bin/../lib/gcc/x86_64-nacl/4.4.3/../../../../x86_64-nacl/lib/../lib64/libnacl.a(tls_bba1975b.o)
 .debug_abbrev  0x000000000000c065       0xf4 /home/berkeley/nacl_sdk/pepper_42/toolchain/linux_x86_newlib/bin/../lib/gcc/x86_64-nacl/4.4.3/../../../../x86_64-nacl/lib/../lib64/libnacl.a(write_fb49787f.o)
 .debug_abbrev  0x000000000000c159       0xa4 /home/berkeley/nacl_sdk/pepper_42/toolchain/linux_x86_newlib/bin/../lib/gcc/x86_64-nacl/4.4.3/../../../../x86_64-nacl/lib/../lib64/libnacl.a(nacl_tls_get_d2f842b5.o)
 .debug_abbrev  0x000000000000c1fd      0x1d9 /home/berkeley/nacl_sdk/pepper_42/toolchain/linux_x86_newlib/bin/../lib/gcc/x86_64-nacl/4.4.3/../../../../x86_64-nacl/lib/../lib64/libnacl.a(nacl_irt_init_7b4f826e.o)
 .debug_abbrev  0x000000000000c3d6       0xdc /home/berkeley/nacl_sdk/pepper_42/toolchain/linux_x86_newlib/bin/../lib/gcc/x86_64-nacl/4.4.3/../../../../x86_64-nacl/lib/../lib64/libnacl.a(sysconf_ad295ea2.o)
 .debug_abbrev  0x000000000000c4b2       0xb5 /home/berkeley/nacl_sdk/pepper_42/toolchain/linux_x86_newlib/bin/../lib/gcc/x86_64-nacl/4.4.3/../../../../x86_64-nacl/lib/../lib64/libnacl.a(nacl_tls_init_eb0cd232.o)
 .debug_abbrev  0x000000000000c567       0xe5 /home/berkeley/nacl_sdk/pepper_42/toolchain/linux_x86_newlib/bin/../lib/gcc/x86_64-nacl/4.4.3/../../../../x86_64-nacl/lib/../lib64/libnacl.a(close_e9b92fbd.o)
 .debug_abbrev  0x000000000000c64c       0xe5 /home/berkeley/nacl_sdk/pepper_42/toolchain/linux_x86_newlib/bin/../lib/gcc/x86_64-nacl/4.4.3/../../../../x86_64-nacl/lib/../lib64/libnacl.a(isatty_02f56e94.o)
 .debug_abbrev  0x000000000000c731       0xc3 /home/berkeley/nacl_sdk/pepper_42/toolchain/linux_x86_newlib/bin/../lib/gcc/x86_64-nacl/4.4.3/../../../../x86_64-nacl/lib/../lib64/libnacl.a(nacl_irt_fdio_b571b5e7.o)
 .debug_abbrev  0x000000000000c7f4       0xe5 /home/berkeley/nacl_sdk/pepper_42/toolchain/linux_x86_newlib/bin/../lib/gcc/x86_64-nacl/4.4.3/../../../../x86_64-nacl/lib/../lib64/libnacl.a(fstat_0540ff63.o)
 .debug_abbrev  0x000000000000c8d9       0xe5 /home/berkeley/nacl_sdk/pepper_42/toolchain/linux_x86_newlib/bin/../lib/gcc/x86_64-nacl/4.4.3/../../../../x86_64-nacl/lib/../lib64/libnacl.a(lseek_64d2d05c.o)
 .debug_abbrev  0x000000000000c9be       0xf4 /home/berkeley/nacl_sdk/pepper_42/toolchain/linux_x86_newlib/bin/../lib/gcc/x86_64-nacl/4.4.3/../../../../x86_64-nacl/lib/../lib64/libnacl.a(read_df872e10.o)

.debug_line     0x0000000000000000    0x1bf06
 *(.debug_line .debug_line.* .debug_line_end)
 .debug_line    0x0000000000000000      0x6db newlib/Release/popcnt_x86_64.o
 .debug_line    0x00000000000006db     0x13b2 /home/berkeley/nacl_sdk/pepper_42/lib/newlib_x86_64/Release/libppapi_cpp.a(instance_x86_64.o)
 .debug_line    0x0000000000001a8d     0x12f4 /home/berkeley/nacl_sdk/pepper_42/lib/newlib_x86_64/Release/libppapi_cpp.a(module_x86_64.o)
 .debug_line    0x0000000000002d81      0x71a /home/berkeley/nacl_sdk/pepper_42/lib/newlib_x86_64/Release/libppapi_cpp.a(ppp_entrypoints_x86_64.o)
 .debug_line    0x000000000000349b      0x8c9 /home/berkeley/nacl_sdk/pepper_42/lib/newlib_x86_64/Release/libppapi_cpp.a(resource_x86_64.o)
 .debug_line    0x0000000000003d64      0xbef /home/berkeley/nacl_sdk/pepper_42/lib/newlib_x86_64/Release/libppapi_cpp.a(url_loader_x86_64.o)
 .debug_line    0x0000000000004953      0x881 /home/berkeley/nacl_sdk/pepper_42/lib/newlib_x86_64/Release/libppapi_cpp.a(url_response_info_x86_64.o)
 .debug_line    0x00000000000051d4      0xdb5 /home/berkeley/nacl_sdk/pepper_42/lib/newlib_x86_64/Release/libppapi_cpp.a(var_x86_64.o)
 .debug_line    0x0000000000005f89      0xb4f /home/berkeley/nacl_sdk/pepper_42/lib/newlib_x86_64/Release/libppapi_cpp.a(view_x86_64.o)
 .debug_line    0x0000000000006ad8      0x740 /home/berkeley/nacl_sdk/pepper_42/lib/newlib_x86_64/Release/libppapi_cpp.a(core_x86_64.o)
 .debug_line    0x0000000000007218      0xea9 /home/berkeley/nacl_sdk/pepper_42/lib/newlib_x86_64/Release/libppapi_cpp.a(file_ref_x86_64.o)
 .debug_line    0x00000000000080c1     0x1945 /home/berkeley/nacl_sdk/pepper_42/lib/newlib_x86_64/Release/libppapi_cpp.a(input_event_x86_64.o)
 .debug_line    0x0000000000009a06       0x46 /home/berkeley/nacl_sdk/pepper_42/toolchain/linux_x86_newlib/bin/../lib/gcc/x86_64-nacl/4.4.3/../../../../x86_64-nacl/lib/../lib64/libppapi_stub.a(plugin_main_irt_21ce9d26.o)
 .debug_line    0x0000000000009a4c      0x20d /home/berkeley/nacl_sdk/pepper_42/toolchain/linux_x86_newlib/bin/../lib/gcc/x86_64-nacl/4.4.3/../../../../x86_64-nacl/lib/../lib64/libppapi_stub.a(ppapi_plugin_main_399d0cf7.o)
 .debug_line    0x0000000000009c59      0x3df /home/berkeley/nacl_sdk/pepper_42/toolchain/linux_x86_newlib/bin/../lib/gcc/x86_64-nacl/4.4.3/../../../../x86_64-nacl/lib/../lib64/libppapi_stub.a(ppapi_plugin_start_8da67623.o)
 .debug_line    0x000000000000a038      0x216 /home/berkeley/nacl_sdk/pepper_42/toolchain/linux_x86_newlib/bin/../lib/gcc/x86_64-nacl/4.4.3/../../../../x86_64-nacl/lib/../lib64/libppapi_stub.a(thread_creator_ccf263e1.o)
 .debug_line    0x000000000000a24e      0x7a7 /home/berkeley/nacl_sdk/pepper_42/toolchain/linux_x86_newlib/bin/../lib/gcc/x86_64-nacl/4.4.3/../../../../x86_64-nacl/lib/../lib64/libpthread.a(nc_thread_7e478b15.o)
 .debug_line    0x000000000000a9f5      0x2aa /home/berkeley/nacl_sdk/pepper_42/toolchain/linux_x86_newlib/bin/../lib/gcc/x86_64-nacl/4.4.3/../../../../x86_64-nacl/lib/../lib64/libpthread.a(nc_condvar_305aa45a.o)
 .debug_line    0x000000000000ac9f       0xd8 /home/berkeley/nacl_sdk/pepper_42/toolchain/linux_x86_newlib/bin/../lib/gcc/x86_64-nacl/4.4.3/../../../../x86_64-nacl/lib/../lib64/libpthread.a(dynamic_annotations_33ba59cc.o)
 .debug_line    0x000000000000ad77      0x35a /home/berkeley/nacl_sdk/pepper_42/toolchain/linux_x86_newlib/bin/../lib/gcc/x86_64-nacl/4.4.3/../../../../x86_64-nacl/lib/../lib64/libpthread.a(nc_mutex_86341ae1.o)
 .debug_line    0x000000000000b0d1      0x224 /home/berkeley/nacl_sdk/pepper_42/toolchain/linux_x86_newlib/bin/../lib/gcc/x86_64-nacl/4.4.3/../../../../x86_64-nacl/lib/../lib64/libpthread.a(nc_init_irt_d3daafc0.o)
 .debug_line    0x000000000000b2f5      0x686 /home/berkeley/nacl_sdk/pepper_42/toolchain/linux_x86_newlib/bin/../lib/gcc/x86_64-nacl/4.4.3/../../../../x86_64-nacl/lib/../lib64/libstdc++.a(tree.o)
 .debug_line    0x000000000000b97b     0x2b12 /home/berkeley/nacl_sdk/pepper_42/toolchain/linux_x86_newlib/bin/../lib/gcc/x86_64-nacl/4.4.3/../../../../x86_64-nacl/lib/../lib64/libstdc++.a(string-inst.o)
 .debug_line    0x000000000000e48d      0x6c6 /home/berkeley/nacl_sdk/pepper_42/toolchain/linux_x86_newlib/bin/../lib/gcc/x86_64-nacl/4.4.3/../../../../x86_64-nacl/lib/../lib64/libstdc++.a(eh_personality.o)
 .debug_line    0x000000000000eb53      0x43c /home/berkeley/nacl_sdk/pepper_42/toolchain/linux_x86_newlib/bin/../lib/gcc/x86_64-nacl/4.4.3/../../../../x86_64-nacl/lib/../lib64/libstdc++.a(eh_globals.o)
 .debug_line    0x000000000000ef8f      0x2ea /home/berkeley/nacl_sdk/pepper_42/toolchain/linux_x86_newlib/bin/../lib/gcc/x86_64-nacl/4.4.3/../../../../x86_64-nacl/lib/../lib64/libstdc++.a(eh_throw.o)
 .debug_line    0x000000000000f279      0x227 /home/berkeley/nacl_sdk/pepper_42/toolchain/linux_x86_newlib/bin/../lib/gcc/x86_64-nacl/4.4.3/../../../../x86_64-nacl/lib/../lib64/libstdc++.a(del_op.o)
 .debug_line    0x000000000000f4a0      0x259 /home/berkeley/nacl_sdk/pepper_42/toolchain/linux_x86_newlib/bin/../lib/gcc/x86_64-nacl/4.4.3/../../../../x86_64-nacl/lib/../lib64/libstdc++.a(eh_call.o)
 .debug_line    0x000000000000f6f9      0x5bd /home/berkeley/nacl_sdk/pepper_42/toolchain/linux_x86_newlib/bin/../lib/gcc/x86_64-nacl/4.4.3/../../../../x86_64-nacl/lib/../lib64/libstdc++.a(guard.o)
 .debug_line    0x000000000000fcb6      0x287 /home/berkeley/nacl_sdk/pepper_42/toolchain/linux_x86_newlib/bin/../lib/gcc/x86_64-nacl/4.4.3/../../../../x86_64-nacl/lib/../lib64/libstdc++.a(si_class_type_info.o)
 .debug_line    0x000000000000ff3d      0x2cc /home/berkeley/nacl_sdk/pepper_42/toolchain/linux_x86_newlib/bin/../lib/gcc/x86_64-nacl/4.4.3/../../../../x86_64-nacl/lib/../lib64/libstdc++.a(eh_terminate.o)
 .debug_line    0x0000000000010209      0x2bc /home/berkeley/nacl_sdk/pepper_42/toolchain/linux_x86_newlib/bin/../lib/gcc/x86_64-nacl/4.4.3/../../../../x86_64-nacl/lib/../lib64/libstdc++.a(class_type_info.o)
 .debug_line    0x00000000000104c5      0x5d1 /home/berkeley/nacl_sdk/pepper_42/toolchain/linux_x86_newlib/bin/../lib/gcc/x86_64-nacl/4.4.3/../../../../x86_64-nacl/lib/../lib64/libstdc++.a(eh_alloc.o)
 .debug_line    0x0000000000010a96      0x2fa /home/berkeley/nacl_sdk/pepper_42/toolchain/linux_x86_newlib/bin/../lib/gcc/x86_64-nacl/4.4.3/../../../../x86_64-nacl/lib/../lib64/libstdc++.a(eh_catch.o)
 .debug_line    0x0000000000010d90      0x1e3 /home/berkeley/nacl_sdk/pepper_42/toolchain/linux_x86_newlib/bin/../lib/gcc/x86_64-nacl/4.4.3/../../../../x86_64-nacl/lib/../lib64/libstdc++.a(eh_exception.o)
 .debug_line    0x0000000000010f73      0x1c8 /home/berkeley/nacl_sdk/pepper_42/toolchain/linux_x86_newlib/bin/../lib/gcc/x86_64-nacl/4.4.3/../../../../x86_64-nacl/lib/../lib64/libstdc++.a(pure.o)
 .debug_line    0x000000000001113b      0x25a /home/berkeley/nacl_sdk/pepper_42/toolchain/linux_x86_newlib/bin/../lib/gcc/x86_64-nacl/4.4.3/../../../../x86_64-nacl/lib/../lib64/libstdc++.a(new_op.o)
 .debug_line    0x0000000000011395      0x1dd /home/berkeley/nacl_sdk/pepper_42/toolchain/linux_x86_newlib/bin/../lib/gcc/x86_64-nacl/4.4.3/../../../../x86_64-nacl/lib/../lib64/libstdc++.a(tinfo.o)
 .debug_line    0x0000000000011572      0xde1 /home/berkeley/nacl_sdk/pepper_42/toolchain/linux_x86_newlib/bin/../lib/gcc/x86_64-nacl/4.4.3/../../../../x86_64-nacl/lib/../lib64/libstdc++.a(functexcept.o)
 .debug_line    0x0000000000012353      0x85f /home/berkeley/nacl_sdk/pepper_42/toolchain/linux_x86_newlib/bin/../lib/gcc/x86_64-nacl/4.4.3/../../../../x86_64-nacl/lib/../lib64/libstdc++.a(ios_failure.o)
 .debug_line    0x0000000000012bb2      0xb36 /home/berkeley/nacl_sdk/pepper_42/toolchain/linux_x86_newlib/bin/../lib/gcc/x86_64-nacl/4.4.3/../../../../x86_64-nacl/lib/../lib64/libstdc++.a(stdexcept.o)
 .debug_line    0x00000000000136e8      0x989 /home/berkeley/nacl_sdk/pepper_42/toolchain/linux_x86_newlib/bin/../lib/gcc/x86_64-nacl/4.4.3/../../../../x86_64-nacl/lib/../lib64/libstdc++.a(system_error.o)
 .debug_line    0x0000000000014071      0x1be /home/berkeley/nacl_sdk/pepper_42/toolchain/linux_x86_newlib/bin/../lib/gcc/x86_64-nacl/4.4.3/../../../../x86_64-nacl/lib/../lib64/libstdc++.a(eh_unex_handler.o)
 .debug_line    0x000000000001422f      0x1be /home/berkeley/nacl_sdk/pepper_42/toolchain/linux_x86_newlib/bin/../lib/gcc/x86_64-nacl/4.4.3/../../../../x86_64-nacl/lib/../lib64/libstdc++.a(eh_term_handler.o)
 .debug_line    0x00000000000143ed       0xf5 /home/berkeley/nacl_sdk/pepper_42/toolchain/linux_x86_newlib/bin/../lib/gcc/x86_64-nacl/4.4.3/../../../../x86_64-nacl/lib/../lib64/libstdc++.a(bad_typeid.o)
 .debug_line    0x00000000000144e2      0x191 /home/berkeley/nacl_sdk/pepper_42/toolchain/linux_x86_newlib/bin/../lib/gcc/x86_64-nacl/4.4.3/../../../../x86_64-nacl/lib/../lib64/libstdc++.a(new_handler.o)
 .debug_line    0x0000000000014673       0xf3 /home/berkeley/nacl_sdk/pepper_42/toolchain/linux_x86_newlib/bin/../lib/gcc/x86_64-nacl/4.4.3/../../../../x86_64-nacl/lib/../lib64/libstdc++.a(bad_cast.o)
 .debug_line    0x0000000000014766      0x3cc /home/berkeley/nacl_sdk/pepper_42/toolchain/linux_x86_newlib/bin/../lib/gcc/x86_64-nacl/4.4.3/../../../../x86_64-nacl/lib/../lib64/libstdc++.a(vterminate.o)
 .debug_line    0x0000000000014b32     0x1373 /home/berkeley/nacl_sdk/pepper_42/toolchain/linux_x86_newlib/bin/../lib/gcc/x86_64-nacl/4.4.3/../../../../x86_64-nacl/lib/../lib64/libstdc++.a(cp-demangle.o)
 .debug_line    0x0000000000015ea5      0x1e5 /home/berkeley/nacl_sdk/pepper_42/toolchain/linux_x86_newlib/bin/../lib/gcc/x86_64-nacl/4.4.3/../../../../x86_64-nacl/lib/../lib64/libstdc++.a(eh_type.o)
 .debug_line    0x000000000001608a      0xf8b /home/berkeley/nacl_sdk/pepper_42/toolchain/linux_x86_newlib/bin/../lib/gcc/x86_64-nacl/4.4.3/libgcc.a(unwind-dw2.o)
 .debug_line    0x0000000000017015      0x841 /home/berkeley/nacl_sdk/pepper_42/toolchain/linux_x86_newlib/bin/../lib/gcc/x86_64-nacl/4.4.3/libgcc.a(unwind-dw2-fde-glibc.o)
 .debug_line    0x0000000000017856      0x2de /home/berkeley/nacl_sdk/pepper_42/toolchain/linux_x86_newlib/bin/../lib/gcc/x86_64-nacl/4.4.3/../../../../x86_64-nacl/lib/../lib64/libnacl.a(_exit_710c7d0d.o)
 .debug_line    0x0000000000017b34       0xe7 /home/berkeley/nacl_sdk/pepper_42/toolchain/linux_x86_newlib/bin/../lib/gcc/x86_64-nacl/4.4.3/../../../../x86_64-nacl/lib/../lib64/libnacl.a(abort_9f6b5845.o)
 .debug_line    0x0000000000017c1b       0x30 /home/berkeley/nacl_sdk/pepper_42/toolchain/linux_x86_newlib/bin/../lib/gcc/x86_64-nacl/4.4.3/../../../../x86_64-nacl/lib/../lib64/libnacl.a(environ_25cd24d8.o)
 .debug_line    0x0000000000017c4b      0x2f9 /home/berkeley/nacl_sdk/pepper_42/toolchain/linux_x86_newlib/bin/../lib/gcc/x86_64-nacl/4.4.3/../../../../x86_64-nacl/lib/../lib64/libnacl.a(start_fa9ef7de.o)
 .debug_line    0x0000000000017f44      0xd26 /home/berkeley/nacl_sdk/pepper_42/toolchain/linux_x86_newlib/bin/../lib/gcc/x86_64-nacl/4.4.3/../../../../x86_64-nacl/lib/../lib64/libnacl.a(malloc_222c4a1e.o)
 .debug_line    0x0000000000018c6a      0x3ab /home/berkeley/nacl_sdk/pepper_42/toolchain/linux_x86_newlib/bin/../lib/gcc/x86_64-nacl/4.4.3/../../../../x86_64-nacl/lib/../lib64/libnacl.a(nacl_irt_6de1d53f.o)
 .debug_line    0x0000000000019015       0xf5 /home/berkeley/nacl_sdk/pepper_42/toolchain/linux_x86_newlib/bin/../lib/gcc/x86_64-nacl/4.4.3/../../../../x86_64-nacl/lib/../lib64/libnacl.a(pthread_initialize_minimal_4b6e776b.o)
 .debug_line    0x000000000001910a       0x43 /home/berkeley/nacl_sdk/pepper_42/toolchain/linux_x86_newlib/bin/../lib/gcc/x86_64-nacl/4.4.3/../../../../x86_64-nacl/lib/../lib64/libnacl.a(nacl_read_tp_5748ac47.o)
 .debug_line    0x000000000001914d       0xd6 /home/berkeley/nacl_sdk/pepper_42/toolchain/linux_x86_newlib/bin/../lib/gcc/x86_64-nacl/4.4.3/../../../../x86_64-nacl/lib/../lib64/libnacl.a(nacl_add_tp_7312c7c4.o)
 .debug_line    0x0000000000019223      0x36e /home/berkeley/nacl_sdk/pepper_42/toolchain/linux_x86_newlib/bin/../lib/gcc/x86_64-nacl/4.4.3/../../../../x86_64-nacl/lib/../lib64/libnacl.a(mmap_767fb080.o)
 .debug_line    0x0000000000019591      0x2ee /home/berkeley/nacl_sdk/pepper_42/toolchain/linux_x86_newlib/bin/../lib/gcc/x86_64-nacl/4.4.3/../../../../x86_64-nacl/lib/../lib64/libnacl.a(sched_yield_56c375be.o)
 .debug_line    0x000000000001987f      0x359 /home/berkeley/nacl_sdk/pepper_42/toolchain/linux_x86_newlib/bin/../lib/gcc/x86_64-nacl/4.4.3/../../../../x86_64-nacl/lib/../lib64/libnacl.a(munmap_d4f09867.o)
 .debug_line    0x0000000000019bd8      0x340 /home/berkeley/nacl_sdk/pepper_42/toolchain/linux_x86_newlib/bin/../lib/gcc/x86_64-nacl/4.4.3/../../../../x86_64-nacl/lib/../lib64/libnacl.a(tls_bba1975b.o)
 .debug_line    0x0000000000019f18      0x358 /home/berkeley/nacl_sdk/pepper_42/toolchain/linux_x86_newlib/bin/../lib/gcc/x86_64-nacl/4.4.3/../../../../x86_64-nacl/lib/../lib64/libnacl.a(write_fb49787f.o)
 .debug_line    0x000000000001a270       0xb3 /home/berkeley/nacl_sdk/pepper_42/toolchain/linux_x86_newlib/bin/../lib/gcc/x86_64-nacl/4.4.3/../../../../x86_64-nacl/lib/../lib64/libnacl.a(nacl_tls_get_d2f842b5.o)
 .debug_line    0x000000000001a323      0x3cc /home/berkeley/nacl_sdk/pepper_42/toolchain/linux_x86_newlib/bin/../lib/gcc/x86_64-nacl/4.4.3/../../../../x86_64-nacl/lib/../lib64/libnacl.a(nacl_irt_init_7b4f826e.o)
 .debug_line    0x000000000001a6ef      0x2ea /home/berkeley/nacl_sdk/pepper_42/toolchain/linux_x86_newlib/bin/../lib/gcc/x86_64-nacl/4.4.3/../../../../x86_64-nacl/lib/../lib64/libnacl.a(sysconf_ad295ea2.o)
 .debug_line    0x000000000001a9d9       0xb6 /home/berkeley/nacl_sdk/pepper_42/toolchain/linux_x86_newlib/bin/../lib/gcc/x86_64-nacl/4.4.3/../../../../x86_64-nacl/lib/../lib64/libnacl.a(nacl_tls_init_eb0cd232.o)
 .debug_line    0x000000000001aa8f      0x359 /home/berkeley/nacl_sdk/pepper_42/toolchain/linux_x86_newlib/bin/../lib/gcc/x86_64-nacl/4.4.3/../../../../x86_64-nacl/lib/../lib64/libnacl.a(close_e9b92fbd.o)
 .debug_line    0x000000000001ade8      0x37d /home/berkeley/nacl_sdk/pepper_42/toolchain/linux_x86_newlib/bin/../lib/gcc/x86_64-nacl/4.4.3/../../../../x86_64-nacl/lib/../lib64/libnacl.a(isatty_02f56e94.o)
 .debug_line    0x000000000001b165      0x36c /home/berkeley/nacl_sdk/pepper_42/toolchain/linux_x86_newlib/bin/../lib/gcc/x86_64-nacl/4.4.3/../../../../x86_64-nacl/lib/../lib64/libnacl.a(nacl_irt_fdio_b571b5e7.o)
 .debug_line    0x000000000001b4d1      0x36f /home/berkeley/nacl_sdk/pepper_42/toolchain/linux_x86_newlib/bin/../lib/gcc/x86_64-nacl/4.4.3/../../../../x86_64-nacl/lib/../lib64/libnacl.a(fstat_0540ff63.o)
 .debug_line    0x000000000001b840      0x36f /home/berkeley/nacl_sdk/pepper_42/toolchain/linux_x86_newlib/bin/../lib/gcc/x86_64-nacl/4.4.3/../../../../x86_64-nacl/lib/../lib64/libnacl.a(lseek_64d2d05c.o)
 .debug_line    0x000000000001bbaf      0x357 /home/berkeley/nacl_sdk/pepper_42/toolchain/linux_x86_newlib/bin/../lib/gcc/x86_64-nacl/4.4.3/../../../../x86_64-nacl/lib/../lib64/libnacl.a(read_df872e10.o)

.debug_frame
 *(.debug_frame)

.debug_str      0x0000000000000000    0x1e807
 *(.debug_str)
 .debug_str     0x0000000000000000      0xc07 newlib/Release/popcnt_x86_64.o
                                        0xe61 (size before relaxing)
 .debug_str     0x0000000000000c07     0x6930 /home/berkeley/nacl_sdk/pepper_42/lib/newlib_x86_64/Release/libppapi_cpp.a(instance_x86_64.o)
                                       0x7933 (size before relaxing)
 .debug_str     0x0000000000007537     0x7631 /home/berkeley/nacl_sdk/pepper_42/lib/newlib_x86_64/Release/libppapi_cpp.a(module_x86_64.o)
                                       0xaa92 (size before relaxing)
 .debug_str     0x000000000000eb68       0xdb /home/berkeley/nacl_sdk/pepper_42/lib/newlib_x86_64/Release/libppapi_cpp.a(ppp_entrypoints_x86_64.o)
                                       0x1050 (size before relaxing)
 .debug_str     0x000000000000ec43      0x174 /home/berkeley/nacl_sdk/pepper_42/lib/newlib_x86_64/Release/libppapi_cpp.a(resource_x86_64.o)
                                        0xfae (size before relaxing)
 .debug_str     0x000000000000edb7     0x1049 /home/berkeley/nacl_sdk/pepper_42/lib/newlib_x86_64/Release/libppapi_cpp.a(url_loader_x86_64.o)
                                       0x252c (size before relaxing)
 .debug_str     0x000000000000fe00       0xbe /home/berkeley/nacl_sdk/pepper_42/lib/newlib_x86_64/Release/libppapi_cpp.a(url_response_info_x86_64.o)
                                       0x14e3 (size before relaxing)
 .debug_str     0x000000000000febe      0x493 /home/berkeley/nacl_sdk/pepper_42/lib/newlib_x86_64/Release/libppapi_cpp.a(var_x86_64.o)
                                       0x2a87 (size before relaxing)
 .debug_str     0x0000000000010351      0x13f /home/berkeley/nacl_sdk/pepper_42/lib/newlib_x86_64/Release/libppapi_cpp.a(view_x86_64.o)
                                       0x15ba (size before relaxing)
 .debug_str     0x0000000000010490       0x1e /home/berkeley/nacl_sdk/pepper_42/lib/newlib_x86_64/Release/libppapi_cpp.a(core_x86_64.o)
                                        0xf21 (size before relaxing)
 .debug_str     0x00000000000104ae     0x1996 /home/berkeley/nacl_sdk/pepper_42/lib/newlib_x86_64/Release/libppapi_cpp.a(file_ref_x86_64.o)
                                       0x33ac (size before relaxing)
 .debug_str     0x0000000000011e44     0x1aec /home/berkeley/nacl_sdk/pepper_42/lib/newlib_x86_64/Release/libppapi_cpp.a(input_event_x86_64.o)
                                       0x3331 (size before relaxing)
 .debug_str     0x0000000000013930       0xcd /home/berkeley/nacl_sdk/pepper_42/toolchain/linux_x86_newlib/bin/../lib/gcc/x86_64-nacl/4.4.3/../../../../x86_64-nacl/lib/../lib64/libppapi_stub.a(plugin_main_irt_21ce9d26.o)
                                        0x156 (size before relaxing)
 .debug_str     0x00000000000139fd       0x50 /home/berkeley/nacl_sdk/pepper_42/toolchain/linux_x86_newlib/bin/../lib/gcc/x86_64-nacl/4.4.3/../../../../x86_64-nacl/lib/../lib64/libppapi_stub.a(ppapi_plugin_main_399d0cf7.o)
                                        0x1e3 (size before relaxing)
 .debug_str     0x0000000000013a4d       0xf9 /home/berkeley/nacl_sdk/pepper_42/toolchain/linux_x86_newlib/bin/../lib/gcc/x86_64-nacl/4.4.3/../../../../x86_64-nacl/lib/../lib64/libppapi_stub.a(ppapi_plugin_start_8da67623.o)
                                        0x302 (size before relaxing)
 .debug_str     0x0000000000013b46       0x64 /home/berkeley/nacl_sdk/pepper_42/toolchain/linux_x86_newlib/bin/../lib/gcc/x86_64-nacl/4.4.3/../../../../x86_64-nacl/lib/../lib64/libppapi_stub.a(thread_creator_ccf263e1.o)
                                        0x2a6 (size before relaxing)
 .debug_str     0x0000000000013baa      0x906 /home/berkeley/nacl_sdk/pepper_42/toolchain/linux_x86_newlib/bin/../lib/gcc/x86_64-nacl/4.4.3/../../../../x86_64-nacl/lib/../lib64/libpthread.a(nc_thread_7e478b15.o)
                                        0xb83 (size before relaxing)
 .debug_str     0x00000000000144b0      0x123 /home/berkeley/nacl_sdk/pepper_42/toolchain/linux_x86_newlib/bin/../lib/gcc/x86_64-nacl/4.4.3/../../../../x86_64-nacl/lib/../lib64/libpthread.a(nc_condvar_305aa45a.o)
                                        0x477 (size before relaxing)
 .debug_str     0x00000000000145d3      0x48c /home/berkeley/nacl_sdk/pepper_42/toolchain/linux_x86_newlib/bin/../lib/gcc/x86_64-nacl/4.4.3/../../../../x86_64-nacl/lib/../lib64/libpthread.a(dynamic_annotations_33ba59cc.o)
                                        0x611 (size before relaxing)
 .debug_str     0x0000000000014a5f      0x1b2 /home/berkeley/nacl_sdk/pepper_42/toolchain/linux_x86_newlib/bin/../lib/gcc/x86_64-nacl/4.4.3/../../../../x86_64-nacl/lib/../lib64/libpthread.a(nc_mutex_86341ae1.o)
                                        0x637 (size before relaxing)
 .debug_str     0x0000000000014c11       0x29 /home/berkeley/nacl_sdk/pepper_42/toolchain/linux_x86_newlib/bin/../lib/gcc/x86_64-nacl/4.4.3/../../../../x86_64-nacl/lib/../lib64/libpthread.a(nc_init_irt_d3daafc0.o)
                                        0x235 (size before relaxing)
 .debug_str     0x0000000000014c3a      0x2f3 /home/berkeley/nacl_sdk/pepper_42/toolchain/linux_x86_newlib/bin/../lib/gcc/x86_64-nacl/4.4.3/../../../../x86_64-nacl/lib/../lib64/libstdc++.a(tree.o)
                                        0x534 (size before relaxing)
 .debug_str     0x0000000000014f2d     0x1a7e /home/berkeley/nacl_sdk/pepper_42/toolchain/linux_x86_newlib/bin/../lib/gcc/x86_64-nacl/4.4.3/../../../../x86_64-nacl/lib/../lib64/libstdc++.a(string-inst.o)
                                       0x3ead (size before relaxing)
 .debug_str     0x00000000000169ab      0x84f /home/berkeley/nacl_sdk/pepper_42/toolchain/linux_x86_newlib/bin/../lib/gcc/x86_64-nacl/4.4.3/../../../../x86_64-nacl/lib/../lib64/libstdc++.a(eh_personality.o)
                                        0xafb (size before relaxing)
 .debug_str     0x00000000000171fa      0x18b /home/berkeley/nacl_sdk/pepper_42/toolchain/linux_x86_newlib/bin/../lib/gcc/x86_64-nacl/4.4.3/../../../../x86_64-nacl/lib/../lib64/libstdc++.a(eh_globals.o)
                                        0x702 (size before relaxing)
 .debug_str     0x0000000000017385      0x19e /home/berkeley/nacl_sdk/pepper_42/toolchain/linux_x86_newlib/bin/../lib/gcc/x86_64-nacl/4.4.3/../../../../x86_64-nacl/lib/../lib64/libstdc++.a(eh_throw.o)
                                        0x5f4 (size before relaxing)
 .debug_str     0x0000000000017523       0x71 /home/berkeley/nacl_sdk/pepper_42/toolchain/linux_x86_newlib/bin/../lib/gcc/x86_64-nacl/4.4.3/../../../../x86_64-nacl/lib/../lib64/libstdc++.a(del_op.o)
                                        0x2a7 (size before relaxing)
 .debug_str     0x0000000000017594       0x80 /home/berkeley/nacl_sdk/pepper_42/toolchain/linux_x86_newlib/bin/../lib/gcc/x86_64-nacl/4.4.3/../../../../x86_64-nacl/lib/../lib64/libstdc++.a(eh_call.o)
                                        0x591 (size before relaxing)
 .debug_str     0x0000000000017614      0x420 /home/berkeley/nacl_sdk/pepper_42/toolchain/linux_x86_newlib/bin/../lib/gcc/x86_64-nacl/4.4.3/../../../../x86_64-nacl/lib/../lib64/libstdc++.a(guard.o)
                                        0x740 (size before relaxing)
 .debug_str     0x0000000000017a34      0x4c8 /home/berkeley/nacl_sdk/pepper_42/toolchain/linux_x86_newlib/bin/../lib/gcc/x86_64-nacl/4.4.3/../../../../x86_64-nacl/lib/../lib64/libstdc++.a(si_class_type_info.o)
                                        0x652 (size before relaxing)
 .debug_str     0x0000000000017efc      0x142 /home/berkeley/nacl_sdk/pepper_42/toolchain/linux_x86_newlib/bin/../lib/gcc/x86_64-nacl/4.4.3/../../../../x86_64-nacl/lib/../lib64/libstdc++.a(eh_terminate.o)
                                        0x486 (size before relaxing)
 .debug_str     0x000000000001803e      0x2bc /home/berkeley/nacl_sdk/pepper_42/toolchain/linux_x86_newlib/bin/../lib/gcc/x86_64-nacl/4.4.3/../../../../x86_64-nacl/lib/../lib64/libstdc++.a(class_type_info.o)
                                        0x6c4 (size before relaxing)
 .debug_str     0x00000000000182fa      0x267 /home/berkeley/nacl_sdk/pepper_42/toolchain/linux_x86_newlib/bin/../lib/gcc/x86_64-nacl/4.4.3/../../../../x86_64-nacl/lib/../lib64/libstdc++.a(eh_alloc.o)
                                        0xa71 (size before relaxing)
 .debug_str     0x0000000000018561      0x104 /home/berkeley/nacl_sdk/pepper_42/toolchain/linux_x86_newlib/bin/../lib/gcc/x86_64-nacl/4.4.3/../../../../x86_64-nacl/lib/../lib64/libstdc++.a(eh_catch.o)
                                        0x660 (size before relaxing)
 .debug_str     0x0000000000018665      0x198 /home/berkeley/nacl_sdk/pepper_42/toolchain/linux_x86_newlib/bin/../lib/gcc/x86_64-nacl/4.4.3/../../../../x86_64-nacl/lib/../lib64/libstdc++.a(eh_exception.o)
                                        0x306 (size before relaxing)
 .debug_str     0x00000000000187fd       0x7b /home/berkeley/nacl_sdk/pepper_42/toolchain/linux_x86_newlib/bin/../lib/gcc/x86_64-nacl/4.4.3/../../../../x86_64-nacl/lib/../lib64/libstdc++.a(pure.o)
                                        0x24d (size before relaxing)
 .debug_str     0x0000000000018878       0x7e /home/berkeley/nacl_sdk/pepper_42/toolchain/linux_x86_newlib/bin/../lib/gcc/x86_64-nacl/4.4.3/../../../../x86_64-nacl/lib/../lib64/libstdc++.a(new_op.o)
                                        0x2de (size before relaxing)
 .debug_str     0x00000000000188f6      0x1b9 /home/berkeley/nacl_sdk/pepper_42/toolchain/linux_x86_newlib/bin/../lib/gcc/x86_64-nacl/4.4.3/../../../../x86_64-nacl/lib/../lib64/libstdc++.a(tinfo.o)
                                        0x3f1 (size before relaxing)
 .debug_str     0x0000000000018aaf     0x1425 /home/berkeley/nacl_sdk/pepper_42/toolchain/linux_x86_newlib/bin/../lib/gcc/x86_64-nacl/4.4.3/../../../../x86_64-nacl/lib/../lib64/libstdc++.a(functexcept.o)
                                       0x3c14 (size before relaxing)
 .debug_str     0x0000000000019ed4       0xa1 /home/berkeley/nacl_sdk/pepper_42/toolchain/linux_x86_newlib/bin/../lib/gcc/x86_64-nacl/4.4.3/../../../../x86_64-nacl/lib/../lib64/libstdc++.a(ios_failure.o)
                                       0x3093 (size before relaxing)
 .debug_str     0x0000000000019f75       0xbb /home/berkeley/nacl_sdk/pepper_42/toolchain/linux_x86_newlib/bin/../lib/gcc/x86_64-nacl/4.4.3/../../../../x86_64-nacl/lib/../lib64/libstdc++.a(stdexcept.o)
                                       0x21e6 (size before relaxing)
 .debug_str     0x000000000001a030      0x4dc /home/berkeley/nacl_sdk/pepper_42/toolchain/linux_x86_newlib/bin/../lib/gcc/x86_64-nacl/4.4.3/../../../../x86_64-nacl/lib/../lib64/libstdc++.a(system_error.o)
                                       0x2cc0 (size before relaxing)
 .debug_str     0x000000000001a50c       0x73 /home/berkeley/nacl_sdk/pepper_42/toolchain/linux_x86_newlib/bin/../lib/gcc/x86_64-nacl/4.4.3/../../../../x86_64-nacl/lib/../lib64/libstdc++.a(eh_unex_handler.o)
                                        0x261 (size before relaxing)
 .debug_str     0x000000000001a57f       0x73 /home/berkeley/nacl_sdk/pepper_42/toolchain/linux_x86_newlib/bin/../lib/gcc/x86_64-nacl/4.4.3/../../../../x86_64-nacl/lib/../lib64/libstdc++.a(eh_term_handler.o)
                                        0x25e (size before relaxing)
 .debug_str     0x000000000001a5f2       0x94 /home/berkeley/nacl_sdk/pepper_42/toolchain/linux_x86_newlib/bin/../lib/gcc/x86_64-nacl/4.4.3/../../../../x86_64-nacl/lib/../lib64/libstdc++.a(bad_typeid.o)
                                        0x1a5 (size before relaxing)
 .debug_str     0x000000000001a686       0xca /home/berkeley/nacl_sdk/pepper_42/toolchain/linux_x86_newlib/bin/../lib/gcc/x86_64-nacl/4.4.3/../../../../x86_64-nacl/lib/../lib64/libstdc++.a(new_handler.o)
                                        0x228 (size before relaxing)
 .debug_str     0x000000000001a750       0x8d /home/berkeley/nacl_sdk/pepper_42/toolchain/linux_x86_newlib/bin/../lib/gcc/x86_64-nacl/4.4.3/../../../../x86_64-nacl/lib/../lib64/libstdc++.a(bad_cast.o)
                                        0x19c (size before relaxing)
 .debug_str     0x000000000001a7dd      0x177 /home/berkeley/nacl_sdk/pepper_42/toolchain/linux_x86_newlib/bin/../lib/gcc/x86_64-nacl/4.4.3/../../../../x86_64-nacl/lib/../lib64/libstdc++.a(vterminate.o)
                                        0x83c (size before relaxing)
 .debug_str     0x000000000001a954     0x110a /home/berkeley/nacl_sdk/pepper_42/toolchain/linux_x86_newlib/bin/../lib/gcc/x86_64-nacl/4.4.3/../../../../x86_64-nacl/lib/../lib64/libstdc++.a(cp-demangle.o)
                                       0x13c9 (size before relaxing)
 .debug_str     0x000000000001ba5e       0x88 /home/berkeley/nacl_sdk/pepper_42/toolchain/linux_x86_newlib/bin/../lib/gcc/x86_64-nacl/4.4.3/../../../../x86_64-nacl/lib/../lib64/libstdc++.a(eh_type.o)
                                        0x539 (size before relaxing)
 .debug_str     0x000000000001bae6     0x18d1 /home/berkeley/nacl_sdk/pepper_42/toolchain/linux_x86_newlib/bin/../lib/gcc/x86_64-nacl/4.4.3/libgcc.a(unwind-dw2.o)
                                       0x1dc1 (size before relaxing)
 .debug_str     0x000000000001d3b7      0x3ec /home/berkeley/nacl_sdk/pepper_42/toolchain/linux_x86_newlib/bin/../lib/gcc/x86_64-nacl/4.4.3/libgcc.a(unwind-dw2-fde-glibc.o)
                                        0xe83 (size before relaxing)
 .debug_str     0x000000000001d7a3       0xa4 /home/berkeley/nacl_sdk/pepper_42/toolchain/linux_x86_newlib/bin/../lib/gcc/x86_64-nacl/4.4.3/../../../../x86_64-nacl/lib/../lib64/libnacl.a(_exit_710c7d0d.o)
                                        0x1ef (size before relaxing)
 .debug_str     0x000000000001d847        0x8 /home/berkeley/nacl_sdk/pepper_42/toolchain/linux_x86_newlib/bin/../lib/gcc/x86_64-nacl/4.4.3/../../../../x86_64-nacl/lib/../lib64/libnacl.a(abort_9f6b5845.o)
                                        0x14b (size before relaxing)
 .debug_str     0x000000000001d84f       0x16 /home/berkeley/nacl_sdk/pepper_42/toolchain/linux_x86_newlib/bin/../lib/gcc/x86_64-nacl/4.4.3/../../../../x86_64-nacl/lib/../lib64/libnacl.a(environ_25cd24d8.o)
                                         0xcf (size before relaxing)
 .debug_str     0x000000000001d865      0x112 /home/berkeley/nacl_sdk/pepper_42/toolchain/linux_x86_newlib/bin/../lib/gcc/x86_64-nacl/4.4.3/../../../../x86_64-nacl/lib/../lib64/libnacl.a(start_fa9ef7de.o)
                                        0x2ba (size before relaxing)
 .debug_str     0x000000000001d977      0x694 /home/berkeley/nacl_sdk/pepper_42/toolchain/linux_x86_newlib/bin/../lib/gcc/x86_64-nacl/4.4.3/../../../../x86_64-nacl/lib/../lib64/libnacl.a(malloc_222c4a1e.o)
                                        0xd16 (size before relaxing)
 .debug_str     0x000000000001e00b      0x298 /home/berkeley/nacl_sdk/pepper_42/toolchain/linux_x86_newlib/bin/../lib/gcc/x86_64-nacl/4.4.3/../../../../x86_64-nacl/lib/../lib64/libnacl.a(nacl_irt_6de1d53f.o)
                                        0x5c4 (size before relaxing)
 .debug_str     0x000000000001e2a3       0x3a /home/berkeley/nacl_sdk/pepper_42/toolchain/linux_x86_newlib/bin/../lib/gcc/x86_64-nacl/4.4.3/../../../../x86_64-nacl/lib/../lib64/libnacl.a(pthread_initialize_minimal_4b6e776b.o)
                                        0x19b (size before relaxing)
 .debug_str     0x000000000001e2dd       0x1e /home/berkeley/nacl_sdk/pepper_42/toolchain/linux_x86_newlib/bin/../lib/gcc/x86_64-nacl/4.4.3/../../../../x86_64-nacl/lib/../lib64/libnacl.a(nacl_read_tp_5748ac47.o)
                                        0x153 (size before relaxing)
 .debug_str     0x000000000001e2fb       0x1c /home/berkeley/nacl_sdk/pepper_42/toolchain/linux_x86_newlib/bin/../lib/gcc/x86_64-nacl/4.4.3/../../../../x86_64-nacl/lib/../lib64/libnacl.a(nacl_add_tp_7312c7c4.o)
                                        0x15b (size before relaxing)
 .debug_str     0x000000000001e317       0x11 /home/berkeley/nacl_sdk/pepper_42/toolchain/linux_x86_newlib/bin/../lib/gcc/x86_64-nacl/4.4.3/../../../../x86_64-nacl/lib/../lib64/libnacl.a(mmap_767fb080.o)
                                        0x1d5 (size before relaxing)
 .debug_str     0x000000000001e328        0xe /home/berkeley/nacl_sdk/pepper_42/toolchain/linux_x86_newlib/bin/../lib/gcc/x86_64-nacl/4.4.3/../../../../x86_64-nacl/lib/../lib64/libnacl.a(sched_yield_56c375be.o)
                                        0x1ee (size before relaxing)
 .debug_str     0x000000000001e336        0x9 /home/berkeley/nacl_sdk/pepper_42/toolchain/linux_x86_newlib/bin/../lib/gcc/x86_64-nacl/4.4.3/../../../../x86_64-nacl/lib/../lib64/libnacl.a(munmap_d4f09867.o)
                                        0x1b3 (size before relaxing)
 .debug_str     0x000000000001e33f      0x2e4 /home/berkeley/nacl_sdk/pepper_42/toolchain/linux_x86_newlib/bin/../lib/gcc/x86_64-nacl/4.4.3/../../../../x86_64-nacl/lib/../lib64/libnacl.a(tls_bba1975b.o)
                                        0x4d5 (size before relaxing)
 .debug_str     0x000000000001e623        0x8 /home/berkeley/nacl_sdk/pepper_42/toolchain/linux_x86_newlib/bin/../lib/gcc/x86_64-nacl/4.4.3/../../../../x86_64-nacl/lib/../lib64/libnacl.a(write_fb49787f.o)
                                        0x1d4 (size before relaxing)
 .debug_str     0x000000000001e62b       0x1c /home/berkeley/nacl_sdk/pepper_42/toolchain/linux_x86_newlib/bin/../lib/gcc/x86_64-nacl/4.4.3/../../../../x86_64-nacl/lib/../lib64/libnacl.a(nacl_tls_get_d2f842b5.o)
                                        0x181 (size before relaxing)
 .debug_str     0x000000000001e647       0x65 /home/berkeley/nacl_sdk/pepper_42/toolchain/linux_x86_newlib/bin/../lib/gcc/x86_64-nacl/4.4.3/../../../../x86_64-nacl/lib/../lib64/libnacl.a(nacl_irt_init_7b4f826e.o)
                                        0x392 (size before relaxing)
 .debug_str     0x000000000001e6ac        0xa /home/berkeley/nacl_sdk/pepper_42/toolchain/linux_x86_newlib/bin/../lib/gcc/x86_64-nacl/4.4.3/../../../../x86_64-nacl/lib/../lib64/libnacl.a(sysconf_ad295ea2.o)
                                        0x1f5 (size before relaxing)
 .debug_str     0x000000000001e6b6       0x29 /home/berkeley/nacl_sdk/pepper_42/toolchain/linux_x86_newlib/bin/../lib/gcc/x86_64-nacl/4.4.3/../../../../x86_64-nacl/lib/../lib64/libnacl.a(nacl_tls_init_eb0cd232.o)
                                        0x18e (size before relaxing)
 .debug_str     0x000000000001e6df        0x8 /home/berkeley/nacl_sdk/pepper_42/toolchain/linux_x86_newlib/bin/../lib/gcc/x86_64-nacl/4.4.3/../../../../x86_64-nacl/lib/../lib64/libnacl.a(close_e9b92fbd.o)
                                        0x1c7 (size before relaxing)
 .debug_str     0x000000000001e6e7        0x9 /home/berkeley/nacl_sdk/pepper_42/toolchain/linux_x86_newlib/bin/../lib/gcc/x86_64-nacl/4.4.3/../../../../x86_64-nacl/lib/../lib64/libnacl.a(isatty_02f56e94.o)
                                        0x208 (size before relaxing)
 .debug_str     0x000000000001e6f0       0x2c /home/berkeley/nacl_sdk/pepper_42/toolchain/linux_x86_newlib/bin/../lib/gcc/x86_64-nacl/4.4.3/../../../../x86_64-nacl/lib/../lib64/libnacl.a(nacl_irt_fdio_b571b5e7.o)
                                        0x21e (size before relaxing)
 .debug_str     0x000000000001e71c       0xdd /home/berkeley/nacl_sdk/pepper_42/toolchain/linux_x86_newlib/bin/../lib/gcc/x86_64-nacl/4.4.3/../../../../x86_64-nacl/lib/../lib64/libnacl.a(fstat_0540ff63.o)
                                        0x328 (size before relaxing)
 .debug_str     0x000000000001e7f9        0xe /home/berkeley/nacl_sdk/pepper_42/toolchain/linux_x86_newlib/bin/../lib/gcc/x86_64-nacl/4.4.3/../../../../x86_64-nacl/lib/../lib64/libnacl.a(lseek_64d2d05c.o)
                                        0x1ef (size before relaxing)
 .debug_str     0x0000000000000000        0xe /home/berkeley/nacl_sdk/pepper_42/toolchain/linux_x86_newlib/bin/../lib/gcc/x86_64-nacl/4.4.3/../../../../x86_64-nacl/lib/../lib64/libnacl.a(read_df872e10.o)
                                        0x1d2 (size before relaxing)

.debug_loc      0x0000000000000000    0x33cf7
 *(.debug_loc)
 .debug_loc     0x0000000000000000      0x47f newlib/Release/popcnt_x86_64.o
 .debug_loc     0x000000000000047f     0x1dde /home/berkeley/nacl_sdk/pepper_42/lib/newlib_x86_64/Release/libppapi_cpp.a(instance_x86_64.o)
 .debug_loc     0x000000000000225d     0x25c4 /home/berkeley/nacl_sdk/pepper_42/lib/newlib_x86_64/Release/libppapi_cpp.a(module_x86_64.o)
 .debug_loc     0x0000000000004821      0x138 /home/berkeley/nacl_sdk/pepper_42/lib/newlib_x86_64/Release/libppapi_cpp.a(ppp_entrypoints_x86_64.o)
 .debug_loc     0x0000000000004959      0x319 /home/berkeley/nacl_sdk/pepper_42/lib/newlib_x86_64/Release/libppapi_cpp.a(resource_x86_64.o)
 .debug_loc     0x0000000000004c72      0xa53 /home/berkeley/nacl_sdk/pepper_42/lib/newlib_x86_64/Release/libppapi_cpp.a(url_loader_x86_64.o)
 .debug_loc     0x00000000000056c5      0x4ed /home/berkeley/nacl_sdk/pepper_42/lib/newlib_x86_64/Release/libppapi_cpp.a(url_response_info_x86_64.o)
 .debug_loc     0x0000000000005bb2      0xfe9 /home/berkeley/nacl_sdk/pepper_42/lib/newlib_x86_64/Release/libppapi_cpp.a(var_x86_64.o)
 .debug_loc     0x0000000000006b9b      0x897 /home/berkeley/nacl_sdk/pepper_42/lib/newlib_x86_64/Release/libppapi_cpp.a(view_x86_64.o)
 .debug_loc     0x0000000000007432      0x10d /home/berkeley/nacl_sdk/pepper_42/lib/newlib_x86_64/Release/libppapi_cpp.a(core_x86_64.o)
 .debug_loc     0x000000000000753f      0xc2f /home/berkeley/nacl_sdk/pepper_42/lib/newlib_x86_64/Release/libppapi_cpp.a(file_ref_x86_64.o)
 .debug_loc     0x000000000000816e     0x38f3 /home/berkeley/nacl_sdk/pepper_42/lib/newlib_x86_64/Release/libppapi_cpp.a(input_event_x86_64.o)
 .debug_loc     0x000000000000ba61      0x1b9 /home/berkeley/nacl_sdk/pepper_42/toolchain/linux_x86_newlib/bin/../lib/gcc/x86_64-nacl/4.4.3/../../../../x86_64-nacl/lib/../lib64/libppapi_stub.a(ppapi_plugin_start_8da67623.o)
 .debug_loc     0x000000000000bc1a       0xc2 /home/berkeley/nacl_sdk/pepper_42/toolchain/linux_x86_newlib/bin/../lib/gcc/x86_64-nacl/4.4.3/../../../../x86_64-nacl/lib/../lib64/libppapi_stub.a(thread_creator_ccf263e1.o)
 .debug_loc     0x000000000000bcdc     0x11a4 /home/berkeley/nacl_sdk/pepper_42/toolchain/linux_x86_newlib/bin/../lib/gcc/x86_64-nacl/4.4.3/../../../../x86_64-nacl/lib/../lib64/libpthread.a(nc_thread_7e478b15.o)
 .debug_loc     0x000000000000ce80      0x2d2 /home/berkeley/nacl_sdk/pepper_42/toolchain/linux_x86_newlib/bin/../lib/gcc/x86_64-nacl/4.4.3/../../../../x86_64-nacl/lib/../lib64/libpthread.a(nc_condvar_305aa45a.o)
 .debug_loc     0x000000000000d152       0xca /home/berkeley/nacl_sdk/pepper_42/toolchain/linux_x86_newlib/bin/../lib/gcc/x86_64-nacl/4.4.3/../../../../x86_64-nacl/lib/../lib64/libpthread.a(dynamic_annotations_33ba59cc.o)
 .debug_loc     0x000000000000d21c      0x3a1 /home/berkeley/nacl_sdk/pepper_42/toolchain/linux_x86_newlib/bin/../lib/gcc/x86_64-nacl/4.4.3/../../../../x86_64-nacl/lib/../lib64/libpthread.a(nc_mutex_86341ae1.o)
 .debug_loc     0x000000000000d5bd       0x38 /home/berkeley/nacl_sdk/pepper_42/toolchain/linux_x86_newlib/bin/../lib/gcc/x86_64-nacl/4.4.3/../../../../x86_64-nacl/lib/../lib64/libpthread.a(nc_init_irt_d3daafc0.o)
 .debug_loc     0x000000000000d5f5      0xeff /home/berkeley/nacl_sdk/pepper_42/toolchain/linux_x86_newlib/bin/../lib/gcc/x86_64-nacl/4.4.3/../../../../x86_64-nacl/lib/../lib64/libstdc++.a(tree.o)
 .debug_loc     0x000000000000e4f4     0x7505 /home/berkeley/nacl_sdk/pepper_42/toolchain/linux_x86_newlib/bin/../lib/gcc/x86_64-nacl/4.4.3/../../../../x86_64-nacl/lib/../lib64/libstdc++.a(string-inst.o)
 .debug_loc     0x00000000000159f9     0x1f3b /home/berkeley/nacl_sdk/pepper_42/toolchain/linux_x86_newlib/bin/../lib/gcc/x86_64-nacl/4.4.3/../../../../x86_64-nacl/lib/../lib64/libstdc++.a(eh_personality.o)
 .debug_loc     0x0000000000017934      0x22c /home/berkeley/nacl_sdk/pepper_42/toolchain/linux_x86_newlib/bin/../lib/gcc/x86_64-nacl/4.4.3/../../../../x86_64-nacl/lib/../lib64/libstdc++.a(eh_globals.o)
 .debug_loc     0x0000000000017b60      0x1b3 /home/berkeley/nacl_sdk/pepper_42/toolchain/linux_x86_newlib/bin/../lib/gcc/x86_64-nacl/4.4.3/../../../../x86_64-nacl/lib/../lib64/libstdc++.a(eh_throw.o)
 .debug_loc     0x0000000000017d13       0x36 /home/berkeley/nacl_sdk/pepper_42/toolchain/linux_x86_newlib/bin/../lib/gcc/x86_64-nacl/4.4.3/../../../../x86_64-nacl/lib/../lib64/libstdc++.a(del_op.o)
 .debug_loc     0x0000000000017d49       0x6e /home/berkeley/nacl_sdk/pepper_42/toolchain/linux_x86_newlib/bin/../lib/gcc/x86_64-nacl/4.4.3/../../../../x86_64-nacl/lib/../lib64/libstdc++.a(eh_call.o)
 .debug_loc     0x0000000000017db7      0x231 /home/berkeley/nacl_sdk/pepper_42/toolchain/linux_x86_newlib/bin/../lib/gcc/x86_64-nacl/4.4.3/../../../../x86_64-nacl/lib/../lib64/libstdc++.a(guard.o)
 .debug_loc     0x0000000000017fe8       0xec /home/berkeley/nacl_sdk/pepper_42/toolchain/linux_x86_newlib/bin/../lib/gcc/x86_64-nacl/4.4.3/../../../../x86_64-nacl/lib/../lib64/libstdc++.a(si_class_type_info.o)
 .debug_loc     0x00000000000180d4      0x16c /home/berkeley/nacl_sdk/pepper_42/toolchain/linux_x86_newlib/bin/../lib/gcc/x86_64-nacl/4.4.3/../../../../x86_64-nacl/lib/../lib64/libstdc++.a(eh_terminate.o)
 .debug_loc     0x0000000000018240      0x288 /home/berkeley/nacl_sdk/pepper_42/toolchain/linux_x86_newlib/bin/../lib/gcc/x86_64-nacl/4.4.3/../../../../x86_64-nacl/lib/../lib64/libstdc++.a(class_type_info.o)
 .debug_loc     0x00000000000184c8      0x471 /home/berkeley/nacl_sdk/pepper_42/toolchain/linux_x86_newlib/bin/../lib/gcc/x86_64-nacl/4.4.3/../../../../x86_64-nacl/lib/../lib64/libstdc++.a(eh_alloc.o)
 .debug_loc     0x0000000000018939      0x245 /home/berkeley/nacl_sdk/pepper_42/toolchain/linux_x86_newlib/bin/../lib/gcc/x86_64-nacl/4.4.3/../../../../x86_64-nacl/lib/../lib64/libstdc++.a(eh_catch.o)
 .debug_loc     0x0000000000018b7e       0x8c /home/berkeley/nacl_sdk/pepper_42/toolchain/linux_x86_newlib/bin/../lib/gcc/x86_64-nacl/4.4.3/../../../../x86_64-nacl/lib/../lib64/libstdc++.a(eh_exception.o)
 .debug_loc     0x0000000000018c0a       0x38 /home/berkeley/nacl_sdk/pepper_42/toolchain/linux_x86_newlib/bin/../lib/gcc/x86_64-nacl/4.4.3/../../../../x86_64-nacl/lib/../lib64/libstdc++.a(pure.o)
 .debug_loc     0x0000000000018c42       0xed /home/berkeley/nacl_sdk/pepper_42/toolchain/linux_x86_newlib/bin/../lib/gcc/x86_64-nacl/4.4.3/../../../../x86_64-nacl/lib/../lib64/libstdc++.a(new_op.o)
 .debug_loc     0x0000000000018d2f       0x23 /home/berkeley/nacl_sdk/pepper_42/toolchain/linux_x86_newlib/bin/../lib/gcc/x86_64-nacl/4.4.3/../../../../x86_64-nacl/lib/../lib64/libstdc++.a(tinfo.o)
 .debug_loc     0x0000000000018d52      0xd7c /home/berkeley/nacl_sdk/pepper_42/toolchain/linux_x86_newlib/bin/../lib/gcc/x86_64-nacl/4.4.3/../../../../x86_64-nacl/lib/../lib64/libstdc++.a(functexcept.o)
 .debug_loc     0x0000000000019ace      0x3d1 /home/berkeley/nacl_sdk/pepper_42/toolchain/linux_x86_newlib/bin/../lib/gcc/x86_64-nacl/4.4.3/../../../../x86_64-nacl/lib/../lib64/libstdc++.a(ios_failure.o)
 .debug_loc     0x0000000000019e9f     0x1387 /home/berkeley/nacl_sdk/pepper_42/toolchain/linux_x86_newlib/bin/../lib/gcc/x86_64-nacl/4.4.3/../../../../x86_64-nacl/lib/../lib64/libstdc++.a(stdexcept.o)
 .debug_loc     0x000000000001b226      0x3d1 /home/berkeley/nacl_sdk/pepper_42/toolchain/linux_x86_newlib/bin/../lib/gcc/x86_64-nacl/4.4.3/../../../../x86_64-nacl/lib/../lib64/libstdc++.a(system_error.o)
 .debug_loc     0x000000000001b5f7       0xb4 /home/berkeley/nacl_sdk/pepper_42/toolchain/linux_x86_newlib/bin/../lib/gcc/x86_64-nacl/4.4.3/../../../../x86_64-nacl/lib/../lib64/libstdc++.a(bad_typeid.o)
 .debug_loc     0x000000000001b6ab       0xd7 /home/berkeley/nacl_sdk/pepper_42/toolchain/linux_x86_newlib/bin/../lib/gcc/x86_64-nacl/4.4.3/../../../../x86_64-nacl/lib/../lib64/libstdc++.a(new_handler.o)
 .debug_loc     0x000000000001b782       0xb4 /home/berkeley/nacl_sdk/pepper_42/toolchain/linux_x86_newlib/bin/../lib/gcc/x86_64-nacl/4.4.3/../../../../x86_64-nacl/lib/../lib64/libstdc++.a(bad_cast.o)
 .debug_loc     0x000000000001b836      0x16f /home/berkeley/nacl_sdk/pepper_42/toolchain/linux_x86_newlib/bin/../lib/gcc/x86_64-nacl/4.4.3/../../../../x86_64-nacl/lib/../lib64/libstdc++.a(vterminate.o)
 .debug_loc     0x000000000001b9a5     0x40d2 /home/berkeley/nacl_sdk/pepper_42/toolchain/linux_x86_newlib/bin/../lib/gcc/x86_64-nacl/4.4.3/../../../../x86_64-nacl/lib/../lib64/libstdc++.a(cp-demangle.o)
 .debug_loc     0x000000000001fa77       0x91 /home/berkeley/nacl_sdk/pepper_42/toolchain/linux_x86_newlib/bin/../lib/gcc/x86_64-nacl/4.4.3/../../../../x86_64-nacl/lib/../lib64/libstdc++.a(eh_type.o)
 .debug_loc     0x000000000001fb08     0x744f /home/berkeley/nacl_sdk/pepper_42/toolchain/linux_x86_newlib/bin/../lib/gcc/x86_64-nacl/4.4.3/libgcc.a(unwind-dw2.o)
 .debug_loc     0x0000000000026f57     0x2962 /home/berkeley/nacl_sdk/pepper_42/toolchain/linux_x86_newlib/bin/../lib/gcc/x86_64-nacl/4.4.3/libgcc.a(unwind-dw2-fde-glibc.o)
 .debug_loc     0x00000000000298b9       0x5b /home/berkeley/nacl_sdk/pepper_42/toolchain/linux_x86_newlib/bin/../lib/gcc/x86_64-nacl/4.4.3/../../../../x86_64-nacl/lib/../lib64/libnacl.a(_exit_710c7d0d.o)
 .debug_loc     0x0000000000029914       0x38 /home/berkeley/nacl_sdk/pepper_42/toolchain/linux_x86_newlib/bin/../lib/gcc/x86_64-nacl/4.4.3/../../../../x86_64-nacl/lib/../lib64/libnacl.a(abort_9f6b5845.o)
 .debug_loc     0x000000000002994c       0xc9 /home/berkeley/nacl_sdk/pepper_42/toolchain/linux_x86_newlib/bin/../lib/gcc/x86_64-nacl/4.4.3/../../../../x86_64-nacl/lib/../lib64/libnacl.a(start_fa9ef7de.o)
 .debug_loc     0x0000000000029a15     0x927d /home/berkeley/nacl_sdk/pepper_42/toolchain/linux_x86_newlib/bin/../lib/gcc/x86_64-nacl/4.4.3/../../../../x86_64-nacl/lib/../lib64/libnacl.a(malloc_222c4a1e.o)
 .debug_loc     0x0000000000032c92      0x2a6 /home/berkeley/nacl_sdk/pepper_42/toolchain/linux_x86_newlib/bin/../lib/gcc/x86_64-nacl/4.4.3/../../../../x86_64-nacl/lib/../lib64/libnacl.a(nacl_irt_6de1d53f.o)
 .debug_loc     0x0000000000032f38      0x110 /home/berkeley/nacl_sdk/pepper_42/toolchain/linux_x86_newlib/bin/../lib/gcc/x86_64-nacl/4.4.3/../../../../x86_64-nacl/lib/../lib64/libnacl.a(pthread_initialize_minimal_4b6e776b.o)
 .debug_loc     0x0000000000033048       0x6e /home/berkeley/nacl_sdk/pepper_42/toolchain/linux_x86_newlib/bin/../lib/gcc/x86_64-nacl/4.4.3/../../../../x86_64-nacl/lib/../lib64/libnacl.a(nacl_add_tp_7312c7c4.o)
 .debug_loc     0x00000000000330b6      0x168 /home/berkeley/nacl_sdk/pepper_42/toolchain/linux_x86_newlib/bin/../lib/gcc/x86_64-nacl/4.4.3/../../../../x86_64-nacl/lib/../lib64/libnacl.a(mmap_767fb080.o)
 .debug_loc     0x000000000003321e       0x6e /home/berkeley/nacl_sdk/pepper_42/toolchain/linux_x86_newlib/bin/../lib/gcc/x86_64-nacl/4.4.3/../../../../x86_64-nacl/lib/../lib64/libnacl.a(sched_yield_56c375be.o)
 .debug_loc     0x000000000003328c       0xb4 /home/berkeley/nacl_sdk/pepper_42/toolchain/linux_x86_newlib/bin/../lib/gcc/x86_64-nacl/4.4.3/../../../../x86_64-nacl/lib/../lib64/libnacl.a(munmap_d4f09867.o)
 .debug_loc     0x0000000000033340      0x2b0 /home/berkeley/nacl_sdk/pepper_42/toolchain/linux_x86_newlib/bin/../lib/gcc/x86_64-nacl/4.4.3/../../../../x86_64-nacl/lib/../lib64/libnacl.a(tls_bba1975b.o)
 .debug_loc     0x00000000000335f0      0x10f /home/berkeley/nacl_sdk/pepper_42/toolchain/linux_x86_newlib/bin/../lib/gcc/x86_64-nacl/4.4.3/../../../../x86_64-nacl/lib/../lib64/libnacl.a(write_fb49787f.o)
 .debug_loc     0x00000000000336ff       0x6f /home/berkeley/nacl_sdk/pepper_42/toolchain/linux_x86_newlib/bin/../lib/gcc/x86_64-nacl/4.4.3/../../../../x86_64-nacl/lib/../lib64/libnacl.a(nacl_irt_init_7b4f826e.o)
 .debug_loc     0x000000000003376e       0xc9 /home/berkeley/nacl_sdk/pepper_42/toolchain/linux_x86_newlib/bin/../lib/gcc/x86_64-nacl/4.4.3/../../../../x86_64-nacl/lib/../lib64/libnacl.a(sysconf_ad295ea2.o)
 .debug_loc     0x0000000000033837       0x23 /home/berkeley/nacl_sdk/pepper_42/toolchain/linux_x86_newlib/bin/../lib/gcc/x86_64-nacl/4.4.3/../../../../x86_64-nacl/lib/../lib64/libnacl.a(nacl_tls_init_eb0cd232.o)
 .debug_loc     0x000000000003385a       0x91 /home/berkeley/nacl_sdk/pepper_42/toolchain/linux_x86_newlib/bin/../lib/gcc/x86_64-nacl/4.4.3/../../../../x86_64-nacl/lib/../lib64/libnacl.a(close_e9b92fbd.o)
 .debug_loc     0x00000000000338eb      0x102 /home/berkeley/nacl_sdk/pepper_42/toolchain/linux_x86_newlib/bin/../lib/gcc/x86_64-nacl/4.4.3/../../../../x86_64-nacl/lib/../lib64/libnacl.a(isatty_02f56e94.o)
 .debug_loc     0x00000000000339ed       0x38 /home/berkeley/nacl_sdk/pepper_42/toolchain/linux_x86_newlib/bin/../lib/gcc/x86_64-nacl/4.4.3/../../../../x86_64-nacl/lib/../lib64/libnacl.a(nacl_irt_fdio_b571b5e7.o)
 .debug_loc     0x0000000000033a25       0xb4 /home/berkeley/nacl_sdk/pepper_42/toolchain/linux_x86_newlib/bin/../lib/gcc/x86_64-nacl/4.4.3/../../../../x86_64-nacl/lib/../lib64/libnacl.a(fstat_0540ff63.o)
 .debug_loc     0x0000000000033ad9      0x10f /home/berkeley/nacl_sdk/pepper_42/toolchain/linux_x86_newlib/bin/../lib/gcc/x86_64-nacl/4.4.3/../../../../x86_64-nacl/lib/../lib64/libnacl.a(lseek_64d2d05c.o)
 .debug_loc     0x0000000000033be8      0x10f /home/berkeley/nacl_sdk/pepper_42/toolchain/linux_x86_newlib/bin/../lib/gcc/x86_64-nacl/4.4.3/../../../../x86_64-nacl/lib/../lib64/libnacl.a(read_df872e10.o)

.debug_macinfo
 *(.debug_macinfo)

.debug_weaknames
 *(.debug_weaknames)

.debug_funcnames
 *(.debug_funcnames)

.debug_typenames
 *(.debug_typenames)

.debug_varnames
 *(.debug_varnames)

.debug_pubtypes
 *(.debug_pubtypes)

.debug_ranges   0x0000000000000000    0x1d620
 *(.debug_ranges)
 .debug_ranges  0x0000000000000000      0x1d0 newlib/Release/popcnt_x86_64.o
 .debug_ranges  0x00000000000001d0     0x2bc0 /home/berkeley/nacl_sdk/pepper_42/lib/newlib_x86_64/Release/libppapi_cpp.a(instance_x86_64.o)
 .debug_ranges  0x0000000000002d90     0x2150 /home/berkeley/nacl_sdk/pepper_42/lib/newlib_x86_64/Release/libppapi_cpp.a(module_x86_64.o)
 .debug_ranges  0x0000000000004ee0       0x30 /home/berkeley/nacl_sdk/pepper_42/lib/newlib_x86_64/Release/libppapi_cpp.a(ppp_entrypoints_x86_64.o)
 .debug_ranges  0x0000000000004f10      0x120 /home/berkeley/nacl_sdk/pepper_42/lib/newlib_x86_64/Release/libppapi_cpp.a(resource_x86_64.o)
 .debug_ranges  0x0000000000005030      0xe10 /home/berkeley/nacl_sdk/pepper_42/lib/newlib_x86_64/Release/libppapi_cpp.a(url_loader_x86_64.o)
 .debug_ranges  0x0000000000005e40      0x2d0 /home/berkeley/nacl_sdk/pepper_42/lib/newlib_x86_64/Release/libppapi_cpp.a(url_response_info_x86_64.o)
 .debug_ranges  0x0000000000006110     0x1330 /home/berkeley/nacl_sdk/pepper_42/lib/newlib_x86_64/Release/libppapi_cpp.a(var_x86_64.o)
 .debug_ranges  0x0000000000007440     0x1950 /home/berkeley/nacl_sdk/pepper_42/lib/newlib_x86_64/Release/libppapi_cpp.a(view_x86_64.o)
 .debug_ranges  0x0000000000008d90     0x2970 /home/berkeley/nacl_sdk/pepper_42/lib/newlib_x86_64/Release/libppapi_cpp.a(file_ref_x86_64.o)
 .debug_ranges  0x000000000000b700     0x3660 /home/berkeley/nacl_sdk/pepper_42/lib/newlib_x86_64/Release/libppapi_cpp.a(input_event_x86_64.o)
 .debug_ranges  0x000000000000ed60      0x410 /home/berkeley/nacl_sdk/pepper_42/toolchain/linux_x86_newlib/bin/../lib/gcc/x86_64-nacl/4.4.3/../../../../x86_64-nacl/lib/../lib64/libpthread.a(nc_thread_7e478b15.o)
 .debug_ranges  0x000000000000f170       0x40 /home/berkeley/nacl_sdk/pepper_42/toolchain/linux_x86_newlib/bin/../lib/gcc/x86_64-nacl/4.4.3/../../../../x86_64-nacl/lib/../lib64/libpthread.a(nc_mutex_86341ae1.o)
 .debug_ranges  0x000000000000f1b0      0x8b0 /home/berkeley/nacl_sdk/pepper_42/toolchain/linux_x86_newlib/bin/../lib/gcc/x86_64-nacl/4.4.3/../../../../x86_64-nacl/lib/../lib64/libstdc++.a(tree.o)
 .debug_ranges  0x000000000000fa60     0x4000 /home/berkeley/nacl_sdk/pepper_42/toolchain/linux_x86_newlib/bin/../lib/gcc/x86_64-nacl/4.4.3/../../../../x86_64-nacl/lib/../lib64/libstdc++.a(string-inst.o)
 .debug_ranges  0x0000000000013a60      0x660 /home/berkeley/nacl_sdk/pepper_42/toolchain/linux_x86_newlib/bin/../lib/gcc/x86_64-nacl/4.4.3/../../../../x86_64-nacl/lib/../lib64/libstdc++.a(eh_personality.o)
 .debug_ranges  0x00000000000140c0      0x190 /home/berkeley/nacl_sdk/pepper_42/toolchain/linux_x86_newlib/bin/../lib/gcc/x86_64-nacl/4.4.3/../../../../x86_64-nacl/lib/../lib64/libstdc++.a(eh_globals.o)
 .debug_ranges  0x0000000000014250       0xe0 /home/berkeley/nacl_sdk/pepper_42/toolchain/linux_x86_newlib/bin/../lib/gcc/x86_64-nacl/4.4.3/../../../../x86_64-nacl/lib/../lib64/libstdc++.a(eh_throw.o)
 .debug_ranges  0x0000000000014330       0x30 /home/berkeley/nacl_sdk/pepper_42/toolchain/linux_x86_newlib/bin/../lib/gcc/x86_64-nacl/4.4.3/../../../../x86_64-nacl/lib/../lib64/libstdc++.a(del_op.o)
 .debug_ranges  0x0000000000014360       0x30 /home/berkeley/nacl_sdk/pepper_42/toolchain/linux_x86_newlib/bin/../lib/gcc/x86_64-nacl/4.4.3/../../../../x86_64-nacl/lib/../lib64/libstdc++.a(eh_call.o)
 .debug_ranges  0x0000000000014390      0x190 /home/berkeley/nacl_sdk/pepper_42/toolchain/linux_x86_newlib/bin/../lib/gcc/x86_64-nacl/4.4.3/../../../../x86_64-nacl/lib/../lib64/libstdc++.a(guard.o)
 .debug_ranges  0x0000000000014520       0x80 /home/berkeley/nacl_sdk/pepper_42/toolchain/linux_x86_newlib/bin/../lib/gcc/x86_64-nacl/4.4.3/../../../../x86_64-nacl/lib/../lib64/libstdc++.a(si_class_type_info.o)
 .debug_ranges  0x00000000000145a0       0x80 /home/berkeley/nacl_sdk/pepper_42/toolchain/linux_x86_newlib/bin/../lib/gcc/x86_64-nacl/4.4.3/../../../../x86_64-nacl/lib/../lib64/libstdc++.a(eh_terminate.o)
 .debug_ranges  0x0000000000014620       0xd0 /home/berkeley/nacl_sdk/pepper_42/toolchain/linux_x86_newlib/bin/../lib/gcc/x86_64-nacl/4.4.3/../../../../x86_64-nacl/lib/../lib64/libstdc++.a(class_type_info.o)
 .debug_ranges  0x00000000000146f0      0x1f0 /home/berkeley/nacl_sdk/pepper_42/toolchain/linux_x86_newlib/bin/../lib/gcc/x86_64-nacl/4.4.3/../../../../x86_64-nacl/lib/../lib64/libstdc++.a(eh_alloc.o)
 .debug_ranges  0x00000000000148e0       0xf0 /home/berkeley/nacl_sdk/pepper_42/toolchain/linux_x86_newlib/bin/../lib/gcc/x86_64-nacl/4.4.3/../../../../x86_64-nacl/lib/../lib64/libstdc++.a(eh_catch.o)
 .debug_ranges  0x00000000000149d0      0x100 /home/berkeley/nacl_sdk/pepper_42/toolchain/linux_x86_newlib/bin/../lib/gcc/x86_64-nacl/4.4.3/../../../../x86_64-nacl/lib/../lib64/libstdc++.a(eh_exception.o)
 .debug_ranges  0x0000000000014ad0       0x30 /home/berkeley/nacl_sdk/pepper_42/toolchain/linux_x86_newlib/bin/../lib/gcc/x86_64-nacl/4.4.3/../../../../x86_64-nacl/lib/../lib64/libstdc++.a(pure.o)
 .debug_ranges  0x0000000000014b00       0xa0 /home/berkeley/nacl_sdk/pepper_42/toolchain/linux_x86_newlib/bin/../lib/gcc/x86_64-nacl/4.4.3/../../../../x86_64-nacl/lib/../lib64/libstdc++.a(new_op.o)
 .debug_ranges  0x0000000000014ba0       0x90 /home/berkeley/nacl_sdk/pepper_42/toolchain/linux_x86_newlib/bin/../lib/gcc/x86_64-nacl/4.4.3/../../../../x86_64-nacl/lib/../lib64/libstdc++.a(tinfo.o)
 .debug_ranges  0x0000000000014c30      0xdb0 /home/berkeley/nacl_sdk/pepper_42/toolchain/linux_x86_newlib/bin/../lib/gcc/x86_64-nacl/4.4.3/../../../../x86_64-nacl/lib/../lib64/libstdc++.a(functexcept.o)
 .debug_ranges  0x00000000000159e0      0x410 /home/berkeley/nacl_sdk/pepper_42/toolchain/linux_x86_newlib/bin/../lib/gcc/x86_64-nacl/4.4.3/../../../../x86_64-nacl/lib/../lib64/libstdc++.a(ios_failure.o)
 .debug_ranges  0x0000000000015df0      0x9c0 /home/berkeley/nacl_sdk/pepper_42/toolchain/linux_x86_newlib/bin/../lib/gcc/x86_64-nacl/4.4.3/../../../../x86_64-nacl/lib/../lib64/libstdc++.a(stdexcept.o)
 .debug_ranges  0x00000000000167b0      0x1e0 /home/berkeley/nacl_sdk/pepper_42/toolchain/linux_x86_newlib/bin/../lib/gcc/x86_64-nacl/4.4.3/../../../../x86_64-nacl/lib/../lib64/libstdc++.a(system_error.o)
 .debug_ranges  0x0000000000016990       0x60 /home/berkeley/nacl_sdk/pepper_42/toolchain/linux_x86_newlib/bin/../lib/gcc/x86_64-nacl/4.4.3/../../../../x86_64-nacl/lib/../lib64/libstdc++.a(bad_typeid.o)
 .debug_ranges  0x00000000000169f0       0x70 /home/berkeley/nacl_sdk/pepper_42/toolchain/linux_x86_newlib/bin/../lib/gcc/x86_64-nacl/4.4.3/../../../../x86_64-nacl/lib/../lib64/libstdc++.a(new_handler.o)
 .debug_ranges  0x0000000000016a60       0x60 /home/berkeley/nacl_sdk/pepper_42/toolchain/linux_x86_newlib/bin/../lib/gcc/x86_64-nacl/4.4.3/../../../../x86_64-nacl/lib/../lib64/libstdc++.a(bad_cast.o)
 .debug_ranges  0x0000000000016ac0       0xa0 /home/berkeley/nacl_sdk/pepper_42/toolchain/linux_x86_newlib/bin/../lib/gcc/x86_64-nacl/4.4.3/../../../../x86_64-nacl/lib/../lib64/libstdc++.a(vterminate.o)
 .debug_ranges  0x0000000000016b60     0x1fa0 /home/berkeley/nacl_sdk/pepper_42/toolchain/linux_x86_newlib/bin/../lib/gcc/x86_64-nacl/4.4.3/../../../../x86_64-nacl/lib/../lib64/libstdc++.a(cp-demangle.o)
 .debug_ranges  0x0000000000018b00       0x60 /home/berkeley/nacl_sdk/pepper_42/toolchain/linux_x86_newlib/bin/../lib/gcc/x86_64-nacl/4.4.3/../../../../x86_64-nacl/lib/../lib64/libstdc++.a(eh_type.o)
 .debug_ranges  0x0000000000018b60     0x1430 /home/berkeley/nacl_sdk/pepper_42/toolchain/linux_x86_newlib/bin/../lib/gcc/x86_64-nacl/4.4.3/libgcc.a(unwind-dw2.o)
 .debug_ranges  0x0000000000019f90      0x610 /home/berkeley/nacl_sdk/pepper_42/toolchain/linux_x86_newlib/bin/../lib/gcc/x86_64-nacl/4.4.3/libgcc.a(unwind-dw2-fde-glibc.o)
 .debug_ranges  0x000000000001a5a0       0x60 /home/berkeley/nacl_sdk/pepper_42/toolchain/linux_x86_newlib/bin/../lib/gcc/x86_64-nacl/4.4.3/../../../../x86_64-nacl/lib/../lib64/libnacl.a(start_fa9ef7de.o)
 .debug_ranges  0x000000000001a600     0x2cf0 /home/berkeley/nacl_sdk/pepper_42/toolchain/linux_x86_newlib/bin/../lib/gcc/x86_64-nacl/4.4.3/../../../../x86_64-nacl/lib/../lib64/libnacl.a(malloc_222c4a1e.o)
 .debug_ranges  0x000000000001d2f0       0x60 /home/berkeley/nacl_sdk/pepper_42/toolchain/linux_x86_newlib/bin/../lib/gcc/x86_64-nacl/4.4.3/../../../../x86_64-nacl/lib/../lib64/libnacl.a(nacl_irt_6de1d53f.o)
 .debug_ranges  0x000000000001d350      0x2a0 /home/berkeley/nacl_sdk/pepper_42/toolchain/linux_x86_newlib/bin/../lib/gcc/x86_64-nacl/4.4.3/../../../../x86_64-nacl/lib/../lib64/libnacl.a(tls_bba1975b.o)
 .debug_ranges  0x000000000001d5f0       0x30 /home/berkeley/nacl_sdk/pepper_42/toolchain/linux_x86_newlib/bin/../lib/gcc/x86_64-nacl/4.4.3/../../../../x86_64-nacl/lib/../lib64/libnacl.a(nacl_irt_init_7b4f826e.o)

.debug_macro
 *(.debug_macro)

.gnu.attributes
 *(.gnu.attributes)

/DISCARD/
 *(.note.GNU-stack)
 *(.gnu_debuglink)
 *(.gnu.lto_*)
OUTPUT(newlib/Release/part2_unstripped_x86_64.nexe elf64-x86-64-nacl)
