Archive member included because of file (symbol)

/home/berkeley/nacl_sdk/pepper_42/lib/newlib_x86_32/Release/libppapi_cpp.a(instance_x86_32.o)
                              newlib/Release/popcnt_x86_32.o (_ZN2pp8InstanceC2Ei)
/home/berkeley/nacl_sdk/pepper_42/lib/newlib_x86_32/Release/libppapi_cpp.a(module_x86_32.o)
                              newlib/Release/popcnt_x86_32.o (_ZN2pp6ModuleC2Ev)
/home/berkeley/nacl_sdk/pepper_42/lib/newlib_x86_32/Release/libppapi_cpp.a(ppp_entrypoints_x86_32.o)
                              /home/berkeley/nacl_sdk/pepper_42/lib/newlib_x86_32/Release/libppapi_cpp.a(instance_x86_32.o) (_ZN2pp6Module3GetEv)
/home/berkeley/nacl_sdk/pepper_42/lib/newlib_x86_32/Release/libppapi_cpp.a(resource_x86_32.o)
                              /home/berkeley/nacl_sdk/pepper_42/lib/newlib_x86_32/Release/libppapi_cpp.a(module_x86_32.o) (_ZN2pp8ResourceD2Ev)
/home/berkeley/nacl_sdk/pepper_42/lib/newlib_x86_32/Release/libppapi_cpp.a(url_loader_x86_32.o)
                              /home/berkeley/nacl_sdk/pepper_42/lib/newlib_x86_32/Release/libppapi_cpp.a(module_x86_32.o) (_ZN2pp9URLLoaderC1Ei)
/home/berkeley/nacl_sdk/pepper_42/lib/newlib_x86_32/Release/libppapi_cpp.a(url_response_info_x86_32.o)
                              /home/berkeley/nacl_sdk/pepper_42/lib/newlib_x86_32/Release/libppapi_cpp.a(url_loader_x86_32.o) (_ZN2pp15URLResponseInfoC1ENS_7PassRefEi)
/home/berkeley/nacl_sdk/pepper_42/lib/newlib_x86_32/Release/libppapi_cpp.a(var_x86_32.o)
                              /home/berkeley/nacl_sdk/pepper_42/lib/newlib_x86_32/Release/libppapi_cpp.a(module_x86_32.o) (_ZTVN2pp3VarE)
/home/berkeley/nacl_sdk/pepper_42/lib/newlib_x86_32/Release/libppapi_cpp.a(view_x86_32.o)
                              /home/berkeley/nacl_sdk/pepper_42/lib/newlib_x86_32/Release/libppapi_cpp.a(module_x86_32.o) (_ZN2pp4ViewC1Ei)
/home/berkeley/nacl_sdk/pepper_42/lib/newlib_x86_32/Release/libppapi_cpp.a(core_x86_32.o)
                              /home/berkeley/nacl_sdk/pepper_42/lib/newlib_x86_32/Release/libppapi_cpp.a(url_loader_x86_32.o) (_ZN2pp4Core16CallOnMainThreadEiRKNS_18CompletionCallbackEi)
/home/berkeley/nacl_sdk/pepper_42/lib/newlib_x86_32/Release/libppapi_cpp.a(file_ref_x86_32.o)
                              /home/berkeley/nacl_sdk/pepper_42/lib/newlib_x86_32/Release/libppapi_cpp.a(url_response_info_x86_32.o) (_ZN2pp7FileRefC1ENS_7PassRefEi)
/home/berkeley/nacl_sdk/pepper_42/lib/newlib_x86_32/Release/libppapi_cpp.a(input_event_x86_32.o)
                              /home/berkeley/nacl_sdk/pepper_42/lib/newlib_x86_32/Release/libppapi_cpp.a(module_x86_32.o) (_ZN2pp10InputEventD1Ev)
/home/berkeley/nacl_sdk/pepper_42/toolchain/linux_x86_newlib/bin/../lib/gcc/x86_64-nacl/4.4.3/../../../../x86_64-nacl/lib/../lib32/libppapi_stub.a(plugin_main_irt_21ce9d26.o)
                              (main)
/home/berkeley/nacl_sdk/pepper_42/toolchain/linux_x86_newlib/bin/../lib/gcc/x86_64-nacl/4.4.3/../../../../x86_64-nacl/lib/../lib32/libppapi_stub.a(ppapi_plugin_main_399d0cf7.o)
                              /home/berkeley/nacl_sdk/pepper_42/toolchain/linux_x86_newlib/bin/../lib/gcc/x86_64-nacl/4.4.3/../../../../x86_64-nacl/lib/../lib32/libppapi_stub.a(plugin_main_irt_21ce9d26.o) (PpapiPluginMain)
/home/berkeley/nacl_sdk/pepper_42/toolchain/linux_x86_newlib/bin/../lib/gcc/x86_64-nacl/4.4.3/../../../../x86_64-nacl/lib/../lib32/libppapi_stub.a(ppapi_plugin_start_8da67623.o)
                              /home/berkeley/nacl_sdk/pepper_42/toolchain/linux_x86_newlib/bin/../lib/gcc/x86_64-nacl/4.4.3/../../../../x86_64-nacl/lib/../lib32/libppapi_stub.a(ppapi_plugin_main_399d0cf7.o) (PpapiPluginStart)
/home/berkeley/nacl_sdk/pepper_42/toolchain/linux_x86_newlib/bin/../lib/gcc/x86_64-nacl/4.4.3/../../../../x86_64-nacl/lib/../lib32/libppapi_stub.a(thread_creator_ccf263e1.o)
                              /home/berkeley/nacl_sdk/pepper_42/toolchain/linux_x86_newlib/bin/../lib/gcc/x86_64-nacl/4.4.3/../../../../x86_64-nacl/lib/../lib32/libppapi_stub.a(ppapi_plugin_start_8da67623.o) (__nacl_register_thread_creator)
/home/berkeley/nacl_sdk/pepper_42/toolchain/linux_x86_newlib/bin/../lib/gcc/x86_64-nacl/4.4.3/../../../../x86_64-nacl/lib/../lib32/libpthread.a(nc_thread_7e478b15.o)
                              /home/berkeley/nacl_sdk/pepper_42/toolchain/linux_x86_newlib/bin/../lib/gcc/x86_64-nacl/4.4.3/../../../../x86_64-nacl/lib/../lib32/libppapi_stub.a(thread_creator_ccf263e1.o) (pthread_join)
/home/berkeley/nacl_sdk/pepper_42/toolchain/linux_x86_newlib/bin/../lib/gcc/x86_64-nacl/4.4.3/../../../../x86_64-nacl/lib/../lib32/libpthread.a(nc_condvar_305aa45a.o)
                              /home/berkeley/nacl_sdk/pepper_42/toolchain/linux_x86_newlib/bin/../lib/gcc/x86_64-nacl/4.4.3/../../../../x86_64-nacl/lib/../lib32/libpthread.a(nc_thread_7e478b15.o) (pthread_cond_init)
/home/berkeley/nacl_sdk/pepper_42/toolchain/linux_x86_newlib/bin/../lib/gcc/x86_64-nacl/4.4.3/../../../../x86_64-nacl/lib/../lib32/libpthread.a(dynamic_annotations_33ba59cc.o)
                              /home/berkeley/nacl_sdk/pepper_42/toolchain/linux_x86_newlib/bin/../lib/gcc/x86_64-nacl/4.4.3/../../../../x86_64-nacl/lib/../lib32/libpthread.a(nc_thread_7e478b15.o) (NACL_AnnotateCondVarWait)
/home/berkeley/nacl_sdk/pepper_42/toolchain/linux_x86_newlib/bin/../lib/gcc/x86_64-nacl/4.4.3/../../../../x86_64-nacl/lib/../lib32/libpthread.a(nc_mutex_86341ae1.o)
                              /home/berkeley/nacl_sdk/pepper_42/toolchain/linux_x86_newlib/bin/../lib/gcc/x86_64-nacl/4.4.3/../../../../x86_64-nacl/lib/../lib32/libpthread.a(nc_thread_7e478b15.o) (pthread_mutex_init)
/home/berkeley/nacl_sdk/pepper_42/toolchain/linux_x86_newlib/bin/../lib/gcc/x86_64-nacl/4.4.3/../../../../x86_64-nacl/lib/../lib32/libpthread.a(nc_init_irt_d3daafc0.o)
                              /home/berkeley/nacl_sdk/pepper_42/toolchain/linux_x86_newlib/bin/../lib/gcc/x86_64-nacl/4.4.3/../../../../x86_64-nacl/lib/../lib32/libpthread.a(nc_thread_7e478b15.o) (__nc_initialize_interfaces)
/home/berkeley/nacl_sdk/pepper_42/toolchain/linux_x86_newlib/bin/../lib/gcc/x86_64-nacl/4.4.3/../../../../x86_64-nacl/lib/../lib32/libstdc++.a(tree.o)
                              /home/berkeley/nacl_sdk/pepper_42/lib/newlib_x86_32/Release/libppapi_cpp.a(instance_x86_32.o) (_ZSt18_Rb_tree_incrementPKSt18_Rb_tree_node_base)
/home/berkeley/nacl_sdk/pepper_42/toolchain/linux_x86_newlib/bin/../lib/gcc/x86_64-nacl/4.4.3/../../../../x86_64-nacl/lib/../lib32/libstdc++.a(string-inst.o)
                              /home/berkeley/nacl_sdk/pepper_42/lib/newlib_x86_32/Release/libppapi_cpp.a(instance_x86_32.o) (_ZNSs4_Rep20_S_empty_rep_storageE)
/home/berkeley/nacl_sdk/pepper_42/toolchain/linux_x86_newlib/bin/../lib/gcc/x86_64-nacl/4.4.3/../../../../x86_64-nacl/lib/../lib32/libstdc++.a(eh_personality.o)
                              newlib/Release/popcnt_x86_32.o (__gxx_personality_v0)
/home/berkeley/nacl_sdk/pepper_42/toolchain/linux_x86_newlib/bin/../lib/gcc/x86_64-nacl/4.4.3/../../../../x86_64-nacl/lib/../lib32/libstdc++.a(eh_globals.o)
                              /home/berkeley/nacl_sdk/pepper_42/toolchain/linux_x86_newlib/bin/../lib/gcc/x86_64-nacl/4.4.3/../../../../x86_64-nacl/lib/../lib32/libstdc++.a(eh_personality.o) (__cxa_get_globals_fast)
/home/berkeley/nacl_sdk/pepper_42/toolchain/linux_x86_newlib/bin/../lib/gcc/x86_64-nacl/4.4.3/../../../../x86_64-nacl/lib/../lib32/libstdc++.a(eh_throw.o)
                              /home/berkeley/nacl_sdk/pepper_42/lib/newlib_x86_32/Release/libppapi_cpp.a(instance_x86_32.o) (__cxa_rethrow)
/home/berkeley/nacl_sdk/pepper_42/toolchain/linux_x86_newlib/bin/../lib/gcc/x86_64-nacl/4.4.3/../../../../x86_64-nacl/lib/../lib32/libstdc++.a(del_op.o)
                              newlib/Release/popcnt_x86_32.o (_ZdlPv)
/home/berkeley/nacl_sdk/pepper_42/toolchain/linux_x86_newlib/bin/../lib/gcc/x86_64-nacl/4.4.3/../../../../x86_64-nacl/lib/../lib32/libstdc++.a(eh_call.o)
                              /home/berkeley/nacl_sdk/pepper_42/toolchain/linux_x86_newlib/bin/../lib/gcc/x86_64-nacl/4.4.3/../../../../x86_64-nacl/lib/../lib32/libstdc++.a(eh_personality.o) (__cxa_call_terminate)
/home/berkeley/nacl_sdk/pepper_42/toolchain/linux_x86_newlib/bin/../lib/gcc/x86_64-nacl/4.4.3/../../../../x86_64-nacl/lib/../lib32/libstdc++.a(guard.o)
                              /home/berkeley/nacl_sdk/pepper_42/lib/newlib_x86_32/Release/libppapi_cpp.a(instance_x86_32.o) (__cxa_guard_release)
/home/berkeley/nacl_sdk/pepper_42/toolchain/linux_x86_newlib/bin/../lib/gcc/x86_64-nacl/4.4.3/../../../../x86_64-nacl/lib/../lib32/libstdc++.a(si_class_type_info.o)
                              newlib/Release/popcnt_x86_32.o (_ZTVN10__cxxabiv120__si_class_type_infoE)
/home/berkeley/nacl_sdk/pepper_42/toolchain/linux_x86_newlib/bin/../lib/gcc/x86_64-nacl/4.4.3/../../../../x86_64-nacl/lib/../lib32/libstdc++.a(eh_terminate.o)
                              /home/berkeley/nacl_sdk/pepper_42/toolchain/linux_x86_newlib/bin/../lib/gcc/x86_64-nacl/4.4.3/../../../../x86_64-nacl/lib/../lib32/libstdc++.a(eh_personality.o) (_ZN10__cxxabiv111__terminateEPFvvE)
/home/berkeley/nacl_sdk/pepper_42/toolchain/linux_x86_newlib/bin/../lib/gcc/x86_64-nacl/4.4.3/../../../../x86_64-nacl/lib/../lib32/libstdc++.a(class_type_info.o)
                              /home/berkeley/nacl_sdk/pepper_42/toolchain/linux_x86_newlib/bin/../lib/gcc/x86_64-nacl/4.4.3/../../../../x86_64-nacl/lib/../lib32/libstdc++.a(si_class_type_info.o) (_ZNK10__cxxabiv117__class_type_info10__do_catchEPKSt9type_infoPPvj)
/home/berkeley/nacl_sdk/pepper_42/toolchain/linux_x86_newlib/bin/../lib/gcc/x86_64-nacl/4.4.3/../../../../x86_64-nacl/lib/../lib32/libstdc++.a(eh_alloc.o)
                              /home/berkeley/nacl_sdk/pepper_42/toolchain/linux_x86_newlib/bin/../lib/gcc/x86_64-nacl/4.4.3/../../../../x86_64-nacl/lib/../lib32/libstdc++.a(eh_personality.o) (__cxa_allocate_exception)
/home/berkeley/nacl_sdk/pepper_42/toolchain/linux_x86_newlib/bin/../lib/gcc/x86_64-nacl/4.4.3/../../../../x86_64-nacl/lib/../lib32/libstdc++.a(eh_catch.o)
                              /home/berkeley/nacl_sdk/pepper_42/lib/newlib_x86_32/Release/libppapi_cpp.a(instance_x86_32.o) (__cxa_end_catch)
/home/berkeley/nacl_sdk/pepper_42/toolchain/linux_x86_newlib/bin/../lib/gcc/x86_64-nacl/4.4.3/../../../../x86_64-nacl/lib/../lib32/libstdc++.a(eh_exception.o)
                              /home/berkeley/nacl_sdk/pepper_42/toolchain/linux_x86_newlib/bin/../lib/gcc/x86_64-nacl/4.4.3/../../../../x86_64-nacl/lib/../lib32/libstdc++.a(guard.o) (_ZNSt9exceptionD2Ev)
/home/berkeley/nacl_sdk/pepper_42/toolchain/linux_x86_newlib/bin/../lib/gcc/x86_64-nacl/4.4.3/../../../../x86_64-nacl/lib/../lib32/libstdc++.a(pure.o)
                              /home/berkeley/nacl_sdk/pepper_42/lib/newlib_x86_32/Release/libppapi_cpp.a(module_x86_32.o) (__cxa_pure_virtual)
/home/berkeley/nacl_sdk/pepper_42/toolchain/linux_x86_newlib/bin/../lib/gcc/x86_64-nacl/4.4.3/../../../../x86_64-nacl/lib/../lib32/libstdc++.a(new_op.o)
                              newlib/Release/popcnt_x86_32.o (_Znwj)
/home/berkeley/nacl_sdk/pepper_42/toolchain/linux_x86_newlib/bin/../lib/gcc/x86_64-nacl/4.4.3/../../../../x86_64-nacl/lib/../lib32/libstdc++.a(tinfo.o)
                              /home/berkeley/nacl_sdk/pepper_42/toolchain/linux_x86_newlib/bin/../lib/gcc/x86_64-nacl/4.4.3/../../../../x86_64-nacl/lib/../lib32/libstdc++.a(class_type_info.o) (_ZNSt9type_infoD2Ev)
/home/berkeley/nacl_sdk/pepper_42/toolchain/linux_x86_newlib/bin/../lib/gcc/x86_64-nacl/4.4.3/../../../../x86_64-nacl/lib/../lib32/libstdc++.a(functexcept.o)
                              /home/berkeley/nacl_sdk/pepper_42/toolchain/linux_x86_newlib/bin/../lib/gcc/x86_64-nacl/4.4.3/../../../../x86_64-nacl/lib/../lib32/libstdc++.a(string-inst.o) (_ZSt20__throw_out_of_rangePKc)
/home/berkeley/nacl_sdk/pepper_42/toolchain/linux_x86_newlib/bin/../lib/gcc/x86_64-nacl/4.4.3/../../../../x86_64-nacl/lib/../lib32/libstdc++.a(ios_failure.o)
                              /home/berkeley/nacl_sdk/pepper_42/toolchain/linux_x86_newlib/bin/../lib/gcc/x86_64-nacl/4.4.3/../../../../x86_64-nacl/lib/../lib32/libstdc++.a(functexcept.o) (_ZNSt8ios_base7failureC1ERKSs)
/home/berkeley/nacl_sdk/pepper_42/toolchain/linux_x86_newlib/bin/../lib/gcc/x86_64-nacl/4.4.3/../../../../x86_64-nacl/lib/../lib32/libstdc++.a(stdexcept.o)
                              /home/berkeley/nacl_sdk/pepper_42/toolchain/linux_x86_newlib/bin/../lib/gcc/x86_64-nacl/4.4.3/../../../../x86_64-nacl/lib/../lib32/libstdc++.a(functexcept.o) (_ZNKSt11logic_error4whatEv)
/home/berkeley/nacl_sdk/pepper_42/toolchain/linux_x86_newlib/bin/../lib/gcc/x86_64-nacl/4.4.3/../../../../x86_64-nacl/lib/../lib32/libstdc++.a(system_error.o)
                              /home/berkeley/nacl_sdk/pepper_42/toolchain/linux_x86_newlib/bin/../lib/gcc/x86_64-nacl/4.4.3/../../../../x86_64-nacl/lib/../lib32/libstdc++.a(functexcept.o) (_ZSt16generic_categoryv)
/home/berkeley/nacl_sdk/pepper_42/toolchain/linux_x86_newlib/bin/../lib/gcc/x86_64-nacl/4.4.3/../../../../x86_64-nacl/lib/../lib32/libstdc++.a(eh_unex_handler.o)
                              /home/berkeley/nacl_sdk/pepper_42/toolchain/linux_x86_newlib/bin/../lib/gcc/x86_64-nacl/4.4.3/../../../../x86_64-nacl/lib/../lib32/libstdc++.a(eh_throw.o) (_ZN10__cxxabiv120__unexpected_handlerE)
/home/berkeley/nacl_sdk/pepper_42/toolchain/linux_x86_newlib/bin/../lib/gcc/x86_64-nacl/4.4.3/../../../../x86_64-nacl/lib/../lib32/libstdc++.a(eh_term_handler.o)
                              /home/berkeley/nacl_sdk/pepper_42/toolchain/linux_x86_newlib/bin/../lib/gcc/x86_64-nacl/4.4.3/../../../../x86_64-nacl/lib/../lib32/libstdc++.a(eh_throw.o) (_ZN10__cxxabiv119__terminate_handlerE)
/home/berkeley/nacl_sdk/pepper_42/toolchain/linux_x86_newlib/bin/../lib/gcc/x86_64-nacl/4.4.3/../../../../x86_64-nacl/lib/../lib32/libstdc++.a(bad_typeid.o)
                              /home/berkeley/nacl_sdk/pepper_42/toolchain/linux_x86_newlib/bin/../lib/gcc/x86_64-nacl/4.4.3/../../../../x86_64-nacl/lib/../lib32/libstdc++.a(functexcept.o) (_ZNSt10bad_typeidD1Ev)
/home/berkeley/nacl_sdk/pepper_42/toolchain/linux_x86_newlib/bin/../lib/gcc/x86_64-nacl/4.4.3/../../../../x86_64-nacl/lib/../lib32/libstdc++.a(new_handler.o)
                              /home/berkeley/nacl_sdk/pepper_42/toolchain/linux_x86_newlib/bin/../lib/gcc/x86_64-nacl/4.4.3/../../../../x86_64-nacl/lib/../lib32/libstdc++.a(new_op.o) (__new_handler)
/home/berkeley/nacl_sdk/pepper_42/toolchain/linux_x86_newlib/bin/../lib/gcc/x86_64-nacl/4.4.3/../../../../x86_64-nacl/lib/../lib32/libstdc++.a(bad_cast.o)
                              /home/berkeley/nacl_sdk/pepper_42/toolchain/linux_x86_newlib/bin/../lib/gcc/x86_64-nacl/4.4.3/../../../../x86_64-nacl/lib/../lib32/libstdc++.a(functexcept.o) (_ZNSt8bad_castD1Ev)
/home/berkeley/nacl_sdk/pepper_42/toolchain/linux_x86_newlib/bin/../lib/gcc/x86_64-nacl/4.4.3/../../../../x86_64-nacl/lib/../lib32/libstdc++.a(vterminate.o)
                              /home/berkeley/nacl_sdk/pepper_42/toolchain/linux_x86_newlib/bin/../lib/gcc/x86_64-nacl/4.4.3/../../../../x86_64-nacl/lib/../lib32/libstdc++.a(eh_term_handler.o) (_ZN9__gnu_cxx27__verbose_terminate_handlerEv)
/home/berkeley/nacl_sdk/pepper_42/toolchain/linux_x86_newlib/bin/../lib/gcc/x86_64-nacl/4.4.3/../../../../x86_64-nacl/lib/../lib32/libstdc++.a(cp-demangle.o)
                              /home/berkeley/nacl_sdk/pepper_42/toolchain/linux_x86_newlib/bin/../lib/gcc/x86_64-nacl/4.4.3/../../../../x86_64-nacl/lib/../lib32/libstdc++.a(vterminate.o) (__cxa_demangle)
/home/berkeley/nacl_sdk/pepper_42/toolchain/linux_x86_newlib/bin/../lib/gcc/x86_64-nacl/4.4.3/../../../../x86_64-nacl/lib/../lib32/libstdc++.a(eh_type.o)
                              /home/berkeley/nacl_sdk/pepper_42/toolchain/linux_x86_newlib/bin/../lib/gcc/x86_64-nacl/4.4.3/../../../../x86_64-nacl/lib/../lib32/libstdc++.a(vterminate.o) (__cxa_current_exception_type)
/home/berkeley/nacl_sdk/pepper_42/toolchain/linux_x86_newlib/bin/../lib/gcc/x86_64-nacl/4.4.3/32/libgcc.a(unwind-dw2.o)
                              /home/berkeley/nacl_sdk/pepper_42/toolchain/linux_x86_newlib/bin/../lib/gcc/x86_64-nacl/4.4.3/../../../../x86_64-nacl/lib/../lib32/libstdc++.a(eh_personality.o) (_Unwind_GetIPInfo)
/home/berkeley/nacl_sdk/pepper_42/toolchain/linux_x86_newlib/bin/../lib/gcc/x86_64-nacl/4.4.3/32/libgcc.a(unwind-dw2-fde-glibc.o)
                              /home/berkeley/nacl_sdk/pepper_42/toolchain/linux_x86_newlib/bin/../lib/gcc/x86_64-nacl/4.4.3/32/libgcc.a(unwind-dw2.o) (_Unwind_Find_FDE)
/home/berkeley/nacl_sdk/pepper_42/toolchain/linux_x86_newlib/bin/../lib/gcc/x86_64-nacl/4.4.3/../../../../x86_64-nacl/lib/../lib32/libnacl.a(_exit_710c7d0d.o)
                              (_exit)
/home/berkeley/nacl_sdk/pepper_42/toolchain/linux_x86_newlib/bin/../lib/gcc/x86_64-nacl/4.4.3/../../../../x86_64-nacl/lib/../lib32/libnacl.a(abort_9f6b5845.o)
                              /home/berkeley/nacl_sdk/pepper_42/toolchain/linux_x86_newlib/bin/../lib/gcc/x86_64-nacl/4.4.3/../../../../x86_64-nacl/lib/../lib32/libstdc++.a(eh_personality.o) (abort)
/home/berkeley/nacl_sdk/pepper_42/toolchain/linux_x86_newlib/bin/../lib/gcc/x86_64-nacl/4.4.3/../../../../x86_64-nacl/lib/../lib32/libnacl.a(environ_25cd24d8.o)
                              /home/berkeley/nacl_sdk/pepper_42/toolchain/linux_x86_newlib/bin/../lib/gcc/x86_64-nacl/4.4.3/../../../../x86_64-nacl/lib/../lib32/libppapi_stub.a(ppapi_plugin_start_8da67623.o) (environ)
/home/berkeley/nacl_sdk/pepper_42/toolchain/linux_x86_newlib/bin/../lib/gcc/x86_64-nacl/4.4.3/../../../../x86_64-nacl/lib/../lib32/libnacl.a(start_fa9ef7de.o)
                              (_start)
/home/berkeley/nacl_sdk/pepper_42/toolchain/linux_x86_newlib/bin/../lib/gcc/x86_64-nacl/4.4.3/../../../../x86_64-nacl/lib/../lib32/libnacl.a(malloc_222c4a1e.o)
                              /home/berkeley/nacl_sdk/pepper_42/toolchain/linux_x86_newlib/bin/../lib/gcc/x86_64-nacl/4.4.3/../../../../x86_64-nacl/lib/../lib32/libpthread.a(nc_thread_7e478b15.o) (free)
/home/berkeley/nacl_sdk/pepper_42/toolchain/linux_x86_newlib/bin/../lib/gcc/x86_64-nacl/4.4.3/../../../../x86_64-nacl/lib/../lib32/libnacl.a(nacl_irt_6de1d53f.o)
                              /home/berkeley/nacl_sdk/pepper_42/toolchain/linux_x86_newlib/bin/../lib/gcc/x86_64-nacl/4.4.3/../../../../x86_64-nacl/lib/../lib32/libpthread.a(nc_init_irt_d3daafc0.o) (__libnacl_mandatory_irt_query)
/home/berkeley/nacl_sdk/pepper_42/toolchain/linux_x86_newlib/bin/../lib/gcc/x86_64-nacl/4.4.3/../../../../x86_64-nacl/lib/../lib32/libnacl.a(pthread_initialize_minimal_4b6e776b.o)
                              /home/berkeley/nacl_sdk/pepper_42/toolchain/linux_x86_newlib/bin/../lib/gcc/x86_64-nacl/4.4.3/../../../../x86_64-nacl/lib/../lib32/libpthread.a(nc_thread_7e478b15.o) (__pthread_initialize_minimal)
/home/berkeley/nacl_sdk/pepper_42/toolchain/linux_x86_newlib/bin/../lib/gcc/x86_64-nacl/4.4.3/../../../../x86_64-nacl/lib/../lib32/libnacl.a(nacl_read_tp_5748ac47.o)
                              /home/berkeley/nacl_sdk/pepper_42/toolchain/linux_x86_newlib/bin/../lib/gcc/x86_64-nacl/4.4.3/../../../../x86_64-nacl/lib/../lib32/libpthread.a(nc_thread_7e478b15.o) (__nacl_read_tp)
/home/berkeley/nacl_sdk/pepper_42/toolchain/linux_x86_newlib/bin/../lib/gcc/x86_64-nacl/4.4.3/../../../../x86_64-nacl/lib/../lib32/libnacl.a(mmap_767fb080.o)
                              /home/berkeley/nacl_sdk/pepper_42/toolchain/linux_x86_newlib/bin/../lib/gcc/x86_64-nacl/4.4.3/../../../../x86_64-nacl/lib/../lib32/libnacl.a(malloc_222c4a1e.o) (mmap)
/home/berkeley/nacl_sdk/pepper_42/toolchain/linux_x86_newlib/bin/../lib/gcc/x86_64-nacl/4.4.3/../../../../x86_64-nacl/lib/../lib32/libnacl.a(sched_yield_56c375be.o)
                              /home/berkeley/nacl_sdk/pepper_42/toolchain/linux_x86_newlib/bin/../lib/gcc/x86_64-nacl/4.4.3/../../../../x86_64-nacl/lib/../lib32/libnacl.a(malloc_222c4a1e.o) (sched_yield)
/home/berkeley/nacl_sdk/pepper_42/toolchain/linux_x86_newlib/bin/../lib/gcc/x86_64-nacl/4.4.3/../../../../x86_64-nacl/lib/../lib32/libnacl.a(munmap_d4f09867.o)
                              /home/berkeley/nacl_sdk/pepper_42/toolchain/linux_x86_newlib/bin/../lib/gcc/x86_64-nacl/4.4.3/../../../../x86_64-nacl/lib/../lib32/libnacl.a(malloc_222c4a1e.o) (munmap)
/home/berkeley/nacl_sdk/pepper_42/toolchain/linux_x86_newlib/bin/../lib/gcc/x86_64-nacl/4.4.3/../../../../x86_64-nacl/lib/../lib32/libnacl.a(tls_bba1975b.o)
                              /home/berkeley/nacl_sdk/pepper_42/toolchain/linux_x86_newlib/bin/../lib/gcc/x86_64-nacl/4.4.3/../../../../x86_64-nacl/lib/../lib32/libpthread.a(nc_thread_7e478b15.o) (__nacl_tls_combined_size)
/home/berkeley/nacl_sdk/pepper_42/toolchain/linux_x86_newlib/bin/../lib/gcc/x86_64-nacl/4.4.3/../../../../x86_64-nacl/lib/../lib32/libnacl.a(write_fb49787f.o)
                              /home/berkeley/nacl_sdk/pepper_42/toolchain/linux_x86_newlib/bin/../lib/gcc/x86_64-nacl/4.4.3/../../../../x86_64-nacl/lib/../lib32/libppapi_stub.a(ppapi_plugin_start_8da67623.o) (write)
/home/berkeley/nacl_sdk/pepper_42/toolchain/linux_x86_newlib/bin/../lib/gcc/x86_64-nacl/4.4.3/../../../../x86_64-nacl/lib/../lib32/libnacl.a(nacl_tls_get_d2f842b5.o)
                              /home/berkeley/nacl_sdk/pepper_42/toolchain/linux_x86_newlib/bin/../lib/gcc/x86_64-nacl/4.4.3/../../../../x86_64-nacl/lib/../lib32/libnacl.a(nacl_read_tp_5748ac47.o) (nacl_tls_get)
/home/berkeley/nacl_sdk/pepper_42/toolchain/linux_x86_newlib/bin/../lib/gcc/x86_64-nacl/4.4.3/../../../../x86_64-nacl/lib/../lib32/libnacl.a(nacl_irt_init_7b4f826e.o)
                              /home/berkeley/nacl_sdk/pepper_42/toolchain/linux_x86_newlib/bin/../lib/gcc/x86_64-nacl/4.4.3/../../../../x86_64-nacl/lib/../lib32/libnacl.a(start_fa9ef7de.o) (__libnacl_irt_init)
/home/berkeley/nacl_sdk/pepper_42/toolchain/linux_x86_newlib/bin/../lib/gcc/x86_64-nacl/4.4.3/../../../../x86_64-nacl/lib/../lib32/libnacl.a(sysconf_ad295ea2.o)
                              /home/berkeley/nacl_sdk/pepper_42/toolchain/linux_x86_newlib/bin/../lib/gcc/x86_64-nacl/4.4.3/../../../../x86_64-nacl/lib/../lib32/libnacl.a(malloc_222c4a1e.o) (sysconf)
/home/berkeley/nacl_sdk/pepper_42/toolchain/linux_x86_newlib/bin/../lib/gcc/x86_64-nacl/4.4.3/../../../../x86_64-nacl/lib/../lib32/libnacl.a(nacl_tls_init_eb0cd232.o)
                              /home/berkeley/nacl_sdk/pepper_42/toolchain/linux_x86_newlib/bin/../lib/gcc/x86_64-nacl/4.4.3/../../../../x86_64-nacl/lib/../lib32/libnacl.a(pthread_initialize_minimal_4b6e776b.o) (nacl_tls_init)
/home/berkeley/nacl_sdk/pepper_42/toolchain/linux_x86_newlib/bin/../lib/gcc/x86_64-nacl/4.4.3/../../../../x86_64-nacl/lib/../lib32/libcrt_common.a(lib_a-atexit.o)
                              /home/berkeley/nacl_sdk/pepper_42/toolchain/linux_x86_newlib/bin/../lib/gcc/x86_64-nacl/4.4.3/../../../../x86_64-nacl/lib/../lib32/libnacl.a(start_fa9ef7de.o) (atexit)
/home/berkeley/nacl_sdk/pepper_42/toolchain/linux_x86_newlib/bin/../lib/gcc/x86_64-nacl/4.4.3/../../../../x86_64-nacl/lib/../lib32/libcrt_common.a(lib_a-cxa_atexit.o)
                              /home/berkeley/nacl_sdk/pepper_42/toolchain/linux_x86_newlib/bin/../lib/gcc/x86_64-nacl/4.4.3/../../../../x86_64-nacl/lib/../lib32/libstdc++.a(eh_globals.o) (__cxa_atexit)
/home/berkeley/nacl_sdk/pepper_42/toolchain/linux_x86_newlib/bin/../lib/gcc/x86_64-nacl/4.4.3/../../../../x86_64-nacl/lib/../lib32/libcrt_common.a(lib_a-errno.o)
                              /home/berkeley/nacl_sdk/pepper_42/toolchain/linux_x86_newlib/bin/../lib/gcc/x86_64-nacl/4.4.3/../../../../x86_64-nacl/lib/../lib32/libnacl.a(malloc_222c4a1e.o) (__errno)
/home/berkeley/nacl_sdk/pepper_42/toolchain/linux_x86_newlib/bin/../lib/gcc/x86_64-nacl/4.4.3/../../../../x86_64-nacl/lib/../lib32/libcrt_common.a(lib_a-exit.o)
                              (exit)
/home/berkeley/nacl_sdk/pepper_42/toolchain/linux_x86_newlib/bin/../lib/gcc/x86_64-nacl/4.4.3/../../../../x86_64-nacl/lib/../lib32/libcrt_common.a(lib_a-fini.o)
                              /home/berkeley/nacl_sdk/pepper_42/toolchain/linux_x86_newlib/bin/../lib/gcc/x86_64-nacl/4.4.3/../../../../x86_64-nacl/lib/../lib32/libnacl.a(start_fa9ef7de.o) (__libc_fini_array)
/home/berkeley/nacl_sdk/pepper_42/toolchain/linux_x86_newlib/bin/../lib/gcc/x86_64-nacl/4.4.3/../../../../x86_64-nacl/lib/../lib32/libcrt_common.a(lib_a-fprintf.o)
                              /home/berkeley/nacl_sdk/pepper_42/toolchain/linux_x86_newlib/bin/../lib/gcc/x86_64-nacl/4.4.3/../../../../x86_64-nacl/lib/../lib32/libnacl.a(malloc_222c4a1e.o) (fprintf)
/home/berkeley/nacl_sdk/pepper_42/toolchain/linux_x86_newlib/bin/../lib/gcc/x86_64-nacl/4.4.3/../../../../x86_64-nacl/lib/../lib32/libcrt_common.a(lib_a-fputc.o)
                              /home/berkeley/nacl_sdk/pepper_42/toolchain/linux_x86_newlib/bin/../lib/gcc/x86_64-nacl/4.4.3/../../../../x86_64-nacl/lib/../lib32/libstdc++.a(vterminate.o) (fputc)
/home/berkeley/nacl_sdk/pepper_42/toolchain/linux_x86_newlib/bin/../lib/gcc/x86_64-nacl/4.4.3/../../../../x86_64-nacl/lib/../lib32/libcrt_common.a(lib_a-fputs.o)
                              /home/berkeley/nacl_sdk/pepper_42/toolchain/linux_x86_newlib/bin/../lib/gcc/x86_64-nacl/4.4.3/../../../../x86_64-nacl/lib/../lib32/libstdc++.a(vterminate.o) (fputs)
/home/berkeley/nacl_sdk/pepper_42/toolchain/linux_x86_newlib/bin/../lib/gcc/x86_64-nacl/4.4.3/../../../../x86_64-nacl/lib/../lib32/libcrt_common.a(lib_a-fvwrite.o)
                              /home/berkeley/nacl_sdk/pepper_42/toolchain/linux_x86_newlib/bin/../lib/gcc/x86_64-nacl/4.4.3/../../../../x86_64-nacl/lib/../lib32/libcrt_common.a(lib_a-fputs.o) (__sfvwrite_r)
/home/berkeley/nacl_sdk/pepper_42/toolchain/linux_x86_newlib/bin/../lib/gcc/x86_64-nacl/4.4.3/../../../../x86_64-nacl/lib/../lib32/libcrt_common.a(lib_a-fwrite.o)
                              /home/berkeley/nacl_sdk/pepper_42/toolchain/linux_x86_newlib/bin/../lib/gcc/x86_64-nacl/4.4.3/../../../../x86_64-nacl/lib/../lib32/libstdc++.a(vterminate.o) (fwrite)
/home/berkeley/nacl_sdk/pepper_42/toolchain/linux_x86_newlib/bin/../lib/gcc/x86_64-nacl/4.4.3/../../../../x86_64-nacl/lib/../lib32/libcrt_common.a(lib_a-getenv.o)
                              /home/berkeley/nacl_sdk/pepper_42/toolchain/linux_x86_newlib/bin/../lib/gcc/x86_64-nacl/4.4.3/../../../../x86_64-nacl/lib/../lib32/libpthread.a(dynamic_annotations_33ba59cc.o) (getenv)
/home/berkeley/nacl_sdk/pepper_42/toolchain/linux_x86_newlib/bin/../lib/gcc/x86_64-nacl/4.4.3/../../../../x86_64-nacl/lib/../lib32/libcrt_common.a(lib_a-getenv_r.o)
                              /home/berkeley/nacl_sdk/pepper_42/toolchain/linux_x86_newlib/bin/../lib/gcc/x86_64-nacl/4.4.3/../../../../x86_64-nacl/lib/../lib32/libcrt_common.a(lib_a-getenv.o) (_findenv_r)
/home/berkeley/nacl_sdk/pepper_42/toolchain/linux_x86_newlib/bin/../lib/gcc/x86_64-nacl/4.4.3/../../../../x86_64-nacl/lib/../lib32/libcrt_common.a(lib_a-impure.o)
                              /home/berkeley/nacl_sdk/pepper_42/toolchain/linux_x86_newlib/bin/../lib/gcc/x86_64-nacl/4.4.3/../../../../x86_64-nacl/lib/../lib32/libpthread.a(nc_thread_7e478b15.o) (__newlib_thread_init)
/home/berkeley/nacl_sdk/pepper_42/toolchain/linux_x86_newlib/bin/../lib/gcc/x86_64-nacl/4.4.3/../../../../x86_64-nacl/lib/../lib32/libcrt_common.a(lib_a-init.o)
                              /home/berkeley/nacl_sdk/pepper_42/toolchain/linux_x86_newlib/bin/../lib/gcc/x86_64-nacl/4.4.3/../../../../x86_64-nacl/lib/../lib32/libnacl.a(start_fa9ef7de.o) (__libc_init_array)
/home/berkeley/nacl_sdk/pepper_42/toolchain/linux_x86_newlib/bin/../lib/gcc/x86_64-nacl/4.4.3/../../../../x86_64-nacl/lib/../lib32/libcrt_common.a(lib_a-memchr.o)
                              /home/berkeley/nacl_sdk/pepper_42/toolchain/linux_x86_newlib/bin/../lib/gcc/x86_64-nacl/4.4.3/../../../../x86_64-nacl/lib/../lib32/libstdc++.a(string-inst.o) (memchr)
/home/berkeley/nacl_sdk/pepper_42/toolchain/linux_x86_newlib/bin/../lib/gcc/x86_64-nacl/4.4.3/../../../../x86_64-nacl/lib/../lib32/libcrt_common.a(lib_a-memcpy.o)
                              /home/berkeley/nacl_sdk/pepper_42/toolchain/linux_x86_newlib/bin/../lib/gcc/x86_64-nacl/4.4.3/../../../../x86_64-nacl/lib/../lib32/libstdc++.a(string-inst.o) (memcpy)
/home/berkeley/nacl_sdk/pepper_42/toolchain/linux_x86_newlib/bin/../lib/gcc/x86_64-nacl/4.4.3/../../../../x86_64-nacl/lib/../lib32/libcrt_common.a(lib_a-memmove.o)
                              /home/berkeley/nacl_sdk/pepper_42/toolchain/linux_x86_newlib/bin/../lib/gcc/x86_64-nacl/4.4.3/../../../../x86_64-nacl/lib/../lib32/libstdc++.a(string-inst.o) (memmove)
/home/berkeley/nacl_sdk/pepper_42/toolchain/linux_x86_newlib/bin/../lib/gcc/x86_64-nacl/4.4.3/../../../../x86_64-nacl/lib/../lib32/libcrt_common.a(lib_a-memset.o)
                              /home/berkeley/nacl_sdk/pepper_42/toolchain/linux_x86_newlib/bin/../lib/gcc/x86_64-nacl/4.4.3/../../../../x86_64-nacl/lib/../lib32/libstdc++.a(string-inst.o) (memset)
/home/berkeley/nacl_sdk/pepper_42/toolchain/linux_x86_newlib/bin/../lib/gcc/x86_64-nacl/4.4.3/../../../../x86_64-nacl/lib/../lib32/libcrt_common.a(lib_a-putc.o)
                              /home/berkeley/nacl_sdk/pepper_42/toolchain/linux_x86_newlib/bin/../lib/gcc/x86_64-nacl/4.4.3/../../../../x86_64-nacl/lib/../lib32/libcrt_common.a(lib_a-fputc.o) (_putc_r)
/home/berkeley/nacl_sdk/pepper_42/toolchain/linux_x86_newlib/bin/../lib/gcc/x86_64-nacl/4.4.3/../../../../x86_64-nacl/lib/../lib32/libcrt_common.a(lib_a-snprintf.o)
                              /home/berkeley/nacl_sdk/pepper_42/lib/newlib_x86_32/Release/libppapi_cpp.a(var_x86_32.o) (snprintf)
/home/berkeley/nacl_sdk/pepper_42/toolchain/linux_x86_newlib/bin/../lib/gcc/x86_64-nacl/4.4.3/../../../../x86_64-nacl/lib/../lib32/libcrt_common.a(lib_a-sprintf.o)
                              /home/berkeley/nacl_sdk/pepper_42/toolchain/linux_x86_newlib/bin/../lib/gcc/x86_64-nacl/4.4.3/../../../../x86_64-nacl/lib/../lib32/libstdc++.a(cp-demangle.o) (sprintf)
/home/berkeley/nacl_sdk/pepper_42/toolchain/linux_x86_newlib/bin/../lib/gcc/x86_64-nacl/4.4.3/../../../../x86_64-nacl/lib/../lib32/libcrt_common.a(lib_a-strcpy.o)
                              /home/berkeley/nacl_sdk/pepper_42/toolchain/linux_x86_newlib/bin/../lib/gcc/x86_64-nacl/4.4.3/../../../../x86_64-nacl/lib/../lib32/libstdc++.a(cp-demangle.o) (strcpy)
/home/berkeley/nacl_sdk/pepper_42/toolchain/linux_x86_newlib/bin/../lib/gcc/x86_64-nacl/4.4.3/../../../../x86_64-nacl/lib/../lib32/libcrt_common.a(lib_a-strerror.o)
                              /home/berkeley/nacl_sdk/pepper_42/toolchain/linux_x86_newlib/bin/../lib/gcc/x86_64-nacl/4.4.3/../../../../x86_64-nacl/lib/../lib32/libstdc++.a(system_error.o) (strerror)
/home/berkeley/nacl_sdk/pepper_42/toolchain/linux_x86_newlib/bin/../lib/gcc/x86_64-nacl/4.4.3/../../../../x86_64-nacl/lib/../lib32/libcrt_common.a(lib_a-strlen.o)
                              /home/berkeley/nacl_sdk/pepper_42/lib/newlib_x86_32/Release/libppapi_cpp.a(var_x86_32.o) (strlen)
/home/berkeley/nacl_sdk/pepper_42/toolchain/linux_x86_newlib/bin/../lib/gcc/x86_64-nacl/4.4.3/../../../../x86_64-nacl/lib/../lib32/libcrt_common.a(lib_a-strncmp.o)
                              /home/berkeley/nacl_sdk/pepper_42/toolchain/linux_x86_newlib/bin/../lib/gcc/x86_64-nacl/4.4.3/../../../../x86_64-nacl/lib/../lib32/libcrt_common.a(lib_a-getenv_r.o) (strncmp)
/home/berkeley/nacl_sdk/pepper_42/toolchain/linux_x86_newlib/bin/../lib/gcc/x86_64-nacl/4.4.3/../../../../x86_64-nacl/lib/../lib32/libcrt_common.a(lib_a-svfprintf.o)
                              /home/berkeley/nacl_sdk/pepper_42/toolchain/linux_x86_newlib/bin/../lib/gcc/x86_64-nacl/4.4.3/../../../../x86_64-nacl/lib/../lib32/libcrt_common.a(lib_a-snprintf.o) (_svfprintf_r)
/home/berkeley/nacl_sdk/pepper_42/toolchain/linux_x86_newlib/bin/../lib/gcc/x86_64-nacl/4.4.3/../../../../x86_64-nacl/lib/../lib32/libcrt_common.a(lib_a-u_strerr.o)
                              /home/berkeley/nacl_sdk/pepper_42/toolchain/linux_x86_newlib/bin/../lib/gcc/x86_64-nacl/4.4.3/../../../../x86_64-nacl/lib/../lib32/libcrt_common.a(lib_a-strerror.o) (_user_strerror)
/home/berkeley/nacl_sdk/pepper_42/toolchain/linux_x86_newlib/bin/../lib/gcc/x86_64-nacl/4.4.3/../../../../x86_64-nacl/lib/../lib32/libcrt_common.a(lib_a-vfprintf.o)
                              /home/berkeley/nacl_sdk/pepper_42/toolchain/linux_x86_newlib/bin/../lib/gcc/x86_64-nacl/4.4.3/../../../../x86_64-nacl/lib/../lib32/libcrt_common.a(lib_a-fprintf.o) (_vfprintf_r)
/home/berkeley/nacl_sdk/pepper_42/toolchain/linux_x86_newlib/bin/../lib/gcc/x86_64-nacl/4.4.3/../../../../x86_64-nacl/lib/../lib32/libcrt_common.a(lib_a-wbuf.o)
                              /home/berkeley/nacl_sdk/pepper_42/toolchain/linux_x86_newlib/bin/../lib/gcc/x86_64-nacl/4.4.3/../../../../x86_64-nacl/lib/../lib32/libcrt_common.a(lib_a-putc.o) (__swbuf_r)
/home/berkeley/nacl_sdk/pepper_42/toolchain/linux_x86_newlib/bin/../lib/gcc/x86_64-nacl/4.4.3/../../../../x86_64-nacl/lib/../lib32/libcrt_common.a(lib_a-wcrtomb.o)
                              /home/berkeley/nacl_sdk/pepper_42/toolchain/linux_x86_newlib/bin/../lib/gcc/x86_64-nacl/4.4.3/../../../../x86_64-nacl/lib/../lib32/libcrt_common.a(lib_a-svfprintf.o) (_wcrtomb_r)
/home/berkeley/nacl_sdk/pepper_42/toolchain/linux_x86_newlib/bin/../lib/gcc/x86_64-nacl/4.4.3/../../../../x86_64-nacl/lib/../lib32/libcrt_common.a(lib_a-wcsrtombs.o)
                              /home/berkeley/nacl_sdk/pepper_42/toolchain/linux_x86_newlib/bin/../lib/gcc/x86_64-nacl/4.4.3/../../../../x86_64-nacl/lib/../lib32/libcrt_common.a(lib_a-svfprintf.o) (_wcsrtombs_r)
/home/berkeley/nacl_sdk/pepper_42/toolchain/linux_x86_newlib/bin/../lib/gcc/x86_64-nacl/4.4.3/../../../../x86_64-nacl/lib/../lib32/libcrt_common.a(lib_a-wctomb_r.o)
                              /home/berkeley/nacl_sdk/pepper_42/toolchain/linux_x86_newlib/bin/../lib/gcc/x86_64-nacl/4.4.3/../../../../x86_64-nacl/lib/../lib32/libcrt_common.a(lib_a-wcrtomb.o) (__wctomb)
/home/berkeley/nacl_sdk/pepper_42/toolchain/linux_x86_newlib/bin/../lib/gcc/x86_64-nacl/4.4.3/../../../../x86_64-nacl/lib/../lib32/libcrt_common.a(lib_a-wsetup.o)
                              /home/berkeley/nacl_sdk/pepper_42/toolchain/linux_x86_newlib/bin/../lib/gcc/x86_64-nacl/4.4.3/../../../../x86_64-nacl/lib/../lib32/libcrt_common.a(lib_a-fvwrite.o) (__swsetup_r)
/home/berkeley/nacl_sdk/pepper_42/toolchain/linux_x86_newlib/bin/../lib/gcc/x86_64-nacl/4.4.3/../../../../x86_64-nacl/lib/../lib32/libcrt_common.a(lib_a-__atexit.o)
                              /home/berkeley/nacl_sdk/pepper_42/toolchain/linux_x86_newlib/bin/../lib/gcc/x86_64-nacl/4.4.3/../../../../x86_64-nacl/lib/../lib32/libcrt_common.a(lib_a-atexit.o) (__register_exitproc)
/home/berkeley/nacl_sdk/pepper_42/toolchain/linux_x86_newlib/bin/../lib/gcc/x86_64-nacl/4.4.3/../../../../x86_64-nacl/lib/../lib32/libcrt_common.a(lib_a-__call_atexit.o)
                              /home/berkeley/nacl_sdk/pepper_42/toolchain/linux_x86_newlib/bin/../lib/gcc/x86_64-nacl/4.4.3/../../../../x86_64-nacl/lib/../lib32/libcrt_common.a(lib_a-exit.o) (__call_exitprocs)
/home/berkeley/nacl_sdk/pepper_42/toolchain/linux_x86_newlib/bin/../lib/gcc/x86_64-nacl/4.4.3/../../../../x86_64-nacl/lib/../lib32/libcrt_common.a(lib_a-dtoa.o)
                              /home/berkeley/nacl_sdk/pepper_42/toolchain/linux_x86_newlib/bin/../lib/gcc/x86_64-nacl/4.4.3/../../../../x86_64-nacl/lib/../lib32/libcrt_common.a(lib_a-svfprintf.o) (_dtoa_r)
/home/berkeley/nacl_sdk/pepper_42/toolchain/linux_x86_newlib/bin/../lib/gcc/x86_64-nacl/4.4.3/../../../../x86_64-nacl/lib/../lib32/libcrt_common.a(lib_a-envlock.o)
                              /home/berkeley/nacl_sdk/pepper_42/toolchain/linux_x86_newlib/bin/../lib/gcc/x86_64-nacl/4.4.3/../../../../x86_64-nacl/lib/../lib32/libcrt_common.a(lib_a-getenv_r.o) (__env_unlock)
/home/berkeley/nacl_sdk/pepper_42/toolchain/linux_x86_newlib/bin/../lib/gcc/x86_64-nacl/4.4.3/../../../../x86_64-nacl/lib/../lib32/libcrt_common.a(lib_a-fflush.o)
                              /home/berkeley/nacl_sdk/pepper_42/toolchain/linux_x86_newlib/bin/../lib/gcc/x86_64-nacl/4.4.3/../../../../x86_64-nacl/lib/../lib32/libcrt_common.a(lib_a-fvwrite.o) (_fflush_r)
/home/berkeley/nacl_sdk/pepper_42/toolchain/linux_x86_newlib/bin/../lib/gcc/x86_64-nacl/4.4.3/../../../../x86_64-nacl/lib/../lib32/libcrt_common.a(lib_a-findfp.o)
                              /home/berkeley/nacl_sdk/pepper_42/toolchain/linux_x86_newlib/bin/../lib/gcc/x86_64-nacl/4.4.3/../../../../x86_64-nacl/lib/../lib32/libcrt_common.a(lib_a-fputc.o) (__sinit)
/home/berkeley/nacl_sdk/pepper_42/toolchain/linux_x86_newlib/bin/../lib/gcc/x86_64-nacl/4.4.3/../../../../x86_64-nacl/lib/../lib32/libcrt_common.a(lib_a-fwalk.o)
                              /home/berkeley/nacl_sdk/pepper_42/toolchain/linux_x86_newlib/bin/../lib/gcc/x86_64-nacl/4.4.3/../../../../x86_64-nacl/lib/../lib32/libcrt_common.a(lib_a-fflush.o) (_fwalk_reent)
/home/berkeley/nacl_sdk/pepper_42/toolchain/linux_x86_newlib/bin/../lib/gcc/x86_64-nacl/4.4.3/../../../../x86_64-nacl/lib/../lib32/libcrt_common.a(lib_a-locale.o)
                              /home/berkeley/nacl_sdk/pepper_42/toolchain/linux_x86_newlib/bin/../lib/gcc/x86_64-nacl/4.4.3/../../../../x86_64-nacl/lib/../lib32/libcrt_common.a(lib_a-svfprintf.o) (__locale_charset)
/home/berkeley/nacl_sdk/pepper_42/toolchain/linux_x86_newlib/bin/../lib/gcc/x86_64-nacl/4.4.3/../../../../x86_64-nacl/lib/../lib32/libcrt_common.a(lib_a-makebuf.o)
                              /home/berkeley/nacl_sdk/pepper_42/toolchain/linux_x86_newlib/bin/../lib/gcc/x86_64-nacl/4.4.3/../../../../x86_64-nacl/lib/../lib32/libcrt_common.a(lib_a-wsetup.o) (__smakebuf_r)
/home/berkeley/nacl_sdk/pepper_42/toolchain/linux_x86_newlib/bin/../lib/gcc/x86_64-nacl/4.4.3/../../../../x86_64-nacl/lib/../lib32/libcrt_common.a(lib_a-mbtowc_r.o)
                              /home/berkeley/nacl_sdk/pepper_42/toolchain/linux_x86_newlib/bin/../lib/gcc/x86_64-nacl/4.4.3/../../../../x86_64-nacl/lib/../lib32/libcrt_common.a(lib_a-locale.o) (__ascii_mbtowc)
/home/berkeley/nacl_sdk/pepper_42/toolchain/linux_x86_newlib/bin/../lib/gcc/x86_64-nacl/4.4.3/../../../../x86_64-nacl/lib/../lib32/libcrt_common.a(lib_a-mprec.o)
                              /home/berkeley/nacl_sdk/pepper_42/toolchain/linux_x86_newlib/bin/../lib/gcc/x86_64-nacl/4.4.3/../../../../x86_64-nacl/lib/../lib32/libcrt_common.a(lib_a-dtoa.o) (_Bfree)
/home/berkeley/nacl_sdk/pepper_42/toolchain/linux_x86_newlib/bin/../lib/gcc/x86_64-nacl/4.4.3/../../../../x86_64-nacl/lib/../lib32/libcrt_common.a(lib_a-s_fpclassify.o)
                              /home/berkeley/nacl_sdk/pepper_42/toolchain/linux_x86_newlib/bin/../lib/gcc/x86_64-nacl/4.4.3/../../../../x86_64-nacl/lib/../lib32/libcrt_common.a(lib_a-svfprintf.o) (__fpclassifyd)
/home/berkeley/nacl_sdk/pepper_42/toolchain/linux_x86_newlib/bin/../lib/gcc/x86_64-nacl/4.4.3/../../../../x86_64-nacl/lib/../lib32/libcrt_common.a(lib_a-s_frexp.o)
                              /home/berkeley/nacl_sdk/pepper_42/toolchain/linux_x86_newlib/bin/../lib/gcc/x86_64-nacl/4.4.3/../../../../x86_64-nacl/lib/../lib32/libcrt_common.a(lib_a-svfprintf.o) (frexp)
/home/berkeley/nacl_sdk/pepper_42/toolchain/linux_x86_newlib/bin/../lib/gcc/x86_64-nacl/4.4.3/../../../../x86_64-nacl/lib/../lib32/libcrt_common.a(lib_a-stdio.o)
                              /home/berkeley/nacl_sdk/pepper_42/toolchain/linux_x86_newlib/bin/../lib/gcc/x86_64-nacl/4.4.3/../../../../x86_64-nacl/lib/../lib32/libcrt_common.a(lib_a-findfp.o) (__sclose)
/home/berkeley/nacl_sdk/pepper_42/toolchain/linux_x86_newlib/bin/../lib/gcc/x86_64-nacl/4.4.3/../../../../x86_64-nacl/lib/../lib32/libcrt_common.a(lib_a-strcasecmp.o)
                              /home/berkeley/nacl_sdk/pepper_42/toolchain/linux_x86_newlib/bin/../lib/gcc/x86_64-nacl/4.4.3/../../../../x86_64-nacl/lib/../lib32/libcrt_common.a(lib_a-locale.o) (strcasecmp)
/home/berkeley/nacl_sdk/pepper_42/toolchain/linux_x86_newlib/bin/../lib/gcc/x86_64-nacl/4.4.3/../../../../x86_64-nacl/lib/../lib32/libcrt_common.a(lib_a-strcat.o)
                              /home/berkeley/nacl_sdk/pepper_42/toolchain/linux_x86_newlib/bin/../lib/gcc/x86_64-nacl/4.4.3/../../../../x86_64-nacl/lib/../lib32/libcrt_common.a(lib_a-locale.o) (strcat)
/home/berkeley/nacl_sdk/pepper_42/toolchain/linux_x86_newlib/bin/../lib/gcc/x86_64-nacl/4.4.3/../../../../x86_64-nacl/lib/../lib32/libcrt_common.a(lib_a-strchr.o)
                              /home/berkeley/nacl_sdk/pepper_42/toolchain/linux_x86_newlib/bin/../lib/gcc/x86_64-nacl/4.4.3/../../../../x86_64-nacl/lib/../lib32/libcrt_common.a(lib_a-locale.o) (strchr)
/home/berkeley/nacl_sdk/pepper_42/toolchain/linux_x86_newlib/bin/../lib/gcc/x86_64-nacl/4.4.3/../../../../x86_64-nacl/lib/../lib32/libcrt_common.a(lib_a-strcmp.o)
                              /home/berkeley/nacl_sdk/pepper_42/toolchain/linux_x86_newlib/bin/../lib/gcc/x86_64-nacl/4.4.3/../../../../x86_64-nacl/lib/../lib32/libcrt_common.a(lib_a-locale.o) (strcmp)
/home/berkeley/nacl_sdk/pepper_42/toolchain/linux_x86_newlib/bin/../lib/gcc/x86_64-nacl/4.4.3/../../../../x86_64-nacl/lib/../lib32/libcrt_common.a(lib_a-strlcpy.o)
                              /home/berkeley/nacl_sdk/pepper_42/toolchain/linux_x86_newlib/bin/../lib/gcc/x86_64-nacl/4.4.3/../../../../x86_64-nacl/lib/../lib32/libcrt_common.a(lib_a-locale.o) (strlcpy)
/home/berkeley/nacl_sdk/pepper_42/toolchain/linux_x86_newlib/bin/../lib/gcc/x86_64-nacl/4.4.3/../../../../x86_64-nacl/lib/../lib32/libcrt_common.a(lib_a-strncasecmp.o)
                              /home/berkeley/nacl_sdk/pepper_42/toolchain/linux_x86_newlib/bin/../lib/gcc/x86_64-nacl/4.4.3/../../../../x86_64-nacl/lib/../lib32/libcrt_common.a(lib_a-locale.o) (strncasecmp)
/home/berkeley/nacl_sdk/pepper_42/toolchain/linux_x86_newlib/bin/../lib/gcc/x86_64-nacl/4.4.3/../../../../x86_64-nacl/lib/../lib32/libcrt_common.a(lib_a-strncpy.o)
                              /home/berkeley/nacl_sdk/pepper_42/toolchain/linux_x86_newlib/bin/../lib/gcc/x86_64-nacl/4.4.3/../../../../x86_64-nacl/lib/../lib32/libcrt_common.a(lib_a-svfprintf.o) (strncpy)
/home/berkeley/nacl_sdk/pepper_42/toolchain/linux_x86_newlib/bin/../lib/gcc/x86_64-nacl/4.4.3/../../../../x86_64-nacl/lib/../lib32/libcrt_common.a(lib_a-strtol.o)
                              /home/berkeley/nacl_sdk/pepper_42/toolchain/linux_x86_newlib/bin/../lib/gcc/x86_64-nacl/4.4.3/../../../../x86_64-nacl/lib/../lib32/libcrt_common.a(lib_a-locale.o) (_strtol_r)
/home/berkeley/nacl_sdk/pepper_42/toolchain/linux_x86_newlib/bin/../lib/gcc/x86_64-nacl/4.4.3/../../../../x86_64-nacl/lib/../lib32/libcrt_common.a(lib_a-svfiprintf.o)
                              /home/berkeley/nacl_sdk/pepper_42/toolchain/linux_x86_newlib/bin/../lib/gcc/x86_64-nacl/4.4.3/../../../../x86_64-nacl/lib/../lib32/libcrt_common.a(lib_a-svfprintf.o) (__ssprint_r)
/home/berkeley/nacl_sdk/pepper_42/toolchain/linux_x86_newlib/bin/../lib/gcc/x86_64-nacl/4.4.3/../../../../x86_64-nacl/lib/../lib32/libcrt_common.a(lib_a-vfiprintf.o)
                              /home/berkeley/nacl_sdk/pepper_42/toolchain/linux_x86_newlib/bin/../lib/gcc/x86_64-nacl/4.4.3/../../../../x86_64-nacl/lib/../lib32/libcrt_common.a(lib_a-vfprintf.o) (__sprint_r)
/home/berkeley/nacl_sdk/pepper_42/toolchain/linux_x86_newlib/bin/../lib/gcc/x86_64-nacl/4.4.3/../../../../x86_64-nacl/lib/../lib32/libcrt_common.a(lib_a-wcsnrtombs.o)
                              /home/berkeley/nacl_sdk/pepper_42/toolchain/linux_x86_newlib/bin/../lib/gcc/x86_64-nacl/4.4.3/../../../../x86_64-nacl/lib/../lib32/libcrt_common.a(lib_a-wcsrtombs.o) (_wcsnrtombs_r)
/home/berkeley/nacl_sdk/pepper_42/toolchain/linux_x86_newlib/bin/../lib/gcc/x86_64-nacl/4.4.3/../../../../x86_64-nacl/lib/../lib32/libcrt_common.a(lib_a-ctype_.o)
                              /home/berkeley/nacl_sdk/pepper_42/toolchain/linux_x86_newlib/bin/../lib/gcc/x86_64-nacl/4.4.3/../../../../x86_64-nacl/lib/../lib32/libcrt_common.a(lib_a-locale.o) (__set_ctype)
/home/berkeley/nacl_sdk/pepper_42/toolchain/linux_x86_newlib/bin/../lib/gcc/x86_64-nacl/4.4.3/../../../../x86_64-nacl/lib/../lib32/libcrt_common.a(lib_a-fclose.o)
                              /home/berkeley/nacl_sdk/pepper_42/toolchain/linux_x86_newlib/bin/../lib/gcc/x86_64-nacl/4.4.3/../../../../x86_64-nacl/lib/../lib32/libcrt_common.a(lib_a-findfp.o) (_fclose_r)
/home/berkeley/nacl_sdk/pepper_42/toolchain/linux_x86_newlib/bin/../lib/gcc/x86_64-nacl/4.4.3/../../../../x86_64-nacl/lib/../lib32/libcrt_common.a(lib_a-fputwc.o)
                              /home/berkeley/nacl_sdk/pepper_42/toolchain/linux_x86_newlib/bin/../lib/gcc/x86_64-nacl/4.4.3/../../../../x86_64-nacl/lib/../lib32/libcrt_common.a(lib_a-vfiprintf.o) (_fputwc_r)
/home/berkeley/nacl_sdk/pepper_42/toolchain/linux_x86_newlib/bin/../lib/gcc/x86_64-nacl/4.4.3/../../../../x86_64-nacl/lib/../lib32/libnacl.a(close_e9b92fbd.o)
                              /home/berkeley/nacl_sdk/pepper_42/toolchain/linux_x86_newlib/bin/../lib/gcc/x86_64-nacl/4.4.3/../../../../x86_64-nacl/lib/../lib32/libcrt_common.a(lib_a-stdio.o) (close)
/home/berkeley/nacl_sdk/pepper_42/toolchain/linux_x86_newlib/bin/../lib/gcc/x86_64-nacl/4.4.3/../../../../x86_64-nacl/lib/../lib32/libnacl.a(isatty_02f56e94.o)
                              /home/berkeley/nacl_sdk/pepper_42/toolchain/linux_x86_newlib/bin/../lib/gcc/x86_64-nacl/4.4.3/../../../../x86_64-nacl/lib/../lib32/libcrt_common.a(lib_a-makebuf.o) (isatty)
/home/berkeley/nacl_sdk/pepper_42/toolchain/linux_x86_newlib/bin/../lib/gcc/x86_64-nacl/4.4.3/../../../../x86_64-nacl/lib/../lib32/libnacl.a(nacl_irt_fdio_b571b5e7.o)
                              /home/berkeley/nacl_sdk/pepper_42/toolchain/linux_x86_newlib/bin/../lib/gcc/x86_64-nacl/4.4.3/../../../../x86_64-nacl/lib/../lib32/libnacl.a(isatty_02f56e94.o) (__libnacl_irt_dev_fdio_init)
/home/berkeley/nacl_sdk/pepper_42/toolchain/linux_x86_newlib/bin/../lib/gcc/x86_64-nacl/4.4.3/../../../../x86_64-nacl/lib/../lib32/libnacl.a(fstat_0540ff63.o)
                              /home/berkeley/nacl_sdk/pepper_42/toolchain/linux_x86_newlib/bin/../lib/gcc/x86_64-nacl/4.4.3/../../../../x86_64-nacl/lib/../lib32/libcrt_common.a(lib_a-makebuf.o) (fstat)
/home/berkeley/nacl_sdk/pepper_42/toolchain/linux_x86_newlib/bin/../lib/gcc/x86_64-nacl/4.4.3/../../../../x86_64-nacl/lib/../lib32/libnacl.a(lseek_64d2d05c.o)
                              /home/berkeley/nacl_sdk/pepper_42/toolchain/linux_x86_newlib/bin/../lib/gcc/x86_64-nacl/4.4.3/../../../../x86_64-nacl/lib/../lib32/libcrt_common.a(lib_a-stdio.o) (lseek)
/home/berkeley/nacl_sdk/pepper_42/toolchain/linux_x86_newlib/bin/../lib/gcc/x86_64-nacl/4.4.3/../../../../x86_64-nacl/lib/../lib32/libnacl.a(read_df872e10.o)
                              /home/berkeley/nacl_sdk/pepper_42/toolchain/linux_x86_newlib/bin/../lib/gcc/x86_64-nacl/4.4.3/../../../../x86_64-nacl/lib/../lib32/libcrt_common.a(lib_a-stdio.o) (read)
/home/berkeley/nacl_sdk/pepper_42/toolchain/linux_x86_newlib/bin/../lib/gcc/x86_64-nacl/4.4.3/32/libgcc.a(_udivdi3.o)
                              /home/berkeley/nacl_sdk/pepper_42/toolchain/linux_x86_newlib/bin/../lib/gcc/x86_64-nacl/4.4.3/../../../../x86_64-nacl/lib/../lib32/libcrt_common.a(lib_a-svfprintf.o) (__udivdi3)
/home/berkeley/nacl_sdk/pepper_42/toolchain/linux_x86_newlib/bin/../lib/gcc/x86_64-nacl/4.4.3/32/libgcc.a(_umoddi3.o)
                              /home/berkeley/nacl_sdk/pepper_42/toolchain/linux_x86_newlib/bin/../lib/gcc/x86_64-nacl/4.4.3/../../../../x86_64-nacl/lib/../lib32/libcrt_common.a(lib_a-svfprintf.o) (__umoddi3)

Allocating common symbols
Common symbol       size              file

__nacl_irt_query    0x4               /home/berkeley/nacl_sdk/pepper_42/toolchain/linux_x86_newlib/bin/../lib/gcc/x86_64-nacl/4.4.3/../../../../x86_64-nacl/lib/../lib32/libnacl.a(nacl_irt_6de1d53f.o)
__libnacl_irt_dev_filename
                    0x40              /home/berkeley/nacl_sdk/pepper_42/toolchain/linux_x86_newlib/bin/../lib/gcc/x86_64-nacl/4.4.3/../../../../x86_64-nacl/lib/../lib32/libnacl.a(nacl_irt_6de1d53f.o)
__nc_thread_initialized
                    0x4               /home/berkeley/nacl_sdk/pepper_42/toolchain/linux_x86_newlib/bin/../lib/gcc/x86_64-nacl/4.4.3/../../../../x86_64-nacl/lib/../lib32/libpthread.a(nc_thread_7e478b15.o)
__libnacl_irt_clock
                    0x8               /home/berkeley/nacl_sdk/pepper_42/toolchain/linux_x86_newlib/bin/../lib/gcc/x86_64-nacl/4.4.3/../../../../x86_64-nacl/lib/../lib32/libnacl.a(nacl_irt_6de1d53f.o)
__nc_thread_management_lock
                    0x14              /home/berkeley/nacl_sdk/pepper_42/toolchain/linux_x86_newlib/bin/../lib/gcc/x86_64-nacl/4.4.3/../../../../x86_64-nacl/lib/../lib32/libpthread.a(nc_thread_7e478b15.o)
__libnacl_irt_futex
                    0x8               /home/berkeley/nacl_sdk/pepper_42/toolchain/linux_x86_newlib/bin/../lib/gcc/x86_64-nacl/4.4.3/../../../../x86_64-nacl/lib/../lib32/libpthread.a(nc_init_irt_d3daafc0.o)
__nc_memory_block_counter
                    0x8               /home/berkeley/nacl_sdk/pepper_42/toolchain/linux_x86_newlib/bin/../lib/gcc/x86_64-nacl/4.4.3/../../../../x86_64-nacl/lib/../lib32/libpthread.a(nc_thread_7e478b15.o)
__nacl_initial_thread_stack_end
                    0x4               /home/berkeley/nacl_sdk/pepper_42/toolchain/linux_x86_newlib/bin/../lib/gcc/x86_64-nacl/4.4.3/../../../../x86_64-nacl/lib/../lib32/libnacl.a(start_fa9ef7de.o)
__libnacl_irt_memory
                    0xc               /home/berkeley/nacl_sdk/pepper_42/toolchain/linux_x86_newlib/bin/../lib/gcc/x86_64-nacl/4.4.3/../../../../x86_64-nacl/lib/../lib32/libnacl.a(nacl_irt_6de1d53f.o)
__nc_initial_thread_id
                    0x4               /home/berkeley/nacl_sdk/pepper_42/toolchain/linux_x86_newlib/bin/../lib/gcc/x86_64-nacl/4.4.3/../../../../x86_64-nacl/lib/../lib32/libpthread.a(nc_thread_7e478b15.o)
__libnacl_irt_dev_fdio
                    0x38              /home/berkeley/nacl_sdk/pepper_42/toolchain/linux_x86_newlib/bin/../lib/gcc/x86_64-nacl/4.4.3/../../../../x86_64-nacl/lib/../lib32/libnacl.a(nacl_irt_6de1d53f.o)
__libnacl_irt_basic
                    0x18              /home/berkeley/nacl_sdk/pepper_42/toolchain/linux_x86_newlib/bin/../lib/gcc/x86_64-nacl/4.4.3/../../../../x86_64-nacl/lib/../lib32/libnacl.a(nacl_irt_6de1d53f.o)
__nc_thread_memory_blocks
                    0x10              /home/berkeley/nacl_sdk/pepper_42/toolchain/linux_x86_newlib/bin/../lib/gcc/x86_64-nacl/4.4.3/../../../../x86_64-nacl/lib/../lib32/libpthread.a(nc_thread_7e478b15.o)
__libnacl_irt_thread
                    0xc               /home/berkeley/nacl_sdk/pepper_42/toolchain/linux_x86_newlib/bin/../lib/gcc/x86_64-nacl/4.4.3/../../../../x86_64-nacl/lib/../lib32/libpthread.a(nc_thread_7e478b15.o)
__libnacl_irt_tls   0x8               /home/berkeley/nacl_sdk/pepper_42/toolchain/linux_x86_newlib/bin/../lib/gcc/x86_64-nacl/4.4.3/../../../../x86_64-nacl/lib/../lib32/libnacl.a(nacl_irt_6de1d53f.o)
__libnacl_irt_dev_getpid
                    0x4               /home/berkeley/nacl_sdk/pepper_42/toolchain/linux_x86_newlib/bin/../lib/gcc/x86_64-nacl/4.4.3/../../../../x86_64-nacl/lib/../lib32/libnacl.a(nacl_irt_6de1d53f.o)

Discarded input sections

 .note.GNU-stack
                0x0000000000000000        0x0 /home/berkeley/nacl_sdk/pepper_42/toolchain/linux_x86_newlib/bin/../lib/gcc/x86_64-nacl/4.4.3/32/crtbegin.o
 .group         0x0000000000000000        0x8 newlib/Release/popcnt_x86_32.o
 .group         0x0000000000000000        0x8 newlib/Release/popcnt_x86_32.o
 .group         0x0000000000000000        0x8 newlib/Release/popcnt_x86_32.o
 .group         0x0000000000000000        0x8 newlib/Release/popcnt_x86_32.o
 .group         0x0000000000000000        0x8 newlib/Release/popcnt_x86_32.o
 .group         0x0000000000000000        0x8 newlib/Release/popcnt_x86_32.o
 .group         0x0000000000000000        0x8 newlib/Release/popcnt_x86_32.o
 .group         0x0000000000000000        0x8 newlib/Release/popcnt_x86_32.o
 .group         0x0000000000000000        0x8 newlib/Release/popcnt_x86_32.o
 .group         0x0000000000000000        0x8 newlib/Release/popcnt_x86_32.o
 .group         0x0000000000000000        0x8 newlib/Release/popcnt_x86_32.o
 .group         0x0000000000000000        0x8 newlib/Release/popcnt_x86_32.o
 .note.GNU-stack
                0x0000000000000000        0x0 newlib/Release/popcnt_x86_32.o
 .group         0x0000000000000000        0x8 /home/berkeley/nacl_sdk/pepper_42/lib/newlib_x86_32/Release/libppapi_cpp.a(instance_x86_32.o)
 .group         0x0000000000000000        0x8 /home/berkeley/nacl_sdk/pepper_42/lib/newlib_x86_32/Release/libppapi_cpp.a(instance_x86_32.o)
 .group         0x0000000000000000        0x8 /home/berkeley/nacl_sdk/pepper_42/lib/newlib_x86_32/Release/libppapi_cpp.a(instance_x86_32.o)
 .group         0x0000000000000000        0x8 /home/berkeley/nacl_sdk/pepper_42/lib/newlib_x86_32/Release/libppapi_cpp.a(instance_x86_32.o)
 .group         0x0000000000000000        0x8 /home/berkeley/nacl_sdk/pepper_42/lib/newlib_x86_32/Release/libppapi_cpp.a(instance_x86_32.o)
 .group         0x0000000000000000        0x8 /home/berkeley/nacl_sdk/pepper_42/lib/newlib_x86_32/Release/libppapi_cpp.a(instance_x86_32.o)
 .group         0x0000000000000000        0x8 /home/berkeley/nacl_sdk/pepper_42/lib/newlib_x86_32/Release/libppapi_cpp.a(instance_x86_32.o)
 .note.GNU-stack
                0x0000000000000000        0x0 /home/berkeley/nacl_sdk/pepper_42/lib/newlib_x86_32/Release/libppapi_cpp.a(instance_x86_32.o)
 .group         0x0000000000000000        0x8 /home/berkeley/nacl_sdk/pepper_42/lib/newlib_x86_32/Release/libppapi_cpp.a(module_x86_32.o)
 .group         0x0000000000000000        0x8 /home/berkeley/nacl_sdk/pepper_42/lib/newlib_x86_32/Release/libppapi_cpp.a(module_x86_32.o)
 .group         0x0000000000000000        0x8 /home/berkeley/nacl_sdk/pepper_42/lib/newlib_x86_32/Release/libppapi_cpp.a(module_x86_32.o)
 .group         0x0000000000000000        0x8 /home/berkeley/nacl_sdk/pepper_42/lib/newlib_x86_32/Release/libppapi_cpp.a(module_x86_32.o)
 .group         0x0000000000000000        0x8 /home/berkeley/nacl_sdk/pepper_42/lib/newlib_x86_32/Release/libppapi_cpp.a(module_x86_32.o)
 .group         0x0000000000000000        0x8 /home/berkeley/nacl_sdk/pepper_42/lib/newlib_x86_32/Release/libppapi_cpp.a(module_x86_32.o)
 .group         0x0000000000000000        0x8 /home/berkeley/nacl_sdk/pepper_42/lib/newlib_x86_32/Release/libppapi_cpp.a(module_x86_32.o)
 .group         0x0000000000000000        0x8 /home/berkeley/nacl_sdk/pepper_42/lib/newlib_x86_32/Release/libppapi_cpp.a(module_x86_32.o)
 .group         0x0000000000000000        0x8 /home/berkeley/nacl_sdk/pepper_42/lib/newlib_x86_32/Release/libppapi_cpp.a(module_x86_32.o)
 .group         0x0000000000000000        0x8 /home/berkeley/nacl_sdk/pepper_42/lib/newlib_x86_32/Release/libppapi_cpp.a(module_x86_32.o)
 .group         0x0000000000000000        0x8 /home/berkeley/nacl_sdk/pepper_42/lib/newlib_x86_32/Release/libppapi_cpp.a(module_x86_32.o)
 .group         0x0000000000000000        0x8 /home/berkeley/nacl_sdk/pepper_42/lib/newlib_x86_32/Release/libppapi_cpp.a(module_x86_32.o)
 .group         0x0000000000000000        0x8 /home/berkeley/nacl_sdk/pepper_42/lib/newlib_x86_32/Release/libppapi_cpp.a(module_x86_32.o)
 .group         0x0000000000000000        0x8 /home/berkeley/nacl_sdk/pepper_42/lib/newlib_x86_32/Release/libppapi_cpp.a(module_x86_32.o)
 .group         0x0000000000000000        0x8 /home/berkeley/nacl_sdk/pepper_42/lib/newlib_x86_32/Release/libppapi_cpp.a(module_x86_32.o)
 .group         0x0000000000000000        0x8 /home/berkeley/nacl_sdk/pepper_42/lib/newlib_x86_32/Release/libppapi_cpp.a(module_x86_32.o)
 .group         0x0000000000000000        0x8 /home/berkeley/nacl_sdk/pepper_42/lib/newlib_x86_32/Release/libppapi_cpp.a(module_x86_32.o)
 .group         0x0000000000000000        0x8 /home/berkeley/nacl_sdk/pepper_42/lib/newlib_x86_32/Release/libppapi_cpp.a(module_x86_32.o)
 .group         0x0000000000000000        0x8 /home/berkeley/nacl_sdk/pepper_42/lib/newlib_x86_32/Release/libppapi_cpp.a(module_x86_32.o)
 .group         0x0000000000000000        0x8 /home/berkeley/nacl_sdk/pepper_42/lib/newlib_x86_32/Release/libppapi_cpp.a(module_x86_32.o)
 .group         0x0000000000000000        0x8 /home/berkeley/nacl_sdk/pepper_42/lib/newlib_x86_32/Release/libppapi_cpp.a(module_x86_32.o)
 .note.GNU-stack
                0x0000000000000000        0x0 /home/berkeley/nacl_sdk/pepper_42/lib/newlib_x86_32/Release/libppapi_cpp.a(module_x86_32.o)
 .note.GNU-stack
                0x0000000000000000        0x0 /home/berkeley/nacl_sdk/pepper_42/lib/newlib_x86_32/Release/libppapi_cpp.a(ppp_entrypoints_x86_32.o)
 .group         0x0000000000000000        0x8 /home/berkeley/nacl_sdk/pepper_42/lib/newlib_x86_32/Release/libppapi_cpp.a(resource_x86_32.o)
 .group         0x0000000000000000        0x8 /home/berkeley/nacl_sdk/pepper_42/lib/newlib_x86_32/Release/libppapi_cpp.a(resource_x86_32.o)
 .group         0x0000000000000000        0x8 /home/berkeley/nacl_sdk/pepper_42/lib/newlib_x86_32/Release/libppapi_cpp.a(resource_x86_32.o)
 .note.GNU-stack
                0x0000000000000000        0x0 /home/berkeley/nacl_sdk/pepper_42/lib/newlib_x86_32/Release/libppapi_cpp.a(resource_x86_32.o)
 .group         0x0000000000000000        0x8 /home/berkeley/nacl_sdk/pepper_42/lib/newlib_x86_32/Release/libppapi_cpp.a(url_loader_x86_32.o)
 .group         0x0000000000000000        0x8 /home/berkeley/nacl_sdk/pepper_42/lib/newlib_x86_32/Release/libppapi_cpp.a(url_loader_x86_32.o)
 .group         0x0000000000000000        0x8 /home/berkeley/nacl_sdk/pepper_42/lib/newlib_x86_32/Release/libppapi_cpp.a(url_loader_x86_32.o)
 .group         0x0000000000000000        0x8 /home/berkeley/nacl_sdk/pepper_42/lib/newlib_x86_32/Release/libppapi_cpp.a(url_loader_x86_32.o)
 .group         0x0000000000000000        0x8 /home/berkeley/nacl_sdk/pepper_42/lib/newlib_x86_32/Release/libppapi_cpp.a(url_loader_x86_32.o)
 .group         0x0000000000000000        0x8 /home/berkeley/nacl_sdk/pepper_42/lib/newlib_x86_32/Release/libppapi_cpp.a(url_loader_x86_32.o)
 .group         0x0000000000000000        0x8 /home/berkeley/nacl_sdk/pepper_42/lib/newlib_x86_32/Release/libppapi_cpp.a(url_loader_x86_32.o)
 .group         0x0000000000000000        0x8 /home/berkeley/nacl_sdk/pepper_42/lib/newlib_x86_32/Release/libppapi_cpp.a(url_loader_x86_32.o)
 .group         0x0000000000000000        0x8 /home/berkeley/nacl_sdk/pepper_42/lib/newlib_x86_32/Release/libppapi_cpp.a(url_loader_x86_32.o)
 .group         0x0000000000000000        0x8 /home/berkeley/nacl_sdk/pepper_42/lib/newlib_x86_32/Release/libppapi_cpp.a(url_loader_x86_32.o)
 .text._ZN2pp9URLLoaderD1Ev
                0x0000000000000000       0x20 /home/berkeley/nacl_sdk/pepper_42/lib/newlib_x86_32/Release/libppapi_cpp.a(url_loader_x86_32.o)
 .text._ZN2pp9URLLoaderD0Ev
                0x0000000000000000       0x40 /home/berkeley/nacl_sdk/pepper_42/lib/newlib_x86_32/Release/libppapi_cpp.a(url_loader_x86_32.o)
 .rodata._ZTVN2pp9URLLoaderE
                0x0000000000000000       0x10 /home/berkeley/nacl_sdk/pepper_42/lib/newlib_x86_32/Release/libppapi_cpp.a(url_loader_x86_32.o)
 .rodata._ZTIN2pp9URLLoaderE
                0x0000000000000000        0xc /home/berkeley/nacl_sdk/pepper_42/lib/newlib_x86_32/Release/libppapi_cpp.a(url_loader_x86_32.o)
 .rodata._ZTSN2pp9URLLoaderE
                0x0000000000000000       0x10 /home/berkeley/nacl_sdk/pepper_42/lib/newlib_x86_32/Release/libppapi_cpp.a(url_loader_x86_32.o)
 .note.GNU-stack
                0x0000000000000000        0x0 /home/berkeley/nacl_sdk/pepper_42/lib/newlib_x86_32/Release/libppapi_cpp.a(url_loader_x86_32.o)
 .group         0x0000000000000000        0x8 /home/berkeley/nacl_sdk/pepper_42/lib/newlib_x86_32/Release/libppapi_cpp.a(url_response_info_x86_32.o)
 .group         0x0000000000000000        0x8 /home/berkeley/nacl_sdk/pepper_42/lib/newlib_x86_32/Release/libppapi_cpp.a(url_response_info_x86_32.o)
 .group         0x0000000000000000        0x8 /home/berkeley/nacl_sdk/pepper_42/lib/newlib_x86_32/Release/libppapi_cpp.a(url_response_info_x86_32.o)
 .group         0x0000000000000000        0x8 /home/berkeley/nacl_sdk/pepper_42/lib/newlib_x86_32/Release/libppapi_cpp.a(url_response_info_x86_32.o)
 .group         0x0000000000000000        0x8 /home/berkeley/nacl_sdk/pepper_42/lib/newlib_x86_32/Release/libppapi_cpp.a(url_response_info_x86_32.o)
 .group         0x0000000000000000        0x8 /home/berkeley/nacl_sdk/pepper_42/lib/newlib_x86_32/Release/libppapi_cpp.a(url_response_info_x86_32.o)
 .group         0x0000000000000000        0x8 /home/berkeley/nacl_sdk/pepper_42/lib/newlib_x86_32/Release/libppapi_cpp.a(url_response_info_x86_32.o)
 .group         0x0000000000000000        0x8 /home/berkeley/nacl_sdk/pepper_42/lib/newlib_x86_32/Release/libppapi_cpp.a(url_response_info_x86_32.o)
 .group         0x0000000000000000        0x8 /home/berkeley/nacl_sdk/pepper_42/lib/newlib_x86_32/Release/libppapi_cpp.a(url_response_info_x86_32.o)
 .group         0x0000000000000000        0x8 /home/berkeley/nacl_sdk/pepper_42/lib/newlib_x86_32/Release/libppapi_cpp.a(url_response_info_x86_32.o)
 .text._ZN2pp15URLResponseInfoD1Ev
                0x0000000000000000       0x20 /home/berkeley/nacl_sdk/pepper_42/lib/newlib_x86_32/Release/libppapi_cpp.a(url_response_info_x86_32.o)
 .text._ZN2pp15URLResponseInfoD0Ev
                0x0000000000000000       0x40 /home/berkeley/nacl_sdk/pepper_42/lib/newlib_x86_32/Release/libppapi_cpp.a(url_response_info_x86_32.o)
 .rodata._ZTVN2pp15URLResponseInfoE
                0x0000000000000000       0x10 /home/berkeley/nacl_sdk/pepper_42/lib/newlib_x86_32/Release/libppapi_cpp.a(url_response_info_x86_32.o)
 .rodata._ZTIN2pp15URLResponseInfoE
                0x0000000000000000        0xc /home/berkeley/nacl_sdk/pepper_42/lib/newlib_x86_32/Release/libppapi_cpp.a(url_response_info_x86_32.o)
 .rodata._ZTSN2pp15URLResponseInfoE
                0x0000000000000000       0x17 /home/berkeley/nacl_sdk/pepper_42/lib/newlib_x86_32/Release/libppapi_cpp.a(url_response_info_x86_32.o)
 .note.GNU-stack
                0x0000000000000000        0x0 /home/berkeley/nacl_sdk/pepper_42/lib/newlib_x86_32/Release/libppapi_cpp.a(url_response_info_x86_32.o)
 .group         0x0000000000000000        0x8 /home/berkeley/nacl_sdk/pepper_42/lib/newlib_x86_32/Release/libppapi_cpp.a(var_x86_32.o)
 .group         0x0000000000000000        0x8 /home/berkeley/nacl_sdk/pepper_42/lib/newlib_x86_32/Release/libppapi_cpp.a(var_x86_32.o)
 .group         0x0000000000000000        0x8 /home/berkeley/nacl_sdk/pepper_42/lib/newlib_x86_32/Release/libppapi_cpp.a(var_x86_32.o)
 .note.GNU-stack
                0x0000000000000000        0x0 /home/berkeley/nacl_sdk/pepper_42/lib/newlib_x86_32/Release/libppapi_cpp.a(var_x86_32.o)
 .group         0x0000000000000000        0x8 /home/berkeley/nacl_sdk/pepper_42/lib/newlib_x86_32/Release/libppapi_cpp.a(view_x86_32.o)
 .group         0x0000000000000000        0x8 /home/berkeley/nacl_sdk/pepper_42/lib/newlib_x86_32/Release/libppapi_cpp.a(view_x86_32.o)
 .group         0x0000000000000000        0x8 /home/berkeley/nacl_sdk/pepper_42/lib/newlib_x86_32/Release/libppapi_cpp.a(view_x86_32.o)
 .group         0x0000000000000000        0x8 /home/berkeley/nacl_sdk/pepper_42/lib/newlib_x86_32/Release/libppapi_cpp.a(view_x86_32.o)
 .group         0x0000000000000000        0x8 /home/berkeley/nacl_sdk/pepper_42/lib/newlib_x86_32/Release/libppapi_cpp.a(view_x86_32.o)
 .text._ZN2pp4ViewD1Ev
                0x0000000000000000       0x20 /home/berkeley/nacl_sdk/pepper_42/lib/newlib_x86_32/Release/libppapi_cpp.a(view_x86_32.o)
 .text._ZN2pp4ViewD0Ev
                0x0000000000000000       0x40 /home/berkeley/nacl_sdk/pepper_42/lib/newlib_x86_32/Release/libppapi_cpp.a(view_x86_32.o)
 .rodata._ZTVN2pp4ViewE
                0x0000000000000000       0x10 /home/berkeley/nacl_sdk/pepper_42/lib/newlib_x86_32/Release/libppapi_cpp.a(view_x86_32.o)
 .rodata._ZTIN2pp4ViewE
                0x0000000000000000        0xc /home/berkeley/nacl_sdk/pepper_42/lib/newlib_x86_32/Release/libppapi_cpp.a(view_x86_32.o)
 .rodata._ZTSN2pp4ViewE
                0x0000000000000000        0xb /home/berkeley/nacl_sdk/pepper_42/lib/newlib_x86_32/Release/libppapi_cpp.a(view_x86_32.o)
 .note.GNU-stack
                0x0000000000000000        0x0 /home/berkeley/nacl_sdk/pepper_42/lib/newlib_x86_32/Release/libppapi_cpp.a(view_x86_32.o)
 .note.GNU-stack
                0x0000000000000000        0x0 /home/berkeley/nacl_sdk/pepper_42/lib/newlib_x86_32/Release/libppapi_cpp.a(core_x86_32.o)
 .group         0x0000000000000000        0x8 /home/berkeley/nacl_sdk/pepper_42/lib/newlib_x86_32/Release/libppapi_cpp.a(file_ref_x86_32.o)
 .group         0x0000000000000000        0x8 /home/berkeley/nacl_sdk/pepper_42/lib/newlib_x86_32/Release/libppapi_cpp.a(file_ref_x86_32.o)
 .group         0x0000000000000000        0x8 /home/berkeley/nacl_sdk/pepper_42/lib/newlib_x86_32/Release/libppapi_cpp.a(file_ref_x86_32.o)
 .group         0x0000000000000000        0x8 /home/berkeley/nacl_sdk/pepper_42/lib/newlib_x86_32/Release/libppapi_cpp.a(file_ref_x86_32.o)
 .group         0x0000000000000000        0x8 /home/berkeley/nacl_sdk/pepper_42/lib/newlib_x86_32/Release/libppapi_cpp.a(file_ref_x86_32.o)
 .group         0x0000000000000000        0x8 /home/berkeley/nacl_sdk/pepper_42/lib/newlib_x86_32/Release/libppapi_cpp.a(file_ref_x86_32.o)
 .text._ZN2pp7FileRefD1Ev
                0x0000000000000000       0x20 /home/berkeley/nacl_sdk/pepper_42/lib/newlib_x86_32/Release/libppapi_cpp.a(file_ref_x86_32.o)
 .text._ZN2pp7FileRefD0Ev
                0x0000000000000000       0x40 /home/berkeley/nacl_sdk/pepper_42/lib/newlib_x86_32/Release/libppapi_cpp.a(file_ref_x86_32.o)
 .rodata._ZTVN2pp7FileRefE
                0x0000000000000000       0x10 /home/berkeley/nacl_sdk/pepper_42/lib/newlib_x86_32/Release/libppapi_cpp.a(file_ref_x86_32.o)
 .rodata._ZTIN2pp7FileRefE
                0x0000000000000000        0xc /home/berkeley/nacl_sdk/pepper_42/lib/newlib_x86_32/Release/libppapi_cpp.a(file_ref_x86_32.o)
 .rodata._ZTSN2pp7FileRefE
                0x0000000000000000        0xe /home/berkeley/nacl_sdk/pepper_42/lib/newlib_x86_32/Release/libppapi_cpp.a(file_ref_x86_32.o)
 .note.GNU-stack
                0x0000000000000000        0x0 /home/berkeley/nacl_sdk/pepper_42/lib/newlib_x86_32/Release/libppapi_cpp.a(file_ref_x86_32.o)
 .group         0x0000000000000000        0x8 /home/berkeley/nacl_sdk/pepper_42/lib/newlib_x86_32/Release/libppapi_cpp.a(input_event_x86_32.o)
 .group         0x0000000000000000        0x8 /home/berkeley/nacl_sdk/pepper_42/lib/newlib_x86_32/Release/libppapi_cpp.a(input_event_x86_32.o)
 .group         0x0000000000000000        0x8 /home/berkeley/nacl_sdk/pepper_42/lib/newlib_x86_32/Release/libppapi_cpp.a(input_event_x86_32.o)
 .group         0x0000000000000000        0x8 /home/berkeley/nacl_sdk/pepper_42/lib/newlib_x86_32/Release/libppapi_cpp.a(input_event_x86_32.o)
 .group         0x0000000000000000        0x8 /home/berkeley/nacl_sdk/pepper_42/lib/newlib_x86_32/Release/libppapi_cpp.a(input_event_x86_32.o)
 .group         0x0000000000000000        0x8 /home/berkeley/nacl_sdk/pepper_42/lib/newlib_x86_32/Release/libppapi_cpp.a(input_event_x86_32.o)
 .group         0x0000000000000000        0x8 /home/berkeley/nacl_sdk/pepper_42/lib/newlib_x86_32/Release/libppapi_cpp.a(input_event_x86_32.o)
 .group         0x0000000000000000        0x8 /home/berkeley/nacl_sdk/pepper_42/lib/newlib_x86_32/Release/libppapi_cpp.a(input_event_x86_32.o)
 .group         0x0000000000000000        0x8 /home/berkeley/nacl_sdk/pepper_42/lib/newlib_x86_32/Release/libppapi_cpp.a(input_event_x86_32.o)
 .group         0x0000000000000000        0x8 /home/berkeley/nacl_sdk/pepper_42/lib/newlib_x86_32/Release/libppapi_cpp.a(input_event_x86_32.o)
 .group         0x0000000000000000        0x8 /home/berkeley/nacl_sdk/pepper_42/lib/newlib_x86_32/Release/libppapi_cpp.a(input_event_x86_32.o)
 .group         0x0000000000000000        0x8 /home/berkeley/nacl_sdk/pepper_42/lib/newlib_x86_32/Release/libppapi_cpp.a(input_event_x86_32.o)
 .group         0x0000000000000000        0x8 /home/berkeley/nacl_sdk/pepper_42/lib/newlib_x86_32/Release/libppapi_cpp.a(input_event_x86_32.o)
 .group         0x0000000000000000        0x8 /home/berkeley/nacl_sdk/pepper_42/lib/newlib_x86_32/Release/libppapi_cpp.a(input_event_x86_32.o)
 .group         0x0000000000000000        0x8 /home/berkeley/nacl_sdk/pepper_42/lib/newlib_x86_32/Release/libppapi_cpp.a(input_event_x86_32.o)
 .group         0x0000000000000000        0x8 /home/berkeley/nacl_sdk/pepper_42/lib/newlib_x86_32/Release/libppapi_cpp.a(input_event_x86_32.o)
 .group         0x0000000000000000        0x8 /home/berkeley/nacl_sdk/pepper_42/lib/newlib_x86_32/Release/libppapi_cpp.a(input_event_x86_32.o)
 .group         0x0000000000000000        0x8 /home/berkeley/nacl_sdk/pepper_42/lib/newlib_x86_32/Release/libppapi_cpp.a(input_event_x86_32.o)
 .group         0x0000000000000000        0x8 /home/berkeley/nacl_sdk/pepper_42/lib/newlib_x86_32/Release/libppapi_cpp.a(input_event_x86_32.o)
 .group         0x0000000000000000        0x8 /home/berkeley/nacl_sdk/pepper_42/lib/newlib_x86_32/Release/libppapi_cpp.a(input_event_x86_32.o)
 .group         0x0000000000000000        0x8 /home/berkeley/nacl_sdk/pepper_42/lib/newlib_x86_32/Release/libppapi_cpp.a(input_event_x86_32.o)
 .group         0x0000000000000000        0x8 /home/berkeley/nacl_sdk/pepper_42/lib/newlib_x86_32/Release/libppapi_cpp.a(input_event_x86_32.o)
 .group         0x0000000000000000        0x8 /home/berkeley/nacl_sdk/pepper_42/lib/newlib_x86_32/Release/libppapi_cpp.a(input_event_x86_32.o)
 .group         0x0000000000000000        0x8 /home/berkeley/nacl_sdk/pepper_42/lib/newlib_x86_32/Release/libppapi_cpp.a(input_event_x86_32.o)
 .group         0x0000000000000000        0x8 /home/berkeley/nacl_sdk/pepper_42/lib/newlib_x86_32/Release/libppapi_cpp.a(input_event_x86_32.o)
 .group         0x0000000000000000        0x8 /home/berkeley/nacl_sdk/pepper_42/lib/newlib_x86_32/Release/libppapi_cpp.a(input_event_x86_32.o)
 .group         0x0000000000000000        0x8 /home/berkeley/nacl_sdk/pepper_42/lib/newlib_x86_32/Release/libppapi_cpp.a(input_event_x86_32.o)
 .group         0x0000000000000000        0x8 /home/berkeley/nacl_sdk/pepper_42/lib/newlib_x86_32/Release/libppapi_cpp.a(input_event_x86_32.o)
 .note.GNU-stack
                0x0000000000000000        0x0 /home/berkeley/nacl_sdk/pepper_42/lib/newlib_x86_32/Release/libppapi_cpp.a(input_event_x86_32.o)
 .note.GNU-stack
                0x0000000000000000        0x0 /home/berkeley/nacl_sdk/pepper_42/toolchain/linux_x86_newlib/bin/../lib/gcc/x86_64-nacl/4.4.3/../../../../x86_64-nacl/lib/../lib32/libppapi_stub.a(plugin_main_irt_21ce9d26.o)
 .note.GNU-stack
                0x0000000000000000        0x0 /home/berkeley/nacl_sdk/pepper_42/toolchain/linux_x86_newlib/bin/../lib/gcc/x86_64-nacl/4.4.3/../../../../x86_64-nacl/lib/../lib32/libppapi_stub.a(ppapi_plugin_main_399d0cf7.o)
 .note.GNU-stack
                0x0000000000000000        0x0 /home/berkeley/nacl_sdk/pepper_42/toolchain/linux_x86_newlib/bin/../lib/gcc/x86_64-nacl/4.4.3/../../../../x86_64-nacl/lib/../lib32/libppapi_stub.a(ppapi_plugin_start_8da67623.o)
 .note.GNU-stack
                0x0000000000000000        0x0 /home/berkeley/nacl_sdk/pepper_42/toolchain/linux_x86_newlib/bin/../lib/gcc/x86_64-nacl/4.4.3/../../../../x86_64-nacl/lib/../lib32/libppapi_stub.a(thread_creator_ccf263e1.o)
 .note.GNU-stack
                0x0000000000000000        0x0 /home/berkeley/nacl_sdk/pepper_42/toolchain/linux_x86_newlib/bin/../lib/gcc/x86_64-nacl/4.4.3/../../../../x86_64-nacl/lib/../lib32/libpthread.a(nc_thread_7e478b15.o)
 .note.GNU-stack
                0x0000000000000000        0x0 /home/berkeley/nacl_sdk/pepper_42/toolchain/linux_x86_newlib/bin/../lib/gcc/x86_64-nacl/4.4.3/../../../../x86_64-nacl/lib/../lib32/libpthread.a(nc_condvar_305aa45a.o)
 .note.GNU-stack
                0x0000000000000000        0x0 /home/berkeley/nacl_sdk/pepper_42/toolchain/linux_x86_newlib/bin/../lib/gcc/x86_64-nacl/4.4.3/../../../../x86_64-nacl/lib/../lib32/libpthread.a(dynamic_annotations_33ba59cc.o)
 .note.GNU-stack
                0x0000000000000000        0x0 /home/berkeley/nacl_sdk/pepper_42/toolchain/linux_x86_newlib/bin/../lib/gcc/x86_64-nacl/4.4.3/../../../../x86_64-nacl/lib/../lib32/libpthread.a(nc_mutex_86341ae1.o)
 .note.GNU-stack
                0x0000000000000000        0x0 /home/berkeley/nacl_sdk/pepper_42/toolchain/linux_x86_newlib/bin/../lib/gcc/x86_64-nacl/4.4.3/../../../../x86_64-nacl/lib/../lib32/libpthread.a(nc_init_irt_d3daafc0.o)
 .note.GNU-stack
                0x0000000000000000        0x0 /home/berkeley/nacl_sdk/pepper_42/toolchain/linux_x86_newlib/bin/../lib/gcc/x86_64-nacl/4.4.3/../../../../x86_64-nacl/lib/../lib32/libstdc++.a(tree.o)
 .group         0x0000000000000000        0x8 /home/berkeley/nacl_sdk/pepper_42/toolchain/linux_x86_newlib/bin/../lib/gcc/x86_64-nacl/4.4.3/../../../../x86_64-nacl/lib/../lib32/libstdc++.a(string-inst.o)
 .group         0x0000000000000000        0x8 /home/berkeley/nacl_sdk/pepper_42/toolchain/linux_x86_newlib/bin/../lib/gcc/x86_64-nacl/4.4.3/../../../../x86_64-nacl/lib/../lib32/libstdc++.a(string-inst.o)
 .group         0x0000000000000000        0x8 /home/berkeley/nacl_sdk/pepper_42/toolchain/linux_x86_newlib/bin/../lib/gcc/x86_64-nacl/4.4.3/../../../../x86_64-nacl/lib/../lib32/libstdc++.a(string-inst.o)
 .group         0x0000000000000000        0x8 /home/berkeley/nacl_sdk/pepper_42/toolchain/linux_x86_newlib/bin/../lib/gcc/x86_64-nacl/4.4.3/../../../../x86_64-nacl/lib/../lib32/libstdc++.a(string-inst.o)
 .group         0x0000000000000000        0x8 /home/berkeley/nacl_sdk/pepper_42/toolchain/linux_x86_newlib/bin/../lib/gcc/x86_64-nacl/4.4.3/../../../../x86_64-nacl/lib/../lib32/libstdc++.a(string-inst.o)
 .group         0x0000000000000000        0x8 /home/berkeley/nacl_sdk/pepper_42/toolchain/linux_x86_newlib/bin/../lib/gcc/x86_64-nacl/4.4.3/../../../../x86_64-nacl/lib/../lib32/libstdc++.a(string-inst.o)
 .group         0x0000000000000000        0x8 /home/berkeley/nacl_sdk/pepper_42/toolchain/linux_x86_newlib/bin/../lib/gcc/x86_64-nacl/4.4.3/../../../../x86_64-nacl/lib/../lib32/libstdc++.a(string-inst.o)
 .group         0x0000000000000000        0x8 /home/berkeley/nacl_sdk/pepper_42/toolchain/linux_x86_newlib/bin/../lib/gcc/x86_64-nacl/4.4.3/../../../../x86_64-nacl/lib/../lib32/libstdc++.a(string-inst.o)
 .group         0x0000000000000000        0x8 /home/berkeley/nacl_sdk/pepper_42/toolchain/linux_x86_newlib/bin/../lib/gcc/x86_64-nacl/4.4.3/../../../../x86_64-nacl/lib/../lib32/libstdc++.a(string-inst.o)
 .group         0x0000000000000000        0x8 /home/berkeley/nacl_sdk/pepper_42/toolchain/linux_x86_newlib/bin/../lib/gcc/x86_64-nacl/4.4.3/../../../../x86_64-nacl/lib/../lib32/libstdc++.a(string-inst.o)
 .group         0x0000000000000000        0x8 /home/berkeley/nacl_sdk/pepper_42/toolchain/linux_x86_newlib/bin/../lib/gcc/x86_64-nacl/4.4.3/../../../../x86_64-nacl/lib/../lib32/libstdc++.a(string-inst.o)
 .group         0x0000000000000000        0x8 /home/berkeley/nacl_sdk/pepper_42/toolchain/linux_x86_newlib/bin/../lib/gcc/x86_64-nacl/4.4.3/../../../../x86_64-nacl/lib/../lib32/libstdc++.a(string-inst.o)
 .group         0x0000000000000000        0x8 /home/berkeley/nacl_sdk/pepper_42/toolchain/linux_x86_newlib/bin/../lib/gcc/x86_64-nacl/4.4.3/../../../../x86_64-nacl/lib/../lib32/libstdc++.a(string-inst.o)
 .group         0x0000000000000000        0x8 /home/berkeley/nacl_sdk/pepper_42/toolchain/linux_x86_newlib/bin/../lib/gcc/x86_64-nacl/4.4.3/../../../../x86_64-nacl/lib/../lib32/libstdc++.a(string-inst.o)
 .group         0x0000000000000000        0x8 /home/berkeley/nacl_sdk/pepper_42/toolchain/linux_x86_newlib/bin/../lib/gcc/x86_64-nacl/4.4.3/../../../../x86_64-nacl/lib/../lib32/libstdc++.a(string-inst.o)
 .group         0x0000000000000000        0x8 /home/berkeley/nacl_sdk/pepper_42/toolchain/linux_x86_newlib/bin/../lib/gcc/x86_64-nacl/4.4.3/../../../../x86_64-nacl/lib/../lib32/libstdc++.a(string-inst.o)
 .group         0x0000000000000000        0x8 /home/berkeley/nacl_sdk/pepper_42/toolchain/linux_x86_newlib/bin/../lib/gcc/x86_64-nacl/4.4.3/../../../../x86_64-nacl/lib/../lib32/libstdc++.a(string-inst.o)
 .group         0x0000000000000000        0x8 /home/berkeley/nacl_sdk/pepper_42/toolchain/linux_x86_newlib/bin/../lib/gcc/x86_64-nacl/4.4.3/../../../../x86_64-nacl/lib/../lib32/libstdc++.a(string-inst.o)
 .group         0x0000000000000000        0x8 /home/berkeley/nacl_sdk/pepper_42/toolchain/linux_x86_newlib/bin/../lib/gcc/x86_64-nacl/4.4.3/../../../../x86_64-nacl/lib/../lib32/libstdc++.a(string-inst.o)
 .group         0x0000000000000000        0x8 /home/berkeley/nacl_sdk/pepper_42/toolchain/linux_x86_newlib/bin/../lib/gcc/x86_64-nacl/4.4.3/../../../../x86_64-nacl/lib/../lib32/libstdc++.a(string-inst.o)
 .group         0x0000000000000000        0x8 /home/berkeley/nacl_sdk/pepper_42/toolchain/linux_x86_newlib/bin/../lib/gcc/x86_64-nacl/4.4.3/../../../../x86_64-nacl/lib/../lib32/libstdc++.a(string-inst.o)
 .group         0x0000000000000000        0x8 /home/berkeley/nacl_sdk/pepper_42/toolchain/linux_x86_newlib/bin/../lib/gcc/x86_64-nacl/4.4.3/../../../../x86_64-nacl/lib/../lib32/libstdc++.a(string-inst.o)
 .group         0x0000000000000000        0x8 /home/berkeley/nacl_sdk/pepper_42/toolchain/linux_x86_newlib/bin/../lib/gcc/x86_64-nacl/4.4.3/../../../../x86_64-nacl/lib/../lib32/libstdc++.a(string-inst.o)
 .group         0x0000000000000000        0x8 /home/berkeley/nacl_sdk/pepper_42/toolchain/linux_x86_newlib/bin/../lib/gcc/x86_64-nacl/4.4.3/../../../../x86_64-nacl/lib/../lib32/libstdc++.a(string-inst.o)
 .group         0x0000000000000000        0x8 /home/berkeley/nacl_sdk/pepper_42/toolchain/linux_x86_newlib/bin/../lib/gcc/x86_64-nacl/4.4.3/../../../../x86_64-nacl/lib/../lib32/libstdc++.a(string-inst.o)
 .group         0x0000000000000000        0x8 /home/berkeley/nacl_sdk/pepper_42/toolchain/linux_x86_newlib/bin/../lib/gcc/x86_64-nacl/4.4.3/../../../../x86_64-nacl/lib/../lib32/libstdc++.a(string-inst.o)
 .group         0x0000000000000000        0x8 /home/berkeley/nacl_sdk/pepper_42/toolchain/linux_x86_newlib/bin/../lib/gcc/x86_64-nacl/4.4.3/../../../../x86_64-nacl/lib/../lib32/libstdc++.a(string-inst.o)
 .group         0x0000000000000000        0x8 /home/berkeley/nacl_sdk/pepper_42/toolchain/linux_x86_newlib/bin/../lib/gcc/x86_64-nacl/4.4.3/../../../../x86_64-nacl/lib/../lib32/libstdc++.a(string-inst.o)
 .group         0x0000000000000000        0x8 /home/berkeley/nacl_sdk/pepper_42/toolchain/linux_x86_newlib/bin/../lib/gcc/x86_64-nacl/4.4.3/../../../../x86_64-nacl/lib/../lib32/libstdc++.a(string-inst.o)
 .group         0x0000000000000000        0x8 /home/berkeley/nacl_sdk/pepper_42/toolchain/linux_x86_newlib/bin/../lib/gcc/x86_64-nacl/4.4.3/../../../../x86_64-nacl/lib/../lib32/libstdc++.a(string-inst.o)
 .group         0x0000000000000000        0x8 /home/berkeley/nacl_sdk/pepper_42/toolchain/linux_x86_newlib/bin/../lib/gcc/x86_64-nacl/4.4.3/../../../../x86_64-nacl/lib/../lib32/libstdc++.a(string-inst.o)
 .group         0x0000000000000000        0x8 /home/berkeley/nacl_sdk/pepper_42/toolchain/linux_x86_newlib/bin/../lib/gcc/x86_64-nacl/4.4.3/../../../../x86_64-nacl/lib/../lib32/libstdc++.a(string-inst.o)
 .group         0x0000000000000000        0x8 /home/berkeley/nacl_sdk/pepper_42/toolchain/linux_x86_newlib/bin/../lib/gcc/x86_64-nacl/4.4.3/../../../../x86_64-nacl/lib/../lib32/libstdc++.a(string-inst.o)
 .group         0x0000000000000000        0x8 /home/berkeley/nacl_sdk/pepper_42/toolchain/linux_x86_newlib/bin/../lib/gcc/x86_64-nacl/4.4.3/../../../../x86_64-nacl/lib/../lib32/libstdc++.a(string-inst.o)
 .group         0x0000000000000000        0x8 /home/berkeley/nacl_sdk/pepper_42/toolchain/linux_x86_newlib/bin/../lib/gcc/x86_64-nacl/4.4.3/../../../../x86_64-nacl/lib/../lib32/libstdc++.a(string-inst.o)
 .group         0x0000000000000000        0x8 /home/berkeley/nacl_sdk/pepper_42/toolchain/linux_x86_newlib/bin/../lib/gcc/x86_64-nacl/4.4.3/../../../../x86_64-nacl/lib/../lib32/libstdc++.a(string-inst.o)
 .group         0x0000000000000000        0x8 /home/berkeley/nacl_sdk/pepper_42/toolchain/linux_x86_newlib/bin/../lib/gcc/x86_64-nacl/4.4.3/../../../../x86_64-nacl/lib/../lib32/libstdc++.a(string-inst.o)
 .group         0x0000000000000000        0x8 /home/berkeley/nacl_sdk/pepper_42/toolchain/linux_x86_newlib/bin/../lib/gcc/x86_64-nacl/4.4.3/../../../../x86_64-nacl/lib/../lib32/libstdc++.a(string-inst.o)
 .group         0x0000000000000000        0x8 /home/berkeley/nacl_sdk/pepper_42/toolchain/linux_x86_newlib/bin/../lib/gcc/x86_64-nacl/4.4.3/../../../../x86_64-nacl/lib/../lib32/libstdc++.a(string-inst.o)
 .group         0x0000000000000000        0x8 /home/berkeley/nacl_sdk/pepper_42/toolchain/linux_x86_newlib/bin/../lib/gcc/x86_64-nacl/4.4.3/../../../../x86_64-nacl/lib/../lib32/libstdc++.a(string-inst.o)
 .group         0x0000000000000000        0x8 /home/berkeley/nacl_sdk/pepper_42/toolchain/linux_x86_newlib/bin/../lib/gcc/x86_64-nacl/4.4.3/../../../../x86_64-nacl/lib/../lib32/libstdc++.a(string-inst.o)
 .group         0x0000000000000000        0x8 /home/berkeley/nacl_sdk/pepper_42/toolchain/linux_x86_newlib/bin/../lib/gcc/x86_64-nacl/4.4.3/../../../../x86_64-nacl/lib/../lib32/libstdc++.a(string-inst.o)
 .group         0x0000000000000000        0x8 /home/berkeley/nacl_sdk/pepper_42/toolchain/linux_x86_newlib/bin/../lib/gcc/x86_64-nacl/4.4.3/../../../../x86_64-nacl/lib/../lib32/libstdc++.a(string-inst.o)
 .group         0x0000000000000000        0x8 /home/berkeley/nacl_sdk/pepper_42/toolchain/linux_x86_newlib/bin/../lib/gcc/x86_64-nacl/4.4.3/../../../../x86_64-nacl/lib/../lib32/libstdc++.a(string-inst.o)
 .group         0x0000000000000000        0x8 /home/berkeley/nacl_sdk/pepper_42/toolchain/linux_x86_newlib/bin/../lib/gcc/x86_64-nacl/4.4.3/../../../../x86_64-nacl/lib/../lib32/libstdc++.a(string-inst.o)
 .group         0x0000000000000000        0x8 /home/berkeley/nacl_sdk/pepper_42/toolchain/linux_x86_newlib/bin/../lib/gcc/x86_64-nacl/4.4.3/../../../../x86_64-nacl/lib/../lib32/libstdc++.a(string-inst.o)
 .group         0x0000000000000000        0x8 /home/berkeley/nacl_sdk/pepper_42/toolchain/linux_x86_newlib/bin/../lib/gcc/x86_64-nacl/4.4.3/../../../../x86_64-nacl/lib/../lib32/libstdc++.a(string-inst.o)
 .group         0x0000000000000000        0x8 /home/berkeley/nacl_sdk/pepper_42/toolchain/linux_x86_newlib/bin/../lib/gcc/x86_64-nacl/4.4.3/../../../../x86_64-nacl/lib/../lib32/libstdc++.a(string-inst.o)
 .group         0x0000000000000000        0x8 /home/berkeley/nacl_sdk/pepper_42/toolchain/linux_x86_newlib/bin/../lib/gcc/x86_64-nacl/4.4.3/../../../../x86_64-nacl/lib/../lib32/libstdc++.a(string-inst.o)
 .group         0x0000000000000000        0x8 /home/berkeley/nacl_sdk/pepper_42/toolchain/linux_x86_newlib/bin/../lib/gcc/x86_64-nacl/4.4.3/../../../../x86_64-nacl/lib/../lib32/libstdc++.a(string-inst.o)
 .group         0x0000000000000000        0x8 /home/berkeley/nacl_sdk/pepper_42/toolchain/linux_x86_newlib/bin/../lib/gcc/x86_64-nacl/4.4.3/../../../../x86_64-nacl/lib/../lib32/libstdc++.a(string-inst.o)
 .group         0x0000000000000000        0x8 /home/berkeley/nacl_sdk/pepper_42/toolchain/linux_x86_newlib/bin/../lib/gcc/x86_64-nacl/4.4.3/../../../../x86_64-nacl/lib/../lib32/libstdc++.a(string-inst.o)
 .group         0x0000000000000000        0x8 /home/berkeley/nacl_sdk/pepper_42/toolchain/linux_x86_newlib/bin/../lib/gcc/x86_64-nacl/4.4.3/../../../../x86_64-nacl/lib/../lib32/libstdc++.a(string-inst.o)
 .group         0x0000000000000000        0x8 /home/berkeley/nacl_sdk/pepper_42/toolchain/linux_x86_newlib/bin/../lib/gcc/x86_64-nacl/4.4.3/../../../../x86_64-nacl/lib/../lib32/libstdc++.a(string-inst.o)
 .group         0x0000000000000000        0x8 /home/berkeley/nacl_sdk/pepper_42/toolchain/linux_x86_newlib/bin/../lib/gcc/x86_64-nacl/4.4.3/../../../../x86_64-nacl/lib/../lib32/libstdc++.a(string-inst.o)
 .group         0x0000000000000000        0x8 /home/berkeley/nacl_sdk/pepper_42/toolchain/linux_x86_newlib/bin/../lib/gcc/x86_64-nacl/4.4.3/../../../../x86_64-nacl/lib/../lib32/libstdc++.a(string-inst.o)
 .group         0x0000000000000000        0x8 /home/berkeley/nacl_sdk/pepper_42/toolchain/linux_x86_newlib/bin/../lib/gcc/x86_64-nacl/4.4.3/../../../../x86_64-nacl/lib/../lib32/libstdc++.a(string-inst.o)
 .group         0x0000000000000000        0x8 /home/berkeley/nacl_sdk/pepper_42/toolchain/linux_x86_newlib/bin/../lib/gcc/x86_64-nacl/4.4.3/../../../../x86_64-nacl/lib/../lib32/libstdc++.a(string-inst.o)
 .group         0x0000000000000000        0x8 /home/berkeley/nacl_sdk/pepper_42/toolchain/linux_x86_newlib/bin/../lib/gcc/x86_64-nacl/4.4.3/../../../../x86_64-nacl/lib/../lib32/libstdc++.a(string-inst.o)
 .group         0x0000000000000000        0x8 /home/berkeley/nacl_sdk/pepper_42/toolchain/linux_x86_newlib/bin/../lib/gcc/x86_64-nacl/4.4.3/../../../../x86_64-nacl/lib/../lib32/libstdc++.a(string-inst.o)
 .group         0x0000000000000000        0x8 /home/berkeley/nacl_sdk/pepper_42/toolchain/linux_x86_newlib/bin/../lib/gcc/x86_64-nacl/4.4.3/../../../../x86_64-nacl/lib/../lib32/libstdc++.a(string-inst.o)
 .group         0x0000000000000000        0x8 /home/berkeley/nacl_sdk/pepper_42/toolchain/linux_x86_newlib/bin/../lib/gcc/x86_64-nacl/4.4.3/../../../../x86_64-nacl/lib/../lib32/libstdc++.a(string-inst.o)
 .group         0x0000000000000000        0x8 /home/berkeley/nacl_sdk/pepper_42/toolchain/linux_x86_newlib/bin/../lib/gcc/x86_64-nacl/4.4.3/../../../../x86_64-nacl/lib/../lib32/libstdc++.a(string-inst.o)
 .group         0x0000000000000000        0x8 /home/berkeley/nacl_sdk/pepper_42/toolchain/linux_x86_newlib/bin/../lib/gcc/x86_64-nacl/4.4.3/../../../../x86_64-nacl/lib/../lib32/libstdc++.a(string-inst.o)
 .group         0x0000000000000000        0x8 /home/berkeley/nacl_sdk/pepper_42/toolchain/linux_x86_newlib/bin/../lib/gcc/x86_64-nacl/4.4.3/../../../../x86_64-nacl/lib/../lib32/libstdc++.a(string-inst.o)
 .group         0x0000000000000000        0x8 /home/berkeley/nacl_sdk/pepper_42/toolchain/linux_x86_newlib/bin/../lib/gcc/x86_64-nacl/4.4.3/../../../../x86_64-nacl/lib/../lib32/libstdc++.a(string-inst.o)
 .group         0x0000000000000000        0x8 /home/berkeley/nacl_sdk/pepper_42/toolchain/linux_x86_newlib/bin/../lib/gcc/x86_64-nacl/4.4.3/../../../../x86_64-nacl/lib/../lib32/libstdc++.a(string-inst.o)
 .group         0x0000000000000000        0x8 /home/berkeley/nacl_sdk/pepper_42/toolchain/linux_x86_newlib/bin/../lib/gcc/x86_64-nacl/4.4.3/../../../../x86_64-nacl/lib/../lib32/libstdc++.a(string-inst.o)
 .group         0x0000000000000000        0x8 /home/berkeley/nacl_sdk/pepper_42/toolchain/linux_x86_newlib/bin/../lib/gcc/x86_64-nacl/4.4.3/../../../../x86_64-nacl/lib/../lib32/libstdc++.a(string-inst.o)
 .group         0x0000000000000000        0x8 /home/berkeley/nacl_sdk/pepper_42/toolchain/linux_x86_newlib/bin/../lib/gcc/x86_64-nacl/4.4.3/../../../../x86_64-nacl/lib/../lib32/libstdc++.a(string-inst.o)
 .group         0x0000000000000000        0x8 /home/berkeley/nacl_sdk/pepper_42/toolchain/linux_x86_newlib/bin/../lib/gcc/x86_64-nacl/4.4.3/../../../../x86_64-nacl/lib/../lib32/libstdc++.a(string-inst.o)
 .group         0x0000000000000000        0x8 /home/berkeley/nacl_sdk/pepper_42/toolchain/linux_x86_newlib/bin/../lib/gcc/x86_64-nacl/4.4.3/../../../../x86_64-nacl/lib/../lib32/libstdc++.a(string-inst.o)
 .group         0x0000000000000000        0x8 /home/berkeley/nacl_sdk/pepper_42/toolchain/linux_x86_newlib/bin/../lib/gcc/x86_64-nacl/4.4.3/../../../../x86_64-nacl/lib/../lib32/libstdc++.a(string-inst.o)
 .group         0x0000000000000000        0x8 /home/berkeley/nacl_sdk/pepper_42/toolchain/linux_x86_newlib/bin/../lib/gcc/x86_64-nacl/4.4.3/../../../../x86_64-nacl/lib/../lib32/libstdc++.a(string-inst.o)
 .group         0x0000000000000000        0x8 /home/berkeley/nacl_sdk/pepper_42/toolchain/linux_x86_newlib/bin/../lib/gcc/x86_64-nacl/4.4.3/../../../../x86_64-nacl/lib/../lib32/libstdc++.a(string-inst.o)
 .group         0x0000000000000000        0x8 /home/berkeley/nacl_sdk/pepper_42/toolchain/linux_x86_newlib/bin/../lib/gcc/x86_64-nacl/4.4.3/../../../../x86_64-nacl/lib/../lib32/libstdc++.a(string-inst.o)
 .group         0x0000000000000000        0x8 /home/berkeley/nacl_sdk/pepper_42/toolchain/linux_x86_newlib/bin/../lib/gcc/x86_64-nacl/4.4.3/../../../../x86_64-nacl/lib/../lib32/libstdc++.a(string-inst.o)
 .group         0x0000000000000000        0x8 /home/berkeley/nacl_sdk/pepper_42/toolchain/linux_x86_newlib/bin/../lib/gcc/x86_64-nacl/4.4.3/../../../../x86_64-nacl/lib/../lib32/libstdc++.a(string-inst.o)
 .group         0x0000000000000000        0x8 /home/berkeley/nacl_sdk/pepper_42/toolchain/linux_x86_newlib/bin/../lib/gcc/x86_64-nacl/4.4.3/../../../../x86_64-nacl/lib/../lib32/libstdc++.a(string-inst.o)
 .group         0x0000000000000000        0x8 /home/berkeley/nacl_sdk/pepper_42/toolchain/linux_x86_newlib/bin/../lib/gcc/x86_64-nacl/4.4.3/../../../../x86_64-nacl/lib/../lib32/libstdc++.a(string-inst.o)
 .group         0x0000000000000000        0x8 /home/berkeley/nacl_sdk/pepper_42/toolchain/linux_x86_newlib/bin/../lib/gcc/x86_64-nacl/4.4.3/../../../../x86_64-nacl/lib/../lib32/libstdc++.a(string-inst.o)
 .group         0x0000000000000000        0x8 /home/berkeley/nacl_sdk/pepper_42/toolchain/linux_x86_newlib/bin/../lib/gcc/x86_64-nacl/4.4.3/../../../../x86_64-nacl/lib/../lib32/libstdc++.a(string-inst.o)
 .group         0x0000000000000000        0x8 /home/berkeley/nacl_sdk/pepper_42/toolchain/linux_x86_newlib/bin/../lib/gcc/x86_64-nacl/4.4.3/../../../../x86_64-nacl/lib/../lib32/libstdc++.a(string-inst.o)
 .group         0x0000000000000000        0x8 /home/berkeley/nacl_sdk/pepper_42/toolchain/linux_x86_newlib/bin/../lib/gcc/x86_64-nacl/4.4.3/../../../../x86_64-nacl/lib/../lib32/libstdc++.a(string-inst.o)
 .group         0x0000000000000000        0x8 /home/berkeley/nacl_sdk/pepper_42/toolchain/linux_x86_newlib/bin/../lib/gcc/x86_64-nacl/4.4.3/../../../../x86_64-nacl/lib/../lib32/libstdc++.a(string-inst.o)
 .group         0x0000000000000000        0x8 /home/berkeley/nacl_sdk/pepper_42/toolchain/linux_x86_newlib/bin/../lib/gcc/x86_64-nacl/4.4.3/../../../../x86_64-nacl/lib/../lib32/libstdc++.a(string-inst.o)
 .group         0x0000000000000000        0x8 /home/berkeley/nacl_sdk/pepper_42/toolchain/linux_x86_newlib/bin/../lib/gcc/x86_64-nacl/4.4.3/../../../../x86_64-nacl/lib/../lib32/libstdc++.a(string-inst.o)
 .group         0x0000000000000000        0x8 /home/berkeley/nacl_sdk/pepper_42/toolchain/linux_x86_newlib/bin/../lib/gcc/x86_64-nacl/4.4.3/../../../../x86_64-nacl/lib/../lib32/libstdc++.a(string-inst.o)
 .group         0x0000000000000000        0x8 /home/berkeley/nacl_sdk/pepper_42/toolchain/linux_x86_newlib/bin/../lib/gcc/x86_64-nacl/4.4.3/../../../../x86_64-nacl/lib/../lib32/libstdc++.a(string-inst.o)
 .group         0x0000000000000000        0x8 /home/berkeley/nacl_sdk/pepper_42/toolchain/linux_x86_newlib/bin/../lib/gcc/x86_64-nacl/4.4.3/../../../../x86_64-nacl/lib/../lib32/libstdc++.a(string-inst.o)
 .group         0x0000000000000000        0x8 /home/berkeley/nacl_sdk/pepper_42/toolchain/linux_x86_newlib/bin/../lib/gcc/x86_64-nacl/4.4.3/../../../../x86_64-nacl/lib/../lib32/libstdc++.a(string-inst.o)
 .group         0x0000000000000000        0x8 /home/berkeley/nacl_sdk/pepper_42/toolchain/linux_x86_newlib/bin/../lib/gcc/x86_64-nacl/4.4.3/../../../../x86_64-nacl/lib/../lib32/libstdc++.a(string-inst.o)
 .group         0x0000000000000000        0x8 /home/berkeley/nacl_sdk/pepper_42/toolchain/linux_x86_newlib/bin/../lib/gcc/x86_64-nacl/4.4.3/../../../../x86_64-nacl/lib/../lib32/libstdc++.a(string-inst.o)
 .group         0x0000000000000000        0x8 /home/berkeley/nacl_sdk/pepper_42/toolchain/linux_x86_newlib/bin/../lib/gcc/x86_64-nacl/4.4.3/../../../../x86_64-nacl/lib/../lib32/libstdc++.a(string-inst.o)
 .group         0x0000000000000000        0x8 /home/berkeley/nacl_sdk/pepper_42/toolchain/linux_x86_newlib/bin/../lib/gcc/x86_64-nacl/4.4.3/../../../../x86_64-nacl/lib/../lib32/libstdc++.a(string-inst.o)
 .group         0x0000000000000000        0x8 /home/berkeley/nacl_sdk/pepper_42/toolchain/linux_x86_newlib/bin/../lib/gcc/x86_64-nacl/4.4.3/../../../../x86_64-nacl/lib/../lib32/libstdc++.a(string-inst.o)
 .group         0x0000000000000000        0x8 /home/berkeley/nacl_sdk/pepper_42/toolchain/linux_x86_newlib/bin/../lib/gcc/x86_64-nacl/4.4.3/../../../../x86_64-nacl/lib/../lib32/libstdc++.a(string-inst.o)
 .group         0x0000000000000000        0x8 /home/berkeley/nacl_sdk/pepper_42/toolchain/linux_x86_newlib/bin/../lib/gcc/x86_64-nacl/4.4.3/../../../../x86_64-nacl/lib/../lib32/libstdc++.a(string-inst.o)
 .group         0x0000000000000000        0x8 /home/berkeley/nacl_sdk/pepper_42/toolchain/linux_x86_newlib/bin/../lib/gcc/x86_64-nacl/4.4.3/../../../../x86_64-nacl/lib/../lib32/libstdc++.a(string-inst.o)
 .group         0x0000000000000000        0x8 /home/berkeley/nacl_sdk/pepper_42/toolchain/linux_x86_newlib/bin/../lib/gcc/x86_64-nacl/4.4.3/../../../../x86_64-nacl/lib/../lib32/libstdc++.a(string-inst.o)
 .group         0x0000000000000000        0x8 /home/berkeley/nacl_sdk/pepper_42/toolchain/linux_x86_newlib/bin/../lib/gcc/x86_64-nacl/4.4.3/../../../../x86_64-nacl/lib/../lib32/libstdc++.a(string-inst.o)
 .group         0x0000000000000000        0x8 /home/berkeley/nacl_sdk/pepper_42/toolchain/linux_x86_newlib/bin/../lib/gcc/x86_64-nacl/4.4.3/../../../../x86_64-nacl/lib/../lib32/libstdc++.a(string-inst.o)
 .group         0x0000000000000000        0x8 /home/berkeley/nacl_sdk/pepper_42/toolchain/linux_x86_newlib/bin/../lib/gcc/x86_64-nacl/4.4.3/../../../../x86_64-nacl/lib/../lib32/libstdc++.a(string-inst.o)
 .group         0x0000000000000000        0x8 /home/berkeley/nacl_sdk/pepper_42/toolchain/linux_x86_newlib/bin/../lib/gcc/x86_64-nacl/4.4.3/../../../../x86_64-nacl/lib/../lib32/libstdc++.a(string-inst.o)
 .group         0x0000000000000000        0x8 /home/berkeley/nacl_sdk/pepper_42/toolchain/linux_x86_newlib/bin/../lib/gcc/x86_64-nacl/4.4.3/../../../../x86_64-nacl/lib/../lib32/libstdc++.a(string-inst.o)
 .group         0x0000000000000000        0x8 /home/berkeley/nacl_sdk/pepper_42/toolchain/linux_x86_newlib/bin/../lib/gcc/x86_64-nacl/4.4.3/../../../../x86_64-nacl/lib/../lib32/libstdc++.a(string-inst.o)
 .group         0x0000000000000000        0x8 /home/berkeley/nacl_sdk/pepper_42/toolchain/linux_x86_newlib/bin/../lib/gcc/x86_64-nacl/4.4.3/../../../../x86_64-nacl/lib/../lib32/libstdc++.a(string-inst.o)
 .group         0x0000000000000000        0x8 /home/berkeley/nacl_sdk/pepper_42/toolchain/linux_x86_newlib/bin/../lib/gcc/x86_64-nacl/4.4.3/../../../../x86_64-nacl/lib/../lib32/libstdc++.a(string-inst.o)
 .group         0x0000000000000000        0x8 /home/berkeley/nacl_sdk/pepper_42/toolchain/linux_x86_newlib/bin/../lib/gcc/x86_64-nacl/4.4.3/../../../../x86_64-nacl/lib/../lib32/libstdc++.a(string-inst.o)
 .group         0x0000000000000000        0x8 /home/berkeley/nacl_sdk/pepper_42/toolchain/linux_x86_newlib/bin/../lib/gcc/x86_64-nacl/4.4.3/../../../../x86_64-nacl/lib/../lib32/libstdc++.a(string-inst.o)
 .group         0x0000000000000000        0x8 /home/berkeley/nacl_sdk/pepper_42/toolchain/linux_x86_newlib/bin/../lib/gcc/x86_64-nacl/4.4.3/../../../../x86_64-nacl/lib/../lib32/libstdc++.a(string-inst.o)
 .group         0x0000000000000000        0x8 /home/berkeley/nacl_sdk/pepper_42/toolchain/linux_x86_newlib/bin/../lib/gcc/x86_64-nacl/4.4.3/../../../../x86_64-nacl/lib/../lib32/libstdc++.a(string-inst.o)
 .group         0x0000000000000000        0x8 /home/berkeley/nacl_sdk/pepper_42/toolchain/linux_x86_newlib/bin/../lib/gcc/x86_64-nacl/4.4.3/../../../../x86_64-nacl/lib/../lib32/libstdc++.a(string-inst.o)
 .group         0x0000000000000000        0x8 /home/berkeley/nacl_sdk/pepper_42/toolchain/linux_x86_newlib/bin/../lib/gcc/x86_64-nacl/4.4.3/../../../../x86_64-nacl/lib/../lib32/libstdc++.a(string-inst.o)
 .group         0x0000000000000000        0x8 /home/berkeley/nacl_sdk/pepper_42/toolchain/linux_x86_newlib/bin/../lib/gcc/x86_64-nacl/4.4.3/../../../../x86_64-nacl/lib/../lib32/libstdc++.a(string-inst.o)
 .group         0x0000000000000000        0x8 /home/berkeley/nacl_sdk/pepper_42/toolchain/linux_x86_newlib/bin/../lib/gcc/x86_64-nacl/4.4.3/../../../../x86_64-nacl/lib/../lib32/libstdc++.a(string-inst.o)
 .group         0x0000000000000000        0x8 /home/berkeley/nacl_sdk/pepper_42/toolchain/linux_x86_newlib/bin/../lib/gcc/x86_64-nacl/4.4.3/../../../../x86_64-nacl/lib/../lib32/libstdc++.a(string-inst.o)
 .group         0x0000000000000000        0x8 /home/berkeley/nacl_sdk/pepper_42/toolchain/linux_x86_newlib/bin/../lib/gcc/x86_64-nacl/4.4.3/../../../../x86_64-nacl/lib/../lib32/libstdc++.a(string-inst.o)
 .group         0x0000000000000000        0x8 /home/berkeley/nacl_sdk/pepper_42/toolchain/linux_x86_newlib/bin/../lib/gcc/x86_64-nacl/4.4.3/../../../../x86_64-nacl/lib/../lib32/libstdc++.a(string-inst.o)
 .group         0x0000000000000000        0x8 /home/berkeley/nacl_sdk/pepper_42/toolchain/linux_x86_newlib/bin/../lib/gcc/x86_64-nacl/4.4.3/../../../../x86_64-nacl/lib/../lib32/libstdc++.a(string-inst.o)
 .group         0x0000000000000000        0x8 /home/berkeley/nacl_sdk/pepper_42/toolchain/linux_x86_newlib/bin/../lib/gcc/x86_64-nacl/4.4.3/../../../../x86_64-nacl/lib/../lib32/libstdc++.a(string-inst.o)
 .group         0x0000000000000000        0x8 /home/berkeley/nacl_sdk/pepper_42/toolchain/linux_x86_newlib/bin/../lib/gcc/x86_64-nacl/4.4.3/../../../../x86_64-nacl/lib/../lib32/libstdc++.a(string-inst.o)
 .group         0x0000000000000000        0x8 /home/berkeley/nacl_sdk/pepper_42/toolchain/linux_x86_newlib/bin/../lib/gcc/x86_64-nacl/4.4.3/../../../../x86_64-nacl/lib/../lib32/libstdc++.a(string-inst.o)
 .group         0x0000000000000000        0x8 /home/berkeley/nacl_sdk/pepper_42/toolchain/linux_x86_newlib/bin/../lib/gcc/x86_64-nacl/4.4.3/../../../../x86_64-nacl/lib/../lib32/libstdc++.a(string-inst.o)
 .group         0x0000000000000000        0x8 /home/berkeley/nacl_sdk/pepper_42/toolchain/linux_x86_newlib/bin/../lib/gcc/x86_64-nacl/4.4.3/../../../../x86_64-nacl/lib/../lib32/libstdc++.a(string-inst.o)
 .group         0x0000000000000000        0x8 /home/berkeley/nacl_sdk/pepper_42/toolchain/linux_x86_newlib/bin/../lib/gcc/x86_64-nacl/4.4.3/../../../../x86_64-nacl/lib/../lib32/libstdc++.a(string-inst.o)
 .group         0x0000000000000000        0x8 /home/berkeley/nacl_sdk/pepper_42/toolchain/linux_x86_newlib/bin/../lib/gcc/x86_64-nacl/4.4.3/../../../../x86_64-nacl/lib/../lib32/libstdc++.a(string-inst.o)
 .group         0x0000000000000000        0x8 /home/berkeley/nacl_sdk/pepper_42/toolchain/linux_x86_newlib/bin/../lib/gcc/x86_64-nacl/4.4.3/../../../../x86_64-nacl/lib/../lib32/libstdc++.a(string-inst.o)
 .group         0x0000000000000000        0x8 /home/berkeley/nacl_sdk/pepper_42/toolchain/linux_x86_newlib/bin/../lib/gcc/x86_64-nacl/4.4.3/../../../../x86_64-nacl/lib/../lib32/libstdc++.a(string-inst.o)
 .group         0x0000000000000000        0x8 /home/berkeley/nacl_sdk/pepper_42/toolchain/linux_x86_newlib/bin/../lib/gcc/x86_64-nacl/4.4.3/../../../../x86_64-nacl/lib/../lib32/libstdc++.a(string-inst.o)
 .group         0x0000000000000000        0x8 /home/berkeley/nacl_sdk/pepper_42/toolchain/linux_x86_newlib/bin/../lib/gcc/x86_64-nacl/4.4.3/../../../../x86_64-nacl/lib/../lib32/libstdc++.a(string-inst.o)
 .group         0x0000000000000000        0x8 /home/berkeley/nacl_sdk/pepper_42/toolchain/linux_x86_newlib/bin/../lib/gcc/x86_64-nacl/4.4.3/../../../../x86_64-nacl/lib/../lib32/libstdc++.a(string-inst.o)
 .group         0x0000000000000000        0x8 /home/berkeley/nacl_sdk/pepper_42/toolchain/linux_x86_newlib/bin/../lib/gcc/x86_64-nacl/4.4.3/../../../../x86_64-nacl/lib/../lib32/libstdc++.a(string-inst.o)
 .group         0x0000000000000000        0x8 /home/berkeley/nacl_sdk/pepper_42/toolchain/linux_x86_newlib/bin/../lib/gcc/x86_64-nacl/4.4.3/../../../../x86_64-nacl/lib/../lib32/libstdc++.a(string-inst.o)
 .group         0x0000000000000000        0x8 /home/berkeley/nacl_sdk/pepper_42/toolchain/linux_x86_newlib/bin/../lib/gcc/x86_64-nacl/4.4.3/../../../../x86_64-nacl/lib/../lib32/libstdc++.a(string-inst.o)
 .group         0x0000000000000000        0x8 /home/berkeley/nacl_sdk/pepper_42/toolchain/linux_x86_newlib/bin/../lib/gcc/x86_64-nacl/4.4.3/../../../../x86_64-nacl/lib/../lib32/libstdc++.a(string-inst.o)
 .group         0x0000000000000000        0x8 /home/berkeley/nacl_sdk/pepper_42/toolchain/linux_x86_newlib/bin/../lib/gcc/x86_64-nacl/4.4.3/../../../../x86_64-nacl/lib/../lib32/libstdc++.a(string-inst.o)
 .group         0x0000000000000000        0x8 /home/berkeley/nacl_sdk/pepper_42/toolchain/linux_x86_newlib/bin/../lib/gcc/x86_64-nacl/4.4.3/../../../../x86_64-nacl/lib/../lib32/libstdc++.a(string-inst.o)
 .group         0x0000000000000000        0x8 /home/berkeley/nacl_sdk/pepper_42/toolchain/linux_x86_newlib/bin/../lib/gcc/x86_64-nacl/4.4.3/../../../../x86_64-nacl/lib/../lib32/libstdc++.a(string-inst.o)
 .group         0x0000000000000000        0x8 /home/berkeley/nacl_sdk/pepper_42/toolchain/linux_x86_newlib/bin/../lib/gcc/x86_64-nacl/4.4.3/../../../../x86_64-nacl/lib/../lib32/libstdc++.a(string-inst.o)
 .group         0x0000000000000000        0x8 /home/berkeley/nacl_sdk/pepper_42/toolchain/linux_x86_newlib/bin/../lib/gcc/x86_64-nacl/4.4.3/../../../../x86_64-nacl/lib/../lib32/libstdc++.a(string-inst.o)
 .group         0x0000000000000000        0x8 /home/berkeley/nacl_sdk/pepper_42/toolchain/linux_x86_newlib/bin/../lib/gcc/x86_64-nacl/4.4.3/../../../../x86_64-nacl/lib/../lib32/libstdc++.a(string-inst.o)
 .group         0x0000000000000000        0x8 /home/berkeley/nacl_sdk/pepper_42/toolchain/linux_x86_newlib/bin/../lib/gcc/x86_64-nacl/4.4.3/../../../../x86_64-nacl/lib/../lib32/libstdc++.a(string-inst.o)
 .group         0x0000000000000000        0x8 /home/berkeley/nacl_sdk/pepper_42/toolchain/linux_x86_newlib/bin/../lib/gcc/x86_64-nacl/4.4.3/../../../../x86_64-nacl/lib/../lib32/libstdc++.a(string-inst.o)
 .group         0x0000000000000000        0x8 /home/berkeley/nacl_sdk/pepper_42/toolchain/linux_x86_newlib/bin/../lib/gcc/x86_64-nacl/4.4.3/../../../../x86_64-nacl/lib/../lib32/libstdc++.a(string-inst.o)
 .group         0x0000000000000000        0x8 /home/berkeley/nacl_sdk/pepper_42/toolchain/linux_x86_newlib/bin/../lib/gcc/x86_64-nacl/4.4.3/../../../../x86_64-nacl/lib/../lib32/libstdc++.a(string-inst.o)
 .group         0x0000000000000000        0x8 /home/berkeley/nacl_sdk/pepper_42/toolchain/linux_x86_newlib/bin/../lib/gcc/x86_64-nacl/4.4.3/../../../../x86_64-nacl/lib/../lib32/libstdc++.a(string-inst.o)
 .group         0x0000000000000000        0x8 /home/berkeley/nacl_sdk/pepper_42/toolchain/linux_x86_newlib/bin/../lib/gcc/x86_64-nacl/4.4.3/../../../../x86_64-nacl/lib/../lib32/libstdc++.a(string-inst.o)
 .group         0x0000000000000000        0x8 /home/berkeley/nacl_sdk/pepper_42/toolchain/linux_x86_newlib/bin/../lib/gcc/x86_64-nacl/4.4.3/../../../../x86_64-nacl/lib/../lib32/libstdc++.a(string-inst.o)
 .group         0x0000000000000000        0x8 /home/berkeley/nacl_sdk/pepper_42/toolchain/linux_x86_newlib/bin/../lib/gcc/x86_64-nacl/4.4.3/../../../../x86_64-nacl/lib/../lib32/libstdc++.a(string-inst.o)
 .group         0x0000000000000000        0x8 /home/berkeley/nacl_sdk/pepper_42/toolchain/linux_x86_newlib/bin/../lib/gcc/x86_64-nacl/4.4.3/../../../../x86_64-nacl/lib/../lib32/libstdc++.a(string-inst.o)
 .group         0x0000000000000000        0x8 /home/berkeley/nacl_sdk/pepper_42/toolchain/linux_x86_newlib/bin/../lib/gcc/x86_64-nacl/4.4.3/../../../../x86_64-nacl/lib/../lib32/libstdc++.a(string-inst.o)
 .group         0x0000000000000000        0x8 /home/berkeley/nacl_sdk/pepper_42/toolchain/linux_x86_newlib/bin/../lib/gcc/x86_64-nacl/4.4.3/../../../../x86_64-nacl/lib/../lib32/libstdc++.a(string-inst.o)
 .group         0x0000000000000000        0x8 /home/berkeley/nacl_sdk/pepper_42/toolchain/linux_x86_newlib/bin/../lib/gcc/x86_64-nacl/4.4.3/../../../../x86_64-nacl/lib/../lib32/libstdc++.a(string-inst.o)
 .group         0x0000000000000000        0x8 /home/berkeley/nacl_sdk/pepper_42/toolchain/linux_x86_newlib/bin/../lib/gcc/x86_64-nacl/4.4.3/../../../../x86_64-nacl/lib/../lib32/libstdc++.a(string-inst.o)
 .group         0x0000000000000000        0x8 /home/berkeley/nacl_sdk/pepper_42/toolchain/linux_x86_newlib/bin/../lib/gcc/x86_64-nacl/4.4.3/../../../../x86_64-nacl/lib/../lib32/libstdc++.a(string-inst.o)
 .group         0x0000000000000000        0x8 /home/berkeley/nacl_sdk/pepper_42/toolchain/linux_x86_newlib/bin/../lib/gcc/x86_64-nacl/4.4.3/../../../../x86_64-nacl/lib/../lib32/libstdc++.a(string-inst.o)
 .group         0x0000000000000000        0x8 /home/berkeley/nacl_sdk/pepper_42/toolchain/linux_x86_newlib/bin/../lib/gcc/x86_64-nacl/4.4.3/../../../../x86_64-nacl/lib/../lib32/libstdc++.a(string-inst.o)
 .group         0x0000000000000000        0x8 /home/berkeley/nacl_sdk/pepper_42/toolchain/linux_x86_newlib/bin/../lib/gcc/x86_64-nacl/4.4.3/../../../../x86_64-nacl/lib/../lib32/libstdc++.a(string-inst.o)
 .group         0x0000000000000000        0x8 /home/berkeley/nacl_sdk/pepper_42/toolchain/linux_x86_newlib/bin/../lib/gcc/x86_64-nacl/4.4.3/../../../../x86_64-nacl/lib/../lib32/libstdc++.a(string-inst.o)
 .group         0x0000000000000000        0x8 /home/berkeley/nacl_sdk/pepper_42/toolchain/linux_x86_newlib/bin/../lib/gcc/x86_64-nacl/4.4.3/../../../../x86_64-nacl/lib/../lib32/libstdc++.a(string-inst.o)
 .group         0x0000000000000000        0x8 /home/berkeley/nacl_sdk/pepper_42/toolchain/linux_x86_newlib/bin/../lib/gcc/x86_64-nacl/4.4.3/../../../../x86_64-nacl/lib/../lib32/libstdc++.a(string-inst.o)
 .group         0x0000000000000000        0x8 /home/berkeley/nacl_sdk/pepper_42/toolchain/linux_x86_newlib/bin/../lib/gcc/x86_64-nacl/4.4.3/../../../../x86_64-nacl/lib/../lib32/libstdc++.a(string-inst.o)
 .group         0x0000000000000000        0x8 /home/berkeley/nacl_sdk/pepper_42/toolchain/linux_x86_newlib/bin/../lib/gcc/x86_64-nacl/4.4.3/../../../../x86_64-nacl/lib/../lib32/libstdc++.a(string-inst.o)
 .group         0x0000000000000000        0x8 /home/berkeley/nacl_sdk/pepper_42/toolchain/linux_x86_newlib/bin/../lib/gcc/x86_64-nacl/4.4.3/../../../../x86_64-nacl/lib/../lib32/libstdc++.a(string-inst.o)
 .group         0x0000000000000000        0x8 /home/berkeley/nacl_sdk/pepper_42/toolchain/linux_x86_newlib/bin/../lib/gcc/x86_64-nacl/4.4.3/../../../../x86_64-nacl/lib/../lib32/libstdc++.a(string-inst.o)
 .group         0x0000000000000000        0x8 /home/berkeley/nacl_sdk/pepper_42/toolchain/linux_x86_newlib/bin/../lib/gcc/x86_64-nacl/4.4.3/../../../../x86_64-nacl/lib/../lib32/libstdc++.a(string-inst.o)
 .group         0x0000000000000000        0x8 /home/berkeley/nacl_sdk/pepper_42/toolchain/linux_x86_newlib/bin/../lib/gcc/x86_64-nacl/4.4.3/../../../../x86_64-nacl/lib/../lib32/libstdc++.a(string-inst.o)
 .group         0x0000000000000000        0x8 /home/berkeley/nacl_sdk/pepper_42/toolchain/linux_x86_newlib/bin/../lib/gcc/x86_64-nacl/4.4.3/../../../../x86_64-nacl/lib/../lib32/libstdc++.a(string-inst.o)
 .group         0x0000000000000000        0x8 /home/berkeley/nacl_sdk/pepper_42/toolchain/linux_x86_newlib/bin/../lib/gcc/x86_64-nacl/4.4.3/../../../../x86_64-nacl/lib/../lib32/libstdc++.a(string-inst.o)
 .group         0x0000000000000000        0x8 /home/berkeley/nacl_sdk/pepper_42/toolchain/linux_x86_newlib/bin/../lib/gcc/x86_64-nacl/4.4.3/../../../../x86_64-nacl/lib/../lib32/libstdc++.a(string-inst.o)
 .group         0x0000000000000000        0x8 /home/berkeley/nacl_sdk/pepper_42/toolchain/linux_x86_newlib/bin/../lib/gcc/x86_64-nacl/4.4.3/../../../../x86_64-nacl/lib/../lib32/libstdc++.a(string-inst.o)
 .group         0x0000000000000000        0x8 /home/berkeley/nacl_sdk/pepper_42/toolchain/linux_x86_newlib/bin/../lib/gcc/x86_64-nacl/4.4.3/../../../../x86_64-nacl/lib/../lib32/libstdc++.a(string-inst.o)
 .group         0x0000000000000000        0x8 /home/berkeley/nacl_sdk/pepper_42/toolchain/linux_x86_newlib/bin/../lib/gcc/x86_64-nacl/4.4.3/../../../../x86_64-nacl/lib/../lib32/libstdc++.a(string-inst.o)
 .group         0x0000000000000000        0x8 /home/berkeley/nacl_sdk/pepper_42/toolchain/linux_x86_newlib/bin/../lib/gcc/x86_64-nacl/4.4.3/../../../../x86_64-nacl/lib/../lib32/libstdc++.a(string-inst.o)
 .group         0x0000000000000000        0x8 /home/berkeley/nacl_sdk/pepper_42/toolchain/linux_x86_newlib/bin/../lib/gcc/x86_64-nacl/4.4.3/../../../../x86_64-nacl/lib/../lib32/libstdc++.a(string-inst.o)
 .group         0x0000000000000000        0x8 /home/berkeley/nacl_sdk/pepper_42/toolchain/linux_x86_newlib/bin/../lib/gcc/x86_64-nacl/4.4.3/../../../../x86_64-nacl/lib/../lib32/libstdc++.a(string-inst.o)
 .group         0x0000000000000000        0x8 /home/berkeley/nacl_sdk/pepper_42/toolchain/linux_x86_newlib/bin/../lib/gcc/x86_64-nacl/4.4.3/../../../../x86_64-nacl/lib/../lib32/libstdc++.a(string-inst.o)
 .group         0x0000000000000000        0x8 /home/berkeley/nacl_sdk/pepper_42/toolchain/linux_x86_newlib/bin/../lib/gcc/x86_64-nacl/4.4.3/../../../../x86_64-nacl/lib/../lib32/libstdc++.a(string-inst.o)
 .group         0x0000000000000000        0x8 /home/berkeley/nacl_sdk/pepper_42/toolchain/linux_x86_newlib/bin/../lib/gcc/x86_64-nacl/4.4.3/../../../../x86_64-nacl/lib/../lib32/libstdc++.a(string-inst.o)
 .note.GNU-stack
                0x0000000000000000        0x0 /home/berkeley/nacl_sdk/pepper_42/toolchain/linux_x86_newlib/bin/../lib/gcc/x86_64-nacl/4.4.3/../../../../x86_64-nacl/lib/../lib32/libstdc++.a(string-inst.o)
 .note.GNU-stack
                0x0000000000000000        0x0 /home/berkeley/nacl_sdk/pepper_42/toolchain/linux_x86_newlib/bin/../lib/gcc/x86_64-nacl/4.4.3/../../../../x86_64-nacl/lib/../lib32/libstdc++.a(eh_personality.o)
 .group         0x0000000000000000        0x8 /home/berkeley/nacl_sdk/pepper_42/toolchain/linux_x86_newlib/bin/../lib/gcc/x86_64-nacl/4.4.3/../../../../x86_64-nacl/lib/../lib32/libstdc++.a(eh_globals.o)
 .note.GNU-stack
                0x0000000000000000        0x0 /home/berkeley/nacl_sdk/pepper_42/toolchain/linux_x86_newlib/bin/../lib/gcc/x86_64-nacl/4.4.3/../../../../x86_64-nacl/lib/../lib32/libstdc++.a(eh_globals.o)
 .note.GNU-stack
                0x0000000000000000        0x0 /home/berkeley/nacl_sdk/pepper_42/toolchain/linux_x86_newlib/bin/../lib/gcc/x86_64-nacl/4.4.3/../../../../x86_64-nacl/lib/../lib32/libstdc++.a(eh_throw.o)
 .note.GNU-stack
                0x0000000000000000        0x0 /home/berkeley/nacl_sdk/pepper_42/toolchain/linux_x86_newlib/bin/../lib/gcc/x86_64-nacl/4.4.3/../../../../x86_64-nacl/lib/../lib32/libstdc++.a(del_op.o)
 .note.GNU-stack
                0x0000000000000000        0x0 /home/berkeley/nacl_sdk/pepper_42/toolchain/linux_x86_newlib/bin/../lib/gcc/x86_64-nacl/4.4.3/../../../../x86_64-nacl/lib/../lib32/libstdc++.a(eh_call.o)
 .group         0x0000000000000000        0x8 /home/berkeley/nacl_sdk/pepper_42/toolchain/linux_x86_newlib/bin/../lib/gcc/x86_64-nacl/4.4.3/../../../../x86_64-nacl/lib/../lib32/libstdc++.a(guard.o)
 .group         0x0000000000000000        0x8 /home/berkeley/nacl_sdk/pepper_42/toolchain/linux_x86_newlib/bin/../lib/gcc/x86_64-nacl/4.4.3/../../../../x86_64-nacl/lib/../lib32/libstdc++.a(guard.o)
 .group         0x0000000000000000        0x8 /home/berkeley/nacl_sdk/pepper_42/toolchain/linux_x86_newlib/bin/../lib/gcc/x86_64-nacl/4.4.3/../../../../x86_64-nacl/lib/../lib32/libstdc++.a(guard.o)
 .group         0x0000000000000000        0x8 /home/berkeley/nacl_sdk/pepper_42/toolchain/linux_x86_newlib/bin/../lib/gcc/x86_64-nacl/4.4.3/../../../../x86_64-nacl/lib/../lib32/libstdc++.a(guard.o)
 .group         0x0000000000000000        0x8 /home/berkeley/nacl_sdk/pepper_42/toolchain/linux_x86_newlib/bin/../lib/gcc/x86_64-nacl/4.4.3/../../../../x86_64-nacl/lib/../lib32/libstdc++.a(guard.o)
 .group         0x0000000000000000        0x8 /home/berkeley/nacl_sdk/pepper_42/toolchain/linux_x86_newlib/bin/../lib/gcc/x86_64-nacl/4.4.3/../../../../x86_64-nacl/lib/../lib32/libstdc++.a(guard.o)
 .group         0x0000000000000000        0x8 /home/berkeley/nacl_sdk/pepper_42/toolchain/linux_x86_newlib/bin/../lib/gcc/x86_64-nacl/4.4.3/../../../../x86_64-nacl/lib/../lib32/libstdc++.a(guard.o)
 .group         0x0000000000000000        0x8 /home/berkeley/nacl_sdk/pepper_42/toolchain/linux_x86_newlib/bin/../lib/gcc/x86_64-nacl/4.4.3/../../../../x86_64-nacl/lib/../lib32/libstdc++.a(guard.o)
 .group         0x0000000000000000        0x8 /home/berkeley/nacl_sdk/pepper_42/toolchain/linux_x86_newlib/bin/../lib/gcc/x86_64-nacl/4.4.3/../../../../x86_64-nacl/lib/../lib32/libstdc++.a(guard.o)
 .group         0x0000000000000000        0x8 /home/berkeley/nacl_sdk/pepper_42/toolchain/linux_x86_newlib/bin/../lib/gcc/x86_64-nacl/4.4.3/../../../../x86_64-nacl/lib/../lib32/libstdc++.a(guard.o)
 .group         0x0000000000000000        0x8 /home/berkeley/nacl_sdk/pepper_42/toolchain/linux_x86_newlib/bin/../lib/gcc/x86_64-nacl/4.4.3/../../../../x86_64-nacl/lib/../lib32/libstdc++.a(guard.o)
 .group         0x0000000000000000        0x8 /home/berkeley/nacl_sdk/pepper_42/toolchain/linux_x86_newlib/bin/../lib/gcc/x86_64-nacl/4.4.3/../../../../x86_64-nacl/lib/../lib32/libstdc++.a(guard.o)
 .group         0x0000000000000000        0x8 /home/berkeley/nacl_sdk/pepper_42/toolchain/linux_x86_newlib/bin/../lib/gcc/x86_64-nacl/4.4.3/../../../../x86_64-nacl/lib/../lib32/libstdc++.a(guard.o)
 .group         0x0000000000000000        0x8 /home/berkeley/nacl_sdk/pepper_42/toolchain/linux_x86_newlib/bin/../lib/gcc/x86_64-nacl/4.4.3/../../../../x86_64-nacl/lib/../lib32/libstdc++.a(guard.o)
 .group         0x0000000000000000        0x8 /home/berkeley/nacl_sdk/pepper_42/toolchain/linux_x86_newlib/bin/../lib/gcc/x86_64-nacl/4.4.3/../../../../x86_64-nacl/lib/../lib32/libstdc++.a(guard.o)
 .note.GNU-stack
                0x0000000000000000        0x0 /home/berkeley/nacl_sdk/pepper_42/toolchain/linux_x86_newlib/bin/../lib/gcc/x86_64-nacl/4.4.3/../../../../x86_64-nacl/lib/../lib32/libstdc++.a(guard.o)
 .group         0x0000000000000000        0x8 /home/berkeley/nacl_sdk/pepper_42/toolchain/linux_x86_newlib/bin/../lib/gcc/x86_64-nacl/4.4.3/../../../../x86_64-nacl/lib/../lib32/libstdc++.a(si_class_type_info.o)
 .group         0x0000000000000000        0x8 /home/berkeley/nacl_sdk/pepper_42/toolchain/linux_x86_newlib/bin/../lib/gcc/x86_64-nacl/4.4.3/../../../../x86_64-nacl/lib/../lib32/libstdc++.a(si_class_type_info.o)
 .group         0x0000000000000000        0x8 /home/berkeley/nacl_sdk/pepper_42/toolchain/linux_x86_newlib/bin/../lib/gcc/x86_64-nacl/4.4.3/../../../../x86_64-nacl/lib/../lib32/libstdc++.a(si_class_type_info.o)
 .note.GNU-stack
                0x0000000000000000        0x0 /home/berkeley/nacl_sdk/pepper_42/toolchain/linux_x86_newlib/bin/../lib/gcc/x86_64-nacl/4.4.3/../../../../x86_64-nacl/lib/../lib32/libstdc++.a(si_class_type_info.o)
 .note.GNU-stack
                0x0000000000000000        0x0 /home/berkeley/nacl_sdk/pepper_42/toolchain/linux_x86_newlib/bin/../lib/gcc/x86_64-nacl/4.4.3/../../../../x86_64-nacl/lib/../lib32/libstdc++.a(eh_terminate.o)
 .group         0x0000000000000000        0x8 /home/berkeley/nacl_sdk/pepper_42/toolchain/linux_x86_newlib/bin/../lib/gcc/x86_64-nacl/4.4.3/../../../../x86_64-nacl/lib/../lib32/libstdc++.a(class_type_info.o)
 .group         0x0000000000000000        0x8 /home/berkeley/nacl_sdk/pepper_42/toolchain/linux_x86_newlib/bin/../lib/gcc/x86_64-nacl/4.4.3/../../../../x86_64-nacl/lib/../lib32/libstdc++.a(class_type_info.o)
 .group         0x0000000000000000        0x8 /home/berkeley/nacl_sdk/pepper_42/toolchain/linux_x86_newlib/bin/../lib/gcc/x86_64-nacl/4.4.3/../../../../x86_64-nacl/lib/../lib32/libstdc++.a(class_type_info.o)
 .note.GNU-stack
                0x0000000000000000        0x0 /home/berkeley/nacl_sdk/pepper_42/toolchain/linux_x86_newlib/bin/../lib/gcc/x86_64-nacl/4.4.3/../../../../x86_64-nacl/lib/../lib32/libstdc++.a(class_type_info.o)
 .group         0x0000000000000000        0x8 /home/berkeley/nacl_sdk/pepper_42/toolchain/linux_x86_newlib/bin/../lib/gcc/x86_64-nacl/4.4.3/../../../../x86_64-nacl/lib/../lib32/libstdc++.a(eh_alloc.o)
 .group         0x0000000000000000        0x8 /home/berkeley/nacl_sdk/pepper_42/toolchain/linux_x86_newlib/bin/../lib/gcc/x86_64-nacl/4.4.3/../../../../x86_64-nacl/lib/../lib32/libstdc++.a(eh_alloc.o)
 .group         0x0000000000000000        0x8 /home/berkeley/nacl_sdk/pepper_42/toolchain/linux_x86_newlib/bin/../lib/gcc/x86_64-nacl/4.4.3/../../../../x86_64-nacl/lib/../lib32/libstdc++.a(eh_alloc.o)
 .group         0x0000000000000000        0x8 /home/berkeley/nacl_sdk/pepper_42/toolchain/linux_x86_newlib/bin/../lib/gcc/x86_64-nacl/4.4.3/../../../../x86_64-nacl/lib/../lib32/libstdc++.a(eh_alloc.o)
 .group         0x0000000000000000        0x8 /home/berkeley/nacl_sdk/pepper_42/toolchain/linux_x86_newlib/bin/../lib/gcc/x86_64-nacl/4.4.3/../../../../x86_64-nacl/lib/../lib32/libstdc++.a(eh_alloc.o)
 .group         0x0000000000000000        0x8 /home/berkeley/nacl_sdk/pepper_42/toolchain/linux_x86_newlib/bin/../lib/gcc/x86_64-nacl/4.4.3/../../../../x86_64-nacl/lib/../lib32/libstdc++.a(eh_alloc.o)
 .group         0x0000000000000000        0x8 /home/berkeley/nacl_sdk/pepper_42/toolchain/linux_x86_newlib/bin/../lib/gcc/x86_64-nacl/4.4.3/../../../../x86_64-nacl/lib/../lib32/libstdc++.a(eh_alloc.o)
 .group         0x0000000000000000        0x8 /home/berkeley/nacl_sdk/pepper_42/toolchain/linux_x86_newlib/bin/../lib/gcc/x86_64-nacl/4.4.3/../../../../x86_64-nacl/lib/../lib32/libstdc++.a(eh_alloc.o)
 .group         0x0000000000000000        0x8 /home/berkeley/nacl_sdk/pepper_42/toolchain/linux_x86_newlib/bin/../lib/gcc/x86_64-nacl/4.4.3/../../../../x86_64-nacl/lib/../lib32/libstdc++.a(eh_alloc.o)
 .group         0x0000000000000000        0x8 /home/berkeley/nacl_sdk/pepper_42/toolchain/linux_x86_newlib/bin/../lib/gcc/x86_64-nacl/4.4.3/../../../../x86_64-nacl/lib/../lib32/libstdc++.a(eh_alloc.o)
 .group         0x0000000000000000        0x8 /home/berkeley/nacl_sdk/pepper_42/toolchain/linux_x86_newlib/bin/../lib/gcc/x86_64-nacl/4.4.3/../../../../x86_64-nacl/lib/../lib32/libstdc++.a(eh_alloc.o)
 .group         0x0000000000000000        0x8 /home/berkeley/nacl_sdk/pepper_42/toolchain/linux_x86_newlib/bin/../lib/gcc/x86_64-nacl/4.4.3/../../../../x86_64-nacl/lib/../lib32/libstdc++.a(eh_alloc.o)
 .group         0x0000000000000000        0x8 /home/berkeley/nacl_sdk/pepper_42/toolchain/linux_x86_newlib/bin/../lib/gcc/x86_64-nacl/4.4.3/../../../../x86_64-nacl/lib/../lib32/libstdc++.a(eh_alloc.o)
 .text._ZNK9__gnu_cxx24__concurrence_lock_error4whatEv
                0x0000000000000000       0x20 /home/berkeley/nacl_sdk/pepper_42/toolchain/linux_x86_newlib/bin/../lib/gcc/x86_64-nacl/4.4.3/../../../../x86_64-nacl/lib/../lib32/libstdc++.a(eh_alloc.o)
 .text._ZNK9__gnu_cxx26__concurrence_unlock_error4whatEv
                0x0000000000000000       0x20 /home/berkeley/nacl_sdk/pepper_42/toolchain/linux_x86_newlib/bin/../lib/gcc/x86_64-nacl/4.4.3/../../../../x86_64-nacl/lib/../lib32/libstdc++.a(eh_alloc.o)
 .text._ZN9__gnu_cxx24__concurrence_lock_errorD1Ev
                0x0000000000000000       0x20 /home/berkeley/nacl_sdk/pepper_42/toolchain/linux_x86_newlib/bin/../lib/gcc/x86_64-nacl/4.4.3/../../../../x86_64-nacl/lib/../lib32/libstdc++.a(eh_alloc.o)
 .text._ZN9__gnu_cxx26__concurrence_unlock_errorD1Ev
                0x0000000000000000       0x20 /home/berkeley/nacl_sdk/pepper_42/toolchain/linux_x86_newlib/bin/../lib/gcc/x86_64-nacl/4.4.3/../../../../x86_64-nacl/lib/../lib32/libstdc++.a(eh_alloc.o)
 .text._ZN9__gnu_cxx24__concurrence_lock_errorD0Ev
                0x0000000000000000       0x40 /home/berkeley/nacl_sdk/pepper_42/toolchain/linux_x86_newlib/bin/../lib/gcc/x86_64-nacl/4.4.3/../../../../x86_64-nacl/lib/../lib32/libstdc++.a(eh_alloc.o)
 .text._ZN9__gnu_cxx26__concurrence_unlock_errorD0Ev
                0x0000000000000000       0x40 /home/berkeley/nacl_sdk/pepper_42/toolchain/linux_x86_newlib/bin/../lib/gcc/x86_64-nacl/4.4.3/../../../../x86_64-nacl/lib/../lib32/libstdc++.a(eh_alloc.o)
 .rodata._ZTIN9__gnu_cxx24__concurrence_lock_errorE
                0x0000000000000000        0xc /home/berkeley/nacl_sdk/pepper_42/toolchain/linux_x86_newlib/bin/../lib/gcc/x86_64-nacl/4.4.3/../../../../x86_64-nacl/lib/../lib32/libstdc++.a(eh_alloc.o)
 .rodata._ZTSN9__gnu_cxx24__concurrence_lock_errorE
                0x0000000000000000       0x27 /home/berkeley/nacl_sdk/pepper_42/toolchain/linux_x86_newlib/bin/../lib/gcc/x86_64-nacl/4.4.3/../../../../x86_64-nacl/lib/../lib32/libstdc++.a(eh_alloc.o)
 .rodata._ZTVN9__gnu_cxx24__concurrence_lock_errorE
                0x0000000000000000       0x14 /home/berkeley/nacl_sdk/pepper_42/toolchain/linux_x86_newlib/bin/../lib/gcc/x86_64-nacl/4.4.3/../../../../x86_64-nacl/lib/../lib32/libstdc++.a(eh_alloc.o)
 .rodata._ZTIN9__gnu_cxx26__concurrence_unlock_errorE
                0x0000000000000000        0xc /home/berkeley/nacl_sdk/pepper_42/toolchain/linux_x86_newlib/bin/../lib/gcc/x86_64-nacl/4.4.3/../../../../x86_64-nacl/lib/../lib32/libstdc++.a(eh_alloc.o)
 .rodata._ZTSN9__gnu_cxx26__concurrence_unlock_errorE
                0x0000000000000000       0x29 /home/berkeley/nacl_sdk/pepper_42/toolchain/linux_x86_newlib/bin/../lib/gcc/x86_64-nacl/4.4.3/../../../../x86_64-nacl/lib/../lib32/libstdc++.a(eh_alloc.o)
 .rodata._ZTVN9__gnu_cxx26__concurrence_unlock_errorE
                0x0000000000000000       0x14 /home/berkeley/nacl_sdk/pepper_42/toolchain/linux_x86_newlib/bin/../lib/gcc/x86_64-nacl/4.4.3/../../../../x86_64-nacl/lib/../lib32/libstdc++.a(eh_alloc.o)
 .note.GNU-stack
                0x0000000000000000        0x0 /home/berkeley/nacl_sdk/pepper_42/toolchain/linux_x86_newlib/bin/../lib/gcc/x86_64-nacl/4.4.3/../../../../x86_64-nacl/lib/../lib32/libstdc++.a(eh_alloc.o)
 .note.GNU-stack
                0x0000000000000000        0x0 /home/berkeley/nacl_sdk/pepper_42/toolchain/linux_x86_newlib/bin/../lib/gcc/x86_64-nacl/4.4.3/../../../../x86_64-nacl/lib/../lib32/libstdc++.a(eh_catch.o)
 .group         0x0000000000000000        0x8 /home/berkeley/nacl_sdk/pepper_42/toolchain/linux_x86_newlib/bin/../lib/gcc/x86_64-nacl/4.4.3/../../../../x86_64-nacl/lib/../lib32/libstdc++.a(eh_exception.o)
 .group         0x0000000000000000        0x8 /home/berkeley/nacl_sdk/pepper_42/toolchain/linux_x86_newlib/bin/../lib/gcc/x86_64-nacl/4.4.3/../../../../x86_64-nacl/lib/../lib32/libstdc++.a(eh_exception.o)
 .group         0x0000000000000000        0x8 /home/berkeley/nacl_sdk/pepper_42/toolchain/linux_x86_newlib/bin/../lib/gcc/x86_64-nacl/4.4.3/../../../../x86_64-nacl/lib/../lib32/libstdc++.a(eh_exception.o)
 .group         0x0000000000000000        0x8 /home/berkeley/nacl_sdk/pepper_42/toolchain/linux_x86_newlib/bin/../lib/gcc/x86_64-nacl/4.4.3/../../../../x86_64-nacl/lib/../lib32/libstdc++.a(eh_exception.o)
 .group         0x0000000000000000        0x8 /home/berkeley/nacl_sdk/pepper_42/toolchain/linux_x86_newlib/bin/../lib/gcc/x86_64-nacl/4.4.3/../../../../x86_64-nacl/lib/../lib32/libstdc++.a(eh_exception.o)
 .group         0x0000000000000000        0x8 /home/berkeley/nacl_sdk/pepper_42/toolchain/linux_x86_newlib/bin/../lib/gcc/x86_64-nacl/4.4.3/../../../../x86_64-nacl/lib/../lib32/libstdc++.a(eh_exception.o)
 .group         0x0000000000000000        0x8 /home/berkeley/nacl_sdk/pepper_42/toolchain/linux_x86_newlib/bin/../lib/gcc/x86_64-nacl/4.4.3/../../../../x86_64-nacl/lib/../lib32/libstdc++.a(eh_exception.o)
 .group         0x0000000000000000        0x8 /home/berkeley/nacl_sdk/pepper_42/toolchain/linux_x86_newlib/bin/../lib/gcc/x86_64-nacl/4.4.3/../../../../x86_64-nacl/lib/../lib32/libstdc++.a(eh_exception.o)
 .group         0x0000000000000000        0x8 /home/berkeley/nacl_sdk/pepper_42/toolchain/linux_x86_newlib/bin/../lib/gcc/x86_64-nacl/4.4.3/../../../../x86_64-nacl/lib/../lib32/libstdc++.a(eh_exception.o)
 .group         0x0000000000000000        0x8 /home/berkeley/nacl_sdk/pepper_42/toolchain/linux_x86_newlib/bin/../lib/gcc/x86_64-nacl/4.4.3/../../../../x86_64-nacl/lib/../lib32/libstdc++.a(eh_exception.o)
 .group         0x0000000000000000        0x8 /home/berkeley/nacl_sdk/pepper_42/toolchain/linux_x86_newlib/bin/../lib/gcc/x86_64-nacl/4.4.3/../../../../x86_64-nacl/lib/../lib32/libstdc++.a(eh_exception.o)
 .group         0x0000000000000000        0x8 /home/berkeley/nacl_sdk/pepper_42/toolchain/linux_x86_newlib/bin/../lib/gcc/x86_64-nacl/4.4.3/../../../../x86_64-nacl/lib/../lib32/libstdc++.a(eh_exception.o)
 .note.GNU-stack
                0x0000000000000000        0x0 /home/berkeley/nacl_sdk/pepper_42/toolchain/linux_x86_newlib/bin/../lib/gcc/x86_64-nacl/4.4.3/../../../../x86_64-nacl/lib/../lib32/libstdc++.a(eh_exception.o)
 .note.GNU-stack
                0x0000000000000000        0x0 /home/berkeley/nacl_sdk/pepper_42/toolchain/linux_x86_newlib/bin/../lib/gcc/x86_64-nacl/4.4.3/../../../../x86_64-nacl/lib/../lib32/libstdc++.a(pure.o)
 .note.GNU-stack
                0x0000000000000000        0x0 /home/berkeley/nacl_sdk/pepper_42/toolchain/linux_x86_newlib/bin/../lib/gcc/x86_64-nacl/4.4.3/../../../../x86_64-nacl/lib/../lib32/libstdc++.a(new_op.o)
 .group         0x0000000000000000        0x8 /home/berkeley/nacl_sdk/pepper_42/toolchain/linux_x86_newlib/bin/../lib/gcc/x86_64-nacl/4.4.3/../../../../x86_64-nacl/lib/../lib32/libstdc++.a(tinfo.o)
 .group         0x0000000000000000        0x8 /home/berkeley/nacl_sdk/pepper_42/toolchain/linux_x86_newlib/bin/../lib/gcc/x86_64-nacl/4.4.3/../../../../x86_64-nacl/lib/../lib32/libstdc++.a(tinfo.o)
 .group         0x0000000000000000        0x8 /home/berkeley/nacl_sdk/pepper_42/toolchain/linux_x86_newlib/bin/../lib/gcc/x86_64-nacl/4.4.3/../../../../x86_64-nacl/lib/../lib32/libstdc++.a(tinfo.o)
 .note.GNU-stack
                0x0000000000000000        0x0 /home/berkeley/nacl_sdk/pepper_42/toolchain/linux_x86_newlib/bin/../lib/gcc/x86_64-nacl/4.4.3/../../../../x86_64-nacl/lib/../lib32/libstdc++.a(tinfo.o)
 .group         0x0000000000000000        0x8 /home/berkeley/nacl_sdk/pepper_42/toolchain/linux_x86_newlib/bin/../lib/gcc/x86_64-nacl/4.4.3/../../../../x86_64-nacl/lib/../lib32/libstdc++.a(functexcept.o)
 .group         0x0000000000000000        0x8 /home/berkeley/nacl_sdk/pepper_42/toolchain/linux_x86_newlib/bin/../lib/gcc/x86_64-nacl/4.4.3/../../../../x86_64-nacl/lib/../lib32/libstdc++.a(functexcept.o)
 .group         0x0000000000000000        0x8 /home/berkeley/nacl_sdk/pepper_42/toolchain/linux_x86_newlib/bin/../lib/gcc/x86_64-nacl/4.4.3/../../../../x86_64-nacl/lib/../lib32/libstdc++.a(functexcept.o)
 .group         0x0000000000000000        0x8 /home/berkeley/nacl_sdk/pepper_42/toolchain/linux_x86_newlib/bin/../lib/gcc/x86_64-nacl/4.4.3/../../../../x86_64-nacl/lib/../lib32/libstdc++.a(functexcept.o)
 .group         0x0000000000000000        0x8 /home/berkeley/nacl_sdk/pepper_42/toolchain/linux_x86_newlib/bin/../lib/gcc/x86_64-nacl/4.4.3/../../../../x86_64-nacl/lib/../lib32/libstdc++.a(functexcept.o)
 .group         0x0000000000000000        0x8 /home/berkeley/nacl_sdk/pepper_42/toolchain/linux_x86_newlib/bin/../lib/gcc/x86_64-nacl/4.4.3/../../../../x86_64-nacl/lib/../lib32/libstdc++.a(functexcept.o)
 .group         0x0000000000000000        0x8 /home/berkeley/nacl_sdk/pepper_42/toolchain/linux_x86_newlib/bin/../lib/gcc/x86_64-nacl/4.4.3/../../../../x86_64-nacl/lib/../lib32/libstdc++.a(functexcept.o)
 .group         0x0000000000000000        0x8 /home/berkeley/nacl_sdk/pepper_42/toolchain/linux_x86_newlib/bin/../lib/gcc/x86_64-nacl/4.4.3/../../../../x86_64-nacl/lib/../lib32/libstdc++.a(functexcept.o)
 .group         0x0000000000000000        0x8 /home/berkeley/nacl_sdk/pepper_42/toolchain/linux_x86_newlib/bin/../lib/gcc/x86_64-nacl/4.4.3/../../../../x86_64-nacl/lib/../lib32/libstdc++.a(functexcept.o)
 .group         0x0000000000000000        0x8 /home/berkeley/nacl_sdk/pepper_42/toolchain/linux_x86_newlib/bin/../lib/gcc/x86_64-nacl/4.4.3/../../../../x86_64-nacl/lib/../lib32/libstdc++.a(functexcept.o)
 .group         0x0000000000000000        0x8 /home/berkeley/nacl_sdk/pepper_42/toolchain/linux_x86_newlib/bin/../lib/gcc/x86_64-nacl/4.4.3/../../../../x86_64-nacl/lib/../lib32/libstdc++.a(functexcept.o)
 .group         0x0000000000000000        0x8 /home/berkeley/nacl_sdk/pepper_42/toolchain/linux_x86_newlib/bin/../lib/gcc/x86_64-nacl/4.4.3/../../../../x86_64-nacl/lib/../lib32/libstdc++.a(functexcept.o)
 .group         0x0000000000000000        0x8 /home/berkeley/nacl_sdk/pepper_42/toolchain/linux_x86_newlib/bin/../lib/gcc/x86_64-nacl/4.4.3/../../../../x86_64-nacl/lib/../lib32/libstdc++.a(functexcept.o)
 .group         0x0000000000000000        0x8 /home/berkeley/nacl_sdk/pepper_42/toolchain/linux_x86_newlib/bin/../lib/gcc/x86_64-nacl/4.4.3/../../../../x86_64-nacl/lib/../lib32/libstdc++.a(functexcept.o)
 .group         0x0000000000000000        0x8 /home/berkeley/nacl_sdk/pepper_42/toolchain/linux_x86_newlib/bin/../lib/gcc/x86_64-nacl/4.4.3/../../../../x86_64-nacl/lib/../lib32/libstdc++.a(functexcept.o)
 .group         0x0000000000000000        0x8 /home/berkeley/nacl_sdk/pepper_42/toolchain/linux_x86_newlib/bin/../lib/gcc/x86_64-nacl/4.4.3/../../../../x86_64-nacl/lib/../lib32/libstdc++.a(functexcept.o)
 .group         0x0000000000000000        0x8 /home/berkeley/nacl_sdk/pepper_42/toolchain/linux_x86_newlib/bin/../lib/gcc/x86_64-nacl/4.4.3/../../../../x86_64-nacl/lib/../lib32/libstdc++.a(functexcept.o)
 .group         0x0000000000000000        0x8 /home/berkeley/nacl_sdk/pepper_42/toolchain/linux_x86_newlib/bin/../lib/gcc/x86_64-nacl/4.4.3/../../../../x86_64-nacl/lib/../lib32/libstdc++.a(functexcept.o)
 .group         0x0000000000000000        0x8 /home/berkeley/nacl_sdk/pepper_42/toolchain/linux_x86_newlib/bin/../lib/gcc/x86_64-nacl/4.4.3/../../../../x86_64-nacl/lib/../lib32/libstdc++.a(functexcept.o)
 .group         0x0000000000000000        0x8 /home/berkeley/nacl_sdk/pepper_42/toolchain/linux_x86_newlib/bin/../lib/gcc/x86_64-nacl/4.4.3/../../../../x86_64-nacl/lib/../lib32/libstdc++.a(functexcept.o)
 .group         0x0000000000000000        0x8 /home/berkeley/nacl_sdk/pepper_42/toolchain/linux_x86_newlib/bin/../lib/gcc/x86_64-nacl/4.4.3/../../../../x86_64-nacl/lib/../lib32/libstdc++.a(functexcept.o)
 .group         0x0000000000000000        0x8 /home/berkeley/nacl_sdk/pepper_42/toolchain/linux_x86_newlib/bin/../lib/gcc/x86_64-nacl/4.4.3/../../../../x86_64-nacl/lib/../lib32/libstdc++.a(functexcept.o)
 .group         0x0000000000000000        0x8 /home/berkeley/nacl_sdk/pepper_42/toolchain/linux_x86_newlib/bin/../lib/gcc/x86_64-nacl/4.4.3/../../../../x86_64-nacl/lib/../lib32/libstdc++.a(functexcept.o)
 .group         0x0000000000000000        0x8 /home/berkeley/nacl_sdk/pepper_42/toolchain/linux_x86_newlib/bin/../lib/gcc/x86_64-nacl/4.4.3/../../../../x86_64-nacl/lib/../lib32/libstdc++.a(functexcept.o)
 .group         0x0000000000000000        0x8 /home/berkeley/nacl_sdk/pepper_42/toolchain/linux_x86_newlib/bin/../lib/gcc/x86_64-nacl/4.4.3/../../../../x86_64-nacl/lib/../lib32/libstdc++.a(functexcept.o)
 .group         0x0000000000000000        0x8 /home/berkeley/nacl_sdk/pepper_42/toolchain/linux_x86_newlib/bin/../lib/gcc/x86_64-nacl/4.4.3/../../../../x86_64-nacl/lib/../lib32/libstdc++.a(functexcept.o)
 .group         0x0000000000000000        0x8 /home/berkeley/nacl_sdk/pepper_42/toolchain/linux_x86_newlib/bin/../lib/gcc/x86_64-nacl/4.4.3/../../../../x86_64-nacl/lib/../lib32/libstdc++.a(functexcept.o)
 .group         0x0000000000000000        0x8 /home/berkeley/nacl_sdk/pepper_42/toolchain/linux_x86_newlib/bin/../lib/gcc/x86_64-nacl/4.4.3/../../../../x86_64-nacl/lib/../lib32/libstdc++.a(functexcept.o)
 .group         0x0000000000000000        0x8 /home/berkeley/nacl_sdk/pepper_42/toolchain/linux_x86_newlib/bin/../lib/gcc/x86_64-nacl/4.4.3/../../../../x86_64-nacl/lib/../lib32/libstdc++.a(functexcept.o)
 .group         0x0000000000000000        0x8 /home/berkeley/nacl_sdk/pepper_42/toolchain/linux_x86_newlib/bin/../lib/gcc/x86_64-nacl/4.4.3/../../../../x86_64-nacl/lib/../lib32/libstdc++.a(functexcept.o)
 .group         0x0000000000000000        0x8 /home/berkeley/nacl_sdk/pepper_42/toolchain/linux_x86_newlib/bin/../lib/gcc/x86_64-nacl/4.4.3/../../../../x86_64-nacl/lib/../lib32/libstdc++.a(functexcept.o)
 .group         0x0000000000000000        0x8 /home/berkeley/nacl_sdk/pepper_42/toolchain/linux_x86_newlib/bin/../lib/gcc/x86_64-nacl/4.4.3/../../../../x86_64-nacl/lib/../lib32/libstdc++.a(functexcept.o)
 .group         0x0000000000000000        0x8 /home/berkeley/nacl_sdk/pepper_42/toolchain/linux_x86_newlib/bin/../lib/gcc/x86_64-nacl/4.4.3/../../../../x86_64-nacl/lib/../lib32/libstdc++.a(functexcept.o)
 .group         0x0000000000000000        0x8 /home/berkeley/nacl_sdk/pepper_42/toolchain/linux_x86_newlib/bin/../lib/gcc/x86_64-nacl/4.4.3/../../../../x86_64-nacl/lib/../lib32/libstdc++.a(functexcept.o)
 .group         0x0000000000000000        0x8 /home/berkeley/nacl_sdk/pepper_42/toolchain/linux_x86_newlib/bin/../lib/gcc/x86_64-nacl/4.4.3/../../../../x86_64-nacl/lib/../lib32/libstdc++.a(functexcept.o)
 .note.GNU-stack
                0x0000000000000000        0x0 /home/berkeley/nacl_sdk/pepper_42/toolchain/linux_x86_newlib/bin/../lib/gcc/x86_64-nacl/4.4.3/../../../../x86_64-nacl/lib/../lib32/libstdc++.a(functexcept.o)
 .group         0x0000000000000000        0x8 /home/berkeley/nacl_sdk/pepper_42/toolchain/linux_x86_newlib/bin/../lib/gcc/x86_64-nacl/4.4.3/../../../../x86_64-nacl/lib/../lib32/libstdc++.a(ios_failure.o)
 .group         0x0000000000000000        0x8 /home/berkeley/nacl_sdk/pepper_42/toolchain/linux_x86_newlib/bin/../lib/gcc/x86_64-nacl/4.4.3/../../../../x86_64-nacl/lib/../lib32/libstdc++.a(ios_failure.o)
 .group         0x0000000000000000        0x8 /home/berkeley/nacl_sdk/pepper_42/toolchain/linux_x86_newlib/bin/../lib/gcc/x86_64-nacl/4.4.3/../../../../x86_64-nacl/lib/../lib32/libstdc++.a(ios_failure.o)
 .note.GNU-stack
                0x0000000000000000        0x0 /home/berkeley/nacl_sdk/pepper_42/toolchain/linux_x86_newlib/bin/../lib/gcc/x86_64-nacl/4.4.3/../../../../x86_64-nacl/lib/../lib32/libstdc++.a(ios_failure.o)
 .group         0x0000000000000000        0x8 /home/berkeley/nacl_sdk/pepper_42/toolchain/linux_x86_newlib/bin/../lib/gcc/x86_64-nacl/4.4.3/../../../../x86_64-nacl/lib/../lib32/libstdc++.a(stdexcept.o)
 .group         0x0000000000000000        0x8 /home/berkeley/nacl_sdk/pepper_42/toolchain/linux_x86_newlib/bin/../lib/gcc/x86_64-nacl/4.4.3/../../../../x86_64-nacl/lib/../lib32/libstdc++.a(stdexcept.o)
 .group         0x0000000000000000        0x8 /home/berkeley/nacl_sdk/pepper_42/toolchain/linux_x86_newlib/bin/../lib/gcc/x86_64-nacl/4.4.3/../../../../x86_64-nacl/lib/../lib32/libstdc++.a(stdexcept.o)
 .group         0x0000000000000000        0x8 /home/berkeley/nacl_sdk/pepper_42/toolchain/linux_x86_newlib/bin/../lib/gcc/x86_64-nacl/4.4.3/../../../../x86_64-nacl/lib/../lib32/libstdc++.a(stdexcept.o)
 .group         0x0000000000000000        0x8 /home/berkeley/nacl_sdk/pepper_42/toolchain/linux_x86_newlib/bin/../lib/gcc/x86_64-nacl/4.4.3/../../../../x86_64-nacl/lib/../lib32/libstdc++.a(stdexcept.o)
 .group         0x0000000000000000        0x8 /home/berkeley/nacl_sdk/pepper_42/toolchain/linux_x86_newlib/bin/../lib/gcc/x86_64-nacl/4.4.3/../../../../x86_64-nacl/lib/../lib32/libstdc++.a(stdexcept.o)
 .group         0x0000000000000000        0x8 /home/berkeley/nacl_sdk/pepper_42/toolchain/linux_x86_newlib/bin/../lib/gcc/x86_64-nacl/4.4.3/../../../../x86_64-nacl/lib/../lib32/libstdc++.a(stdexcept.o)
 .group         0x0000000000000000        0x8 /home/berkeley/nacl_sdk/pepper_42/toolchain/linux_x86_newlib/bin/../lib/gcc/x86_64-nacl/4.4.3/../../../../x86_64-nacl/lib/../lib32/libstdc++.a(stdexcept.o)
 .group         0x0000000000000000        0x8 /home/berkeley/nacl_sdk/pepper_42/toolchain/linux_x86_newlib/bin/../lib/gcc/x86_64-nacl/4.4.3/../../../../x86_64-nacl/lib/../lib32/libstdc++.a(stdexcept.o)
 .group         0x0000000000000000        0x8 /home/berkeley/nacl_sdk/pepper_42/toolchain/linux_x86_newlib/bin/../lib/gcc/x86_64-nacl/4.4.3/../../../../x86_64-nacl/lib/../lib32/libstdc++.a(stdexcept.o)
 .group         0x0000000000000000        0x8 /home/berkeley/nacl_sdk/pepper_42/toolchain/linux_x86_newlib/bin/../lib/gcc/x86_64-nacl/4.4.3/../../../../x86_64-nacl/lib/../lib32/libstdc++.a(stdexcept.o)
 .group         0x0000000000000000        0x8 /home/berkeley/nacl_sdk/pepper_42/toolchain/linux_x86_newlib/bin/../lib/gcc/x86_64-nacl/4.4.3/../../../../x86_64-nacl/lib/../lib32/libstdc++.a(stdexcept.o)
 .group         0x0000000000000000        0x8 /home/berkeley/nacl_sdk/pepper_42/toolchain/linux_x86_newlib/bin/../lib/gcc/x86_64-nacl/4.4.3/../../../../x86_64-nacl/lib/../lib32/libstdc++.a(stdexcept.o)
 .group         0x0000000000000000        0x8 /home/berkeley/nacl_sdk/pepper_42/toolchain/linux_x86_newlib/bin/../lib/gcc/x86_64-nacl/4.4.3/../../../../x86_64-nacl/lib/../lib32/libstdc++.a(stdexcept.o)
 .group         0x0000000000000000        0x8 /home/berkeley/nacl_sdk/pepper_42/toolchain/linux_x86_newlib/bin/../lib/gcc/x86_64-nacl/4.4.3/../../../../x86_64-nacl/lib/../lib32/libstdc++.a(stdexcept.o)
 .group         0x0000000000000000        0x8 /home/berkeley/nacl_sdk/pepper_42/toolchain/linux_x86_newlib/bin/../lib/gcc/x86_64-nacl/4.4.3/../../../../x86_64-nacl/lib/../lib32/libstdc++.a(stdexcept.o)
 .group         0x0000000000000000        0x8 /home/berkeley/nacl_sdk/pepper_42/toolchain/linux_x86_newlib/bin/../lib/gcc/x86_64-nacl/4.4.3/../../../../x86_64-nacl/lib/../lib32/libstdc++.a(stdexcept.o)
 .group         0x0000000000000000        0x8 /home/berkeley/nacl_sdk/pepper_42/toolchain/linux_x86_newlib/bin/../lib/gcc/x86_64-nacl/4.4.3/../../../../x86_64-nacl/lib/../lib32/libstdc++.a(stdexcept.o)
 .group         0x0000000000000000        0x8 /home/berkeley/nacl_sdk/pepper_42/toolchain/linux_x86_newlib/bin/../lib/gcc/x86_64-nacl/4.4.3/../../../../x86_64-nacl/lib/../lib32/libstdc++.a(stdexcept.o)
 .group         0x0000000000000000        0x8 /home/berkeley/nacl_sdk/pepper_42/toolchain/linux_x86_newlib/bin/../lib/gcc/x86_64-nacl/4.4.3/../../../../x86_64-nacl/lib/../lib32/libstdc++.a(stdexcept.o)
 .group         0x0000000000000000        0x8 /home/berkeley/nacl_sdk/pepper_42/toolchain/linux_x86_newlib/bin/../lib/gcc/x86_64-nacl/4.4.3/../../../../x86_64-nacl/lib/../lib32/libstdc++.a(stdexcept.o)
 .group         0x0000000000000000        0x8 /home/berkeley/nacl_sdk/pepper_42/toolchain/linux_x86_newlib/bin/../lib/gcc/x86_64-nacl/4.4.3/../../../../x86_64-nacl/lib/../lib32/libstdc++.a(stdexcept.o)
 .group         0x0000000000000000        0x8 /home/berkeley/nacl_sdk/pepper_42/toolchain/linux_x86_newlib/bin/../lib/gcc/x86_64-nacl/4.4.3/../../../../x86_64-nacl/lib/../lib32/libstdc++.a(stdexcept.o)
 .group         0x0000000000000000        0x8 /home/berkeley/nacl_sdk/pepper_42/toolchain/linux_x86_newlib/bin/../lib/gcc/x86_64-nacl/4.4.3/../../../../x86_64-nacl/lib/../lib32/libstdc++.a(stdexcept.o)
 .group         0x0000000000000000        0x8 /home/berkeley/nacl_sdk/pepper_42/toolchain/linux_x86_newlib/bin/../lib/gcc/x86_64-nacl/4.4.3/../../../../x86_64-nacl/lib/../lib32/libstdc++.a(stdexcept.o)
 .group         0x0000000000000000        0x8 /home/berkeley/nacl_sdk/pepper_42/toolchain/linux_x86_newlib/bin/../lib/gcc/x86_64-nacl/4.4.3/../../../../x86_64-nacl/lib/../lib32/libstdc++.a(stdexcept.o)
 .group         0x0000000000000000        0x8 /home/berkeley/nacl_sdk/pepper_42/toolchain/linux_x86_newlib/bin/../lib/gcc/x86_64-nacl/4.4.3/../../../../x86_64-nacl/lib/../lib32/libstdc++.a(stdexcept.o)
 .group         0x0000000000000000        0x8 /home/berkeley/nacl_sdk/pepper_42/toolchain/linux_x86_newlib/bin/../lib/gcc/x86_64-nacl/4.4.3/../../../../x86_64-nacl/lib/../lib32/libstdc++.a(stdexcept.o)
 .group         0x0000000000000000        0x8 /home/berkeley/nacl_sdk/pepper_42/toolchain/linux_x86_newlib/bin/../lib/gcc/x86_64-nacl/4.4.3/../../../../x86_64-nacl/lib/../lib32/libstdc++.a(stdexcept.o)
 .group         0x0000000000000000        0x8 /home/berkeley/nacl_sdk/pepper_42/toolchain/linux_x86_newlib/bin/../lib/gcc/x86_64-nacl/4.4.3/../../../../x86_64-nacl/lib/../lib32/libstdc++.a(stdexcept.o)
 .group         0x0000000000000000        0x8 /home/berkeley/nacl_sdk/pepper_42/toolchain/linux_x86_newlib/bin/../lib/gcc/x86_64-nacl/4.4.3/../../../../x86_64-nacl/lib/../lib32/libstdc++.a(stdexcept.o)
 .group         0x0000000000000000        0x8 /home/berkeley/nacl_sdk/pepper_42/toolchain/linux_x86_newlib/bin/../lib/gcc/x86_64-nacl/4.4.3/../../../../x86_64-nacl/lib/../lib32/libstdc++.a(stdexcept.o)
 .group         0x0000000000000000        0x8 /home/berkeley/nacl_sdk/pepper_42/toolchain/linux_x86_newlib/bin/../lib/gcc/x86_64-nacl/4.4.3/../../../../x86_64-nacl/lib/../lib32/libstdc++.a(stdexcept.o)
 .group         0x0000000000000000        0x8 /home/berkeley/nacl_sdk/pepper_42/toolchain/linux_x86_newlib/bin/../lib/gcc/x86_64-nacl/4.4.3/../../../../x86_64-nacl/lib/../lib32/libstdc++.a(stdexcept.o)
 .group         0x0000000000000000        0x8 /home/berkeley/nacl_sdk/pepper_42/toolchain/linux_x86_newlib/bin/../lib/gcc/x86_64-nacl/4.4.3/../../../../x86_64-nacl/lib/../lib32/libstdc++.a(stdexcept.o)
 .group         0x0000000000000000        0x8 /home/berkeley/nacl_sdk/pepper_42/toolchain/linux_x86_newlib/bin/../lib/gcc/x86_64-nacl/4.4.3/../../../../x86_64-nacl/lib/../lib32/libstdc++.a(stdexcept.o)
 .group         0x0000000000000000        0x8 /home/berkeley/nacl_sdk/pepper_42/toolchain/linux_x86_newlib/bin/../lib/gcc/x86_64-nacl/4.4.3/../../../../x86_64-nacl/lib/../lib32/libstdc++.a(stdexcept.o)
 .group         0x0000000000000000        0x8 /home/berkeley/nacl_sdk/pepper_42/toolchain/linux_x86_newlib/bin/../lib/gcc/x86_64-nacl/4.4.3/../../../../x86_64-nacl/lib/../lib32/libstdc++.a(stdexcept.o)
 .group         0x0000000000000000        0x8 /home/berkeley/nacl_sdk/pepper_42/toolchain/linux_x86_newlib/bin/../lib/gcc/x86_64-nacl/4.4.3/../../../../x86_64-nacl/lib/../lib32/libstdc++.a(stdexcept.o)
 .group         0x0000000000000000        0x8 /home/berkeley/nacl_sdk/pepper_42/toolchain/linux_x86_newlib/bin/../lib/gcc/x86_64-nacl/4.4.3/../../../../x86_64-nacl/lib/../lib32/libstdc++.a(stdexcept.o)
 .group         0x0000000000000000        0x8 /home/berkeley/nacl_sdk/pepper_42/toolchain/linux_x86_newlib/bin/../lib/gcc/x86_64-nacl/4.4.3/../../../../x86_64-nacl/lib/../lib32/libstdc++.a(stdexcept.o)
 .text._ZNSt15underflow_errorD0Ev
                0x0000000000000000       0x40 /home/berkeley/nacl_sdk/pepper_42/toolchain/linux_x86_newlib/bin/../lib/gcc/x86_64-nacl/4.4.3/../../../../x86_64-nacl/lib/../lib32/libstdc++.a(stdexcept.o)
 .text._ZNSt15underflow_errorD1Ev
                0x0000000000000000       0x20 /home/berkeley/nacl_sdk/pepper_42/toolchain/linux_x86_newlib/bin/../lib/gcc/x86_64-nacl/4.4.3/../../../../x86_64-nacl/lib/../lib32/libstdc++.a(stdexcept.o)
 .text._ZNSt14overflow_errorD0Ev
                0x0000000000000000       0x40 /home/berkeley/nacl_sdk/pepper_42/toolchain/linux_x86_newlib/bin/../lib/gcc/x86_64-nacl/4.4.3/../../../../x86_64-nacl/lib/../lib32/libstdc++.a(stdexcept.o)
 .text._ZNSt14overflow_errorD1Ev
                0x0000000000000000       0x20 /home/berkeley/nacl_sdk/pepper_42/toolchain/linux_x86_newlib/bin/../lib/gcc/x86_64-nacl/4.4.3/../../../../x86_64-nacl/lib/../lib32/libstdc++.a(stdexcept.o)
 .text._ZNSt11range_errorD0Ev
                0x0000000000000000       0x40 /home/berkeley/nacl_sdk/pepper_42/toolchain/linux_x86_newlib/bin/../lib/gcc/x86_64-nacl/4.4.3/../../../../x86_64-nacl/lib/../lib32/libstdc++.a(stdexcept.o)
 .text._ZNSt11range_errorD1Ev
                0x0000000000000000       0x20 /home/berkeley/nacl_sdk/pepper_42/toolchain/linux_x86_newlib/bin/../lib/gcc/x86_64-nacl/4.4.3/../../../../x86_64-nacl/lib/../lib32/libstdc++.a(stdexcept.o)
 .text._ZNSt12out_of_rangeD0Ev
                0x0000000000000000       0x40 /home/berkeley/nacl_sdk/pepper_42/toolchain/linux_x86_newlib/bin/../lib/gcc/x86_64-nacl/4.4.3/../../../../x86_64-nacl/lib/../lib32/libstdc++.a(stdexcept.o)
 .text._ZNSt12out_of_rangeD1Ev
                0x0000000000000000       0x20 /home/berkeley/nacl_sdk/pepper_42/toolchain/linux_x86_newlib/bin/../lib/gcc/x86_64-nacl/4.4.3/../../../../x86_64-nacl/lib/../lib32/libstdc++.a(stdexcept.o)
 .text._ZNSt12length_errorD0Ev
                0x0000000000000000       0x40 /home/berkeley/nacl_sdk/pepper_42/toolchain/linux_x86_newlib/bin/../lib/gcc/x86_64-nacl/4.4.3/../../../../x86_64-nacl/lib/../lib32/libstdc++.a(stdexcept.o)
 .text._ZNSt12length_errorD1Ev
                0x0000000000000000       0x20 /home/berkeley/nacl_sdk/pepper_42/toolchain/linux_x86_newlib/bin/../lib/gcc/x86_64-nacl/4.4.3/../../../../x86_64-nacl/lib/../lib32/libstdc++.a(stdexcept.o)
 .text._ZNSt16invalid_argumentD0Ev
                0x0000000000000000       0x40 /home/berkeley/nacl_sdk/pepper_42/toolchain/linux_x86_newlib/bin/../lib/gcc/x86_64-nacl/4.4.3/../../../../x86_64-nacl/lib/../lib32/libstdc++.a(stdexcept.o)
 .text._ZNSt16invalid_argumentD1Ev
                0x0000000000000000       0x20 /home/berkeley/nacl_sdk/pepper_42/toolchain/linux_x86_newlib/bin/../lib/gcc/x86_64-nacl/4.4.3/../../../../x86_64-nacl/lib/../lib32/libstdc++.a(stdexcept.o)
 .text._ZNSt12domain_errorD0Ev
                0x0000000000000000       0x40 /home/berkeley/nacl_sdk/pepper_42/toolchain/linux_x86_newlib/bin/../lib/gcc/x86_64-nacl/4.4.3/../../../../x86_64-nacl/lib/../lib32/libstdc++.a(stdexcept.o)
 .text._ZNSt12domain_errorD1Ev
                0x0000000000000000       0x20 /home/berkeley/nacl_sdk/pepper_42/toolchain/linux_x86_newlib/bin/../lib/gcc/x86_64-nacl/4.4.3/../../../../x86_64-nacl/lib/../lib32/libstdc++.a(stdexcept.o)
 .rodata._ZTVSt15underflow_error
                0x0000000000000000       0x14 /home/berkeley/nacl_sdk/pepper_42/toolchain/linux_x86_newlib/bin/../lib/gcc/x86_64-nacl/4.4.3/../../../../x86_64-nacl/lib/../lib32/libstdc++.a(stdexcept.o)
 .rodata._ZTISt15underflow_error
                0x0000000000000000        0xc /home/berkeley/nacl_sdk/pepper_42/toolchain/linux_x86_newlib/bin/../lib/gcc/x86_64-nacl/4.4.3/../../../../x86_64-nacl/lib/../lib32/libstdc++.a(stdexcept.o)
 .rodata._ZTSSt15underflow_error
                0x0000000000000000       0x14 /home/berkeley/nacl_sdk/pepper_42/toolchain/linux_x86_newlib/bin/../lib/gcc/x86_64-nacl/4.4.3/../../../../x86_64-nacl/lib/../lib32/libstdc++.a(stdexcept.o)
 .rodata._ZTVSt14overflow_error
                0x0000000000000000       0x14 /home/berkeley/nacl_sdk/pepper_42/toolchain/linux_x86_newlib/bin/../lib/gcc/x86_64-nacl/4.4.3/../../../../x86_64-nacl/lib/../lib32/libstdc++.a(stdexcept.o)
 .rodata._ZTISt14overflow_error
                0x0000000000000000        0xc /home/berkeley/nacl_sdk/pepper_42/toolchain/linux_x86_newlib/bin/../lib/gcc/x86_64-nacl/4.4.3/../../../../x86_64-nacl/lib/../lib32/libstdc++.a(stdexcept.o)
 .rodata._ZTSSt14overflow_error
                0x0000000000000000       0x13 /home/berkeley/nacl_sdk/pepper_42/toolchain/linux_x86_newlib/bin/../lib/gcc/x86_64-nacl/4.4.3/../../../../x86_64-nacl/lib/../lib32/libstdc++.a(stdexcept.o)
 .rodata._ZTVSt11range_error
                0x0000000000000000       0x14 /home/berkeley/nacl_sdk/pepper_42/toolchain/linux_x86_newlib/bin/../lib/gcc/x86_64-nacl/4.4.3/../../../../x86_64-nacl/lib/../lib32/libstdc++.a(stdexcept.o)
 .rodata._ZTISt11range_error
                0x0000000000000000        0xc /home/berkeley/nacl_sdk/pepper_42/toolchain/linux_x86_newlib/bin/../lib/gcc/x86_64-nacl/4.4.3/../../../../x86_64-nacl/lib/../lib32/libstdc++.a(stdexcept.o)
 .rodata._ZTSSt11range_error
                0x0000000000000000       0x10 /home/berkeley/nacl_sdk/pepper_42/toolchain/linux_x86_newlib/bin/../lib/gcc/x86_64-nacl/4.4.3/../../../../x86_64-nacl/lib/../lib32/libstdc++.a(stdexcept.o)
 .rodata._ZTVSt12out_of_range
                0x0000000000000000       0x14 /home/berkeley/nacl_sdk/pepper_42/toolchain/linux_x86_newlib/bin/../lib/gcc/x86_64-nacl/4.4.3/../../../../x86_64-nacl/lib/../lib32/libstdc++.a(stdexcept.o)
 .rodata._ZTISt12out_of_range
                0x0000000000000000        0xc /home/berkeley/nacl_sdk/pepper_42/toolchain/linux_x86_newlib/bin/../lib/gcc/x86_64-nacl/4.4.3/../../../../x86_64-nacl/lib/../lib32/libstdc++.a(stdexcept.o)
 .rodata._ZTSSt12out_of_range
                0x0000000000000000       0x11 /home/berkeley/nacl_sdk/pepper_42/toolchain/linux_x86_newlib/bin/../lib/gcc/x86_64-nacl/4.4.3/../../../../x86_64-nacl/lib/../lib32/libstdc++.a(stdexcept.o)
 .rodata._ZTVSt12length_error
                0x0000000000000000       0x14 /home/berkeley/nacl_sdk/pepper_42/toolchain/linux_x86_newlib/bin/../lib/gcc/x86_64-nacl/4.4.3/../../../../x86_64-nacl/lib/../lib32/libstdc++.a(stdexcept.o)
 .rodata._ZTISt12length_error
                0x0000000000000000        0xc /home/berkeley/nacl_sdk/pepper_42/toolchain/linux_x86_newlib/bin/../lib/gcc/x86_64-nacl/4.4.3/../../../../x86_64-nacl/lib/../lib32/libstdc++.a(stdexcept.o)
 .rodata._ZTSSt12length_error
                0x0000000000000000       0x11 /home/berkeley/nacl_sdk/pepper_42/toolchain/linux_x86_newlib/bin/../lib/gcc/x86_64-nacl/4.4.3/../../../../x86_64-nacl/lib/../lib32/libstdc++.a(stdexcept.o)
 .rodata._ZTVSt16invalid_argument
                0x0000000000000000       0x14 /home/berkeley/nacl_sdk/pepper_42/toolchain/linux_x86_newlib/bin/../lib/gcc/x86_64-nacl/4.4.3/../../../../x86_64-nacl/lib/../lib32/libstdc++.a(stdexcept.o)
 .rodata._ZTISt16invalid_argument
                0x0000000000000000        0xc /home/berkeley/nacl_sdk/pepper_42/toolchain/linux_x86_newlib/bin/../lib/gcc/x86_64-nacl/4.4.3/../../../../x86_64-nacl/lib/../lib32/libstdc++.a(stdexcept.o)
 .rodata._ZTSSt16invalid_argument
                0x0000000000000000       0x15 /home/berkeley/nacl_sdk/pepper_42/toolchain/linux_x86_newlib/bin/../lib/gcc/x86_64-nacl/4.4.3/../../../../x86_64-nacl/lib/../lib32/libstdc++.a(stdexcept.o)
 .rodata._ZTVSt12domain_error
                0x0000000000000000       0x14 /home/berkeley/nacl_sdk/pepper_42/toolchain/linux_x86_newlib/bin/../lib/gcc/x86_64-nacl/4.4.3/../../../../x86_64-nacl/lib/../lib32/libstdc++.a(stdexcept.o)
 .rodata._ZTISt12domain_error
                0x0000000000000000        0xc /home/berkeley/nacl_sdk/pepper_42/toolchain/linux_x86_newlib/bin/../lib/gcc/x86_64-nacl/4.4.3/../../../../x86_64-nacl/lib/../lib32/libstdc++.a(stdexcept.o)
 .rodata._ZTSSt12domain_error
                0x0000000000000000       0x11 /home/berkeley/nacl_sdk/pepper_42/toolchain/linux_x86_newlib/bin/../lib/gcc/x86_64-nacl/4.4.3/../../../../x86_64-nacl/lib/../lib32/libstdc++.a(stdexcept.o)
 .note.GNU-stack
                0x0000000000000000        0x0 /home/berkeley/nacl_sdk/pepper_42/toolchain/linux_x86_newlib/bin/../lib/gcc/x86_64-nacl/4.4.3/../../../../x86_64-nacl/lib/../lib32/libstdc++.a(stdexcept.o)
 .group         0x0000000000000000        0x8 /home/berkeley/nacl_sdk/pepper_42/toolchain/linux_x86_newlib/bin/../lib/gcc/x86_64-nacl/4.4.3/../../../../x86_64-nacl/lib/../lib32/libstdc++.a(system_error.o)
 .group         0x0000000000000000        0x8 /home/berkeley/nacl_sdk/pepper_42/toolchain/linux_x86_newlib/bin/../lib/gcc/x86_64-nacl/4.4.3/../../../../x86_64-nacl/lib/../lib32/libstdc++.a(system_error.o)
 .group         0x0000000000000000        0x8 /home/berkeley/nacl_sdk/pepper_42/toolchain/linux_x86_newlib/bin/../lib/gcc/x86_64-nacl/4.4.3/../../../../x86_64-nacl/lib/../lib32/libstdc++.a(system_error.o)
 .group         0x0000000000000000        0x8 /home/berkeley/nacl_sdk/pepper_42/toolchain/linux_x86_newlib/bin/../lib/gcc/x86_64-nacl/4.4.3/../../../../x86_64-nacl/lib/../lib32/libstdc++.a(system_error.o)
 .group         0x0000000000000000        0x8 /home/berkeley/nacl_sdk/pepper_42/toolchain/linux_x86_newlib/bin/../lib/gcc/x86_64-nacl/4.4.3/../../../../x86_64-nacl/lib/../lib32/libstdc++.a(system_error.o)
 .group         0x0000000000000000        0x8 /home/berkeley/nacl_sdk/pepper_42/toolchain/linux_x86_newlib/bin/../lib/gcc/x86_64-nacl/4.4.3/../../../../x86_64-nacl/lib/../lib32/libstdc++.a(system_error.o)
 .group         0x0000000000000000        0x8 /home/berkeley/nacl_sdk/pepper_42/toolchain/linux_x86_newlib/bin/../lib/gcc/x86_64-nacl/4.4.3/../../../../x86_64-nacl/lib/../lib32/libstdc++.a(system_error.o)
 .group         0x0000000000000000        0x8 /home/berkeley/nacl_sdk/pepper_42/toolchain/linux_x86_newlib/bin/../lib/gcc/x86_64-nacl/4.4.3/../../../../x86_64-nacl/lib/../lib32/libstdc++.a(system_error.o)
 .note.GNU-stack
                0x0000000000000000        0x0 /home/berkeley/nacl_sdk/pepper_42/toolchain/linux_x86_newlib/bin/../lib/gcc/x86_64-nacl/4.4.3/../../../../x86_64-nacl/lib/../lib32/libstdc++.a(system_error.o)
 .note.GNU-stack
                0x0000000000000000        0x0 /home/berkeley/nacl_sdk/pepper_42/toolchain/linux_x86_newlib/bin/../lib/gcc/x86_64-nacl/4.4.3/../../../../x86_64-nacl/lib/../lib32/libstdc++.a(eh_unex_handler.o)
 .note.GNU-stack
                0x0000000000000000        0x0 /home/berkeley/nacl_sdk/pepper_42/toolchain/linux_x86_newlib/bin/../lib/gcc/x86_64-nacl/4.4.3/../../../../x86_64-nacl/lib/../lib32/libstdc++.a(eh_term_handler.o)
 .group         0x0000000000000000        0x8 /home/berkeley/nacl_sdk/pepper_42/toolchain/linux_x86_newlib/bin/../lib/gcc/x86_64-nacl/4.4.3/../../../../x86_64-nacl/lib/../lib32/libstdc++.a(bad_typeid.o)
 .group         0x0000000000000000        0x8 /home/berkeley/nacl_sdk/pepper_42/toolchain/linux_x86_newlib/bin/../lib/gcc/x86_64-nacl/4.4.3/../../../../x86_64-nacl/lib/../lib32/libstdc++.a(bad_typeid.o)
 .group         0x0000000000000000        0x8 /home/berkeley/nacl_sdk/pepper_42/toolchain/linux_x86_newlib/bin/../lib/gcc/x86_64-nacl/4.4.3/../../../../x86_64-nacl/lib/../lib32/libstdc++.a(bad_typeid.o)
 .note.GNU-stack
                0x0000000000000000        0x0 /home/berkeley/nacl_sdk/pepper_42/toolchain/linux_x86_newlib/bin/../lib/gcc/x86_64-nacl/4.4.3/../../../../x86_64-nacl/lib/../lib32/libstdc++.a(bad_typeid.o)
 .group         0x0000000000000000        0x8 /home/berkeley/nacl_sdk/pepper_42/toolchain/linux_x86_newlib/bin/../lib/gcc/x86_64-nacl/4.4.3/../../../../x86_64-nacl/lib/../lib32/libstdc++.a(new_handler.o)
 .group         0x0000000000000000        0x8 /home/berkeley/nacl_sdk/pepper_42/toolchain/linux_x86_newlib/bin/../lib/gcc/x86_64-nacl/4.4.3/../../../../x86_64-nacl/lib/../lib32/libstdc++.a(new_handler.o)
 .group         0x0000000000000000        0x8 /home/berkeley/nacl_sdk/pepper_42/toolchain/linux_x86_newlib/bin/../lib/gcc/x86_64-nacl/4.4.3/../../../../x86_64-nacl/lib/../lib32/libstdc++.a(new_handler.o)
 .note.GNU-stack
                0x0000000000000000        0x0 /home/berkeley/nacl_sdk/pepper_42/toolchain/linux_x86_newlib/bin/../lib/gcc/x86_64-nacl/4.4.3/../../../../x86_64-nacl/lib/../lib32/libstdc++.a(new_handler.o)
 .group         0x0000000000000000        0x8 /home/berkeley/nacl_sdk/pepper_42/toolchain/linux_x86_newlib/bin/../lib/gcc/x86_64-nacl/4.4.3/../../../../x86_64-nacl/lib/../lib32/libstdc++.a(bad_cast.o)
 .group         0x0000000000000000        0x8 /home/berkeley/nacl_sdk/pepper_42/toolchain/linux_x86_newlib/bin/../lib/gcc/x86_64-nacl/4.4.3/../../../../x86_64-nacl/lib/../lib32/libstdc++.a(bad_cast.o)
 .group         0x0000000000000000        0x8 /home/berkeley/nacl_sdk/pepper_42/toolchain/linux_x86_newlib/bin/../lib/gcc/x86_64-nacl/4.4.3/../../../../x86_64-nacl/lib/../lib32/libstdc++.a(bad_cast.o)
 .note.GNU-stack
                0x0000000000000000        0x0 /home/berkeley/nacl_sdk/pepper_42/toolchain/linux_x86_newlib/bin/../lib/gcc/x86_64-nacl/4.4.3/../../../../x86_64-nacl/lib/../lib32/libstdc++.a(bad_cast.o)
 .note.GNU-stack
                0x0000000000000000        0x0 /home/berkeley/nacl_sdk/pepper_42/toolchain/linux_x86_newlib/bin/../lib/gcc/x86_64-nacl/4.4.3/../../../../x86_64-nacl/lib/../lib32/libstdc++.a(vterminate.o)
 .note.GNU-stack
                0x0000000000000000        0x0 /home/berkeley/nacl_sdk/pepper_42/toolchain/linux_x86_newlib/bin/../lib/gcc/x86_64-nacl/4.4.3/../../../../x86_64-nacl/lib/../lib32/libstdc++.a(cp-demangle.o)
 .note.GNU-stack
                0x0000000000000000        0x0 /home/berkeley/nacl_sdk/pepper_42/toolchain/linux_x86_newlib/bin/../lib/gcc/x86_64-nacl/4.4.3/../../../../x86_64-nacl/lib/../lib32/libstdc++.a(eh_type.o)
 .group         0x0000000000000000        0x8 /home/berkeley/nacl_sdk/pepper_42/toolchain/linux_x86_newlib/bin/../lib/gcc/x86_64-nacl/4.4.3/32/libgcc.a(unwind-dw2.o)
 .group         0x0000000000000000        0x8 /home/berkeley/nacl_sdk/pepper_42/toolchain/linux_x86_newlib/bin/../lib/gcc/x86_64-nacl/4.4.3/32/libgcc.a(unwind-dw2.o)
 .note.GNU-stack
                0x0000000000000000        0x0 /home/berkeley/nacl_sdk/pepper_42/toolchain/linux_x86_newlib/bin/../lib/gcc/x86_64-nacl/4.4.3/32/libgcc.a(unwind-dw2.o)
 .group         0x0000000000000000        0x8 /home/berkeley/nacl_sdk/pepper_42/toolchain/linux_x86_newlib/bin/../lib/gcc/x86_64-nacl/4.4.3/32/libgcc.a(unwind-dw2-fde-glibc.o)
 .text.__i686.get_pc_thunk.bx
                0x0000000000000000       0x20 /home/berkeley/nacl_sdk/pepper_42/toolchain/linux_x86_newlib/bin/../lib/gcc/x86_64-nacl/4.4.3/32/libgcc.a(unwind-dw2-fde-glibc.o)
 .note.GNU-stack
                0x0000000000000000        0x0 /home/berkeley/nacl_sdk/pepper_42/toolchain/linux_x86_newlib/bin/../lib/gcc/x86_64-nacl/4.4.3/32/libgcc.a(unwind-dw2-fde-glibc.o)
 .note.GNU-stack
                0x0000000000000000        0x0 /home/berkeley/nacl_sdk/pepper_42/toolchain/linux_x86_newlib/bin/../lib/gcc/x86_64-nacl/4.4.3/../../../../x86_64-nacl/lib/../lib32/libnacl.a(_exit_710c7d0d.o)
 .note.GNU-stack
                0x0000000000000000        0x0 /home/berkeley/nacl_sdk/pepper_42/toolchain/linux_x86_newlib/bin/../lib/gcc/x86_64-nacl/4.4.3/../../../../x86_64-nacl/lib/../lib32/libnacl.a(abort_9f6b5845.o)
 .note.GNU-stack
                0x0000000000000000        0x0 /home/berkeley/nacl_sdk/pepper_42/toolchain/linux_x86_newlib/bin/../lib/gcc/x86_64-nacl/4.4.3/../../../../x86_64-nacl/lib/../lib32/libnacl.a(environ_25cd24d8.o)
 .note.GNU-stack
                0x0000000000000000        0x0 /home/berkeley/nacl_sdk/pepper_42/toolchain/linux_x86_newlib/bin/../lib/gcc/x86_64-nacl/4.4.3/../../../../x86_64-nacl/lib/../lib32/libnacl.a(start_fa9ef7de.o)
 .note.GNU-stack
                0x0000000000000000        0x0 /home/berkeley/nacl_sdk/pepper_42/toolchain/linux_x86_newlib/bin/../lib/gcc/x86_64-nacl/4.4.3/../../../../x86_64-nacl/lib/../lib32/libnacl.a(malloc_222c4a1e.o)
 .note.GNU-stack
                0x0000000000000000        0x0 /home/berkeley/nacl_sdk/pepper_42/toolchain/linux_x86_newlib/bin/../lib/gcc/x86_64-nacl/4.4.3/../../../../x86_64-nacl/lib/../lib32/libnacl.a(nacl_irt_6de1d53f.o)
 .note.GNU-stack
                0x0000000000000000        0x0 /home/berkeley/nacl_sdk/pepper_42/toolchain/linux_x86_newlib/bin/../lib/gcc/x86_64-nacl/4.4.3/../../../../x86_64-nacl/lib/../lib32/libnacl.a(pthread_initialize_minimal_4b6e776b.o)
 .note.GNU-stack
                0x0000000000000000        0x0 /home/berkeley/nacl_sdk/pepper_42/toolchain/linux_x86_newlib/bin/../lib/gcc/x86_64-nacl/4.4.3/../../../../x86_64-nacl/lib/../lib32/libnacl.a(nacl_read_tp_5748ac47.o)
 .note.GNU-stack
                0x0000000000000000        0x0 /home/berkeley/nacl_sdk/pepper_42/toolchain/linux_x86_newlib/bin/../lib/gcc/x86_64-nacl/4.4.3/../../../../x86_64-nacl/lib/../lib32/libnacl.a(mmap_767fb080.o)
 .note.GNU-stack
                0x0000000000000000        0x0 /home/berkeley/nacl_sdk/pepper_42/toolchain/linux_x86_newlib/bin/../lib/gcc/x86_64-nacl/4.4.3/../../../../x86_64-nacl/lib/../lib32/libnacl.a(sched_yield_56c375be.o)
 .note.GNU-stack
                0x0000000000000000        0x0 /home/berkeley/nacl_sdk/pepper_42/toolchain/linux_x86_newlib/bin/../lib/gcc/x86_64-nacl/4.4.3/../../../../x86_64-nacl/lib/../lib32/libnacl.a(munmap_d4f09867.o)
 .note.GNU-stack
                0x0000000000000000        0x0 /home/berkeley/nacl_sdk/pepper_42/toolchain/linux_x86_newlib/bin/../lib/gcc/x86_64-nacl/4.4.3/../../../../x86_64-nacl/lib/../lib32/libnacl.a(tls_bba1975b.o)
 .note.GNU-stack
                0x0000000000000000        0x0 /home/berkeley/nacl_sdk/pepper_42/toolchain/linux_x86_newlib/bin/../lib/gcc/x86_64-nacl/4.4.3/../../../../x86_64-nacl/lib/../lib32/libnacl.a(write_fb49787f.o)
 .note.GNU-stack
                0x0000000000000000        0x0 /home/berkeley/nacl_sdk/pepper_42/toolchain/linux_x86_newlib/bin/../lib/gcc/x86_64-nacl/4.4.3/../../../../x86_64-nacl/lib/../lib32/libnacl.a(nacl_tls_get_d2f842b5.o)
 .note.GNU-stack
                0x0000000000000000        0x0 /home/berkeley/nacl_sdk/pepper_42/toolchain/linux_x86_newlib/bin/../lib/gcc/x86_64-nacl/4.4.3/../../../../x86_64-nacl/lib/../lib32/libnacl.a(nacl_irt_init_7b4f826e.o)
 .note.GNU-stack
                0x0000000000000000        0x0 /home/berkeley/nacl_sdk/pepper_42/toolchain/linux_x86_newlib/bin/../lib/gcc/x86_64-nacl/4.4.3/../../../../x86_64-nacl/lib/../lib32/libnacl.a(sysconf_ad295ea2.o)
 .note.GNU-stack
                0x0000000000000000        0x0 /home/berkeley/nacl_sdk/pepper_42/toolchain/linux_x86_newlib/bin/../lib/gcc/x86_64-nacl/4.4.3/../../../../x86_64-nacl/lib/../lib32/libnacl.a(nacl_tls_init_eb0cd232.o)
 .note.GNU-stack
                0x0000000000000000        0x0 /home/berkeley/nacl_sdk/pepper_42/toolchain/linux_x86_newlib/bin/../lib/gcc/x86_64-nacl/4.4.3/../../../../x86_64-nacl/lib/../lib32/libcrt_common.a(lib_a-atexit.o)
 .note.GNU-stack
                0x0000000000000000        0x0 /home/berkeley/nacl_sdk/pepper_42/toolchain/linux_x86_newlib/bin/../lib/gcc/x86_64-nacl/4.4.3/../../../../x86_64-nacl/lib/../lib32/libcrt_common.a(lib_a-cxa_atexit.o)
 .note.GNU-stack
                0x0000000000000000        0x0 /home/berkeley/nacl_sdk/pepper_42/toolchain/linux_x86_newlib/bin/../lib/gcc/x86_64-nacl/4.4.3/../../../../x86_64-nacl/lib/../lib32/libcrt_common.a(lib_a-errno.o)
 .note.GNU-stack
                0x0000000000000000        0x0 /home/berkeley/nacl_sdk/pepper_42/toolchain/linux_x86_newlib/bin/../lib/gcc/x86_64-nacl/4.4.3/../../../../x86_64-nacl/lib/../lib32/libcrt_common.a(lib_a-exit.o)
 .note.GNU-stack
                0x0000000000000000        0x0 /home/berkeley/nacl_sdk/pepper_42/toolchain/linux_x86_newlib/bin/../lib/gcc/x86_64-nacl/4.4.3/../../../../x86_64-nacl/lib/../lib32/libcrt_common.a(lib_a-fini.o)
 .note.GNU-stack
                0x0000000000000000        0x0 /home/berkeley/nacl_sdk/pepper_42/toolchain/linux_x86_newlib/bin/../lib/gcc/x86_64-nacl/4.4.3/../../../../x86_64-nacl/lib/../lib32/libcrt_common.a(lib_a-fprintf.o)
 .note.GNU-stack
                0x0000000000000000        0x0 /home/berkeley/nacl_sdk/pepper_42/toolchain/linux_x86_newlib/bin/../lib/gcc/x86_64-nacl/4.4.3/../../../../x86_64-nacl/lib/../lib32/libcrt_common.a(lib_a-fputc.o)
 .note.GNU-stack
                0x0000000000000000        0x0 /home/berkeley/nacl_sdk/pepper_42/toolchain/linux_x86_newlib/bin/../lib/gcc/x86_64-nacl/4.4.3/../../../../x86_64-nacl/lib/../lib32/libcrt_common.a(lib_a-fputs.o)
 .note.GNU-stack
                0x0000000000000000        0x0 /home/berkeley/nacl_sdk/pepper_42/toolchain/linux_x86_newlib/bin/../lib/gcc/x86_64-nacl/4.4.3/../../../../x86_64-nacl/lib/../lib32/libcrt_common.a(lib_a-fvwrite.o)
 .note.GNU-stack
                0x0000000000000000        0x0 /home/berkeley/nacl_sdk/pepper_42/toolchain/linux_x86_newlib/bin/../lib/gcc/x86_64-nacl/4.4.3/../../../../x86_64-nacl/lib/../lib32/libcrt_common.a(lib_a-fwrite.o)
 .note.GNU-stack
                0x0000000000000000        0x0 /home/berkeley/nacl_sdk/pepper_42/toolchain/linux_x86_newlib/bin/../lib/gcc/x86_64-nacl/4.4.3/../../../../x86_64-nacl/lib/../lib32/libcrt_common.a(lib_a-getenv.o)
 .note.GNU-stack
                0x0000000000000000        0x0 /home/berkeley/nacl_sdk/pepper_42/toolchain/linux_x86_newlib/bin/../lib/gcc/x86_64-nacl/4.4.3/../../../../x86_64-nacl/lib/../lib32/libcrt_common.a(lib_a-getenv_r.o)
 .note.GNU-stack
                0x0000000000000000        0x0 /home/berkeley/nacl_sdk/pepper_42/toolchain/linux_x86_newlib/bin/../lib/gcc/x86_64-nacl/4.4.3/../../../../x86_64-nacl/lib/../lib32/libcrt_common.a(lib_a-impure.o)
 .note.GNU-stack
                0x0000000000000000        0x0 /home/berkeley/nacl_sdk/pepper_42/toolchain/linux_x86_newlib/bin/../lib/gcc/x86_64-nacl/4.4.3/../../../../x86_64-nacl/lib/../lib32/libcrt_common.a(lib_a-init.o)
 .note.GNU-stack
                0x0000000000000000        0x0 /home/berkeley/nacl_sdk/pepper_42/toolchain/linux_x86_newlib/bin/../lib/gcc/x86_64-nacl/4.4.3/../../../../x86_64-nacl/lib/../lib32/libcrt_common.a(lib_a-putc.o)
 .note.GNU-stack
                0x0000000000000000        0x0 /home/berkeley/nacl_sdk/pepper_42/toolchain/linux_x86_newlib/bin/../lib/gcc/x86_64-nacl/4.4.3/../../../../x86_64-nacl/lib/../lib32/libcrt_common.a(lib_a-snprintf.o)
 .note.GNU-stack
                0x0000000000000000        0x0 /home/berkeley/nacl_sdk/pepper_42/toolchain/linux_x86_newlib/bin/../lib/gcc/x86_64-nacl/4.4.3/../../../../x86_64-nacl/lib/../lib32/libcrt_common.a(lib_a-sprintf.o)
 .note.GNU-stack
                0x0000000000000000        0x0 /home/berkeley/nacl_sdk/pepper_42/toolchain/linux_x86_newlib/bin/../lib/gcc/x86_64-nacl/4.4.3/../../../../x86_64-nacl/lib/../lib32/libcrt_common.a(lib_a-strcpy.o)
 .note.GNU-stack
                0x0000000000000000        0x0 /home/berkeley/nacl_sdk/pepper_42/toolchain/linux_x86_newlib/bin/../lib/gcc/x86_64-nacl/4.4.3/../../../../x86_64-nacl/lib/../lib32/libcrt_common.a(lib_a-strerror.o)
 .note.GNU-stack
                0x0000000000000000        0x0 /home/berkeley/nacl_sdk/pepper_42/toolchain/linux_x86_newlib/bin/../lib/gcc/x86_64-nacl/4.4.3/../../../../x86_64-nacl/lib/../lib32/libcrt_common.a(lib_a-strncmp.o)
 .note.GNU-stack
                0x0000000000000000        0x0 /home/berkeley/nacl_sdk/pepper_42/toolchain/linux_x86_newlib/bin/../lib/gcc/x86_64-nacl/4.4.3/../../../../x86_64-nacl/lib/../lib32/libcrt_common.a(lib_a-svfprintf.o)
 .note.GNU-stack
                0x0000000000000000        0x0 /home/berkeley/nacl_sdk/pepper_42/toolchain/linux_x86_newlib/bin/../lib/gcc/x86_64-nacl/4.4.3/../../../../x86_64-nacl/lib/../lib32/libcrt_common.a(lib_a-u_strerr.o)
 .note.GNU-stack
                0x0000000000000000        0x0 /home/berkeley/nacl_sdk/pepper_42/toolchain/linux_x86_newlib/bin/../lib/gcc/x86_64-nacl/4.4.3/../../../../x86_64-nacl/lib/../lib32/libcrt_common.a(lib_a-vfprintf.o)
 .note.GNU-stack
                0x0000000000000000        0x0 /home/berkeley/nacl_sdk/pepper_42/toolchain/linux_x86_newlib/bin/../lib/gcc/x86_64-nacl/4.4.3/../../../../x86_64-nacl/lib/../lib32/libcrt_common.a(lib_a-wbuf.o)
 .note.GNU-stack
                0x0000000000000000        0x0 /home/berkeley/nacl_sdk/pepper_42/toolchain/linux_x86_newlib/bin/../lib/gcc/x86_64-nacl/4.4.3/../../../../x86_64-nacl/lib/../lib32/libcrt_common.a(lib_a-wcrtomb.o)
 .note.GNU-stack
                0x0000000000000000        0x0 /home/berkeley/nacl_sdk/pepper_42/toolchain/linux_x86_newlib/bin/../lib/gcc/x86_64-nacl/4.4.3/../../../../x86_64-nacl/lib/../lib32/libcrt_common.a(lib_a-wcsrtombs.o)
 .note.GNU-stack
                0x0000000000000000        0x0 /home/berkeley/nacl_sdk/pepper_42/toolchain/linux_x86_newlib/bin/../lib/gcc/x86_64-nacl/4.4.3/../../../../x86_64-nacl/lib/../lib32/libcrt_common.a(lib_a-wctomb_r.o)
 .note.GNU-stack
                0x0000000000000000        0x0 /home/berkeley/nacl_sdk/pepper_42/toolchain/linux_x86_newlib/bin/../lib/gcc/x86_64-nacl/4.4.3/../../../../x86_64-nacl/lib/../lib32/libcrt_common.a(lib_a-wsetup.o)
 .note.GNU-stack
                0x0000000000000000        0x0 /home/berkeley/nacl_sdk/pepper_42/toolchain/linux_x86_newlib/bin/../lib/gcc/x86_64-nacl/4.4.3/../../../../x86_64-nacl/lib/../lib32/libcrt_common.a(lib_a-__atexit.o)
 .note.GNU-stack
                0x0000000000000000        0x0 /home/berkeley/nacl_sdk/pepper_42/toolchain/linux_x86_newlib/bin/../lib/gcc/x86_64-nacl/4.4.3/../../../../x86_64-nacl/lib/../lib32/libcrt_common.a(lib_a-__call_atexit.o)
 .note.GNU-stack
                0x0000000000000000        0x0 /home/berkeley/nacl_sdk/pepper_42/toolchain/linux_x86_newlib/bin/../lib/gcc/x86_64-nacl/4.4.3/../../../../x86_64-nacl/lib/../lib32/libcrt_common.a(lib_a-dtoa.o)
 .note.GNU-stack
                0x0000000000000000        0x0 /home/berkeley/nacl_sdk/pepper_42/toolchain/linux_x86_newlib/bin/../lib/gcc/x86_64-nacl/4.4.3/../../../../x86_64-nacl/lib/../lib32/libcrt_common.a(lib_a-envlock.o)
 .note.GNU-stack
                0x0000000000000000        0x0 /home/berkeley/nacl_sdk/pepper_42/toolchain/linux_x86_newlib/bin/../lib/gcc/x86_64-nacl/4.4.3/../../../../x86_64-nacl/lib/../lib32/libcrt_common.a(lib_a-fflush.o)
 .note.GNU-stack
                0x0000000000000000        0x0 /home/berkeley/nacl_sdk/pepper_42/toolchain/linux_x86_newlib/bin/../lib/gcc/x86_64-nacl/4.4.3/../../../../x86_64-nacl/lib/../lib32/libcrt_common.a(lib_a-findfp.o)
 .note.GNU-stack
                0x0000000000000000        0x0 /home/berkeley/nacl_sdk/pepper_42/toolchain/linux_x86_newlib/bin/../lib/gcc/x86_64-nacl/4.4.3/../../../../x86_64-nacl/lib/../lib32/libcrt_common.a(lib_a-fwalk.o)
 .note.GNU-stack
                0x0000000000000000        0x0 /home/berkeley/nacl_sdk/pepper_42/toolchain/linux_x86_newlib/bin/../lib/gcc/x86_64-nacl/4.4.3/../../../../x86_64-nacl/lib/../lib32/libcrt_common.a(lib_a-locale.o)
 .note.GNU-stack
                0x0000000000000000        0x0 /home/berkeley/nacl_sdk/pepper_42/toolchain/linux_x86_newlib/bin/../lib/gcc/x86_64-nacl/4.4.3/../../../../x86_64-nacl/lib/../lib32/libcrt_common.a(lib_a-makebuf.o)
 .note.GNU-stack
                0x0000000000000000        0x0 /home/berkeley/nacl_sdk/pepper_42/toolchain/linux_x86_newlib/bin/../lib/gcc/x86_64-nacl/4.4.3/../../../../x86_64-nacl/lib/../lib32/libcrt_common.a(lib_a-mbtowc_r.o)
 .note.GNU-stack
                0x0000000000000000        0x0 /home/berkeley/nacl_sdk/pepper_42/toolchain/linux_x86_newlib/bin/../lib/gcc/x86_64-nacl/4.4.3/../../../../x86_64-nacl/lib/../lib32/libcrt_common.a(lib_a-mprec.o)
 .note.GNU-stack
                0x0000000000000000        0x0 /home/berkeley/nacl_sdk/pepper_42/toolchain/linux_x86_newlib/bin/../lib/gcc/x86_64-nacl/4.4.3/../../../../x86_64-nacl/lib/../lib32/libcrt_common.a(lib_a-s_fpclassify.o)
 .note.GNU-stack
                0x0000000000000000        0x0 /home/berkeley/nacl_sdk/pepper_42/toolchain/linux_x86_newlib/bin/../lib/gcc/x86_64-nacl/4.4.3/../../../../x86_64-nacl/lib/../lib32/libcrt_common.a(lib_a-s_frexp.o)
 .note.GNU-stack
                0x0000000000000000        0x0 /home/berkeley/nacl_sdk/pepper_42/toolchain/linux_x86_newlib/bin/../lib/gcc/x86_64-nacl/4.4.3/../../../../x86_64-nacl/lib/../lib32/libcrt_common.a(lib_a-stdio.o)
 .note.GNU-stack
                0x0000000000000000        0x0 /home/berkeley/nacl_sdk/pepper_42/toolchain/linux_x86_newlib/bin/../lib/gcc/x86_64-nacl/4.4.3/../../../../x86_64-nacl/lib/../lib32/libcrt_common.a(lib_a-strcasecmp.o)
 .note.GNU-stack
                0x0000000000000000        0x0 /home/berkeley/nacl_sdk/pepper_42/toolchain/linux_x86_newlib/bin/../lib/gcc/x86_64-nacl/4.4.3/../../../../x86_64-nacl/lib/../lib32/libcrt_common.a(lib_a-strcat.o)
 .note.GNU-stack
                0x0000000000000000        0x0 /home/berkeley/nacl_sdk/pepper_42/toolchain/linux_x86_newlib/bin/../lib/gcc/x86_64-nacl/4.4.3/../../../../x86_64-nacl/lib/../lib32/libcrt_common.a(lib_a-strcmp.o)
 .note.GNU-stack
                0x0000000000000000        0x0 /home/berkeley/nacl_sdk/pepper_42/toolchain/linux_x86_newlib/bin/../lib/gcc/x86_64-nacl/4.4.3/../../../../x86_64-nacl/lib/../lib32/libcrt_common.a(lib_a-strlcpy.o)
 .note.GNU-stack
                0x0000000000000000        0x0 /home/berkeley/nacl_sdk/pepper_42/toolchain/linux_x86_newlib/bin/../lib/gcc/x86_64-nacl/4.4.3/../../../../x86_64-nacl/lib/../lib32/libcrt_common.a(lib_a-strncasecmp.o)
 .note.GNU-stack
                0x0000000000000000        0x0 /home/berkeley/nacl_sdk/pepper_42/toolchain/linux_x86_newlib/bin/../lib/gcc/x86_64-nacl/4.4.3/../../../../x86_64-nacl/lib/../lib32/libcrt_common.a(lib_a-strncpy.o)
 .note.GNU-stack
                0x0000000000000000        0x0 /home/berkeley/nacl_sdk/pepper_42/toolchain/linux_x86_newlib/bin/../lib/gcc/x86_64-nacl/4.4.3/../../../../x86_64-nacl/lib/../lib32/libcrt_common.a(lib_a-strtol.o)
 .note.GNU-stack
                0x0000000000000000        0x0 /home/berkeley/nacl_sdk/pepper_42/toolchain/linux_x86_newlib/bin/../lib/gcc/x86_64-nacl/4.4.3/../../../../x86_64-nacl/lib/../lib32/libcrt_common.a(lib_a-svfiprintf.o)
 .note.GNU-stack
                0x0000000000000000        0x0 /home/berkeley/nacl_sdk/pepper_42/toolchain/linux_x86_newlib/bin/../lib/gcc/x86_64-nacl/4.4.3/../../../../x86_64-nacl/lib/../lib32/libcrt_common.a(lib_a-vfiprintf.o)
 .note.GNU-stack
                0x0000000000000000        0x0 /home/berkeley/nacl_sdk/pepper_42/toolchain/linux_x86_newlib/bin/../lib/gcc/x86_64-nacl/4.4.3/../../../../x86_64-nacl/lib/../lib32/libcrt_common.a(lib_a-wcsnrtombs.o)
 .note.GNU-stack
                0x0000000000000000        0x0 /home/berkeley/nacl_sdk/pepper_42/toolchain/linux_x86_newlib/bin/../lib/gcc/x86_64-nacl/4.4.3/../../../../x86_64-nacl/lib/../lib32/libcrt_common.a(lib_a-ctype_.o)
 .note.GNU-stack
                0x0000000000000000        0x0 /home/berkeley/nacl_sdk/pepper_42/toolchain/linux_x86_newlib/bin/../lib/gcc/x86_64-nacl/4.4.3/../../../../x86_64-nacl/lib/../lib32/libcrt_common.a(lib_a-fclose.o)
 .note.GNU-stack
                0x0000000000000000        0x0 /home/berkeley/nacl_sdk/pepper_42/toolchain/linux_x86_newlib/bin/../lib/gcc/x86_64-nacl/4.4.3/../../../../x86_64-nacl/lib/../lib32/libcrt_common.a(lib_a-fputwc.o)
 .note.GNU-stack
                0x0000000000000000        0x0 /home/berkeley/nacl_sdk/pepper_42/toolchain/linux_x86_newlib/bin/../lib/gcc/x86_64-nacl/4.4.3/../../../../x86_64-nacl/lib/../lib32/libnacl.a(close_e9b92fbd.o)
 .note.GNU-stack
                0x0000000000000000        0x0 /home/berkeley/nacl_sdk/pepper_42/toolchain/linux_x86_newlib/bin/../lib/gcc/x86_64-nacl/4.4.3/../../../../x86_64-nacl/lib/../lib32/libnacl.a(isatty_02f56e94.o)
 .note.GNU-stack
                0x0000000000000000        0x0 /home/berkeley/nacl_sdk/pepper_42/toolchain/linux_x86_newlib/bin/../lib/gcc/x86_64-nacl/4.4.3/../../../../x86_64-nacl/lib/../lib32/libnacl.a(nacl_irt_fdio_b571b5e7.o)
 .note.GNU-stack
                0x0000000000000000        0x0 /home/berkeley/nacl_sdk/pepper_42/toolchain/linux_x86_newlib/bin/../lib/gcc/x86_64-nacl/4.4.3/../../../../x86_64-nacl/lib/../lib32/libnacl.a(fstat_0540ff63.o)
 .note.GNU-stack
                0x0000000000000000        0x0 /home/berkeley/nacl_sdk/pepper_42/toolchain/linux_x86_newlib/bin/../lib/gcc/x86_64-nacl/4.4.3/../../../../x86_64-nacl/lib/../lib32/libnacl.a(lseek_64d2d05c.o)
 .note.GNU-stack
                0x0000000000000000        0x0 /home/berkeley/nacl_sdk/pepper_42/toolchain/linux_x86_newlib/bin/../lib/gcc/x86_64-nacl/4.4.3/../../../../x86_64-nacl/lib/../lib32/libnacl.a(read_df872e10.o)
 .note.GNU-stack
                0x0000000000000000        0x0 /home/berkeley/nacl_sdk/pepper_42/toolchain/linux_x86_newlib/bin/../lib/gcc/x86_64-nacl/4.4.3/32/libgcc.a(_udivdi3.o)
 .note.GNU-stack
                0x0000000000000000        0x0 /home/berkeley/nacl_sdk/pepper_42/toolchain/linux_x86_newlib/bin/../lib/gcc/x86_64-nacl/4.4.3/32/libgcc.a(_umoddi3.o)
 .note.GNU-stack
                0x0000000000000000        0x0 /home/berkeley/nacl_sdk/pepper_42/toolchain/linux_x86_newlib/bin/../lib/gcc/x86_64-nacl/4.4.3/32/crtend.o

Memory Configuration

Name             Origin             Length             Attributes
*default*        0x0000000000000000 0xffffffffffffffff

Linker script and memory map

LOAD /home/berkeley/nacl_sdk/pepper_42/toolchain/linux_x86_newlib/bin/../lib/gcc/x86_64-nacl/4.4.3/../../../../x86_64-nacl/lib/../lib32/crt1.o
LOAD /home/berkeley/nacl_sdk/pepper_42/toolchain/linux_x86_newlib/bin/../lib/gcc/x86_64-nacl/4.4.3/../../../../x86_64-nacl/lib/../lib32/crti.o
LOAD /home/berkeley/nacl_sdk/pepper_42/toolchain/linux_x86_newlib/bin/../lib/gcc/x86_64-nacl/4.4.3/32/crtbegin.o
LOAD newlib/Release/popcnt_x86_32.o
LOAD /home/berkeley/nacl_sdk/pepper_42/lib/newlib_x86_32/Release/libppapi_cpp.a
LOAD /home/berkeley/nacl_sdk/pepper_42/toolchain/linux_x86_newlib/bin/../lib/gcc/x86_64-nacl/4.4.3/../../../../x86_64-nacl/lib/../lib32/libppapi.a
LOAD /home/berkeley/nacl_sdk/pepper_42/toolchain/linux_x86_newlib/bin/../lib/gcc/x86_64-nacl/4.4.3/../../../../x86_64-nacl/lib/../lib32/libppapi_stub.a
LOAD /home/berkeley/nacl_sdk/pepper_42/toolchain/linux_x86_newlib/bin/../lib/gcc/x86_64-nacl/4.4.3/../../../../x86_64-nacl/lib/../lib32/libpthread.a
LOAD /home/berkeley/nacl_sdk/pepper_42/toolchain/linux_x86_newlib/bin/../lib/gcc/x86_64-nacl/4.4.3/../../../../x86_64-nacl/lib/../lib32/libstdc++.a
LOAD /home/berkeley/nacl_sdk/pepper_42/toolchain/linux_x86_newlib/bin/../lib/gcc/x86_64-nacl/4.4.3/../../../../x86_64-nacl/lib/../lib32/libm.a
LOAD /home/berkeley/nacl_sdk/pepper_42/toolchain/linux_x86_newlib/bin/../lib/gcc/x86_64-nacl/4.4.3/32/libgcc.a
LOAD /home/berkeley/nacl_sdk/pepper_42/toolchain/linux_x86_newlib/bin/../lib/gcc/x86_64-nacl/4.4.3/../../../../x86_64-nacl/lib/../lib32/libpthread.a
LOAD /home/berkeley/nacl_sdk/pepper_42/toolchain/linux_x86_newlib/bin/../lib/gcc/x86_64-nacl/4.4.3/../../../../x86_64-nacl/lib/../lib32/libc.a
START GROUP
LOAD /home/berkeley/nacl_sdk/pepper_42/toolchain/linux_x86_newlib/bin/../lib/gcc/x86_64-nacl/4.4.3/../../../../x86_64-nacl/lib/../lib32/libnacl.a
LOAD /home/berkeley/nacl_sdk/pepper_42/toolchain/linux_x86_newlib/bin/../lib/gcc/x86_64-nacl/4.4.3/../../../../x86_64-nacl/lib/../lib32/libcrt_common.a
END GROUP
LOAD /home/berkeley/nacl_sdk/pepper_42/toolchain/linux_x86_newlib/bin/../lib/gcc/x86_64-nacl/4.4.3/32/libgcc.a
LOAD /home/berkeley/nacl_sdk/pepper_42/toolchain/linux_x86_newlib/bin/../lib/gcc/x86_64-nacl/4.4.3/32/crtend.o
LOAD /home/berkeley/nacl_sdk/pepper_42/toolchain/linux_x86_newlib/bin/../lib/gcc/x86_64-nacl/4.4.3/../../../../x86_64-nacl/lib/../lib32/crtn.o
                0x0000000000020000                PROVIDE (__executable_start, 0x20000)
                0x0000000000020000                . = 0x20000

.init           0x0000000000020000       0x80
 *(SORT(.init))
 .init          0x0000000000020000       0x20 /home/berkeley/nacl_sdk/pepper_42/toolchain/linux_x86_newlib/bin/../lib/gcc/x86_64-nacl/4.4.3/../../../../x86_64-nacl/lib/../lib32/crti.o
                0x0000000000020000                _init
 .init          0x0000000000020020       0x20 /home/berkeley/nacl_sdk/pepper_42/toolchain/linux_x86_newlib/bin/../lib/gcc/x86_64-nacl/4.4.3/32/crtbegin.o
 .init          0x0000000000020040       0x20 /home/berkeley/nacl_sdk/pepper_42/toolchain/linux_x86_newlib/bin/../lib/gcc/x86_64-nacl/4.4.3/32/crtend.o
 .init          0x0000000000020060       0x20 /home/berkeley/nacl_sdk/pepper_42/toolchain/linux_x86_newlib/bin/../lib/gcc/x86_64-nacl/4.4.3/../../../../x86_64-nacl/lib/../lib32/crtn.o

.plt            0x0000000000020080        0x0
 *(.plt)
 *(.iplt)
 .iplt          0x0000000000000000        0x0 /home/berkeley/nacl_sdk/pepper_42/toolchain/linux_x86_newlib/bin/../lib/gcc/x86_64-nacl/4.4.3/32/crtbegin.o

.text           0x0000000000020080    0x60d00
 *(.text.unlikely .text.*_unlikely .text.unlikely.*)
 *(.text.exit .text.exit.*)
 *(.text.startup .text.startup.*)
 *(.text.hot .text.hot.*)
 *(.text .stub .text.* .gnu.linkonce.t.*)
 .text          0x0000000000020080        0x0 /home/berkeley/nacl_sdk/pepper_42/toolchain/linux_x86_newlib/bin/../lib/gcc/x86_64-nacl/4.4.3/../../../../x86_64-nacl/lib/../lib32/crti.o
 .text          0x0000000000020080      0x160 /home/berkeley/nacl_sdk/pepper_42/toolchain/linux_x86_newlib/bin/../lib/gcc/x86_64-nacl/4.4.3/32/crtbegin.o
 .text          0x00000000000201e0      0x140 newlib/Release/popcnt_x86_32.o
                0x00000000000201e0                _Z7computej
                0x0000000000020280                _ZN2pp12CreateModuleEv
 .text._ZN19HelloTutorialModule14CreateInstanceEi
                0x0000000000020320       0xa0 newlib/Release/popcnt_x86_32.o
                0x0000000000020320                _ZN19HelloTutorialModule14CreateInstanceEi
 .text._ZN21HelloTutorialInstance13HandleMessageERKN2pp3VarE
                0x00000000000203c0      0x1a0 newlib/Release/popcnt_x86_32.o
                0x00000000000203c0                _ZN21HelloTutorialInstance13HandleMessageERKN2pp3VarE
 .text._ZN21HelloTutorialInstanceD0Ev
                0x0000000000020560       0x40 newlib/Release/popcnt_x86_32.o
                0x0000000000020560                _ZN21HelloTutorialInstanceD0Ev
 .text._ZN21HelloTutorialInstanceD1Ev
                0x00000000000205a0       0x20 newlib/Release/popcnt_x86_32.o
                0x00000000000205a0                _ZN21HelloTutorialInstanceD1Ev
 .text._ZN19HelloTutorialModuleD0Ev
                0x00000000000205c0       0x40 newlib/Release/popcnt_x86_32.o
                0x00000000000205c0                _ZN19HelloTutorialModuleD0Ev
 .text._ZN19HelloTutorialModuleD1Ev
                0x0000000000020600       0x20 newlib/Release/popcnt_x86_32.o
                0x0000000000020600                _ZN19HelloTutorialModuleD1Ev
 .text          0x0000000000020620     0x2d60 /home/berkeley/nacl_sdk/pepper_42/lib/newlib_x86_32/Release/libppapi_cpp.a(instance_x86_32.o)
                0x0000000000020640                _ZN2pp8InstanceC2Ei
                0x0000000000020680                _ZN2pp8InstanceC1Ei
                0x00000000000206c0                _ZN2pp8Instance4InitEjPPKcS3_
                0x00000000000206e0                _ZN2pp8Instance13DidChangeViewERKNS_4RectES3_
                0x0000000000020700                _ZN2pp8Instance14DidChangeFocusEb
                0x0000000000020720                _ZN2pp8Instance18HandleDocumentLoadERKNS_9URLLoaderE
                0x0000000000020740                _ZN2pp8Instance16HandleInputEventERKNS_10InputEventE
                0x0000000000020760                _ZN2pp8Instance13HandleMessageERKNS_3VarE
                0x0000000000020a00                _ZN2pp8Instance13DidChangeViewERKNS_4ViewE
                0x0000000000020ae0                _ZN2pp8InstanceD0Ev
                0x0000000000020b60                _ZN2pp8InstanceD1Ev
                0x0000000000020be0                _ZN2pp8InstanceD2Ev
                0x0000000000020c60                _ZN2pp8Instance20GetPerInstanceObjectEiRKSs
                0x0000000000020e00                _ZN2pp8Instance23RemovePerInstanceObjectERKSsPv
                0x0000000000021020                _ZN2pp8Instance23RemovePerInstanceObjectERKNS_14InstanceHandleERKSsPv
                0x00000000000210a0                _ZN2pp8Instance22LogToConsoleWithSourceE11PP_LogLevelRKNS_3VarES4_
                0x0000000000021360                _ZN2pp8Instance12LogToConsoleE11PP_LogLevelRKNS_3VarE
                0x00000000000215c0                _ZN2pp8Instance20AddPerInstanceObjectERKSsPv
                0x0000000000021840                _ZN2pp8Instance22ClearInputEventRequestEj
                0x0000000000021aa0                _ZN2pp8Instance22RegisterMessageHandlerEPNS_14MessageHandlerERKNS_11MessageLoopE
                0x0000000000021d00                _ZN2pp8Instance27RequestFilteringInputEventsEj
                0x0000000000021f60                _ZN2pp8Instance18RequestInputEventsEj
                0x00000000000221c0                _ZN2pp8Instance24UnregisterMessageHandlerEv
                0x0000000000022420                _ZN2pp8Instance12BindGraphicsERKNS_10Graphics2DE
                0x00000000000226c0                _ZN2pp8Instance11IsFullFrameEv
                0x0000000000022960                _ZN2pp8Instance12BindGraphicsERKNS_10CompositorE
                0x0000000000022c00                _ZN2pp8Instance12BindGraphicsERKNS_10Graphics3DE
                0x0000000000022ea0                _ZN2pp8Instance11PostMessageERKNS_3VarE
 .text._ZNSt8_Rb_treeISsSt4pairIKSsPvESt10_Select1stIS3_ESt4lessISsESaIS3_EE8_M_eraseEPSt13_Rb_tree_nodeIS3_E
                0x0000000000023380      0x140 /home/berkeley/nacl_sdk/pepper_42/lib/newlib_x86_32/Release/libppapi_cpp.a(instance_x86_32.o)
                0x0000000000023380                _ZNSt8_Rb_treeISsSt4pairIKSsPvESt10_Select1stIS3_ESt4lessISsESaIS3_EE8_M_eraseEPSt13_Rb_tree_nodeIS3_E
 .text._ZNSt8_Rb_treeISsSt4pairIKSsPvESt10_Select1stIS3_ESt4lessISsESaIS3_EE10_M_insert_EPKSt18_Rb_tree_node_baseSC_RKS3_
                0x00000000000234c0      0x1e0 /home/berkeley/nacl_sdk/pepper_42/lib/newlib_x86_32/Release/libppapi_cpp.a(instance_x86_32.o)
                0x00000000000234c0                _ZNSt8_Rb_treeISsSt4pairIKSsPvESt10_Select1stIS3_ESt4lessISsESaIS3_EE10_M_insert_EPKSt18_Rb_tree_node_baseSC_RKS3_
 .text._ZNSt8_Rb_treeISsSt4pairIKSsPvESt10_Select1stIS3_ESt4lessISsESaIS3_EE16_M_insert_uniqueERKS3_
                0x00000000000236a0      0x260 /home/berkeley/nacl_sdk/pepper_42/lib/newlib_x86_32/Release/libppapi_cpp.a(instance_x86_32.o)
                0x00000000000236a0                _ZNSt8_Rb_treeISsSt4pairIKSsPvESt10_Select1stIS3_ESt4lessISsESaIS3_EE16_M_insert_uniqueERKS3_
 .text._ZNSt8_Rb_treeISsSt4pairIKSsPvESt10_Select1stIS3_ESt4lessISsESaIS3_EE17_M_insert_unique_ESt23_Rb_tree_const_iteratorIS3_ERKS3_
                0x0000000000023900      0x400 /home/berkeley/nacl_sdk/pepper_42/lib/newlib_x86_32/Release/libppapi_cpp.a(instance_x86_32.o)
                0x0000000000023900                _ZNSt8_Rb_treeISsSt4pairIKSsPvESt10_Select1stIS3_ESt4lessISsESaIS3_EE17_M_insert_unique_ESt23_Rb_tree_const_iteratorIS3_ERKS3_
 .text          0x0000000000023d00     0x1540 /home/berkeley/nacl_sdk/pepper_42/lib/newlib_x86_32/Release/libppapi_cpp.a(module_x86_32.o)
                0x0000000000023d00                _ZN2pp6ModuleC2Ev
                0x0000000000023d80                _ZN2pp6ModuleC1Ev
                0x0000000000023e00                _ZN2pp6Module4InitEv
                0x0000000000023e20                _ZN2pp6Module19GetBrowserInterfaceEPKc
                0x0000000000023e40                _ZN2pp6Module21InstanceForPPInstanceEi
                0x0000000000023f20                _ZN2pp6Module12InternalInitEiPFPKvPKcE
                0x0000000000023fc0                _ZN2pp23Instance_DidChangeFocusEi7PP_Bool
                0x00000000000240c0                _ZN2pp18Instance_DidCreateEijPPKcS2_
                0x0000000000024280                _ZN2pp23Messaging_HandleMessageEi6PP_Var
                0x0000000000024420                _ZN2pp19Instance_DidDestroyEi
                0x0000000000024540                _ZN2pp22InputEvent_HandleEventEii
                0x00000000000246e0                _ZN2pp27Instance_HandleDocumentLoadEii
                0x0000000000024880                _ZN2pp22Instance_DidChangeViewEii
                0x0000000000024a00                _ZN2pp6ModuleD1Ev
                0x0000000000024b00                _ZN2pp6Module18GetPluginInterfaceEPKc
                0x0000000000024e00                _ZN2pp6Module18AddPluginInterfaceERKSsPKv
                0x0000000000025040                _ZN2pp6ModuleD0Ev
                0x0000000000025140                _ZN2pp6ModuleD2Ev
 .text._ZNSt8_Rb_treeIiSt4pairIKiPN2pp8InstanceEESt10_Select1stIS5_ESt4lessIiESaIS5_EE8_M_eraseEPSt13_Rb_tree_nodeIS5_E
                0x0000000000025240       0xa0 /home/berkeley/nacl_sdk/pepper_42/lib/newlib_x86_32/Release/libppapi_cpp.a(module_x86_32.o)
                0x0000000000025240                _ZNSt8_Rb_treeIiSt4pairIKiPN2pp8InstanceEESt10_Select1stIS5_ESt4lessIiESaIS5_EE8_M_eraseEPSt13_Rb_tree_nodeIS5_E
 .text._ZNSt8_Rb_treeIiSt4pairIKiPN2pp8InstanceEESt10_Select1stIS5_ESt4lessIiESaIS5_EE10_M_insert_EPKSt18_Rb_tree_node_baseSE_RKS5_
                0x00000000000252e0      0x120 /home/berkeley/nacl_sdk/pepper_42/lib/newlib_x86_32/Release/libppapi_cpp.a(module_x86_32.o)
                0x00000000000252e0                _ZNSt8_Rb_treeIiSt4pairIKiPN2pp8InstanceEESt10_Select1stIS5_ESt4lessIiESaIS5_EE10_M_insert_EPKSt18_Rb_tree_node_baseSE_RKS5_
 .text._ZNSt8_Rb_treeIiSt4pairIKiPN2pp8InstanceEESt10_Select1stIS5_ESt4lessIiESaIS5_EE16_M_insert_uniqueERKS5_
                0x0000000000025400      0x1a0 /home/berkeley/nacl_sdk/pepper_42/lib/newlib_x86_32/Release/libppapi_cpp.a(module_x86_32.o)
                0x0000000000025400                _ZNSt8_Rb_treeIiSt4pairIKiPN2pp8InstanceEESt10_Select1stIS5_ESt4lessIiESaIS5_EE16_M_insert_uniqueERKS5_
 .text._ZNSt8_Rb_treeIiSt4pairIKiPN2pp8InstanceEESt10_Select1stIS5_ESt4lessIiESaIS5_EE17_M_insert_unique_ESt23_Rb_tree_const_iteratorIS5_ERKS5_
                0x00000000000255a0      0x260 /home/berkeley/nacl_sdk/pepper_42/lib/newlib_x86_32/Release/libppapi_cpp.a(module_x86_32.o)
                0x00000000000255a0                _ZNSt8_Rb_treeIiSt4pairIKiPN2pp8InstanceEESt10_Select1stIS5_ESt4lessIiESaIS5_EE17_M_insert_unique_ESt23_Rb_tree_const_iteratorIS5_ERKS5_
 .text._ZN2pp9URLLoaderD1Ev
                0x0000000000025800       0x20 /home/berkeley/nacl_sdk/pepper_42/lib/newlib_x86_32/Release/libppapi_cpp.a(module_x86_32.o)
                0x0000000000025800                _ZN2pp9URLLoaderD1Ev
 .text._ZN2pp9URLLoaderD0Ev
                0x0000000000025820       0x40 /home/berkeley/nacl_sdk/pepper_42/lib/newlib_x86_32/Release/libppapi_cpp.a(module_x86_32.o)
                0x0000000000025820                _ZN2pp9URLLoaderD0Ev
 .text._ZN2pp4ViewD1Ev
                0x0000000000025860       0x20 /home/berkeley/nacl_sdk/pepper_42/lib/newlib_x86_32/Release/libppapi_cpp.a(module_x86_32.o)
                0x0000000000025860                _ZN2pp4ViewD1Ev
 .text._ZN2pp4ViewD0Ev
                0x0000000000025880       0x40 /home/berkeley/nacl_sdk/pepper_42/lib/newlib_x86_32/Release/libppapi_cpp.a(module_x86_32.o)
                0x0000000000025880                _ZN2pp4ViewD0Ev
 .text._ZNSt8_Rb_treeISsSt4pairIKSsPKvESt10_Select1stIS4_ESt4lessISsESaIS4_EE8_M_eraseEPSt13_Rb_tree_nodeIS4_E
                0x00000000000258c0      0x140 /home/berkeley/nacl_sdk/pepper_42/lib/newlib_x86_32/Release/libppapi_cpp.a(module_x86_32.o)
                0x00000000000258c0                _ZNSt8_Rb_treeISsSt4pairIKSsPKvESt10_Select1stIS4_ESt4lessISsESaIS4_EE8_M_eraseEPSt13_Rb_tree_nodeIS4_E
 .text._ZNSt8_Rb_treeISsSt4pairIKSsPKvESt10_Select1stIS4_ESt4lessISsESaIS4_EE10_M_insert_EPKSt18_Rb_tree_node_baseSD_RKS4_
                0x0000000000025a00      0x1e0 /home/berkeley/nacl_sdk/pepper_42/lib/newlib_x86_32/Release/libppapi_cpp.a(module_x86_32.o)
                0x0000000000025a00                _ZNSt8_Rb_treeISsSt4pairIKSsPKvESt10_Select1stIS4_ESt4lessISsESaIS4_EE10_M_insert_EPKSt18_Rb_tree_node_baseSD_RKS4_
 .text._ZNSt8_Rb_treeISsSt4pairIKSsPKvESt10_Select1stIS4_ESt4lessISsESaIS4_EE16_M_insert_uniqueERKS4_
                0x0000000000025be0      0x260 /home/berkeley/nacl_sdk/pepper_42/lib/newlib_x86_32/Release/libppapi_cpp.a(module_x86_32.o)
                0x0000000000025be0                _ZNSt8_Rb_treeISsSt4pairIKSsPKvESt10_Select1stIS4_ESt4lessISsESaIS4_EE16_M_insert_uniqueERKS4_
 .text._ZNSt8_Rb_treeISsSt4pairIKSsPKvESt10_Select1stIS4_ESt4lessISsESaIS4_EE17_M_insert_unique_ESt23_Rb_tree_const_iteratorIS4_ERKS4_
                0x0000000000025e40      0x400 /home/berkeley/nacl_sdk/pepper_42/lib/newlib_x86_32/Release/libppapi_cpp.a(module_x86_32.o)
                0x0000000000025e40                _ZNSt8_Rb_treeISsSt4pairIKSsPKvESt10_Select1stIS4_ESt4lessISsESaIS4_EE17_M_insert_unique_ESt23_Rb_tree_const_iteratorIS4_ERKS4_
 .text          0x0000000000026240      0x1c0 /home/berkeley/nacl_sdk/pepper_42/lib/newlib_x86_32/Release/libppapi_cpp.a(ppp_entrypoints_x86_32.o)
                0x0000000000026240                _ZN2pp6Module3GetEv
                0x0000000000026260                _ZN2pp25SetBrokerGetInterfaceFuncEPFPKvPKcE
                0x0000000000026280                PPP_ShutdownModule
                0x00000000000262c0                PPP_GetInterface
                0x0000000000026320                PPP_InitializeModule
 .text          0x0000000000026400      0x5a0 /home/berkeley/nacl_sdk/pepper_42/lib/newlib_x86_32/Release/libppapi_cpp.a(resource_x86_32.o)
                0x0000000000026400                _ZN2pp8ResourceC2Ev
                0x0000000000026420                _ZN2pp8ResourceC1Ev
                0x0000000000026440                _ZN2pp8Resource6detachEv
                0x0000000000026460                _ZN2pp8ResourceC2ENS_7PassRefEi
                0x0000000000026480                _ZN2pp8ResourceC1ENS_7PassRefEi
                0x00000000000264a0                _ZN2pp8Resource22PassRefFromConstructorEi
                0x00000000000264c0                _ZN2pp8Resource5ClearEv
                0x0000000000026540                _ZN2pp8ResourceC1Ei
                0x00000000000265c0                _ZN2pp8ResourceC2Ei
                0x0000000000026640                _ZN2pp8ResourceaSERKS0_
                0x0000000000026720                _ZN2pp8ResourceC1ERKS0_
                0x00000000000267a0                _ZN2pp8ResourceC2ERKS0_
                0x0000000000026820                _ZN2pp8ResourceD1Ev
                0x00000000000268a0                _ZN2pp8ResourceD2Ev
                0x0000000000026920                _ZN2pp8ResourceD0Ev
 .text          0x00000000000269a0     0x1e20 /home/berkeley/nacl_sdk/pepper_42/lib/newlib_x86_32/Release/libppapi_cpp.a(url_loader_x86_32.o)
                0x00000000000269a0                _ZN2pp9URLLoaderC1ERKS0_
                0x00000000000269e0                _ZN2pp9URLLoaderC2ERKS0_
                0x0000000000026a20                _ZN2pp9URLLoaderC1Ei
                0x0000000000026a60                _ZN2pp9URLLoaderC2Ei
                0x0000000000026aa0                _ZN2pp9URLLoader16ReadResponseBodyEPviRKNS_18CompletionCallbackE
                0x0000000000026dc0                _ZN2pp9URLLoader14FollowRedirectERKNS_18CompletionCallbackE
                0x00000000000270e0                _ZN2pp9URLLoaderC1ERKNS_14InstanceHandleE
                0x0000000000027400                _ZNK2pp9URLLoader19GetDownloadProgressEPxS1_
                0x00000000000276a0                _ZN2pp9URLLoader5CloseEv
                0x0000000000027900                _ZN2pp9URLLoaderC2ERKNS_14InstanceHandleE
                0x0000000000027c20                _ZN2pp9URLLoader21FinishStreamingToFileERKNS_18CompletionCallbackE
                0x0000000000027f40                _ZNK2pp9URLLoader15GetResponseInfoEv
                0x0000000000028200                _ZNK2pp9URLLoader17GetUploadProgressEPxS1_
                0x00000000000284a0                _ZN2pp9URLLoader4OpenERKNS_14URLRequestInfoERKNS_18CompletionCallbackE
 .text._ZN2pp15URLResponseInfoD1Ev
                0x00000000000287c0       0x20 /home/berkeley/nacl_sdk/pepper_42/lib/newlib_x86_32/Release/libppapi_cpp.a(url_loader_x86_32.o)
                0x00000000000287c0                _ZN2pp15URLResponseInfoD1Ev
 .text._ZN2pp15URLResponseInfoD0Ev
                0x00000000000287e0       0x40 /home/berkeley/nacl_sdk/pepper_42/lib/newlib_x86_32/Release/libppapi_cpp.a(url_loader_x86_32.o)
                0x00000000000287e0                _ZN2pp15URLResponseInfoD0Ev
 .text          0x0000000000028820      0x700 /home/berkeley/nacl_sdk/pepper_42/lib/newlib_x86_32/Release/libppapi_cpp.a(url_response_info_x86_32.o)
                0x0000000000028820                _ZN2pp15URLResponseInfoC1ENS_7PassRefEi
                0x0000000000028880                _ZN2pp15URLResponseInfoC2ENS_7PassRefEi
                0x00000000000288e0                _ZN2pp15URLResponseInfoC1ERKS0_
                0x0000000000028920                _ZN2pp15URLResponseInfoC2ERKS0_
                0x0000000000028960                _ZNK2pp15URLResponseInfo16GetBodyAsFileRefEv
                0x0000000000028c40                _ZNK2pp15URLResponseInfo11GetPropertyE22PP_URLResponseProperty
 .text._ZN2pp7FileRefD1Ev
                0x0000000000028f20       0x20 /home/berkeley/nacl_sdk/pepper_42/lib/newlib_x86_32/Release/libppapi_cpp.a(url_response_info_x86_32.o)
                0x0000000000028f20                _ZN2pp7FileRefD1Ev
 .text._ZN2pp7FileRefD0Ev
                0x0000000000028f40       0x40 /home/berkeley/nacl_sdk/pepper_42/lib/newlib_x86_32/Release/libppapi_cpp.a(url_response_info_x86_32.o)
                0x0000000000028f40                _ZN2pp7FileRefD0Ev
 .text          0x0000000000028f80     0x39a0 /home/berkeley/nacl_sdk/pepper_42/lib/newlib_x86_32/Release/libppapi_cpp.a(var_x86_32.o)
                0x0000000000028f80                _ZN2pp3VarC2Eb
                0x0000000000028fc0                _ZN2pp3VarC1Eb
                0x0000000000029000                _ZN2pp3VarC2Ei
                0x0000000000029040                _ZN2pp3VarC1Ei
                0x0000000000029080                _ZN2pp3VarC2Ed
                0x00000000000290c0                _ZN2pp3VarC1Ed
                0x0000000000029100                _ZNK2pp3Var6AsBoolEv
                0x0000000000029140                _ZNK2pp3Var5AsIntEv
                0x00000000000291e0                _ZNK2pp3Var8AsDoubleEv
                0x0000000000029360                _ZN2pp3VarC1ENS0_4NullE
                0x00000000000293a0                _ZN2pp3VarC2ENS0_4NullE
                0x00000000000293e0                _ZN2pp3VarC1Ev
                0x0000000000029420                _ZN2pp3VarC2Ev
                0x0000000000029460                _ZNK2pp3Var8AsStringEv
                0x0000000000029b60                _ZNK2pp3Var11DebugStringEv
                0x000000000002a0a0                _ZNK2pp3VareqERKS0_
                0x000000000002a500                _ZN2pp3VarC1ERKNS_8ResourceE
                0x000000000002a7c0                _ZN2pp3VarC2ERKNS_8ResourceE
                0x000000000002b0e0                _ZN2pp3VarC1ERKSs
                0x000000000002b140                _ZN2pp3VarC2ERKSs
                0x000000000002b1a0                _ZN2pp3VarC1EPKc
                0x000000000002b260                _ZN2pp3VarC2EPKc
                0x000000000002ba60                _ZN2pp3VarC1ERKS0_
                0x000000000002bb00                _ZN2pp3VarC2ERKS0_
                0x000000000002bba0                _ZN2pp3VarC1ERK6PP_Var
                0x000000000002bc40                _ZN2pp3VarC2ERK6PP_Var
                0x000000000002c420                _ZN2pp3VaraSERKS0_
                0x000000000002c500                _ZN2pp3VarD0Ev
                0x000000000002c560                _ZN2pp3VarD1Ev
                0x000000000002c5c0                _ZN2pp3VarD2Ev
                0x000000000002c620                _ZNK2pp3Var10AsResourceEv
 .text          0x000000000002c920     0x2f80 /home/berkeley/nacl_sdk/pepper_42/lib/newlib_x86_32/Release/libppapi_cpp.a(view_x86_32.o)
                0x000000000002ca40                _ZN2pp4ViewC1Ei
                0x000000000002ca80                _ZN2pp4ViewC2Ei
                0x000000000002cac0                _ZN2pp4ViewC1Ev
                0x000000000002cb00                _ZN2pp4ViewC2Ev
                0x000000000002cb40                _ZNK2pp4View15GetScrollOffsetEv
                0x000000000002ce00                _ZNK2pp4View11GetClipRectEv
                0x000000000002d440                _ZNK2pp4View14GetDeviceScaleEv
                0x000000000002d8a0                _ZNK2pp4View11GetCSSScaleEv
                0x000000000002dd00                _ZNK2pp4View7GetRectEv
                0x000000000002e340                _ZNK2pp4View13IsPageVisibleEv
                0x000000000002ea60                _ZNK2pp4View9IsVisibleEv
                0x000000000002f180                _ZNK2pp4View12IsFullscreenEv
 .text          0x000000000002f8a0       0xc0 /home/berkeley/nacl_sdk/pepper_42/lib/newlib_x86_32/Release/libppapi_cpp.a(core_x86_32.o)
                0x000000000002f8a0                _ZN2pp4Core16CallOnMainThreadEiRKNS_18CompletionCallbackEi
                0x000000000002f920                _ZN2pp4Core12IsMainThreadEv
 .text          0x000000000002f960     0x55a0 /home/berkeley/nacl_sdk/pepper_42/lib/newlib_x86_32/Release/libppapi_cpp.a(file_ref_x86_32.o)
                0x000000000002fa80                _ZN2pp7FileRefC1ERKS0_
                0x000000000002fac0                _ZN2pp7FileRefC2ERKS0_
                0x000000000002fb00                _ZN2pp7FileRefC1ENS_7PassRefEi
                0x000000000002fb60                _ZN2pp7FileRefC2ENS_7PassRefEi
                0x000000000002fbc0                _ZN2pp7FileRefC1Ei
                0x000000000002fc00                _ZN2pp7FileRefC2Ei
                0x000000000002fc40                _ZN2pp7FileRef13MakeDirectoryEiRKNS_18CompletionCallbackE
                0x00000000000303a0                _ZN2pp7FileRef20ReadDirectoryEntriesERKNS_28CompletionCallbackWithOutputISt6vectorINS_14DirectoryEntryESaIS3_EEEE
                0x0000000000030920                _ZN2pp7FileRef5QueryERKNS_28CompletionCallbackWithOutputI11PP_FileInfoEE
                0x0000000000030ea0                _ZN2pp7FileRefC1ERKNS_10FileSystemEPKc
                0x00000000000314e0                _ZNK2pp7FileRef17GetFileSystemTypeEv
                0x0000000000031b40                _ZN2pp7FileRef6RenameERKS0_RKNS_18CompletionCallbackE
                0x00000000000322e0                _ZN2pp7FileRef6DeleteERKNS_18CompletionCallbackE
                0x0000000000032aa0                _ZN2pp7FileRef5TouchEddRKNS_18CompletionCallbackE
                0x0000000000033280                _ZNK2pp7FileRef7GetPathEv
                0x0000000000033a40                _ZNK2pp7FileRef7GetNameEv
                0x0000000000034200                _ZNK2pp7FileRef9GetParentEv
                0x00000000000348c0                _ZN2pp7FileRefC2ERKNS_10FileSystemEPKc
 .text._ZNK2pp18CompletionCallback8MayForceEi
                0x0000000000034f00       0xc0 /home/berkeley/nacl_sdk/pepper_42/lib/newlib_x86_32/Release/libppapi_cpp.a(file_ref_x86_32.o)
                0x0000000000034f00                _ZNK2pp18CompletionCallback8MayForceEi
 .text          0x0000000000034fc0     0x93e0 /home/berkeley/nacl_sdk/pepper_42/lib/newlib_x86_32/Release/libppapi_cpp.a(input_event_x86_32.o)
                0x0000000000035320                _ZN2pp10InputEventD0Ev
                0x0000000000035360                _ZN2pp10InputEventD1Ev
                0x0000000000035380                _ZN2pp10InputEventD2Ev
                0x00000000000353a0                _ZN2pp10InputEventC1Ev
                0x00000000000353e0                _ZN2pp10InputEventC2Ev
                0x0000000000035420                _ZN2pp13IMEInputEventC1Ev
                0x0000000000035460                _ZN2pp13IMEInputEventC2Ev
                0x00000000000354a0                _ZN2pp15TouchInputEventC1Ev
                0x00000000000354e0                _ZN2pp15TouchInputEventC2Ev
                0x0000000000035520                _ZN2pp18KeyboardInputEventC1Ev
                0x0000000000035560                _ZN2pp18KeyboardInputEventC2Ev
                0x00000000000355a0                _ZN2pp15WheelInputEventC1Ev
                0x00000000000355e0                _ZN2pp15WheelInputEventC2Ev
                0x0000000000035620                _ZN2pp15MouseInputEventC1Ev
                0x0000000000035660                _ZN2pp15MouseInputEventC2Ev
                0x00000000000356a0                _ZN2pp10InputEventC2Ei
                0x0000000000035a00                _ZNK2pp10InputEvent12GetModifiersEv
                0x0000000000035c60                _ZNK2pp10InputEvent12GetTimeStampEv
                0x0000000000035ec0                _ZNK2pp10InputEvent7GetTypeEv
                0x0000000000036120                _ZN2pp10InputEventC1Ei
                0x0000000000036480                _ZNK2pp15WheelInputEvent15GetScrollByPageEv
                0x0000000000036720                _ZN2pp15WheelInputEventC1ERKNS_14InstanceHandleEdjRKNS_10FloatPointES6_b
                0x0000000000036a60                _ZN2pp15WheelInputEventC2ERKNS_14InstanceHandleEdjRKNS_10FloatPointES6_b
                0x0000000000036da0                _ZN2pp15WheelInputEventC2ERKNS_10InputEventE
                0x0000000000037100                _ZNK2pp15WheelInputEvent8GetTicksEv
                0x00000000000373a0                _ZNK2pp15WheelInputEvent8GetDeltaEv
                0x0000000000037640                _ZN2pp18KeyboardInputEventC2ERKNS_10InputEventE
                0x00000000000379c0                _ZN2pp18KeyboardInputEventC1ERKNS_10InputEventE
                0x0000000000037d40                _ZN2pp18KeyboardInputEventC1ERKNS_14InstanceHandleE18PP_InputEvent_TypedjjRKNS_3VarES7_
                0x0000000000038080                _ZN2pp18KeyboardInputEventC1ERKNS_14InstanceHandleE18PP_InputEvent_TypedjjRKNS_3VarE
                0x0000000000038520                _ZN2pp18KeyboardInputEventC2ERKNS_14InstanceHandleE18PP_InputEvent_TypedjjRKNS_3VarES7_
                0x0000000000038960                _ZN2pp15WheelInputEventC1ERKNS_10InputEventE
                0x0000000000038cc0                _ZN2pp15TouchInputEventC2ERKNS_10InputEventE
                0x0000000000039020                _ZNK2pp15MouseInputEvent11GetMovementEv
                0x00000000000392c0                _ZN2pp15TouchInputEvent13AddTouchPointE16PP_TouchListType13PP_TouchPoint
                0x0000000000039560                _ZN2pp15TouchInputEventC1ERKNS_14InstanceHandleE18PP_InputEvent_Typedj
                0x00000000000398a0                _ZN2pp15TouchInputEventC1ERKNS_10InputEventE
                0x0000000000039c00                _ZNK2pp15TouchInputEvent15GetTouchByIndexE16PP_TouchListTypej
                0x0000000000039ee0                _ZN2pp15MouseInputEventC2ERKNS_10InputEventE
                0x000000000003a240                _ZNK2pp15TouchInputEvent13GetTouchCountE16PP_TouchListType
                0x000000000003a4c0                _ZNK2pp15MouseInputEvent13GetClickCountEv
                0x000000000003a720                _ZNK2pp15MouseInputEvent11GetPositionEv
                0x000000000003a9c0                _ZN2pp15MouseInputEventC1ERKNS_14InstanceHandleE18PP_InputEvent_Typedj25PP_InputEvent_MouseButtonRKNS_5PointEiS8_
                0x000000000003ad20                _ZN2pp15MouseInputEventC2ERKNS_14InstanceHandleE18PP_InputEvent_Typedj25PP_InputEvent_MouseButtonRKNS_5PointEiS8_
                0x000000000003b080                _ZN2pp15MouseInputEventC1ERKNS_10InputEventE
                0x000000000003b3e0                _ZNK2pp18KeyboardInputEvent10GetKeyCodeEv
                0x000000000003b740                _ZNK2pp18KeyboardInputEvent7GetCodeEv
                0x000000000003b900                _ZNK2pp18KeyboardInputEvent16GetCharacterTextEv
                0x000000000003bd40                _ZNK2pp15TouchInputEvent12GetTouchByIdE16PP_TouchListTypej
                0x000000000003c020                _ZNK2pp13IMEInputEvent7GetTextEv
                0x000000000003c2e0                _ZNK2pp13IMEInputEvent16GetSegmentNumberEv
                0x000000000003c540                _ZNK2pp13IMEInputEvent16GetSegmentOffsetEj
                0x000000000003c6a0                _ZN2pp13IMEInputEventC1ERKNS_14InstanceHandleE18PP_InputEvent_TypedRKNS_3VarERKSt6vectorIjSaIjEEiRKSt4pairIjjE
                0x000000000003c9a0                _ZN2pp13IMEInputEventC2ERKNS_14InstanceHandleE18PP_InputEvent_TypedRKNS_3VarERKSt6vectorIjSaIjEEiRKSt4pairIjjE
                0x000000000003cda0                _ZN2pp13IMEInputEventC1ERKNS_10InputEventE
                0x000000000003d100                _ZN2pp13IMEInputEventC2ERKNS_10InputEventE
                0x000000000003d360                _ZNK2pp13IMEInputEvent12GetSelectionEPjS1_
                0x000000000003d600                _ZN2pp15TouchInputEventC2ERKNS_14InstanceHandleE18PP_InputEvent_Typedj
                0x000000000003d940                _ZNK2pp13IMEInputEvent16GetTargetSegmentEv
                0x000000000003dba0                _ZNK2pp15MouseInputEvent9GetButtonEv
                0x000000000003de00                _ZN2pp18KeyboardInputEventC2ERKNS_14InstanceHandleE18PP_InputEvent_TypedjjRKNS_3VarE
 .text._ZN2pp13IMEInputEventD0Ev
                0x000000000003e3a0       0x40 /home/berkeley/nacl_sdk/pepper_42/lib/newlib_x86_32/Release/libppapi_cpp.a(input_event_x86_32.o)
                0x000000000003e3a0                _ZN2pp13IMEInputEventD0Ev
 .text._ZN2pp13IMEInputEventD1Ev
                0x000000000003e3e0       0x20 /home/berkeley/nacl_sdk/pepper_42/lib/newlib_x86_32/Release/libppapi_cpp.a(input_event_x86_32.o)
                0x000000000003e3e0                _ZN2pp13IMEInputEventD1Ev
 .text._ZN2pp15TouchInputEventD0Ev
                0x000000000003e400       0x40 /home/berkeley/nacl_sdk/pepper_42/lib/newlib_x86_32/Release/libppapi_cpp.a(input_event_x86_32.o)
                0x000000000003e400                _ZN2pp15TouchInputEventD0Ev
 .text._ZN2pp15TouchInputEventD1Ev
                0x000000000003e440       0x20 /home/berkeley/nacl_sdk/pepper_42/lib/newlib_x86_32/Release/libppapi_cpp.a(input_event_x86_32.o)
                0x000000000003e440                _ZN2pp15TouchInputEventD1Ev
 .text._ZN2pp18KeyboardInputEventD0Ev
                0x000000000003e460       0x40 /home/berkeley/nacl_sdk/pepper_42/lib/newlib_x86_32/Release/libppapi_cpp.a(input_event_x86_32.o)
                0x000000000003e460                _ZN2pp18KeyboardInputEventD0Ev
 .text._ZN2pp18KeyboardInputEventD1Ev
                0x000000000003e4a0       0x20 /home/berkeley/nacl_sdk/pepper_42/lib/newlib_x86_32/Release/libppapi_cpp.a(input_event_x86_32.o)
                0x000000000003e4a0                _ZN2pp18KeyboardInputEventD1Ev
 .text._ZN2pp15WheelInputEventD0Ev
                0x000000000003e4c0       0x40 /home/berkeley/nacl_sdk/pepper_42/lib/newlib_x86_32/Release/libppapi_cpp.a(input_event_x86_32.o)
                0x000000000003e4c0                _ZN2pp15WheelInputEventD0Ev
 .text._ZN2pp15WheelInputEventD1Ev
                0x000000000003e500       0x20 /home/berkeley/nacl_sdk/pepper_42/lib/newlib_x86_32/Release/libppapi_cpp.a(input_event_x86_32.o)
                0x000000000003e500                _ZN2pp15WheelInputEventD1Ev
 .text._ZN2pp15MouseInputEventD0Ev
                0x000000000003e520       0x40 /home/berkeley/nacl_sdk/pepper_42/lib/newlib_x86_32/Release/libppapi_cpp.a(input_event_x86_32.o)
                0x000000000003e520                _ZN2pp15MouseInputEventD0Ev
 .text._ZN2pp15MouseInputEventD1Ev
                0x000000000003e560       0x20 /home/berkeley/nacl_sdk/pepper_42/lib/newlib_x86_32/Release/libppapi_cpp.a(input_event_x86_32.o)
                0x000000000003e560                _ZN2pp15MouseInputEventD1Ev
 .text          0x000000000003e580       0x40 /home/berkeley/nacl_sdk/pepper_42/toolchain/linux_x86_newlib/bin/../lib/gcc/x86_64-nacl/4.4.3/../../../../x86_64-nacl/lib/../lib32/libppapi_stub.a(plugin_main_irt_21ce9d26.o)
                0x000000000003e580                main
 .text          0x000000000003e5c0       0x40 /home/berkeley/nacl_sdk/pepper_42/toolchain/linux_x86_newlib/bin/../lib/gcc/x86_64-nacl/4.4.3/../../../../x86_64-nacl/lib/../lib32/libppapi_stub.a(ppapi_plugin_main_399d0cf7.o)
                0x000000000003e5c0                PpapiPluginMain
 .text          0x000000000003e600      0x1e0 /home/berkeley/nacl_sdk/pepper_42/toolchain/linux_x86_newlib/bin/../lib/gcc/x86_64-nacl/4.4.3/../../../../x86_64-nacl/lib/../lib32/libppapi_stub.a(ppapi_plugin_start_8da67623.o)
                0x000000000003e660                PpapiPluginStart
 .text          0x000000000003e7e0       0xc0 /home/berkeley/nacl_sdk/pepper_42/toolchain/linux_x86_newlib/bin/../lib/gcc/x86_64-nacl/4.4.3/../../../../x86_64-nacl/lib/../lib32/libppapi_stub.a(thread_creator_ccf263e1.o)
                0x000000000003e7e0                __nacl_register_thread_creator
 .text          0x000000000003e8a0     0x1bc0 /home/berkeley/nacl_sdk/pepper_42/toolchain/linux_x86_newlib/bin/../lib/gcc/x86_64-nacl/4.4.3/../../../../x86_64-nacl/lib/../lib32/libpthread.a(nc_thread_7e478b15.o)
                0x000000000003e8a0                pthread_kill
                0x000000000003e8c0                pthread_equal
                0x000000000003e8e0                pthread_attr_init
                0x000000000003e920                pthread_attr_destroy
                0x000000000003e940                pthread_attr_setdetachstate
                0x000000000003e980                pthread_attr_getdetachstate
                0x000000000003e9c0                pthread_attr_setscope
                0x000000000003ea00                pthread_attr_getscope
                0x000000000003ea20                pthread_attr_setstacksize
                0x000000000003eaa0                pthread_attr_getstacksize
                0x000000000003eae0                pthread_getspecific
                0x000000000003eb60                __nc_tsd_exit
                0x000000000003ed00                pthread_cleanup_pop
                0x000000000003eda0                pthread_setspecific
                0x000000000003eea0                pthread_key_delete
                0x000000000003ef40                pthread_key_create
                0x000000000003efe0                __local_lock_release
                0x000000000003f020                __local_lock_release_recursive
                0x000000000003f040                __local_lock_try_acquire
                0x000000000003f0a0                __local_lock_try_acquire_recursive
                0x000000000003f0c0                __local_lock_acquire
                0x000000000003f100                __local_lock_acquire_recursive
                0x000000000003f120                __local_lock_close
                0x000000000003f160                __local_lock_close_recursive
                0x000000000003f180                __local_lock_init_recursive
                0x000000000003f200                __local_lock_init
                0x000000000003f280                pthread_self
                0x000000000003f2c0                pthread_setschedprio
                0x000000000003f380                pthread_detach
                0x000000000003f460                pthread_join
                0x000000000003f620                pthread_exit
                0x000000000003fa60                pthread_cleanup_push
                0x000000000003fd80                pthread_create
                0x00000000000402c0                __nc_initialize_globals
                0x00000000000403e0                __pthread_initialize
 .text          0x0000000000040460      0x1e0 /home/berkeley/nacl_sdk/pepper_42/toolchain/linux_x86_newlib/bin/../lib/gcc/x86_64-nacl/4.4.3/../../../../x86_64-nacl/lib/../lib32/libpthread.a(nc_condvar_305aa45a.o)
                0x0000000000040460                pthread_cond_init
                0x0000000000040480                pthread_cond_destroy
                0x00000000000404a0                pthread_cond_timedwait_abs
                0x0000000000040580                pthread_cond_wait
                0x0000000000040600                pthread_cond_broadcast
                0x0000000000040620                pthread_cond_signal
 .text          0x0000000000040640      0x540 /home/berkeley/nacl_sdk/pepper_42/toolchain/linux_x86_newlib/bin/../lib/gcc/x86_64-nacl/4.4.3/../../../../x86_64-nacl/lib/../lib32/libpthread.a(dynamic_annotations_33ba59cc.o)
                0x0000000000040640                NACL_AnnotateRWLockCreate
                0x0000000000040660                NACL_AnnotateRWLockDestroy
                0x0000000000040680                NACL_AnnotateRWLockAcquired
                0x00000000000406a0                NACL_AnnotateRWLockReleased
                0x00000000000406c0                NACL_AnnotateBarrierInit
                0x00000000000406e0                NACL_AnnotateBarrierWaitBefore
                0x0000000000040700                NACL_AnnotateBarrierWaitAfter
                0x0000000000040720                NACL_AnnotateBarrierDestroy
                0x0000000000040740                NACL_AnnotateCondVarWait
                0x0000000000040760                NACL_AnnotateCondVarSignal
                0x0000000000040780                NACL_AnnotateCondVarSignalAll
                0x00000000000407a0                NACL_AnnotateHappensBefore
                0x00000000000407c0                NACL_AnnotateHappensAfter
                0x00000000000407e0                NACL_AnnotatePublishMemoryRange
                0x0000000000040800                NACL_AnnotateUnpublishMemoryRange
                0x0000000000040820                NACL_AnnotatePCQCreate
                0x0000000000040840                NACL_AnnotatePCQDestroy
                0x0000000000040860                NACL_AnnotatePCQPut
                0x0000000000040880                NACL_AnnotatePCQGet
                0x00000000000408a0                NACL_AnnotateNewMemory
                0x00000000000408c0                NACL_AnnotateExpectRace
                0x00000000000408e0                NACL_AnnotateFlushExpectedRaces
                0x0000000000040900                NACL_AnnotateBenignRace
                0x0000000000040920                NACL_AnnotateBenignRaceSized
                0x0000000000040940                NACL_AnnotateMutexIsUsedAsCondVar
                0x0000000000040960                NACL_AnnotateMutexIsNotPHB
                0x0000000000040980                NACL_AnnotateTraceMemory
                0x00000000000409a0                NACL_AnnotateThreadName
                0x00000000000409c0                NACL_AnnotateIgnoreReadsBegin
                0x00000000000409e0                NACL_AnnotateIgnoreReadsEnd
                0x0000000000040a00                NACL_AnnotateIgnoreWritesBegin
                0x0000000000040a20                NACL_AnnotateIgnoreWritesEnd
                0x0000000000040a40                NACL_AnnotateIgnoreSyncBegin
                0x0000000000040a60                NACL_AnnotateIgnoreSyncEnd
                0x0000000000040a80                NACL_AnnotateEnableRaceDetection
                0x0000000000040aa0                NACL_AnnotateNoOp
                0x0000000000040ac0                NACL_AnnotateFlushState
                0x0000000000040ae0                RunningOnValgrind
 .text          0x0000000000040b80      0x6a0 /home/berkeley/nacl_sdk/pepper_42/toolchain/linux_x86_newlib/bin/../lib/gcc/x86_64-nacl/4.4.3/../../../../x86_64-nacl/lib/../lib32/libpthread.a(nc_mutex_86341ae1.o)
                0x0000000000040b80                pthread_mutex_init
                0x0000000000040be0                pthread_mutex_destroy
                0x0000000000040c40                pthread_mutexattr_init
                0x0000000000040c60                pthread_mutexattr_destroy
                0x0000000000040c80                pthread_mutexattr_settype
                0x0000000000040cc0                pthread_mutexattr_gettype
                0x0000000000040ce0                pthread_mutex_unlock
                0x00000000000410c0                pthread_mutex_timedlock
                0x00000000000410e0                pthread_mutex_lock
                0x0000000000041100                pthread_once
                0x0000000000041200                pthread_mutex_trylock
 .text          0x0000000000041220       0x60 /home/berkeley/nacl_sdk/pepper_42/toolchain/linux_x86_newlib/bin/../lib/gcc/x86_64-nacl/4.4.3/../../../../x86_64-nacl/lib/../lib32/libpthread.a(nc_init_irt_d3daafc0.o)
                0x0000000000041220                __nc_initialize_interfaces
 .text          0x0000000000041280        0x0 /home/berkeley/nacl_sdk/pepper_42/toolchain/linux_x86_newlib/bin/../lib/gcc/x86_64-nacl/4.4.3/../../../../x86_64-nacl/lib/../lib32/libstdc++.a(tree.o)
 .text._ZSt18_Rb_tree_incrementPSt18_Rb_tree_node_base
                0x0000000000041280       0xa0 /home/berkeley/nacl_sdk/pepper_42/toolchain/linux_x86_newlib/bin/../lib/gcc/x86_64-nacl/4.4.3/../../../../x86_64-nacl/lib/../lib32/libstdc++.a(tree.o)
                0x0000000000041280                _ZSt18_Rb_tree_incrementPSt18_Rb_tree_node_base
 .text._ZSt18_Rb_tree_incrementPKSt18_Rb_tree_node_base
                0x0000000000041320       0xc0 /home/berkeley/nacl_sdk/pepper_42/toolchain/linux_x86_newlib/bin/../lib/gcc/x86_64-nacl/4.4.3/../../../../x86_64-nacl/lib/../lib32/libstdc++.a(tree.o)
                0x0000000000041320                _ZSt18_Rb_tree_incrementPKSt18_Rb_tree_node_base
 .text._ZSt18_Rb_tree_decrementPSt18_Rb_tree_node_base
                0x00000000000413e0      0x120 /home/berkeley/nacl_sdk/pepper_42/toolchain/linux_x86_newlib/bin/../lib/gcc/x86_64-nacl/4.4.3/../../../../x86_64-nacl/lib/../lib32/libstdc++.a(tree.o)
                0x00000000000413e0                _ZSt18_Rb_tree_decrementPSt18_Rb_tree_node_base
 .text._ZSt18_Rb_tree_decrementPKSt18_Rb_tree_node_base
                0x0000000000041500      0x120 /home/berkeley/nacl_sdk/pepper_42/toolchain/linux_x86_newlib/bin/../lib/gcc/x86_64-nacl/4.4.3/../../../../x86_64-nacl/lib/../lib32/libstdc++.a(tree.o)
                0x0000000000041500                _ZSt18_Rb_tree_decrementPKSt18_Rb_tree_node_base
 .text._ZSt20_Rb_tree_rotate_leftPSt18_Rb_tree_node_baseRS0_
                0x0000000000041620       0xa0 /home/berkeley/nacl_sdk/pepper_42/toolchain/linux_x86_newlib/bin/../lib/gcc/x86_64-nacl/4.4.3/../../../../x86_64-nacl/lib/../lib32/libstdc++.a(tree.o)
                0x0000000000041620                _ZSt20_Rb_tree_rotate_leftPSt18_Rb_tree_node_baseRS0_
 .text._ZSt21_Rb_tree_rotate_rightPSt18_Rb_tree_node_baseRS0_
                0x00000000000416c0       0xa0 /home/berkeley/nacl_sdk/pepper_42/toolchain/linux_x86_newlib/bin/../lib/gcc/x86_64-nacl/4.4.3/../../../../x86_64-nacl/lib/../lib32/libstdc++.a(tree.o)
                0x00000000000416c0                _ZSt21_Rb_tree_rotate_rightPSt18_Rb_tree_node_baseRS0_
 .text._ZSt29_Rb_tree_insert_and_rebalancebPSt18_Rb_tree_node_baseS0_RS_
                0x0000000000041760      0x4a0 /home/berkeley/nacl_sdk/pepper_42/toolchain/linux_x86_newlib/bin/../lib/gcc/x86_64-nacl/4.4.3/../../../../x86_64-nacl/lib/../lib32/libstdc++.a(tree.o)
                0x0000000000041760                _ZSt29_Rb_tree_insert_and_rebalancebPSt18_Rb_tree_node_baseS0_RS_
 .text._ZSt28_Rb_tree_rebalance_for_erasePSt18_Rb_tree_node_baseRS_
                0x0000000000041c00      0x9a0 /home/berkeley/nacl_sdk/pepper_42/toolchain/linux_x86_newlib/bin/../lib/gcc/x86_64-nacl/4.4.3/../../../../x86_64-nacl/lib/../lib32/libstdc++.a(tree.o)
                0x0000000000041c00                _ZSt28_Rb_tree_rebalance_for_erasePSt18_Rb_tree_node_baseRS_
 .text._ZSt20_Rb_tree_black_countPKSt18_Rb_tree_node_baseS1_
                0x00000000000425a0       0x80 /home/berkeley/nacl_sdk/pepper_42/toolchain/linux_x86_newlib/bin/../lib/gcc/x86_64-nacl/4.4.3/../../../../x86_64-nacl/lib/../lib32/libstdc++.a(tree.o)
                0x00000000000425a0                _ZSt20_Rb_tree_black_countPKSt18_Rb_tree_node_baseS1_
 .text          0x0000000000042620        0x0 /home/berkeley/nacl_sdk/pepper_42/toolchain/linux_x86_newlib/bin/../lib/gcc/x86_64-nacl/4.4.3/../../../../x86_64-nacl/lib/../lib32/libstdc++.a(string-inst.o)
 .text._ZNKSs7_M_dataEv
                0x0000000000042620       0x20 /home/berkeley/nacl_sdk/pepper_42/toolchain/linux_x86_newlib/bin/../lib/gcc/x86_64-nacl/4.4.3/../../../../x86_64-nacl/lib/../lib32/libstdc++.a(string-inst.o)
                0x0000000000042620                _ZNKSs7_M_dataEv
 .text._ZNSs7_M_dataEPc
                0x0000000000042640       0x20 /home/berkeley/nacl_sdk/pepper_42/toolchain/linux_x86_newlib/bin/../lib/gcc/x86_64-nacl/4.4.3/../../../../x86_64-nacl/lib/../lib32/libstdc++.a(string-inst.o)
                0x0000000000042640                _ZNSs7_M_dataEPc
 .text._ZNKSs6_M_repEv
                0x0000000000042660       0x20 /home/berkeley/nacl_sdk/pepper_42/toolchain/linux_x86_newlib/bin/../lib/gcc/x86_64-nacl/4.4.3/../../../../x86_64-nacl/lib/../lib32/libstdc++.a(string-inst.o)
                0x0000000000042660                _ZNKSs6_M_repEv
 .text._ZNKSs9_M_ibeginEv
                0x0000000000042680       0x20 /home/berkeley/nacl_sdk/pepper_42/toolchain/linux_x86_newlib/bin/../lib/gcc/x86_64-nacl/4.4.3/../../../../x86_64-nacl/lib/../lib32/libstdc++.a(string-inst.o)
                0x0000000000042680                _ZNKSs9_M_ibeginEv
 .text._ZNKSs7_M_iendEv
                0x00000000000426a0       0x20 /home/berkeley/nacl_sdk/pepper_42/toolchain/linux_x86_newlib/bin/../lib/gcc/x86_64-nacl/4.4.3/../../../../x86_64-nacl/lib/../lib32/libstdc++.a(string-inst.o)
                0x00000000000426a0                _ZNKSs7_M_iendEv
 .text._ZNKSs8_M_limitEjj
                0x00000000000426c0       0x20 /home/berkeley/nacl_sdk/pepper_42/toolchain/linux_x86_newlib/bin/../lib/gcc/x86_64-nacl/4.4.3/../../../../x86_64-nacl/lib/../lib32/libstdc++.a(string-inst.o)
                0x00000000000426c0                _ZNKSs8_M_limitEjj
 .text._ZNKSs11_M_disjunctEPKc
                0x00000000000426e0       0x40 /home/berkeley/nacl_sdk/pepper_42/toolchain/linux_x86_newlib/bin/../lib/gcc/x86_64-nacl/4.4.3/../../../../x86_64-nacl/lib/../lib32/libstdc++.a(string-inst.o)
                0x00000000000426e0                _ZNKSs11_M_disjunctEPKc
 .text._ZNSs10_S_compareEjj
                0x0000000000042720       0x20 /home/berkeley/nacl_sdk/pepper_42/toolchain/linux_x86_newlib/bin/../lib/gcc/x86_64-nacl/4.4.3/../../../../x86_64-nacl/lib/../lib32/libstdc++.a(string-inst.o)
                0x0000000000042720                _ZNSs10_S_compareEjj
 .text._ZNSs12_S_empty_repEv
                0x0000000000042740       0x20 /home/berkeley/nacl_sdk/pepper_42/toolchain/linux_x86_newlib/bin/../lib/gcc/x86_64-nacl/4.4.3/../../../../x86_64-nacl/lib/../lib32/libstdc++.a(string-inst.o)
                0x0000000000042740                _ZNSs12_S_empty_repEv
 .text._ZNSsC2Ev
                0x0000000000042760       0x20 /home/berkeley/nacl_sdk/pepper_42/toolchain/linux_x86_newlib/bin/../lib/gcc/x86_64-nacl/4.4.3/../../../../x86_64-nacl/lib/../lib32/libstdc++.a(string-inst.o)
                0x0000000000042760                _ZNSsC2Ev
 .text._ZNSsC1Ev
                0x0000000000042780       0x20 /home/berkeley/nacl_sdk/pepper_42/toolchain/linux_x86_newlib/bin/../lib/gcc/x86_64-nacl/4.4.3/../../../../x86_64-nacl/lib/../lib32/libstdc++.a(string-inst.o)
                0x0000000000042780                _ZNSsC1Ev
 .text._ZNKSs5beginEv
                0x00000000000427a0       0x20 /home/berkeley/nacl_sdk/pepper_42/toolchain/linux_x86_newlib/bin/../lib/gcc/x86_64-nacl/4.4.3/../../../../x86_64-nacl/lib/../lib32/libstdc++.a(string-inst.o)
                0x00000000000427a0                _ZNKSs5beginEv
 .text._ZNKSs3endEv
                0x00000000000427c0       0x20 /home/berkeley/nacl_sdk/pepper_42/toolchain/linux_x86_newlib/bin/../lib/gcc/x86_64-nacl/4.4.3/../../../../x86_64-nacl/lib/../lib32/libstdc++.a(string-inst.o)
                0x00000000000427c0                _ZNKSs3endEv
 .text._ZNKSs6rbeginEv
                0x00000000000427e0       0x20 /home/berkeley/nacl_sdk/pepper_42/toolchain/linux_x86_newlib/bin/../lib/gcc/x86_64-nacl/4.4.3/../../../../x86_64-nacl/lib/../lib32/libstdc++.a(string-inst.o)
                0x00000000000427e0                _ZNKSs6rbeginEv
 .text._ZNKSs4rendEv
                0x0000000000042800       0x20 /home/berkeley/nacl_sdk/pepper_42/toolchain/linux_x86_newlib/bin/../lib/gcc/x86_64-nacl/4.4.3/../../../../x86_64-nacl/lib/../lib32/libstdc++.a(string-inst.o)
                0x0000000000042800                _ZNKSs4rendEv
 .text._ZNKSs4sizeEv
                0x0000000000042820       0x20 /home/berkeley/nacl_sdk/pepper_42/toolchain/linux_x86_newlib/bin/../lib/gcc/x86_64-nacl/4.4.3/../../../../x86_64-nacl/lib/../lib32/libstdc++.a(string-inst.o)
                0x0000000000042820                _ZNKSs4sizeEv
 .text._ZNKSs6lengthEv
                0x0000000000042840       0x20 /home/berkeley/nacl_sdk/pepper_42/toolchain/linux_x86_newlib/bin/../lib/gcc/x86_64-nacl/4.4.3/../../../../x86_64-nacl/lib/../lib32/libstdc++.a(string-inst.o)
                0x0000000000042840                _ZNKSs6lengthEv
 .text._ZNKSs8max_sizeEv
                0x0000000000042860       0x20 /home/berkeley/nacl_sdk/pepper_42/toolchain/linux_x86_newlib/bin/../lib/gcc/x86_64-nacl/4.4.3/../../../../x86_64-nacl/lib/../lib32/libstdc++.a(string-inst.o)
                0x0000000000042860                _ZNKSs8max_sizeEv
 .text._ZNKSs8capacityEv
                0x0000000000042880       0x20 /home/berkeley/nacl_sdk/pepper_42/toolchain/linux_x86_newlib/bin/../lib/gcc/x86_64-nacl/4.4.3/../../../../x86_64-nacl/lib/../lib32/libstdc++.a(string-inst.o)
                0x0000000000042880                _ZNKSs8capacityEv
 .text._ZNKSs5emptyEv
                0x00000000000428a0       0x20 /home/berkeley/nacl_sdk/pepper_42/toolchain/linux_x86_newlib/bin/../lib/gcc/x86_64-nacl/4.4.3/../../../../x86_64-nacl/lib/../lib32/libstdc++.a(string-inst.o)
                0x00000000000428a0                _ZNKSs5emptyEv
 .text._ZNKSsixEj
                0x00000000000428c0       0x20 /home/berkeley/nacl_sdk/pepper_42/toolchain/linux_x86_newlib/bin/../lib/gcc/x86_64-nacl/4.4.3/../../../../x86_64-nacl/lib/../lib32/libstdc++.a(string-inst.o)
                0x00000000000428c0                _ZNKSsixEj
 .text._ZNSs4swapERSs
                0x00000000000428e0       0xa0 /home/berkeley/nacl_sdk/pepper_42/toolchain/linux_x86_newlib/bin/../lib/gcc/x86_64-nacl/4.4.3/../../../../x86_64-nacl/lib/../lib32/libstdc++.a(string-inst.o)
                0x00000000000428e0                _ZNSs4swapERSs
 .text._ZNKSs5c_strEv
                0x0000000000042980       0x20 /home/berkeley/nacl_sdk/pepper_42/toolchain/linux_x86_newlib/bin/../lib/gcc/x86_64-nacl/4.4.3/../../../../x86_64-nacl/lib/../lib32/libstdc++.a(string-inst.o)
                0x0000000000042980                _ZNKSs5c_strEv
 .text._ZNKSs4dataEv
                0x00000000000429a0       0x20 /home/berkeley/nacl_sdk/pepper_42/toolchain/linux_x86_newlib/bin/../lib/gcc/x86_64-nacl/4.4.3/../../../../x86_64-nacl/lib/../lib32/libstdc++.a(string-inst.o)
                0x00000000000429a0                _ZNKSs4dataEv
 .text._ZNKSs13get_allocatorEv
                0x00000000000429c0       0x20 /home/berkeley/nacl_sdk/pepper_42/toolchain/linux_x86_newlib/bin/../lib/gcc/x86_64-nacl/4.4.3/../../../../x86_64-nacl/lib/../lib32/libstdc++.a(string-inst.o)
                0x00000000000429c0                _ZNKSs13get_allocatorEv
 .text._ZNKSs5rfindEcj
                0x00000000000429e0       0x80 /home/berkeley/nacl_sdk/pepper_42/toolchain/linux_x86_newlib/bin/../lib/gcc/x86_64-nacl/4.4.3/../../../../x86_64-nacl/lib/../lib32/libstdc++.a(string-inst.o)
                0x00000000000429e0                _ZNKSs5rfindEcj
 .text._ZNKSs12find_last_ofEcj
                0x0000000000042a60       0x20 /home/berkeley/nacl_sdk/pepper_42/toolchain/linux_x86_newlib/bin/../lib/gcc/x86_64-nacl/4.4.3/../../../../x86_64-nacl/lib/../lib32/libstdc++.a(string-inst.o)
                0x0000000000042a60                _ZNKSs12find_last_ofEcj
 .text._ZNKSs17find_first_not_ofEcj
                0x0000000000042a80       0xc0 /home/berkeley/nacl_sdk/pepper_42/toolchain/linux_x86_newlib/bin/../lib/gcc/x86_64-nacl/4.4.3/../../../../x86_64-nacl/lib/../lib32/libstdc++.a(string-inst.o)
                0x0000000000042a80                _ZNKSs17find_first_not_ofEcj
 .text._ZNKSs16find_last_not_ofEcj
                0x0000000000042b40       0xc0 /home/berkeley/nacl_sdk/pepper_42/toolchain/linux_x86_newlib/bin/../lib/gcc/x86_64-nacl/4.4.3/../../../../x86_64-nacl/lib/../lib32/libstdc++.a(string-inst.o)
                0x0000000000042b40                _ZNKSs16find_last_not_ofEcj
 .text._ZNSs12_Alloc_hiderC2EPcRKSaIcE
                0x0000000000042c00       0x20 /home/berkeley/nacl_sdk/pepper_42/toolchain/linux_x86_newlib/bin/../lib/gcc/x86_64-nacl/4.4.3/../../../../x86_64-nacl/lib/../lib32/libstdc++.a(string-inst.o)
                0x0000000000042c00                _ZNSs12_Alloc_hiderC2EPcRKSaIcE
 .text._ZNSs12_Alloc_hiderC1EPcRKSaIcE
                0x0000000000042c20       0x20 /home/berkeley/nacl_sdk/pepper_42/toolchain/linux_x86_newlib/bin/../lib/gcc/x86_64-nacl/4.4.3/../../../../x86_64-nacl/lib/../lib32/libstdc++.a(string-inst.o)
                0x0000000000042c20                _ZNSs12_Alloc_hiderC1EPcRKSaIcE
 .text._ZNSs4_Rep12_S_empty_repEv
                0x0000000000042c40       0x20 /home/berkeley/nacl_sdk/pepper_42/toolchain/linux_x86_newlib/bin/../lib/gcc/x86_64-nacl/4.4.3/../../../../x86_64-nacl/lib/../lib32/libstdc++.a(string-inst.o)
                0x0000000000042c40                _ZNSs4_Rep12_S_empty_repEv
 .text._ZNKSs4_Rep12_M_is_leakedEv
                0x0000000000042c60       0x20 /home/berkeley/nacl_sdk/pepper_42/toolchain/linux_x86_newlib/bin/../lib/gcc/x86_64-nacl/4.4.3/../../../../x86_64-nacl/lib/../lib32/libstdc++.a(string-inst.o)
                0x0000000000042c60                _ZNKSs4_Rep12_M_is_leakedEv
 .text._ZNKSs4_Rep12_M_is_sharedEv
                0x0000000000042c80       0x20 /home/berkeley/nacl_sdk/pepper_42/toolchain/linux_x86_newlib/bin/../lib/gcc/x86_64-nacl/4.4.3/../../../../x86_64-nacl/lib/../lib32/libstdc++.a(string-inst.o)
                0x0000000000042c80                _ZNKSs4_Rep12_M_is_sharedEv
 .text._ZNSs4_Rep13_M_set_leakedEv
                0x0000000000042ca0       0x20 /home/berkeley/nacl_sdk/pepper_42/toolchain/linux_x86_newlib/bin/../lib/gcc/x86_64-nacl/4.4.3/../../../../x86_64-nacl/lib/../lib32/libstdc++.a(string-inst.o)
                0x0000000000042ca0                _ZNSs4_Rep13_M_set_leakedEv
 .text._ZNSs4_Rep15_M_set_sharableEv
                0x0000000000042cc0       0x20 /home/berkeley/nacl_sdk/pepper_42/toolchain/linux_x86_newlib/bin/../lib/gcc/x86_64-nacl/4.4.3/../../../../x86_64-nacl/lib/../lib32/libstdc++.a(string-inst.o)
                0x0000000000042cc0                _ZNSs4_Rep15_M_set_sharableEv
 .text._ZNSs4_Rep26_M_set_length_and_sharableEj
                0x0000000000042ce0       0x20 /home/berkeley/nacl_sdk/pepper_42/toolchain/linux_x86_newlib/bin/../lib/gcc/x86_64-nacl/4.4.3/../../../../x86_64-nacl/lib/../lib32/libstdc++.a(string-inst.o)
                0x0000000000042ce0                _ZNSs4_Rep26_M_set_length_and_sharableEj
 .text._ZNSs4_Rep10_M_refdataEv
                0x0000000000042d00       0x20 /home/berkeley/nacl_sdk/pepper_42/toolchain/linux_x86_newlib/bin/../lib/gcc/x86_64-nacl/4.4.3/../../../../x86_64-nacl/lib/../lib32/libstdc++.a(string-inst.o)
                0x0000000000042d00                _ZNSs4_Rep10_M_refdataEv
 .text._ZN9__gnu_cxxeqIPcSsEEbRKNS_17__normal_iteratorIT_T0_EES7_
                0x0000000000042d20       0x20 /home/berkeley/nacl_sdk/pepper_42/toolchain/linux_x86_newlib/bin/../lib/gcc/x86_64-nacl/4.4.3/../../../../x86_64-nacl/lib/../lib32/libstdc++.a(string-inst.o)
                0x0000000000042d20                _ZN9__gnu_cxxeqIPcSsEEbRKNS_17__normal_iteratorIT_T0_EES7_
 .text._ZN9__gnu_cxxeqIPKcSsEEbRKNS_17__normal_iteratorIT_T0_EES8_
                0x0000000000042d40       0x20 /home/berkeley/nacl_sdk/pepper_42/toolchain/linux_x86_newlib/bin/../lib/gcc/x86_64-nacl/4.4.3/../../../../x86_64-nacl/lib/../lib32/libstdc++.a(string-inst.o)
                0x0000000000042d40                _ZN9__gnu_cxxeqIPKcSsEEbRKNS_17__normal_iteratorIT_T0_EES8_
 .text._ZNSs4_Rep10_M_refcopyEv
                0x0000000000042d60       0x80 /home/berkeley/nacl_sdk/pepper_42/toolchain/linux_x86_newlib/bin/../lib/gcc/x86_64-nacl/4.4.3/../../../../x86_64-nacl/lib/../lib32/libstdc++.a(string-inst.o)
                0x0000000000042d60                _ZNSs4_Rep10_M_refcopyEv
 .text._ZNSs4_Rep10_M_destroyERKSaIcE
                0x0000000000042de0       0x20 /home/berkeley/nacl_sdk/pepper_42/toolchain/linux_x86_newlib/bin/../lib/gcc/x86_64-nacl/4.4.3/../../../../x86_64-nacl/lib/../lib32/libstdc++.a(string-inst.o)
                0x0000000000042de0                _ZNSs4_Rep10_M_destroyERKSaIcE
 .text._ZNSs4_Rep10_M_disposeERKSaIcE
                0x0000000000042e00       0xa0 /home/berkeley/nacl_sdk/pepper_42/toolchain/linux_x86_newlib/bin/../lib/gcc/x86_64-nacl/4.4.3/../../../../x86_64-nacl/lib/../lib32/libstdc++.a(string-inst.o)
                0x0000000000042e00                _ZNSs4_Rep10_M_disposeERKSaIcE
 .text._ZNKSs15_M_check_lengthEjjPKc
                0x0000000000042ea0       0x60 /home/berkeley/nacl_sdk/pepper_42/toolchain/linux_x86_newlib/bin/../lib/gcc/x86_64-nacl/4.4.3/../../../../x86_64-nacl/lib/../lib32/libstdc++.a(string-inst.o)
                0x0000000000042ea0                _ZNKSs15_M_check_lengthEjjPKc
 .text._ZNSs4_Rep9_S_createEjjRKSaIcE
                0x0000000000042f00      0x120 /home/berkeley/nacl_sdk/pepper_42/toolchain/linux_x86_newlib/bin/../lib/gcc/x86_64-nacl/4.4.3/../../../../x86_64-nacl/lib/../lib32/libstdc++.a(string-inst.o)
                0x0000000000042f00                _ZNSs4_Rep9_S_createEjjRKSaIcE
 .text._ZNKSs4findEPKcjj
                0x0000000000043020      0x140 /home/berkeley/nacl_sdk/pepper_42/toolchain/linux_x86_newlib/bin/../lib/gcc/x86_64-nacl/4.4.3/../../../../x86_64-nacl/lib/../lib32/libstdc++.a(string-inst.o)
                0x0000000000043020                _ZNKSs4findEPKcjj
 .text._ZNKSs4findERKSsj
                0x0000000000043160       0x60 /home/berkeley/nacl_sdk/pepper_42/toolchain/linux_x86_newlib/bin/../lib/gcc/x86_64-nacl/4.4.3/../../../../x86_64-nacl/lib/../lib32/libstdc++.a(string-inst.o)
                0x0000000000043160                _ZNKSs4findERKSsj
 .text._ZNKSs4findEcj
                0x00000000000431c0       0x80 /home/berkeley/nacl_sdk/pepper_42/toolchain/linux_x86_newlib/bin/../lib/gcc/x86_64-nacl/4.4.3/../../../../x86_64-nacl/lib/../lib32/libstdc++.a(string-inst.o)
                0x00000000000431c0                _ZNKSs4findEcj
 .text._ZNKSs13find_first_ofEcj
                0x0000000000043240       0x20 /home/berkeley/nacl_sdk/pepper_42/toolchain/linux_x86_newlib/bin/../lib/gcc/x86_64-nacl/4.4.3/../../../../x86_64-nacl/lib/../lib32/libstdc++.a(string-inst.o)
                0x0000000000043240                _ZNKSs13find_first_ofEcj
 .text._ZNKSs2atEj
                0x0000000000043260       0x40 /home/berkeley/nacl_sdk/pepper_42/toolchain/linux_x86_newlib/bin/../lib/gcc/x86_64-nacl/4.4.3/../../../../x86_64-nacl/lib/../lib32/libstdc++.a(string-inst.o)
                0x0000000000043260                _ZNKSs2atEj
 .text._ZNKSs8_M_checkEjPKc
                0x00000000000432a0       0x40 /home/berkeley/nacl_sdk/pepper_42/toolchain/linux_x86_newlib/bin/../lib/gcc/x86_64-nacl/4.4.3/../../../../x86_64-nacl/lib/../lib32/libstdc++.a(string-inst.o)
                0x00000000000432a0                _ZNKSs8_M_checkEjPKc
 .text._ZNSs9_M_assignEPcjc
                0x00000000000432e0       0x60 /home/berkeley/nacl_sdk/pepper_42/toolchain/linux_x86_newlib/bin/../lib/gcc/x86_64-nacl/4.4.3/../../../../x86_64-nacl/lib/../lib32/libstdc++.a(string-inst.o)
                0x00000000000432e0                _ZNSs9_M_assignEPcjc
 .text._ZNSs7_M_moveEPcPKcj
                0x0000000000043340       0x60 /home/berkeley/nacl_sdk/pepper_42/toolchain/linux_x86_newlib/bin/../lib/gcc/x86_64-nacl/4.4.3/../../../../x86_64-nacl/lib/../lib32/libstdc++.a(string-inst.o)
                0x0000000000043340                _ZNSs7_M_moveEPcPKcj
 .text._ZNSs7_M_copyEPcPKcj
                0x00000000000433a0       0x60 /home/berkeley/nacl_sdk/pepper_42/toolchain/linux_x86_newlib/bin/../lib/gcc/x86_64-nacl/4.4.3/../../../../x86_64-nacl/lib/../lib32/libstdc++.a(string-inst.o)
                0x00000000000433a0                _ZNSs7_M_copyEPcPKcj
 .text._ZNKSs16find_last_not_ofEPKcjj
                0x0000000000043400       0xe0 /home/berkeley/nacl_sdk/pepper_42/toolchain/linux_x86_newlib/bin/../lib/gcc/x86_64-nacl/4.4.3/../../../../x86_64-nacl/lib/../lib32/libstdc++.a(string-inst.o)
                0x0000000000043400                _ZNKSs16find_last_not_ofEPKcjj
 .text._ZNKSs16find_last_not_ofERKSsj
                0x00000000000434e0       0x60 /home/berkeley/nacl_sdk/pepper_42/toolchain/linux_x86_newlib/bin/../lib/gcc/x86_64-nacl/4.4.3/../../../../x86_64-nacl/lib/../lib32/libstdc++.a(string-inst.o)
                0x00000000000434e0                _ZNKSs16find_last_not_ofERKSsj
 .text._ZNKSs17find_first_not_ofEPKcjj
                0x0000000000043540       0xc0 /home/berkeley/nacl_sdk/pepper_42/toolchain/linux_x86_newlib/bin/../lib/gcc/x86_64-nacl/4.4.3/../../../../x86_64-nacl/lib/../lib32/libstdc++.a(string-inst.o)
                0x0000000000043540                _ZNKSs17find_first_not_ofEPKcjj
 .text._ZNKSs17find_first_not_ofERKSsj
                0x0000000000043600       0x60 /home/berkeley/nacl_sdk/pepper_42/toolchain/linux_x86_newlib/bin/../lib/gcc/x86_64-nacl/4.4.3/../../../../x86_64-nacl/lib/../lib32/libstdc++.a(string-inst.o)
                0x0000000000043600                _ZNKSs17find_first_not_ofERKSsj
 .text._ZNKSs12find_last_ofEPKcjj
                0x0000000000043660       0xe0 /home/berkeley/nacl_sdk/pepper_42/toolchain/linux_x86_newlib/bin/../lib/gcc/x86_64-nacl/4.4.3/../../../../x86_64-nacl/lib/../lib32/libstdc++.a(string-inst.o)
                0x0000000000043660                _ZNKSs12find_last_ofEPKcjj
 .text._ZNKSs12find_last_ofERKSsj
                0x0000000000043740       0x60 /home/berkeley/nacl_sdk/pepper_42/toolchain/linux_x86_newlib/bin/../lib/gcc/x86_64-nacl/4.4.3/../../../../x86_64-nacl/lib/../lib32/libstdc++.a(string-inst.o)
                0x0000000000043740                _ZNKSs12find_last_ofERKSsj
 .text._ZNKSs13find_first_ofEPKcjj
                0x00000000000437a0       0xc0 /home/berkeley/nacl_sdk/pepper_42/toolchain/linux_x86_newlib/bin/../lib/gcc/x86_64-nacl/4.4.3/../../../../x86_64-nacl/lib/../lib32/libstdc++.a(string-inst.o)
                0x00000000000437a0                _ZNKSs13find_first_ofEPKcjj
 .text._ZNKSs13find_first_ofERKSsj
                0x0000000000043860       0x60 /home/berkeley/nacl_sdk/pepper_42/toolchain/linux_x86_newlib/bin/../lib/gcc/x86_64-nacl/4.4.3/../../../../x86_64-nacl/lib/../lib32/libstdc++.a(string-inst.o)
                0x0000000000043860                _ZNKSs13find_first_ofERKSsj
 .text._ZNKSs5rfindEPKcjj
                0x00000000000438c0       0xc0 /home/berkeley/nacl_sdk/pepper_42/toolchain/linux_x86_newlib/bin/../lib/gcc/x86_64-nacl/4.4.3/../../../../x86_64-nacl/lib/../lib32/libstdc++.a(string-inst.o)
                0x00000000000438c0                _ZNKSs5rfindEPKcjj
 .text._ZNKSs5rfindERKSsj
                0x0000000000043980       0x60 /home/berkeley/nacl_sdk/pepper_42/toolchain/linux_x86_newlib/bin/../lib/gcc/x86_64-nacl/4.4.3/../../../../x86_64-nacl/lib/../lib32/libstdc++.a(string-inst.o)
                0x0000000000043980                _ZNKSs5rfindERKSsj
 .text._ZNKSs7compareERKSs
                0x00000000000439e0       0x60 /home/berkeley/nacl_sdk/pepper_42/toolchain/linux_x86_newlib/bin/../lib/gcc/x86_64-nacl/4.4.3/../../../../x86_64-nacl/lib/../lib32/libstdc++.a(string-inst.o)
                0x00000000000439e0                _ZNKSs7compareERKSs
 .text._ZNKSs7compareEjjPKcj
                0x0000000000043a40       0xa0 /home/berkeley/nacl_sdk/pepper_42/toolchain/linux_x86_newlib/bin/../lib/gcc/x86_64-nacl/4.4.3/../../../../x86_64-nacl/lib/../lib32/libstdc++.a(string-inst.o)
                0x0000000000043a40                _ZNKSs7compareEjjPKcj
 .text._ZNKSs7compareEjjRKSsjj
                0x0000000000043ae0       0xa0 /home/berkeley/nacl_sdk/pepper_42/toolchain/linux_x86_newlib/bin/../lib/gcc/x86_64-nacl/4.4.3/../../../../x86_64-nacl/lib/../lib32/libstdc++.a(string-inst.o)
                0x0000000000043ae0                _ZNKSs7compareEjjRKSsjj
 .text._ZNKSs7compareEjjRKSs
                0x0000000000043b80       0xa0 /home/berkeley/nacl_sdk/pepper_42/toolchain/linux_x86_newlib/bin/../lib/gcc/x86_64-nacl/4.4.3/../../../../x86_64-nacl/lib/../lib32/libstdc++.a(string-inst.o)
                0x0000000000043b80                _ZNKSs7compareEjjRKSs
 .text._ZNKSs7compareEPKc
                0x0000000000043c20       0x80 /home/berkeley/nacl_sdk/pepper_42/toolchain/linux_x86_newlib/bin/../lib/gcc/x86_64-nacl/4.4.3/../../../../x86_64-nacl/lib/../lib32/libstdc++.a(string-inst.o)
                0x0000000000043c20                _ZNKSs7compareEPKc
 .text._ZNKSs5rfindEPKcj
                0x0000000000043ca0       0x60 /home/berkeley/nacl_sdk/pepper_42/toolchain/linux_x86_newlib/bin/../lib/gcc/x86_64-nacl/4.4.3/../../../../x86_64-nacl/lib/../lib32/libstdc++.a(string-inst.o)
                0x0000000000043ca0                _ZNKSs5rfindEPKcj
 .text._ZNKSs4findEPKcj
                0x0000000000043d00       0x60 /home/berkeley/nacl_sdk/pepper_42/toolchain/linux_x86_newlib/bin/../lib/gcc/x86_64-nacl/4.4.3/../../../../x86_64-nacl/lib/../lib32/libstdc++.a(string-inst.o)
                0x0000000000043d00                _ZNKSs4findEPKcj
 .text._ZNKSs16find_last_not_ofEPKcj
                0x0000000000043d60       0x60 /home/berkeley/nacl_sdk/pepper_42/toolchain/linux_x86_newlib/bin/../lib/gcc/x86_64-nacl/4.4.3/../../../../x86_64-nacl/lib/../lib32/libstdc++.a(string-inst.o)
                0x0000000000043d60                _ZNKSs16find_last_not_ofEPKcj
 .text._ZNKSs17find_first_not_ofEPKcj
                0x0000000000043dc0       0x60 /home/berkeley/nacl_sdk/pepper_42/toolchain/linux_x86_newlib/bin/../lib/gcc/x86_64-nacl/4.4.3/../../../../x86_64-nacl/lib/../lib32/libstdc++.a(string-inst.o)
                0x0000000000043dc0                _ZNKSs17find_first_not_ofEPKcj
 .text._ZNKSs12find_last_ofEPKcj
                0x0000000000043e20       0x60 /home/berkeley/nacl_sdk/pepper_42/toolchain/linux_x86_newlib/bin/../lib/gcc/x86_64-nacl/4.4.3/../../../../x86_64-nacl/lib/../lib32/libstdc++.a(string-inst.o)
                0x0000000000043e20                _ZNKSs12find_last_ofEPKcj
 .text._ZNKSs13find_first_ofEPKcj
                0x0000000000043e80       0x60 /home/berkeley/nacl_sdk/pepper_42/toolchain/linux_x86_newlib/bin/../lib/gcc/x86_64-nacl/4.4.3/../../../../x86_64-nacl/lib/../lib32/libstdc++.a(string-inst.o)
                0x0000000000043e80                _ZNKSs13find_first_ofEPKcj
 .text._ZNKSs7compareEjjPKc
                0x0000000000043ee0       0xa0 /home/berkeley/nacl_sdk/pepper_42/toolchain/linux_x86_newlib/bin/../lib/gcc/x86_64-nacl/4.4.3/../../../../x86_64-nacl/lib/../lib32/libstdc++.a(string-inst.o)
                0x0000000000043ee0                _ZNKSs7compareEjjPKc
 .text._ZNSs13_S_copy_charsEPcS_S_
                0x0000000000043f80       0x60 /home/berkeley/nacl_sdk/pepper_42/toolchain/linux_x86_newlib/bin/../lib/gcc/x86_64-nacl/4.4.3/../../../../x86_64-nacl/lib/../lib32/libstdc++.a(string-inst.o)
                0x0000000000043f80                _ZNSs13_S_copy_charsEPcS_S_
 .text._ZNSs13_S_copy_charsEPcPKcS1_
                0x0000000000043fe0       0x60 /home/berkeley/nacl_sdk/pepper_42/toolchain/linux_x86_newlib/bin/../lib/gcc/x86_64-nacl/4.4.3/../../../../x86_64-nacl/lib/../lib32/libstdc++.a(string-inst.o)
                0x0000000000043fe0                _ZNSs13_S_copy_charsEPcPKcS1_
 .text._ZNSs13_S_copy_charsEPcN9__gnu_cxx17__normal_iteratorIPKcSsEES4_
                0x0000000000044040       0x60 /home/berkeley/nacl_sdk/pepper_42/toolchain/linux_x86_newlib/bin/../lib/gcc/x86_64-nacl/4.4.3/../../../../x86_64-nacl/lib/../lib32/libstdc++.a(string-inst.o)
                0x0000000000044040                _ZNSs13_S_copy_charsEPcN9__gnu_cxx17__normal_iteratorIPKcSsEES4_
 .text._ZNSs13_S_copy_charsEPcN9__gnu_cxx17__normal_iteratorIS_SsEES2_
                0x00000000000440a0       0x60 /home/berkeley/nacl_sdk/pepper_42/toolchain/linux_x86_newlib/bin/../lib/gcc/x86_64-nacl/4.4.3/../../../../x86_64-nacl/lib/../lib32/libstdc++.a(string-inst.o)
                0x00000000000440a0                _ZNSs13_S_copy_charsEPcN9__gnu_cxx17__normal_iteratorIS_SsEES2_
 .text._ZNSs4_Rep8_M_cloneERKSaIcEj
                0x0000000000044100      0x100 /home/berkeley/nacl_sdk/pepper_42/toolchain/linux_x86_newlib/bin/../lib/gcc/x86_64-nacl/4.4.3/../../../../x86_64-nacl/lib/../lib32/libstdc++.a(string-inst.o)
                0x0000000000044100                _ZNSs4_Rep8_M_cloneERKSaIcEj
 .text._ZNSs4_Rep7_M_grabERKSaIcES2_
                0x0000000000044200       0xa0 /home/berkeley/nacl_sdk/pepper_42/toolchain/linux_x86_newlib/bin/../lib/gcc/x86_64-nacl/4.4.3/../../../../x86_64-nacl/lib/../lib32/libstdc++.a(string-inst.o)
                0x0000000000044200                _ZNSs4_Rep7_M_grabERKSaIcES2_
 .text._ZNSsC1ERKSs
                0x00000000000442a0       0xe0 /home/berkeley/nacl_sdk/pepper_42/toolchain/linux_x86_newlib/bin/../lib/gcc/x86_64-nacl/4.4.3/../../../../x86_64-nacl/lib/../lib32/libstdc++.a(string-inst.o)
                0x00000000000442a0                _ZNSsC1ERKSs
 .text._ZNSsC2ERKSs
                0x0000000000044380       0xe0 /home/berkeley/nacl_sdk/pepper_42/toolchain/linux_x86_newlib/bin/../lib/gcc/x86_64-nacl/4.4.3/../../../../x86_64-nacl/lib/../lib32/libstdc++.a(string-inst.o)
                0x0000000000044380                _ZNSsC2ERKSs
 .text._ZNKSs4copyEPcjj
                0x0000000000044460       0xe0 /home/berkeley/nacl_sdk/pepper_42/toolchain/linux_x86_newlib/bin/../lib/gcc/x86_64-nacl/4.4.3/../../../../x86_64-nacl/lib/../lib32/libstdc++.a(string-inst.o)
                0x0000000000044460                _ZNKSs4copyEPcjj
 .text._ZNSs12_S_constructIPKcEEPcT_S3_RKSaIcESt20forward_iterator_tag
                0x0000000000044540      0x180 /home/berkeley/nacl_sdk/pepper_42/toolchain/linux_x86_newlib/bin/../lib/gcc/x86_64-nacl/4.4.3/../../../../x86_64-nacl/lib/../lib32/libstdc++.a(string-inst.o)
                0x0000000000044540                _ZNSs12_S_constructIPKcEEPcT_S3_RKSaIcESt20forward_iterator_tag
 .text._ZNSsC1IPKcEET_S2_RKSaIcE
                0x00000000000446c0       0x60 /home/berkeley/nacl_sdk/pepper_42/toolchain/linux_x86_newlib/bin/../lib/gcc/x86_64-nacl/4.4.3/../../../../x86_64-nacl/lib/../lib32/libstdc++.a(string-inst.o)
                0x00000000000446c0                _ZNSsC1IPKcEET_S2_RKSaIcE
 .text._ZNSsC2IPKcEET_S2_RKSaIcE
                0x0000000000044720       0x60 /home/berkeley/nacl_sdk/pepper_42/toolchain/linux_x86_newlib/bin/../lib/gcc/x86_64-nacl/4.4.3/../../../../x86_64-nacl/lib/../lib32/libstdc++.a(string-inst.o)
                0x0000000000044720                _ZNSsC2IPKcEET_S2_RKSaIcE
 .text._ZNSsC1ESt16initializer_listIcERKSaIcE
                0x0000000000044780       0x60 /home/berkeley/nacl_sdk/pepper_42/toolchain/linux_x86_newlib/bin/../lib/gcc/x86_64-nacl/4.4.3/../../../../x86_64-nacl/lib/../lib32/libstdc++.a(string-inst.o)
                0x0000000000044780                _ZNSsC1ESt16initializer_listIcERKSaIcE
 .text._ZNSsC2ESt16initializer_listIcERKSaIcE
                0x00000000000447e0       0x60 /home/berkeley/nacl_sdk/pepper_42/toolchain/linux_x86_newlib/bin/../lib/gcc/x86_64-nacl/4.4.3/../../../../x86_64-nacl/lib/../lib32/libstdc++.a(string-inst.o)
                0x00000000000447e0                _ZNSsC2ESt16initializer_listIcERKSaIcE
 .text._ZNSsC1EPKcRKSaIcE
                0x0000000000044840       0x80 /home/berkeley/nacl_sdk/pepper_42/toolchain/linux_x86_newlib/bin/../lib/gcc/x86_64-nacl/4.4.3/../../../../x86_64-nacl/lib/../lib32/libstdc++.a(string-inst.o)
                0x0000000000044840                _ZNSsC1EPKcRKSaIcE
 .text._ZNSsC2EPKcRKSaIcE
                0x00000000000448c0       0x80 /home/berkeley/nacl_sdk/pepper_42/toolchain/linux_x86_newlib/bin/../lib/gcc/x86_64-nacl/4.4.3/../../../../x86_64-nacl/lib/../lib32/libstdc++.a(string-inst.o)
                0x00000000000448c0                _ZNSsC2EPKcRKSaIcE
 .text._ZNSsC1EPKcjRKSaIcE
                0x0000000000044940       0x60 /home/berkeley/nacl_sdk/pepper_42/toolchain/linux_x86_newlib/bin/../lib/gcc/x86_64-nacl/4.4.3/../../../../x86_64-nacl/lib/../lib32/libstdc++.a(string-inst.o)
                0x0000000000044940                _ZNSsC1EPKcjRKSaIcE
 .text._ZNSsC2EPKcjRKSaIcE
                0x00000000000449a0       0x60 /home/berkeley/nacl_sdk/pepper_42/toolchain/linux_x86_newlib/bin/../lib/gcc/x86_64-nacl/4.4.3/../../../../x86_64-nacl/lib/../lib32/libstdc++.a(string-inst.o)
                0x00000000000449a0                _ZNSsC2EPKcjRKSaIcE
 .text._ZNSs12_S_constructIPcEES0_T_S1_RKSaIcESt20forward_iterator_tag
                0x0000000000044a00      0x180 /home/berkeley/nacl_sdk/pepper_42/toolchain/linux_x86_newlib/bin/../lib/gcc/x86_64-nacl/4.4.3/../../../../x86_64-nacl/lib/../lib32/libstdc++.a(string-inst.o)
                0x0000000000044a00                _ZNSs12_S_constructIPcEES0_T_S1_RKSaIcESt20forward_iterator_tag
 .text._ZNSsC1IPcEET_S1_RKSaIcE
                0x0000000000044b80       0x60 /home/berkeley/nacl_sdk/pepper_42/toolchain/linux_x86_newlib/bin/../lib/gcc/x86_64-nacl/4.4.3/../../../../x86_64-nacl/lib/../lib32/libstdc++.a(string-inst.o)
                0x0000000000044b80                _ZNSsC1IPcEET_S1_RKSaIcE
 .text._ZNSsC2IPcEET_S1_RKSaIcE
                0x0000000000044be0       0x60 /home/berkeley/nacl_sdk/pepper_42/toolchain/linux_x86_newlib/bin/../lib/gcc/x86_64-nacl/4.4.3/../../../../x86_64-nacl/lib/../lib32/libstdc++.a(string-inst.o)
                0x0000000000044be0                _ZNSsC2IPcEET_S1_RKSaIcE
 .text._ZNSsC1ERKSsjjRKSaIcE
                0x0000000000044c40       0xa0 /home/berkeley/nacl_sdk/pepper_42/toolchain/linux_x86_newlib/bin/../lib/gcc/x86_64-nacl/4.4.3/../../../../x86_64-nacl/lib/../lib32/libstdc++.a(string-inst.o)
                0x0000000000044c40                _ZNSsC1ERKSsjjRKSaIcE
 .text._ZNSsC2ERKSsjjRKSaIcE
                0x0000000000044ce0       0xa0 /home/berkeley/nacl_sdk/pepper_42/toolchain/linux_x86_newlib/bin/../lib/gcc/x86_64-nacl/4.4.3/../../../../x86_64-nacl/lib/../lib32/libstdc++.a(string-inst.o)
                0x0000000000044ce0                _ZNSsC2ERKSsjjRKSaIcE
 .text._ZNSsC1ERKSsjj
                0x0000000000044d80       0xc0 /home/berkeley/nacl_sdk/pepper_42/toolchain/linux_x86_newlib/bin/../lib/gcc/x86_64-nacl/4.4.3/../../../../x86_64-nacl/lib/../lib32/libstdc++.a(string-inst.o)
                0x0000000000044d80                _ZNSsC1ERKSsjj
 .text._ZNKSs6substrEjj
                0x0000000000044e40       0x80 /home/berkeley/nacl_sdk/pepper_42/toolchain/linux_x86_newlib/bin/../lib/gcc/x86_64-nacl/4.4.3/../../../../x86_64-nacl/lib/../lib32/libstdc++.a(string-inst.o)
                0x0000000000044e40                _ZNKSs6substrEjj
 .text._ZNSsC2ERKSsjj
                0x0000000000044ec0       0xc0 /home/berkeley/nacl_sdk/pepper_42/toolchain/linux_x86_newlib/bin/../lib/gcc/x86_64-nacl/4.4.3/../../../../x86_64-nacl/lib/../lib32/libstdc++.a(string-inst.o)
                0x0000000000044ec0                _ZNSsC2ERKSsjj
 .text._ZNSs12_S_constructEjcRKSaIcE
                0x0000000000044f80       0xe0 /home/berkeley/nacl_sdk/pepper_42/toolchain/linux_x86_newlib/bin/../lib/gcc/x86_64-nacl/4.4.3/../../../../x86_64-nacl/lib/../lib32/libstdc++.a(string-inst.o)
                0x0000000000044f80                _ZNSs12_S_constructEjcRKSaIcE
 .text._ZNSsC1EjcRKSaIcE
                0x0000000000045060       0x40 /home/berkeley/nacl_sdk/pepper_42/toolchain/linux_x86_newlib/bin/../lib/gcc/x86_64-nacl/4.4.3/../../../../x86_64-nacl/lib/../lib32/libstdc++.a(string-inst.o)
                0x0000000000045060                _ZNSsC1EjcRKSaIcE
 .text._ZNSsC2EjcRKSaIcE
                0x00000000000450a0       0x40 /home/berkeley/nacl_sdk/pepper_42/toolchain/linux_x86_newlib/bin/../lib/gcc/x86_64-nacl/4.4.3/../../../../x86_64-nacl/lib/../lib32/libstdc++.a(string-inst.o)
                0x00000000000450a0                _ZNSsC2EjcRKSaIcE
 .text._ZNSsC1ERKSaIcE
                0x00000000000450e0       0x60 /home/berkeley/nacl_sdk/pepper_42/toolchain/linux_x86_newlib/bin/../lib/gcc/x86_64-nacl/4.4.3/../../../../x86_64-nacl/lib/../lib32/libstdc++.a(string-inst.o)
                0x00000000000450e0                _ZNSsC1ERKSaIcE
 .text._ZNSsC2ERKSaIcE
                0x0000000000045140       0x60 /home/berkeley/nacl_sdk/pepper_42/toolchain/linux_x86_newlib/bin/../lib/gcc/x86_64-nacl/4.4.3/../../../../x86_64-nacl/lib/../lib32/libstdc++.a(string-inst.o)
                0x0000000000045140                _ZNSsC2ERKSaIcE
 .text._ZNSs12_S_constructIN9__gnu_cxx17__normal_iteratorIPcSsEEEES2_T_S4_RKSaIcESt20forward_iterator_tag
                0x00000000000451a0       0xc0 /home/berkeley/nacl_sdk/pepper_42/toolchain/linux_x86_newlib/bin/../lib/gcc/x86_64-nacl/4.4.3/../../../../x86_64-nacl/lib/../lib32/libstdc++.a(string-inst.o)
                0x00000000000451a0                _ZNSs12_S_constructIN9__gnu_cxx17__normal_iteratorIPcSsEEEES2_T_S4_RKSaIcESt20forward_iterator_tag
 .text._ZNSsC1IN9__gnu_cxx17__normal_iteratorIPcSsEEEET_S4_RKSaIcE
                0x0000000000045260       0x60 /home/berkeley/nacl_sdk/pepper_42/toolchain/linux_x86_newlib/bin/../lib/gcc/x86_64-nacl/4.4.3/../../../../x86_64-nacl/lib/../lib32/libstdc++.a(string-inst.o)
                0x0000000000045260                _ZNSsC1IN9__gnu_cxx17__normal_iteratorIPcSsEEEET_S4_RKSaIcE
 .text._ZNSsC2IN9__gnu_cxx17__normal_iteratorIPcSsEEEET_S4_RKSaIcE
                0x00000000000452c0       0x60 /home/berkeley/nacl_sdk/pepper_42/toolchain/linux_x86_newlib/bin/../lib/gcc/x86_64-nacl/4.4.3/../../../../x86_64-nacl/lib/../lib32/libstdc++.a(string-inst.o)
                0x00000000000452c0                _ZNSsC2IN9__gnu_cxx17__normal_iteratorIPcSsEEEET_S4_RKSaIcE
 .text._ZNSsD1Ev
                0x0000000000045320       0xc0 /home/berkeley/nacl_sdk/pepper_42/toolchain/linux_x86_newlib/bin/../lib/gcc/x86_64-nacl/4.4.3/../../../../x86_64-nacl/lib/../lib32/libstdc++.a(string-inst.o)
                0x0000000000045320                _ZNSsD1Ev
 .text._ZNSsD2Ev
                0x00000000000453e0       0xc0 /home/berkeley/nacl_sdk/pepper_42/toolchain/linux_x86_newlib/bin/../lib/gcc/x86_64-nacl/4.4.3/../../../../x86_64-nacl/lib/../lib32/libstdc++.a(string-inst.o)
                0x00000000000453e0                _ZNSsD2Ev
 .text._ZNSs6assignERKSs
                0x00000000000454a0      0x1e0 /home/berkeley/nacl_sdk/pepper_42/toolchain/linux_x86_newlib/bin/../lib/gcc/x86_64-nacl/4.4.3/../../../../x86_64-nacl/lib/../lib32/libstdc++.a(string-inst.o)
                0x00000000000454a0                _ZNSs6assignERKSs
 .text._ZNSsaSERKSs
                0x0000000000045680       0x20 /home/berkeley/nacl_sdk/pepper_42/toolchain/linux_x86_newlib/bin/../lib/gcc/x86_64-nacl/4.4.3/../../../../x86_64-nacl/lib/../lib32/libstdc++.a(string-inst.o)
                0x0000000000045680                _ZNSsaSERKSs
 .text._ZNSs7reserveEj
                0x00000000000456a0      0x180 /home/berkeley/nacl_sdk/pepper_42/toolchain/linux_x86_newlib/bin/../lib/gcc/x86_64-nacl/4.4.3/../../../../x86_64-nacl/lib/../lib32/libstdc++.a(string-inst.o)
                0x00000000000456a0                _ZNSs7reserveEj
 .text._ZNSs9push_backEc
                0x0000000000045820       0xe0 /home/berkeley/nacl_sdk/pepper_42/toolchain/linux_x86_newlib/bin/../lib/gcc/x86_64-nacl/4.4.3/../../../../x86_64-nacl/lib/../lib32/libstdc++.a(string-inst.o)
                0x0000000000045820                _ZNSs9push_backEc
 .text._ZNSs6appendEjc
                0x0000000000045900      0x160 /home/berkeley/nacl_sdk/pepper_42/toolchain/linux_x86_newlib/bin/../lib/gcc/x86_64-nacl/4.4.3/../../../../x86_64-nacl/lib/../lib32/libstdc++.a(string-inst.o)
                0x0000000000045900                _ZNSs6appendEjc
 .text._ZNSs6appendEPKcj
                0x0000000000045a60      0x1a0 /home/berkeley/nacl_sdk/pepper_42/toolchain/linux_x86_newlib/bin/../lib/gcc/x86_64-nacl/4.4.3/../../../../x86_64-nacl/lib/../lib32/libstdc++.a(string-inst.o)
                0x0000000000045a60                _ZNSs6appendEPKcj
 .text._ZNSs6appendEPKc
                0x0000000000045c00       0x60 /home/berkeley/nacl_sdk/pepper_42/toolchain/linux_x86_newlib/bin/../lib/gcc/x86_64-nacl/4.4.3/../../../../x86_64-nacl/lib/../lib32/libstdc++.a(string-inst.o)
                0x0000000000045c00                _ZNSs6appendEPKc
 .text._ZNSspLEPKc
                0x0000000000045c60       0x60 /home/berkeley/nacl_sdk/pepper_42/toolchain/linux_x86_newlib/bin/../lib/gcc/x86_64-nacl/4.4.3/../../../../x86_64-nacl/lib/../lib32/libstdc++.a(string-inst.o)
                0x0000000000045c60                _ZNSspLEPKc
 .text._ZNSs6appendERKSsjj
                0x0000000000045cc0      0x140 /home/berkeley/nacl_sdk/pepper_42/toolchain/linux_x86_newlib/bin/../lib/gcc/x86_64-nacl/4.4.3/../../../../x86_64-nacl/lib/../lib32/libstdc++.a(string-inst.o)
                0x0000000000045cc0                _ZNSs6appendERKSsjj
 .text._ZNSs6appendERKSs
                0x0000000000045e00      0x120 /home/berkeley/nacl_sdk/pepper_42/toolchain/linux_x86_newlib/bin/../lib/gcc/x86_64-nacl/4.4.3/../../../../x86_64-nacl/lib/../lib32/libstdc++.a(string-inst.o)
                0x0000000000045e00                _ZNSs6appendERKSs
 .text._ZStplIcSt11char_traitsIcESaIcEESbIT_T0_T1_ERKS6_S8_
                0x0000000000045f20       0xa0 /home/berkeley/nacl_sdk/pepper_42/toolchain/linux_x86_newlib/bin/../lib/gcc/x86_64-nacl/4.4.3/../../../../x86_64-nacl/lib/../lib32/libstdc++.a(string-inst.o)
                0x0000000000045f20                _ZStplIcSt11char_traitsIcESaIcEESbIT_T0_T1_ERKS6_S8_
 .text._ZNSspLERKSs
                0x0000000000045fc0       0x20 /home/berkeley/nacl_sdk/pepper_42/toolchain/linux_x86_newlib/bin/../lib/gcc/x86_64-nacl/4.4.3/../../../../x86_64-nacl/lib/../lib32/libstdc++.a(string-inst.o)
                0x0000000000045fc0                _ZNSspLERKSs
 .text._ZStplIcSt11char_traitsIcESaIcEESbIT_T0_T1_ES3_RKS6_
                0x0000000000045fe0       0xe0 /home/berkeley/nacl_sdk/pepper_42/toolchain/linux_x86_newlib/bin/../lib/gcc/x86_64-nacl/4.4.3/../../../../x86_64-nacl/lib/../lib32/libstdc++.a(string-inst.o)
                0x0000000000045fe0                _ZStplIcSt11char_traitsIcESaIcEESbIT_T0_T1_ES3_RKS6_
 .text._ZStplIcSt11char_traitsIcESaIcEESbIT_T0_T1_EPKS3_RKS6_
                0x00000000000460c0       0xe0 /home/berkeley/nacl_sdk/pepper_42/toolchain/linux_x86_newlib/bin/../lib/gcc/x86_64-nacl/4.4.3/../../../../x86_64-nacl/lib/../lib32/libstdc++.a(string-inst.o)
                0x00000000000460c0                _ZStplIcSt11char_traitsIcESaIcEESbIT_T0_T1_EPKS3_RKS6_
 .text._ZNSspLEc
                0x00000000000461a0       0xc0 /home/berkeley/nacl_sdk/pepper_42/toolchain/linux_x86_newlib/bin/../lib/gcc/x86_64-nacl/4.4.3/../../../../x86_64-nacl/lib/../lib32/libstdc++.a(string-inst.o)
                0x00000000000461a0                _ZNSspLEc
 .text._ZNSs9_M_mutateEjjj
                0x0000000000046260      0x300 /home/berkeley/nacl_sdk/pepper_42/toolchain/linux_x86_newlib/bin/../lib/gcc/x86_64-nacl/4.4.3/../../../../x86_64-nacl/lib/../lib32/libstdc++.a(string-inst.o)
                0x0000000000046260                _ZNSs9_M_mutateEjjj
 .text._ZNSs15_M_replace_safeEjjPKcj
                0x0000000000046560       0xe0 /home/berkeley/nacl_sdk/pepper_42/toolchain/linux_x86_newlib/bin/../lib/gcc/x86_64-nacl/4.4.3/../../../../x86_64-nacl/lib/../lib32/libstdc++.a(string-inst.o)
                0x0000000000046560                _ZNSs15_M_replace_safeEjjPKcj
 .text._ZNSs6assignEPKcj
                0x0000000000046640      0x1a0 /home/berkeley/nacl_sdk/pepper_42/toolchain/linux_x86_newlib/bin/../lib/gcc/x86_64-nacl/4.4.3/../../../../x86_64-nacl/lib/../lib32/libstdc++.a(string-inst.o)
                0x0000000000046640                _ZNSs6assignEPKcj
 .text._ZNSs6assignEPKc
                0x00000000000467e0       0x60 /home/berkeley/nacl_sdk/pepper_42/toolchain/linux_x86_newlib/bin/../lib/gcc/x86_64-nacl/4.4.3/../../../../x86_64-nacl/lib/../lib32/libstdc++.a(string-inst.o)
                0x00000000000467e0                _ZNSs6assignEPKc
 .text._ZNSs6assignERKSsjj
                0x0000000000046840       0x80 /home/berkeley/nacl_sdk/pepper_42/toolchain/linux_x86_newlib/bin/../lib/gcc/x86_64-nacl/4.4.3/../../../../x86_64-nacl/lib/../lib32/libstdc++.a(string-inst.o)
                0x0000000000046840                _ZNSs6assignERKSsjj
 .text._ZNSsaSEPKc
                0x00000000000468c0       0x60 /home/berkeley/nacl_sdk/pepper_42/toolchain/linux_x86_newlib/bin/../lib/gcc/x86_64-nacl/4.4.3/../../../../x86_64-nacl/lib/../lib32/libstdc++.a(string-inst.o)
                0x00000000000468c0                _ZNSsaSEPKc
 .text._ZNSs14_M_replace_auxEjjjc
                0x0000000000046920      0x120 /home/berkeley/nacl_sdk/pepper_42/toolchain/linux_x86_newlib/bin/../lib/gcc/x86_64-nacl/4.4.3/../../../../x86_64-nacl/lib/../lib32/libstdc++.a(string-inst.o)
                0x0000000000046920                _ZNSs14_M_replace_auxEjjjc
 .text._ZNSs7replaceEN9__gnu_cxx17__normal_iteratorIPcSsEES2_jc
                0x0000000000046a40       0x40 /home/berkeley/nacl_sdk/pepper_42/toolchain/linux_x86_newlib/bin/../lib/gcc/x86_64-nacl/4.4.3/../../../../x86_64-nacl/lib/../lib32/libstdc++.a(string-inst.o)
                0x0000000000046a40                _ZNSs7replaceEN9__gnu_cxx17__normal_iteratorIPcSsEES2_jc
 .text._ZNSs7replaceEjjjc
                0x0000000000046a80       0x80 /home/berkeley/nacl_sdk/pepper_42/toolchain/linux_x86_newlib/bin/../lib/gcc/x86_64-nacl/4.4.3/../../../../x86_64-nacl/lib/../lib32/libstdc++.a(string-inst.o)
                0x0000000000046a80                _ZNSs7replaceEjjjc
 .text._ZNSs6insertEN9__gnu_cxx17__normal_iteratorIPcSsEEc
                0x0000000000046b00       0x80 /home/berkeley/nacl_sdk/pepper_42/toolchain/linux_x86_newlib/bin/../lib/gcc/x86_64-nacl/4.4.3/../../../../x86_64-nacl/lib/../lib32/libstdc++.a(string-inst.o)
                0x0000000000046b00                _ZNSs6insertEN9__gnu_cxx17__normal_iteratorIPcSsEEc
 .text._ZNSs6insertEjjc
                0x0000000000046b80       0x80 /home/berkeley/nacl_sdk/pepper_42/toolchain/linux_x86_newlib/bin/../lib/gcc/x86_64-nacl/4.4.3/../../../../x86_64-nacl/lib/../lib32/libstdc++.a(string-inst.o)
                0x0000000000046b80                _ZNSs6insertEjjc
 .text._ZNSs6assignEjc
                0x0000000000046c00       0x60 /home/berkeley/nacl_sdk/pepper_42/toolchain/linux_x86_newlib/bin/../lib/gcc/x86_64-nacl/4.4.3/../../../../x86_64-nacl/lib/../lib32/libstdc++.a(string-inst.o)
                0x0000000000046c00                _ZNSs6assignEjc
 .text._ZNSs6insertEN9__gnu_cxx17__normal_iteratorIPcSsEEjc
                0x0000000000046c60       0x60 /home/berkeley/nacl_sdk/pepper_42/toolchain/linux_x86_newlib/bin/../lib/gcc/x86_64-nacl/4.4.3/../../../../x86_64-nacl/lib/../lib32/libstdc++.a(string-inst.o)
                0x0000000000046c60                _ZNSs6insertEN9__gnu_cxx17__normal_iteratorIPcSsEEjc
 .text._ZNSsaSEc
                0x0000000000046cc0       0x60 /home/berkeley/nacl_sdk/pepper_42/toolchain/linux_x86_newlib/bin/../lib/gcc/x86_64-nacl/4.4.3/../../../../x86_64-nacl/lib/../lib32/libstdc++.a(string-inst.o)
                0x0000000000046cc0                _ZNSsaSEc
 .text._ZNSs5eraseEN9__gnu_cxx17__normal_iteratorIPcSsEES2_
                0x0000000000046d20       0x80 /home/berkeley/nacl_sdk/pepper_42/toolchain/linux_x86_newlib/bin/../lib/gcc/x86_64-nacl/4.4.3/../../../../x86_64-nacl/lib/../lib32/libstdc++.a(string-inst.o)
                0x0000000000046d20                _ZNSs5eraseEN9__gnu_cxx17__normal_iteratorIPcSsEES2_
 .text._ZNSs5eraseEN9__gnu_cxx17__normal_iteratorIPcSsEE
                0x0000000000046da0       0x80 /home/berkeley/nacl_sdk/pepper_42/toolchain/linux_x86_newlib/bin/../lib/gcc/x86_64-nacl/4.4.3/../../../../x86_64-nacl/lib/../lib32/libstdc++.a(string-inst.o)
                0x0000000000046da0                _ZNSs5eraseEN9__gnu_cxx17__normal_iteratorIPcSsEE
 .text._ZNSs5eraseEjj
                0x0000000000046e20       0x80 /home/berkeley/nacl_sdk/pepper_42/toolchain/linux_x86_newlib/bin/../lib/gcc/x86_64-nacl/4.4.3/../../../../x86_64-nacl/lib/../lib32/libstdc++.a(string-inst.o)
                0x0000000000046e20                _ZNSs5eraseEjj
 .text._ZNSs6insertEjPKcj
                0x0000000000046ea0      0x300 /home/berkeley/nacl_sdk/pepper_42/toolchain/linux_x86_newlib/bin/../lib/gcc/x86_64-nacl/4.4.3/../../../../x86_64-nacl/lib/../lib32/libstdc++.a(string-inst.o)
                0x0000000000046ea0                _ZNSs6insertEjPKcj
 .text._ZNSs6insertEjPKc
                0x00000000000471a0       0x60 /home/berkeley/nacl_sdk/pepper_42/toolchain/linux_x86_newlib/bin/../lib/gcc/x86_64-nacl/4.4.3/../../../../x86_64-nacl/lib/../lib32/libstdc++.a(string-inst.o)
                0x00000000000471a0                _ZNSs6insertEjPKc
 .text._ZNSs6insertEjRKSsjj
                0x0000000000047200       0x80 /home/berkeley/nacl_sdk/pepper_42/toolchain/linux_x86_newlib/bin/../lib/gcc/x86_64-nacl/4.4.3/../../../../x86_64-nacl/lib/../lib32/libstdc++.a(string-inst.o)
                0x0000000000047200                _ZNSs6insertEjRKSsjj
 .text._ZNSs6insertEjRKSs
                0x0000000000047280       0x60 /home/berkeley/nacl_sdk/pepper_42/toolchain/linux_x86_newlib/bin/../lib/gcc/x86_64-nacl/4.4.3/../../../../x86_64-nacl/lib/../lib32/libstdc++.a(string-inst.o)
                0x0000000000047280                _ZNSs6insertEjRKSs
 .text._ZNSs5clearEv
                0x00000000000472e0       0x60 /home/berkeley/nacl_sdk/pepper_42/toolchain/linux_x86_newlib/bin/../lib/gcc/x86_64-nacl/4.4.3/../../../../x86_64-nacl/lib/../lib32/libstdc++.a(string-inst.o)
                0x00000000000472e0                _ZNSs5clearEv
 .text._ZNSs12_M_leak_hardEv
                0x0000000000047340       0xc0 /home/berkeley/nacl_sdk/pepper_42/toolchain/linux_x86_newlib/bin/../lib/gcc/x86_64-nacl/4.4.3/../../../../x86_64-nacl/lib/../lib32/libstdc++.a(string-inst.o)
                0x0000000000047340                _ZNSs12_M_leak_hardEv
 .text._ZNSs7_M_leakEv
                0x0000000000047400       0x40 /home/berkeley/nacl_sdk/pepper_42/toolchain/linux_x86_newlib/bin/../lib/gcc/x86_64-nacl/4.4.3/../../../../x86_64-nacl/lib/../lib32/libstdc++.a(string-inst.o)
                0x0000000000047400                _ZNSs7_M_leakEv
 .text._ZNSs2atEj
                0x0000000000047440       0xa0 /home/berkeley/nacl_sdk/pepper_42/toolchain/linux_x86_newlib/bin/../lib/gcc/x86_64-nacl/4.4.3/../../../../x86_64-nacl/lib/../lib32/libstdc++.a(string-inst.o)
                0x0000000000047440                _ZNSs2atEj
 .text._ZNSsixEj
                0x00000000000474e0       0x60 /home/berkeley/nacl_sdk/pepper_42/toolchain/linux_x86_newlib/bin/../lib/gcc/x86_64-nacl/4.4.3/../../../../x86_64-nacl/lib/../lib32/libstdc++.a(string-inst.o)
                0x00000000000474e0                _ZNSsixEj
 .text._ZNSs3endEv
                0x0000000000047540       0x80 /home/berkeley/nacl_sdk/pepper_42/toolchain/linux_x86_newlib/bin/../lib/gcc/x86_64-nacl/4.4.3/../../../../x86_64-nacl/lib/../lib32/libstdc++.a(string-inst.o)
                0x0000000000047540                _ZNSs3endEv
 .text._ZNSs5beginEv
                0x00000000000475c0       0x80 /home/berkeley/nacl_sdk/pepper_42/toolchain/linux_x86_newlib/bin/../lib/gcc/x86_64-nacl/4.4.3/../../../../x86_64-nacl/lib/../lib32/libstdc++.a(string-inst.o)
                0x00000000000475c0                _ZNSs5beginEv
 .text._ZNSs4rendEv
                0x0000000000047640       0x80 /home/berkeley/nacl_sdk/pepper_42/toolchain/linux_x86_newlib/bin/../lib/gcc/x86_64-nacl/4.4.3/../../../../x86_64-nacl/lib/../lib32/libstdc++.a(string-inst.o)
                0x0000000000047640                _ZNSs4rendEv
 .text._ZNSs6rbeginEv
                0x00000000000476c0       0x80 /home/berkeley/nacl_sdk/pepper_42/toolchain/linux_x86_newlib/bin/../lib/gcc/x86_64-nacl/4.4.3/../../../../x86_64-nacl/lib/../lib32/libstdc++.a(string-inst.o)
                0x00000000000476c0                _ZNSs6rbeginEv
 .text._ZNSs6resizeEjc
                0x0000000000047740       0xc0 /home/berkeley/nacl_sdk/pepper_42/toolchain/linux_x86_newlib/bin/../lib/gcc/x86_64-nacl/4.4.3/../../../../x86_64-nacl/lib/../lib32/libstdc++.a(string-inst.o)
                0x0000000000047740                _ZNSs6resizeEjc
 .text._ZNSs6resizeEj
                0x0000000000047800       0x40 /home/berkeley/nacl_sdk/pepper_42/toolchain/linux_x86_newlib/bin/../lib/gcc/x86_64-nacl/4.4.3/../../../../x86_64-nacl/lib/../lib32/libstdc++.a(string-inst.o)
                0x0000000000047800                _ZNSs6resizeEj
 .text._ZNSs7replaceEjjPKcj
                0x0000000000047840      0x360 /home/berkeley/nacl_sdk/pepper_42/toolchain/linux_x86_newlib/bin/../lib/gcc/x86_64-nacl/4.4.3/../../../../x86_64-nacl/lib/../lib32/libstdc++.a(string-inst.o)
                0x0000000000047840                _ZNSs7replaceEjjPKcj
 .text._ZNSs7replaceEN9__gnu_cxx17__normal_iteratorIPcSsEES2_NS0_IPKcSsEES5_
                0x0000000000047ba0       0x40 /home/berkeley/nacl_sdk/pepper_42/toolchain/linux_x86_newlib/bin/../lib/gcc/x86_64-nacl/4.4.3/../../../../x86_64-nacl/lib/../lib32/libstdc++.a(string-inst.o)
                0x0000000000047ba0                _ZNSs7replaceEN9__gnu_cxx17__normal_iteratorIPcSsEES2_NS0_IPKcSsEES5_
 .text._ZNSs7replaceEN9__gnu_cxx17__normal_iteratorIPcSsEES2_S2_S2_
                0x0000000000047be0       0x40 /home/berkeley/nacl_sdk/pepper_42/toolchain/linux_x86_newlib/bin/../lib/gcc/x86_64-nacl/4.4.3/../../../../x86_64-nacl/lib/../lib32/libstdc++.a(string-inst.o)
                0x0000000000047be0                _ZNSs7replaceEN9__gnu_cxx17__normal_iteratorIPcSsEES2_S2_S2_
 .text._ZNSs7replaceEN9__gnu_cxx17__normal_iteratorIPcSsEES2_PKcS4_
                0x0000000000047c20       0x40 /home/berkeley/nacl_sdk/pepper_42/toolchain/linux_x86_newlib/bin/../lib/gcc/x86_64-nacl/4.4.3/../../../../x86_64-nacl/lib/../lib32/libstdc++.a(string-inst.o)
                0x0000000000047c20                _ZNSs7replaceEN9__gnu_cxx17__normal_iteratorIPcSsEES2_PKcS4_
 .text._ZNSs7replaceEN9__gnu_cxx17__normal_iteratorIPcSsEES2_S1_S1_
                0x0000000000047c60       0x40 /home/berkeley/nacl_sdk/pepper_42/toolchain/linux_x86_newlib/bin/../lib/gcc/x86_64-nacl/4.4.3/../../../../x86_64-nacl/lib/../lib32/libstdc++.a(string-inst.o)
                0x0000000000047c60                _ZNSs7replaceEN9__gnu_cxx17__normal_iteratorIPcSsEES2_S1_S1_
 .text._ZNSs7replaceEN9__gnu_cxx17__normal_iteratorIPcSsEES2_PKcj
                0x0000000000047ca0       0x40 /home/berkeley/nacl_sdk/pepper_42/toolchain/linux_x86_newlib/bin/../lib/gcc/x86_64-nacl/4.4.3/../../../../x86_64-nacl/lib/../lib32/libstdc++.a(string-inst.o)
                0x0000000000047ca0                _ZNSs7replaceEN9__gnu_cxx17__normal_iteratorIPcSsEES2_PKcj
 .text._ZNSs7replaceEjjPKc
                0x0000000000047ce0       0x80 /home/berkeley/nacl_sdk/pepper_42/toolchain/linux_x86_newlib/bin/../lib/gcc/x86_64-nacl/4.4.3/../../../../x86_64-nacl/lib/../lib32/libstdc++.a(string-inst.o)
                0x0000000000047ce0                _ZNSs7replaceEjjPKc
 .text._ZNSs7replaceEjjRKSsjj
                0x0000000000047d60       0x80 /home/berkeley/nacl_sdk/pepper_42/toolchain/linux_x86_newlib/bin/../lib/gcc/x86_64-nacl/4.4.3/../../../../x86_64-nacl/lib/../lib32/libstdc++.a(string-inst.o)
                0x0000000000047d60                _ZNSs7replaceEjjRKSsjj
 .text._ZNSs7replaceEjjRKSs
                0x0000000000047de0       0x60 /home/berkeley/nacl_sdk/pepper_42/toolchain/linux_x86_newlib/bin/../lib/gcc/x86_64-nacl/4.4.3/../../../../x86_64-nacl/lib/../lib32/libstdc++.a(string-inst.o)
                0x0000000000047de0                _ZNSs7replaceEjjRKSs
 .text._ZNSs7replaceEN9__gnu_cxx17__normal_iteratorIPcSsEES2_PKc
                0x0000000000047e40       0x60 /home/berkeley/nacl_sdk/pepper_42/toolchain/linux_x86_newlib/bin/../lib/gcc/x86_64-nacl/4.4.3/../../../../x86_64-nacl/lib/../lib32/libstdc++.a(string-inst.o)
                0x0000000000047e40                _ZNSs7replaceEN9__gnu_cxx17__normal_iteratorIPcSsEES2_PKc
 .text._ZNSs7replaceEN9__gnu_cxx17__normal_iteratorIPcSsEES2_RKSs
                0x0000000000047ea0       0x60 /home/berkeley/nacl_sdk/pepper_42/toolchain/linux_x86_newlib/bin/../lib/gcc/x86_64-nacl/4.4.3/../../../../x86_64-nacl/lib/../lib32/libstdc++.a(string-inst.o)
                0x0000000000047ea0                _ZNSs7replaceEN9__gnu_cxx17__normal_iteratorIPcSsEES2_RKSs
 .text._ZNSs6assignESt16initializer_listIcE
                0x0000000000047f00       0x60 /home/berkeley/nacl_sdk/pepper_42/toolchain/linux_x86_newlib/bin/../lib/gcc/x86_64-nacl/4.4.3/../../../../x86_64-nacl/lib/../lib32/libstdc++.a(string-inst.o)
                0x0000000000047f00                _ZNSs6assignESt16initializer_listIcE
 .text._ZNSsaSESt16initializer_listIcE
                0x0000000000047f60       0x60 /home/berkeley/nacl_sdk/pepper_42/toolchain/linux_x86_newlib/bin/../lib/gcc/x86_64-nacl/4.4.3/../../../../x86_64-nacl/lib/../lib32/libstdc++.a(string-inst.o)
                0x0000000000047f60                _ZNSsaSESt16initializer_listIcE
 .text._ZNSs6appendESt16initializer_listIcE
                0x0000000000047fc0       0x60 /home/berkeley/nacl_sdk/pepper_42/toolchain/linux_x86_newlib/bin/../lib/gcc/x86_64-nacl/4.4.3/../../../../x86_64-nacl/lib/../lib32/libstdc++.a(string-inst.o)
                0x0000000000047fc0                _ZNSs6appendESt16initializer_listIcE
 .text._ZNSspLESt16initializer_listIcE
                0x0000000000048020       0x60 /home/berkeley/nacl_sdk/pepper_42/toolchain/linux_x86_newlib/bin/../lib/gcc/x86_64-nacl/4.4.3/../../../../x86_64-nacl/lib/../lib32/libstdc++.a(string-inst.o)
                0x0000000000048020                _ZNSspLESt16initializer_listIcE
 .text._ZNSs7replaceEN9__gnu_cxx17__normal_iteratorIPcSsEES2_St16initializer_listIcE
                0x0000000000048080       0x40 /home/berkeley/nacl_sdk/pepper_42/toolchain/linux_x86_newlib/bin/../lib/gcc/x86_64-nacl/4.4.3/../../../../x86_64-nacl/lib/../lib32/libstdc++.a(string-inst.o)
                0x0000000000048080                _ZNSs7replaceEN9__gnu_cxx17__normal_iteratorIPcSsEES2_St16initializer_listIcE
 .text._ZNSs6insertEN9__gnu_cxx17__normal_iteratorIPcSsEESt16initializer_listIcE
                0x00000000000480c0       0x60 /home/berkeley/nacl_sdk/pepper_42/toolchain/linux_x86_newlib/bin/../lib/gcc/x86_64-nacl/4.4.3/../../../../x86_64-nacl/lib/../lib32/libstdc++.a(string-inst.o)
                0x00000000000480c0                _ZNSs6insertEN9__gnu_cxx17__normal_iteratorIPcSsEESt16initializer_listIcE
 .text          0x0000000000048120        0x0 /home/berkeley/nacl_sdk/pepper_42/toolchain/linux_x86_newlib/bin/../lib/gcc/x86_64-nacl/4.4.3/../../../../x86_64-nacl/lib/../lib32/libstdc++.a(eh_personality.o)
 .text._ZL16get_adjusted_ptrPKSt9type_infoS1_PPv
                0x0000000000048120       0xc0 /home/berkeley/nacl_sdk/pepper_42/toolchain/linux_x86_newlib/bin/../lib/gcc/x86_64-nacl/4.4.3/../../../../x86_64-nacl/lib/../lib32/libstdc++.a(eh_personality.o)
 .text._ZL21base_of_encoded_valuehP15_Unwind_Context
                0x00000000000481e0      0x180 /home/berkeley/nacl_sdk/pepper_42/toolchain/linux_x86_newlib/bin/../lib/gcc/x86_64-nacl/4.4.3/../../../../x86_64-nacl/lib/../lib32/libstdc++.a(eh_personality.o)
 .text._ZL28read_encoded_value_with_basehjPKhPj
                0x0000000000048360      0x200 /home/berkeley/nacl_sdk/pepper_42/toolchain/linux_x86_newlib/bin/../lib/gcc/x86_64-nacl/4.4.3/../../../../x86_64-nacl/lib/../lib32/libstdc++.a(eh_personality.o)
 .text._ZL17parse_lsda_headerP15_Unwind_ContextPKhP16lsda_header_info
                0x0000000000048560      0x180 /home/berkeley/nacl_sdk/pepper_42/toolchain/linux_x86_newlib/bin/../lib/gcc/x86_64-nacl/4.4.3/../../../../x86_64-nacl/lib/../lib32/libstdc++.a(eh_personality.o)
 .text._ZL15get_ttype_entryP16lsda_header_infom
                0x00000000000486e0      0x140 /home/berkeley/nacl_sdk/pepper_42/toolchain/linux_x86_newlib/bin/../lib/gcc/x86_64-nacl/4.4.3/../../../../x86_64-nacl/lib/../lib32/libstdc++.a(eh_personality.o)
 .text._ZL20check_exception_specP16lsda_header_infoPKSt9type_infoPvl
                0x0000000000048820       0xe0 /home/berkeley/nacl_sdk/pepper_42/toolchain/linux_x86_newlib/bin/../lib/gcc/x86_64-nacl/4.4.3/../../../../x86_64-nacl/lib/../lib32/libstdc++.a(eh_personality.o)
 .text.__cxa_call_unexpected
                0x0000000000048900      0x200 /home/berkeley/nacl_sdk/pepper_42/toolchain/linux_x86_newlib/bin/../lib/gcc/x86_64-nacl/4.4.3/../../../../x86_64-nacl/lib/../lib32/libstdc++.a(eh_personality.o)
                0x0000000000048900                __cxa_call_unexpected
 .text.__gxx_personality_v0
                0x0000000000048b00      0x960 /home/berkeley/nacl_sdk/pepper_42/toolchain/linux_x86_newlib/bin/../lib/gcc/x86_64-nacl/4.4.3/../../../../x86_64-nacl/lib/../lib32/libstdc++.a(eh_personality.o)
                0x0000000000048b00                __gxx_personality_v0
 .text          0x0000000000049460        0x0 /home/berkeley/nacl_sdk/pepper_42/toolchain/linux_x86_newlib/bin/../lib/gcc/x86_64-nacl/4.4.3/../../../../x86_64-nacl/lib/../lib32/libstdc++.a(eh_globals.o)
 .text._ZN17__eh_globals_initD1Ev
                0x0000000000049460       0x60 /home/berkeley/nacl_sdk/pepper_42/toolchain/linux_x86_newlib/bin/../lib/gcc/x86_64-nacl/4.4.3/../../../../x86_64-nacl/lib/../lib32/libstdc++.a(eh_globals.o)
                0x0000000000049460                _ZN17__eh_globals_initD1Ev
 .text._GLOBAL__I___cxa_get_globals_fast
                0x00000000000494c0       0xa0 /home/berkeley/nacl_sdk/pepper_42/toolchain/linux_x86_newlib/bin/../lib/gcc/x86_64-nacl/4.4.3/../../../../x86_64-nacl/lib/../lib32/libstdc++.a(eh_globals.o)
 .text._ZL15eh_globals_dtorPv
                0x0000000000049560       0xa0 /home/berkeley/nacl_sdk/pepper_42/toolchain/linux_x86_newlib/bin/../lib/gcc/x86_64-nacl/4.4.3/../../../../x86_64-nacl/lib/../lib32/libstdc++.a(eh_globals.o)
 .text.__cxa_get_globals
                0x0000000000049600      0x140 /home/berkeley/nacl_sdk/pepper_42/toolchain/linux_x86_newlib/bin/../lib/gcc/x86_64-nacl/4.4.3/../../../../x86_64-nacl/lib/../lib32/libstdc++.a(eh_globals.o)
                0x0000000000049600                __cxa_get_globals
 .text.__cxa_get_globals_fast
                0x0000000000049740       0xa0 /home/berkeley/nacl_sdk/pepper_42/toolchain/linux_x86_newlib/bin/../lib/gcc/x86_64-nacl/4.4.3/../../../../x86_64-nacl/lib/../lib32/libstdc++.a(eh_globals.o)
                0x0000000000049740                __cxa_get_globals_fast
 .text          0x00000000000497e0        0x0 /home/berkeley/nacl_sdk/pepper_42/toolchain/linux_x86_newlib/bin/../lib/gcc/x86_64-nacl/4.4.3/../../../../x86_64-nacl/lib/../lib32/libstdc++.a(eh_throw.o)
 .text.__cxa_rethrow
                0x00000000000497e0      0x100 /home/berkeley/nacl_sdk/pepper_42/toolchain/linux_x86_newlib/bin/../lib/gcc/x86_64-nacl/4.4.3/../../../../x86_64-nacl/lib/../lib32/libstdc++.a(eh_throw.o)
                0x00000000000497e0                __cxa_rethrow
 .text.__cxa_throw
                0x00000000000498e0       0xa0 /home/berkeley/nacl_sdk/pepper_42/toolchain/linux_x86_newlib/bin/../lib/gcc/x86_64-nacl/4.4.3/../../../../x86_64-nacl/lib/../lib32/libstdc++.a(eh_throw.o)
                0x00000000000498e0                __cxa_throw
 .text._ZL23__gxx_exception_cleanup19_Unwind_Reason_CodeP17_Unwind_Exception
                0x0000000000049980       0xa0 /home/berkeley/nacl_sdk/pepper_42/toolchain/linux_x86_newlib/bin/../lib/gcc/x86_64-nacl/4.4.3/../../../../x86_64-nacl/lib/../lib32/libstdc++.a(eh_throw.o)
 .text          0x0000000000049a20        0x0 /home/berkeley/nacl_sdk/pepper_42/toolchain/linux_x86_newlib/bin/../lib/gcc/x86_64-nacl/4.4.3/../../../../x86_64-nacl/lib/../lib32/libstdc++.a(del_op.o)
 .text._ZdlPv   0x0000000000049a20       0x40 /home/berkeley/nacl_sdk/pepper_42/toolchain/linux_x86_newlib/bin/../lib/gcc/x86_64-nacl/4.4.3/../../../../x86_64-nacl/lib/../lib32/libstdc++.a(del_op.o)
                0x0000000000049a20                _ZdlPv
 .text          0x0000000000049a60        0x0 /home/berkeley/nacl_sdk/pepper_42/toolchain/linux_x86_newlib/bin/../lib/gcc/x86_64-nacl/4.4.3/../../../../x86_64-nacl/lib/../lib32/libstdc++.a(eh_call.o)
 .text.__cxa_call_terminate
                0x0000000000049a60       0x80 /home/berkeley/nacl_sdk/pepper_42/toolchain/linux_x86_newlib/bin/../lib/gcc/x86_64-nacl/4.4.3/../../../../x86_64-nacl/lib/../lib32/libstdc++.a(eh_call.o)
                0x0000000000049a60                __cxa_call_terminate
 .text          0x0000000000049ae0        0x0 /home/berkeley/nacl_sdk/pepper_42/toolchain/linux_x86_newlib/bin/../lib/gcc/x86_64-nacl/4.4.3/../../../../x86_64-nacl/lib/../lib32/libstdc++.a(guard.o)
 .text._ZNK9__gnu_cxx24__concurrence_lock_error4whatEv
                0x0000000000049ae0       0x20 /home/berkeley/nacl_sdk/pepper_42/toolchain/linux_x86_newlib/bin/../lib/gcc/x86_64-nacl/4.4.3/../../../../x86_64-nacl/lib/../lib32/libstdc++.a(guard.o)
                0x0000000000049ae0                _ZNK9__gnu_cxx24__concurrence_lock_error4whatEv
 .text._ZNK9__gnu_cxx26__concurrence_unlock_error4whatEv
                0x0000000000049b00       0x20 /home/berkeley/nacl_sdk/pepper_42/toolchain/linux_x86_newlib/bin/../lib/gcc/x86_64-nacl/4.4.3/../../../../x86_64-nacl/lib/../lib32/libstdc++.a(guard.o)
                0x0000000000049b00                _ZNK9__gnu_cxx26__concurrence_unlock_error4whatEv
 .text._ZN12_GLOBAL__N_1L4initEv
                0x0000000000049b20       0x80 /home/berkeley/nacl_sdk/pepper_42/toolchain/linux_x86_newlib/bin/../lib/gcc/x86_64-nacl/4.4.3/../../../../x86_64-nacl/lib/../lib32/libstdc++.a(guard.o)
 .text._ZN10__cxxabiv1L7acquireEPx
                0x0000000000049ba0       0x80 /home/berkeley/nacl_sdk/pepper_42/toolchain/linux_x86_newlib/bin/../lib/gcc/x86_64-nacl/4.4.3/../../../../x86_64-nacl/lib/../lib32/libstdc++.a(guard.o)
 .text._ZN9__gnu_cxx26__concurrence_unlock_errorD1Ev
                0x0000000000049c20       0x20 /home/berkeley/nacl_sdk/pepper_42/toolchain/linux_x86_newlib/bin/../lib/gcc/x86_64-nacl/4.4.3/../../../../x86_64-nacl/lib/../lib32/libstdc++.a(guard.o)
                0x0000000000049c20                _ZN9__gnu_cxx26__concurrence_unlock_errorD1Ev
 .text._ZN9__gnu_cxx24__concurrence_lock_errorD1Ev
                0x0000000000049c40       0x20 /home/berkeley/nacl_sdk/pepper_42/toolchain/linux_x86_newlib/bin/../lib/gcc/x86_64-nacl/4.4.3/../../../../x86_64-nacl/lib/../lib32/libstdc++.a(guard.o)
                0x0000000000049c40                _ZN9__gnu_cxx24__concurrence_lock_errorD1Ev
 .text._ZN9__gnu_cxx20recursive_init_errorD1Ev
                0x0000000000049c60       0x20 /home/berkeley/nacl_sdk/pepper_42/toolchain/linux_x86_newlib/bin/../lib/gcc/x86_64-nacl/4.4.3/../../../../x86_64-nacl/lib/../lib32/libstdc++.a(guard.o)
                0x0000000000049c60                _ZN9__gnu_cxx20recursive_init_errorD1Ev
 .text._ZN9__gnu_cxx20recursive_init_errorD2Ev
                0x0000000000049c80       0x20 /home/berkeley/nacl_sdk/pepper_42/toolchain/linux_x86_newlib/bin/../lib/gcc/x86_64-nacl/4.4.3/../../../../x86_64-nacl/lib/../lib32/libstdc++.a(guard.o)
                0x0000000000049c80                _ZN9__gnu_cxx20recursive_init_errorD2Ev
 .text._ZN9__gnu_cxx26__concurrence_unlock_errorD0Ev
                0x0000000000049ca0       0x40 /home/berkeley/nacl_sdk/pepper_42/toolchain/linux_x86_newlib/bin/../lib/gcc/x86_64-nacl/4.4.3/../../../../x86_64-nacl/lib/../lib32/libstdc++.a(guard.o)
                0x0000000000049ca0                _ZN9__gnu_cxx26__concurrence_unlock_errorD0Ev
 .text._ZN9__gnu_cxx24__concurrence_lock_errorD0Ev
                0x0000000000049ce0       0x40 /home/berkeley/nacl_sdk/pepper_42/toolchain/linux_x86_newlib/bin/../lib/gcc/x86_64-nacl/4.4.3/../../../../x86_64-nacl/lib/../lib32/libstdc++.a(guard.o)
                0x0000000000049ce0                _ZN9__gnu_cxx24__concurrence_lock_errorD0Ev
 .text._ZN9__gnu_cxx20recursive_init_errorD0Ev
                0x0000000000049d20       0x40 /home/berkeley/nacl_sdk/pepper_42/toolchain/linux_x86_newlib/bin/../lib/gcc/x86_64-nacl/4.4.3/../../../../x86_64-nacl/lib/../lib32/libstdc++.a(guard.o)
                0x0000000000049d20                _ZN9__gnu_cxx20recursive_init_errorD0Ev
 .text.__cxa_guard_release
                0x0000000000049d60       0xc0 /home/berkeley/nacl_sdk/pepper_42/toolchain/linux_x86_newlib/bin/../lib/gcc/x86_64-nacl/4.4.3/../../../../x86_64-nacl/lib/../lib32/libstdc++.a(guard.o)
                0x0000000000049d60                __cxa_guard_release
 .text.__cxa_guard_abort
                0x0000000000049e20       0xc0 /home/berkeley/nacl_sdk/pepper_42/toolchain/linux_x86_newlib/bin/../lib/gcc/x86_64-nacl/4.4.3/../../../../x86_64-nacl/lib/../lib32/libstdc++.a(guard.o)
                0x0000000000049e20                __cxa_guard_abort
 .text.__cxa_guard_acquire
                0x0000000000049ee0      0x220 /home/berkeley/nacl_sdk/pepper_42/toolchain/linux_x86_newlib/bin/../lib/gcc/x86_64-nacl/4.4.3/../../../../x86_64-nacl/lib/../lib32/libstdc++.a(guard.o)
                0x0000000000049ee0                __cxa_guard_acquire
 .text          0x000000000004a100        0x0 /home/berkeley/nacl_sdk/pepper_42/toolchain/linux_x86_newlib/bin/../lib/gcc/x86_64-nacl/4.4.3/../../../../x86_64-nacl/lib/../lib32/libstdc++.a(si_class_type_info.o)
 .text._ZNK10__cxxabiv120__si_class_type_info20__do_find_public_srcEiPKvPKNS_17__class_type_infoES2_
                0x000000000004a100       0xa0 /home/berkeley/nacl_sdk/pepper_42/toolchain/linux_x86_newlib/bin/../lib/gcc/x86_64-nacl/4.4.3/../../../../x86_64-nacl/lib/../lib32/libstdc++.a(si_class_type_info.o)
                0x000000000004a100                _ZNK10__cxxabiv120__si_class_type_info20__do_find_public_srcEiPKvPKNS_17__class_type_infoES2_
 .text._ZNK10__cxxabiv120__si_class_type_info12__do_dyncastEiNS_17__class_type_info10__sub_kindEPKS1_PKvS4_S6_RNS1_16__dyncast_resultE
                0x000000000004a1a0      0x140 /home/berkeley/nacl_sdk/pepper_42/toolchain/linux_x86_newlib/bin/../lib/gcc/x86_64-nacl/4.4.3/../../../../x86_64-nacl/lib/../lib32/libstdc++.a(si_class_type_info.o)
                0x000000000004a1a0                _ZNK10__cxxabiv120__si_class_type_info12__do_dyncastEiNS_17__class_type_info10__sub_kindEPKS1_PKvS4_S6_RNS1_16__dyncast_resultE
 .text._ZNK10__cxxabiv120__si_class_type_info11__do_upcastEPKNS_17__class_type_infoEPKvRNS1_15__upcast_resultE
                0x000000000004a2e0       0xa0 /home/berkeley/nacl_sdk/pepper_42/toolchain/linux_x86_newlib/bin/../lib/gcc/x86_64-nacl/4.4.3/../../../../x86_64-nacl/lib/../lib32/libstdc++.a(si_class_type_info.o)
                0x000000000004a2e0                _ZNK10__cxxabiv120__si_class_type_info11__do_upcastEPKNS_17__class_type_infoEPKvRNS1_15__upcast_resultE
 .text._ZN10__cxxabiv120__si_class_type_infoD1Ev
                0x000000000004a380       0x20 /home/berkeley/nacl_sdk/pepper_42/toolchain/linux_x86_newlib/bin/../lib/gcc/x86_64-nacl/4.4.3/../../../../x86_64-nacl/lib/../lib32/libstdc++.a(si_class_type_info.o)
                0x000000000004a380                _ZN10__cxxabiv120__si_class_type_infoD1Ev
 .text._ZN10__cxxabiv120__si_class_type_infoD2Ev
                0x000000000004a3a0       0x20 /home/berkeley/nacl_sdk/pepper_42/toolchain/linux_x86_newlib/bin/../lib/gcc/x86_64-nacl/4.4.3/../../../../x86_64-nacl/lib/../lib32/libstdc++.a(si_class_type_info.o)
                0x000000000004a3a0                _ZN10__cxxabiv120__si_class_type_infoD2Ev
 .text._ZN10__cxxabiv120__si_class_type_infoD0Ev
                0x000000000004a3c0       0x40 /home/berkeley/nacl_sdk/pepper_42/toolchain/linux_x86_newlib/bin/../lib/gcc/x86_64-nacl/4.4.3/../../../../x86_64-nacl/lib/../lib32/libstdc++.a(si_class_type_info.o)
                0x000000000004a3c0                _ZN10__cxxabiv120__si_class_type_infoD0Ev
 .text          0x000000000004a400        0x0 /home/berkeley/nacl_sdk/pepper_42/toolchain/linux_x86_newlib/bin/../lib/gcc/x86_64-nacl/4.4.3/../../../../x86_64-nacl/lib/../lib32/libstdc++.a(eh_terminate.o)
 .text._ZSt13set_terminatePFvvE
                0x000000000004a400       0x20 /home/berkeley/nacl_sdk/pepper_42/toolchain/linux_x86_newlib/bin/../lib/gcc/x86_64-nacl/4.4.3/../../../../x86_64-nacl/lib/../lib32/libstdc++.a(eh_terminate.o)
                0x000000000004a400                _ZSt13set_terminatePFvvE
 .text._ZSt14set_unexpectedPFvvE
                0x000000000004a420       0x20 /home/berkeley/nacl_sdk/pepper_42/toolchain/linux_x86_newlib/bin/../lib/gcc/x86_64-nacl/4.4.3/../../../../x86_64-nacl/lib/../lib32/libstdc++.a(eh_terminate.o)
                0x000000000004a420                _ZSt14set_unexpectedPFvvE
 .text._ZN10__cxxabiv111__terminateEPFvvE
                0x000000000004a440       0xc0 /home/berkeley/nacl_sdk/pepper_42/toolchain/linux_x86_newlib/bin/../lib/gcc/x86_64-nacl/4.4.3/../../../../x86_64-nacl/lib/../lib32/libstdc++.a(eh_terminate.o)
                0x000000000004a440                _ZN10__cxxabiv111__terminateEPFvvE
 .text._ZSt9terminatev
                0x000000000004a500       0x20 /home/berkeley/nacl_sdk/pepper_42/toolchain/linux_x86_newlib/bin/../lib/gcc/x86_64-nacl/4.4.3/../../../../x86_64-nacl/lib/../lib32/libstdc++.a(eh_terminate.o)
                0x000000000004a500                _ZSt9terminatev
 .text._ZN10__cxxabiv112__unexpectedEPFvvE
                0x000000000004a520       0x40 /home/berkeley/nacl_sdk/pepper_42/toolchain/linux_x86_newlib/bin/../lib/gcc/x86_64-nacl/4.4.3/../../../../x86_64-nacl/lib/../lib32/libstdc++.a(eh_terminate.o)
                0x000000000004a520                _ZN10__cxxabiv112__unexpectedEPFvvE
 .text._ZSt10unexpectedv
                0x000000000004a560       0x20 /home/berkeley/nacl_sdk/pepper_42/toolchain/linux_x86_newlib/bin/../lib/gcc/x86_64-nacl/4.4.3/../../../../x86_64-nacl/lib/../lib32/libstdc++.a(eh_terminate.o)
                0x000000000004a560                _ZSt10unexpectedv
 .text          0x000000000004a580        0x0 /home/berkeley/nacl_sdk/pepper_42/toolchain/linux_x86_newlib/bin/../lib/gcc/x86_64-nacl/4.4.3/../../../../x86_64-nacl/lib/../lib32/libstdc++.a(class_type_info.o)
 .text._ZNK10__cxxabiv117__class_type_info10__do_catchEPKSt9type_infoPPvj
                0x000000000004a580       0x80 /home/berkeley/nacl_sdk/pepper_42/toolchain/linux_x86_newlib/bin/../lib/gcc/x86_64-nacl/4.4.3/../../../../x86_64-nacl/lib/../lib32/libstdc++.a(class_type_info.o)
                0x000000000004a580                _ZNK10__cxxabiv117__class_type_info10__do_catchEPKSt9type_infoPPvj
 .text._ZNK10__cxxabiv117__class_type_info11__do_upcastEPKS0_PPv
                0x000000000004a600       0xa0 /home/berkeley/nacl_sdk/pepper_42/toolchain/linux_x86_newlib/bin/../lib/gcc/x86_64-nacl/4.4.3/../../../../x86_64-nacl/lib/../lib32/libstdc++.a(class_type_info.o)
                0x000000000004a600                _ZNK10__cxxabiv117__class_type_info11__do_upcastEPKS0_PPv
 .text._ZNK10__cxxabiv117__class_type_info20__do_find_public_srcEiPKvPKS0_S2_
                0x000000000004a6a0       0x20 /home/berkeley/nacl_sdk/pepper_42/toolchain/linux_x86_newlib/bin/../lib/gcc/x86_64-nacl/4.4.3/../../../../x86_64-nacl/lib/../lib32/libstdc++.a(class_type_info.o)
                0x000000000004a6a0                _ZNK10__cxxabiv117__class_type_info20__do_find_public_srcEiPKvPKS0_S2_
 .text._ZNK10__cxxabiv117__class_type_info12__do_dyncastEiNS0_10__sub_kindEPKS0_PKvS3_S5_RNS0_16__dyncast_resultE
                0x000000000004a6c0       0xc0 /home/berkeley/nacl_sdk/pepper_42/toolchain/linux_x86_newlib/bin/../lib/gcc/x86_64-nacl/4.4.3/../../../../x86_64-nacl/lib/../lib32/libstdc++.a(class_type_info.o)
                0x000000000004a6c0                _ZNK10__cxxabiv117__class_type_info12__do_dyncastEiNS0_10__sub_kindEPKS0_PKvS3_S5_RNS0_16__dyncast_resultE
 .text._ZNK10__cxxabiv117__class_type_info11__do_upcastEPKS0_PKvRNS0_15__upcast_resultE
                0x000000000004a780       0x40 /home/berkeley/nacl_sdk/pepper_42/toolchain/linux_x86_newlib/bin/../lib/gcc/x86_64-nacl/4.4.3/../../../../x86_64-nacl/lib/../lib32/libstdc++.a(class_type_info.o)
                0x000000000004a780                _ZNK10__cxxabiv117__class_type_info11__do_upcastEPKS0_PKvRNS0_15__upcast_resultE
 .text._ZN10__cxxabiv117__class_type_infoD1Ev
                0x000000000004a7c0       0x20 /home/berkeley/nacl_sdk/pepper_42/toolchain/linux_x86_newlib/bin/../lib/gcc/x86_64-nacl/4.4.3/../../../../x86_64-nacl/lib/../lib32/libstdc++.a(class_type_info.o)
                0x000000000004a7c0                _ZN10__cxxabiv117__class_type_infoD1Ev
 .text._ZN10__cxxabiv117__class_type_infoD2Ev
                0x000000000004a7e0       0x20 /home/berkeley/nacl_sdk/pepper_42/toolchain/linux_x86_newlib/bin/../lib/gcc/x86_64-nacl/4.4.3/../../../../x86_64-nacl/lib/../lib32/libstdc++.a(class_type_info.o)
                0x000000000004a7e0                _ZN10__cxxabiv117__class_type_infoD2Ev
 .text._ZN10__cxxabiv117__class_type_infoD0Ev
                0x000000000004a800       0x40 /home/berkeley/nacl_sdk/pepper_42/toolchain/linux_x86_newlib/bin/../lib/gcc/x86_64-nacl/4.4.3/../../../../x86_64-nacl/lib/../lib32/libstdc++.a(class_type_info.o)
                0x000000000004a800                _ZN10__cxxabiv117__class_type_infoD0Ev
 .text          0x000000000004a840        0x0 /home/berkeley/nacl_sdk/pepper_42/toolchain/linux_x86_newlib/bin/../lib/gcc/x86_64-nacl/4.4.3/../../../../x86_64-nacl/lib/../lib32/libstdc++.a(eh_alloc.o)
 .text._GLOBAL__I___cxa_allocate_exception
                0x000000000004a840       0x80 /home/berkeley/nacl_sdk/pepper_42/toolchain/linux_x86_newlib/bin/../lib/gcc/x86_64-nacl/4.4.3/../../../../x86_64-nacl/lib/../lib32/libstdc++.a(eh_alloc.o)
 .text._ZN9__gnu_cxx13__scoped_lockD1Ev
                0x000000000004a8c0       0xe0 /home/berkeley/nacl_sdk/pepper_42/toolchain/linux_x86_newlib/bin/../lib/gcc/x86_64-nacl/4.4.3/../../../../x86_64-nacl/lib/../lib32/libstdc++.a(eh_alloc.o)
                0x000000000004a8c0                _ZN9__gnu_cxx13__scoped_lockD1Ev
 .text.__cxa_free_dependent_exception
                0x000000000004a9a0      0x200 /home/berkeley/nacl_sdk/pepper_42/toolchain/linux_x86_newlib/bin/../lib/gcc/x86_64-nacl/4.4.3/../../../../x86_64-nacl/lib/../lib32/libstdc++.a(eh_alloc.o)
                0x000000000004a9a0                __cxa_free_dependent_exception
 .text.__cxa_free_exception
                0x000000000004aba0      0x1e0 /home/berkeley/nacl_sdk/pepper_42/toolchain/linux_x86_newlib/bin/../lib/gcc/x86_64-nacl/4.4.3/../../../../x86_64-nacl/lib/../lib32/libstdc++.a(eh_alloc.o)
                0x000000000004aba0                __cxa_free_exception
 .text.__cxa_allocate_exception
                0x000000000004ad80      0x380 /home/berkeley/nacl_sdk/pepper_42/toolchain/linux_x86_newlib/bin/../lib/gcc/x86_64-nacl/4.4.3/../../../../x86_64-nacl/lib/../lib32/libstdc++.a(eh_alloc.o)
                0x000000000004ad80                __cxa_allocate_exception
 .text.__cxa_allocate_dependent_exception
                0x000000000004b100      0x2c0 /home/berkeley/nacl_sdk/pepper_42/toolchain/linux_x86_newlib/bin/../lib/gcc/x86_64-nacl/4.4.3/../../../../x86_64-nacl/lib/../lib32/libstdc++.a(eh_alloc.o)
                0x000000000004b100                __cxa_allocate_dependent_exception
 .text          0x000000000004b3c0        0x0 /home/berkeley/nacl_sdk/pepper_42/toolchain/linux_x86_newlib/bin/../lib/gcc/x86_64-nacl/4.4.3/../../../../x86_64-nacl/lib/../lib32/libstdc++.a(eh_catch.o)
 .text.__cxa_get_exception_ptr
                0x000000000004b3c0       0x20 /home/berkeley/nacl_sdk/pepper_42/toolchain/linux_x86_newlib/bin/../lib/gcc/x86_64-nacl/4.4.3/../../../../x86_64-nacl/lib/../lib32/libstdc++.a(eh_catch.o)
                0x000000000004b3c0                __cxa_get_exception_ptr
 .text._ZSt18uncaught_exceptionv
                0x000000000004b3e0       0x40 /home/berkeley/nacl_sdk/pepper_42/toolchain/linux_x86_newlib/bin/../lib/gcc/x86_64-nacl/4.4.3/../../../../x86_64-nacl/lib/../lib32/libstdc++.a(eh_catch.o)
                0x000000000004b3e0                _ZSt18uncaught_exceptionv
 .text.__cxa_end_catch
                0x000000000004b420      0x160 /home/berkeley/nacl_sdk/pepper_42/toolchain/linux_x86_newlib/bin/../lib/gcc/x86_64-nacl/4.4.3/../../../../x86_64-nacl/lib/../lib32/libstdc++.a(eh_catch.o)
                0x000000000004b420                __cxa_end_catch
 .text.__cxa_begin_catch
                0x000000000004b580      0x160 /home/berkeley/nacl_sdk/pepper_42/toolchain/linux_x86_newlib/bin/../lib/gcc/x86_64-nacl/4.4.3/../../../../x86_64-nacl/lib/../lib32/libstdc++.a(eh_catch.o)
                0x000000000004b580                __cxa_begin_catch
 .text          0x000000000004b6e0        0x0 /home/berkeley/nacl_sdk/pepper_42/toolchain/linux_x86_newlib/bin/../lib/gcc/x86_64-nacl/4.4.3/../../../../x86_64-nacl/lib/../lib32/libstdc++.a(eh_exception.o)
 .text._ZNSt9exceptionD2Ev
                0x000000000004b6e0       0x20 /home/berkeley/nacl_sdk/pepper_42/toolchain/linux_x86_newlib/bin/../lib/gcc/x86_64-nacl/4.4.3/../../../../x86_64-nacl/lib/../lib32/libstdc++.a(eh_exception.o)
                0x000000000004b6e0                _ZNSt9exceptionD2Ev
 .text._ZNSt9exceptionD1Ev
                0x000000000004b700       0x20 /home/berkeley/nacl_sdk/pepper_42/toolchain/linux_x86_newlib/bin/../lib/gcc/x86_64-nacl/4.4.3/../../../../x86_64-nacl/lib/../lib32/libstdc++.a(eh_exception.o)
                0x000000000004b700                _ZNSt9exceptionD1Ev
 .text._ZNSt13bad_exceptionD2Ev
                0x000000000004b720       0x20 /home/berkeley/nacl_sdk/pepper_42/toolchain/linux_x86_newlib/bin/../lib/gcc/x86_64-nacl/4.4.3/../../../../x86_64-nacl/lib/../lib32/libstdc++.a(eh_exception.o)
                0x000000000004b720                _ZNSt13bad_exceptionD2Ev
 .text._ZNSt13bad_exceptionD1Ev
                0x000000000004b740       0x20 /home/berkeley/nacl_sdk/pepper_42/toolchain/linux_x86_newlib/bin/../lib/gcc/x86_64-nacl/4.4.3/../../../../x86_64-nacl/lib/../lib32/libstdc++.a(eh_exception.o)
                0x000000000004b740                _ZNSt13bad_exceptionD1Ev
 .text._ZN10__cxxabiv115__forced_unwindD2Ev
                0x000000000004b760       0x20 /home/berkeley/nacl_sdk/pepper_42/toolchain/linux_x86_newlib/bin/../lib/gcc/x86_64-nacl/4.4.3/../../../../x86_64-nacl/lib/../lib32/libstdc++.a(eh_exception.o)
                0x000000000004b760                _ZN10__cxxabiv115__forced_unwindD2Ev
 .text._ZN10__cxxabiv115__forced_unwindD1Ev
                0x000000000004b780       0x20 /home/berkeley/nacl_sdk/pepper_42/toolchain/linux_x86_newlib/bin/../lib/gcc/x86_64-nacl/4.4.3/../../../../x86_64-nacl/lib/../lib32/libstdc++.a(eh_exception.o)
                0x000000000004b780                _ZN10__cxxabiv115__forced_unwindD1Ev
 .text._ZN10__cxxabiv119__foreign_exceptionD2Ev
                0x000000000004b7a0       0x20 /home/berkeley/nacl_sdk/pepper_42/toolchain/linux_x86_newlib/bin/../lib/gcc/x86_64-nacl/4.4.3/../../../../x86_64-nacl/lib/../lib32/libstdc++.a(eh_exception.o)
                0x000000000004b7a0                _ZN10__cxxabiv119__foreign_exceptionD2Ev
 .text._ZN10__cxxabiv119__foreign_exceptionD1Ev
                0x000000000004b7c0       0x20 /home/berkeley/nacl_sdk/pepper_42/toolchain/linux_x86_newlib/bin/../lib/gcc/x86_64-nacl/4.4.3/../../../../x86_64-nacl/lib/../lib32/libstdc++.a(eh_exception.o)
                0x000000000004b7c0                _ZN10__cxxabiv119__foreign_exceptionD1Ev
 .text._ZNKSt9exception4whatEv
                0x000000000004b7e0       0x20 /home/berkeley/nacl_sdk/pepper_42/toolchain/linux_x86_newlib/bin/../lib/gcc/x86_64-nacl/4.4.3/../../../../x86_64-nacl/lib/../lib32/libstdc++.a(eh_exception.o)
                0x000000000004b7e0                _ZNKSt9exception4whatEv
 .text._ZNKSt13bad_exception4whatEv
                0x000000000004b800       0x20 /home/berkeley/nacl_sdk/pepper_42/toolchain/linux_x86_newlib/bin/../lib/gcc/x86_64-nacl/4.4.3/../../../../x86_64-nacl/lib/../lib32/libstdc++.a(eh_exception.o)
                0x000000000004b800                _ZNKSt13bad_exception4whatEv
 .text._ZN10__cxxabiv119__foreign_exceptionD0Ev
                0x000000000004b820       0x20 /home/berkeley/nacl_sdk/pepper_42/toolchain/linux_x86_newlib/bin/../lib/gcc/x86_64-nacl/4.4.3/../../../../x86_64-nacl/lib/../lib32/libstdc++.a(eh_exception.o)
                0x000000000004b820                _ZN10__cxxabiv119__foreign_exceptionD0Ev
 .text._ZN10__cxxabiv115__forced_unwindD0Ev
                0x000000000004b840       0x20 /home/berkeley/nacl_sdk/pepper_42/toolchain/linux_x86_newlib/bin/../lib/gcc/x86_64-nacl/4.4.3/../../../../x86_64-nacl/lib/../lib32/libstdc++.a(eh_exception.o)
                0x000000000004b840                _ZN10__cxxabiv115__forced_unwindD0Ev
 .text._ZNSt9exceptionD0Ev
                0x000000000004b860       0x20 /home/berkeley/nacl_sdk/pepper_42/toolchain/linux_x86_newlib/bin/../lib/gcc/x86_64-nacl/4.4.3/../../../../x86_64-nacl/lib/../lib32/libstdc++.a(eh_exception.o)
                0x000000000004b860                _ZNSt9exceptionD0Ev
 .text._ZNSt13bad_exceptionD0Ev
                0x000000000004b880       0x20 /home/berkeley/nacl_sdk/pepper_42/toolchain/linux_x86_newlib/bin/../lib/gcc/x86_64-nacl/4.4.3/../../../../x86_64-nacl/lib/../lib32/libstdc++.a(eh_exception.o)
                0x000000000004b880                _ZNSt13bad_exceptionD0Ev
 .text          0x000000000004b8a0        0x0 /home/berkeley/nacl_sdk/pepper_42/toolchain/linux_x86_newlib/bin/../lib/gcc/x86_64-nacl/4.4.3/../../../../x86_64-nacl/lib/../lib32/libstdc++.a(pure.o)
 .text.__cxa_pure_virtual
                0x000000000004b8a0       0x60 /home/berkeley/nacl_sdk/pepper_42/toolchain/linux_x86_newlib/bin/../lib/gcc/x86_64-nacl/4.4.3/../../../../x86_64-nacl/lib/../lib32/libstdc++.a(pure.o)
                0x000000000004b8a0                __cxa_pure_virtual
 .text          0x000000000004b900        0x0 /home/berkeley/nacl_sdk/pepper_42/toolchain/linux_x86_newlib/bin/../lib/gcc/x86_64-nacl/4.4.3/../../../../x86_64-nacl/lib/../lib32/libstdc++.a(new_op.o)
 .text._Znwj    0x000000000004b900      0x100 /home/berkeley/nacl_sdk/pepper_42/toolchain/linux_x86_newlib/bin/../lib/gcc/x86_64-nacl/4.4.3/../../../../x86_64-nacl/lib/../lib32/libstdc++.a(new_op.o)
                0x000000000004b900                _Znwj
 .text          0x000000000004ba00        0x0 /home/berkeley/nacl_sdk/pepper_42/toolchain/linux_x86_newlib/bin/../lib/gcc/x86_64-nacl/4.4.3/../../../../x86_64-nacl/lib/../lib32/libstdc++.a(tinfo.o)
 .text._ZNSt9type_infoD2Ev
                0x000000000004ba00       0x20 /home/berkeley/nacl_sdk/pepper_42/toolchain/linux_x86_newlib/bin/../lib/gcc/x86_64-nacl/4.4.3/../../../../x86_64-nacl/lib/../lib32/libstdc++.a(tinfo.o)
                0x000000000004ba00                _ZNSt9type_infoD2Ev
 .text._ZNSt9type_infoD1Ev
                0x000000000004ba20       0x20 /home/berkeley/nacl_sdk/pepper_42/toolchain/linux_x86_newlib/bin/../lib/gcc/x86_64-nacl/4.4.3/../../../../x86_64-nacl/lib/../lib32/libstdc++.a(tinfo.o)
                0x000000000004ba20                _ZNSt9type_infoD1Ev
 .text._ZNKSt9type_info14__is_pointer_pEv
                0x000000000004ba40       0x20 /home/berkeley/nacl_sdk/pepper_42/toolchain/linux_x86_newlib/bin/../lib/gcc/x86_64-nacl/4.4.3/../../../../x86_64-nacl/lib/../lib32/libstdc++.a(tinfo.o)
                0x000000000004ba40                _ZNKSt9type_info14__is_pointer_pEv
 .text._ZNKSt9type_info15__is_function_pEv
                0x000000000004ba60       0x20 /home/berkeley/nacl_sdk/pepper_42/toolchain/linux_x86_newlib/bin/../lib/gcc/x86_64-nacl/4.4.3/../../../../x86_64-nacl/lib/../lib32/libstdc++.a(tinfo.o)
                0x000000000004ba60                _ZNKSt9type_info15__is_function_pEv
 .text._ZNKSt9type_info10__do_catchEPKS_PPvj
                0x000000000004ba80       0x20 /home/berkeley/nacl_sdk/pepper_42/toolchain/linux_x86_newlib/bin/../lib/gcc/x86_64-nacl/4.4.3/../../../../x86_64-nacl/lib/../lib32/libstdc++.a(tinfo.o)
                0x000000000004ba80                _ZNKSt9type_info10__do_catchEPKS_PPvj
 .text._ZNKSt9type_info11__do_upcastEPKN10__cxxabiv117__class_type_infoEPPv
                0x000000000004baa0       0x20 /home/berkeley/nacl_sdk/pepper_42/toolchain/linux_x86_newlib/bin/../lib/gcc/x86_64-nacl/4.4.3/../../../../x86_64-nacl/lib/../lib32/libstdc++.a(tinfo.o)
                0x000000000004baa0                _ZNKSt9type_info11__do_upcastEPKN10__cxxabiv117__class_type_infoEPPv
 .text._ZNSt9type_infoD0Ev
                0x000000000004bac0       0x20 /home/berkeley/nacl_sdk/pepper_42/toolchain/linux_x86_newlib/bin/../lib/gcc/x86_64-nacl/4.4.3/../../../../x86_64-nacl/lib/../lib32/libstdc++.a(tinfo.o)
                0x000000000004bac0                _ZNSt9type_infoD0Ev
 .text          0x000000000004bae0        0x0 /home/berkeley/nacl_sdk/pepper_42/toolchain/linux_x86_newlib/bin/../lib/gcc/x86_64-nacl/4.4.3/../../../../x86_64-nacl/lib/../lib32/libstdc++.a(functexcept.o)
 .text._ZSt18__throw_bad_typeidv
                0x000000000004bae0       0x40 /home/berkeley/nacl_sdk/pepper_42/toolchain/linux_x86_newlib/bin/../lib/gcc/x86_64-nacl/4.4.3/../../../../x86_64-nacl/lib/../lib32/libstdc++.a(functexcept.o)
                0x000000000004bae0                _ZSt18__throw_bad_typeidv
 .text._ZSt16__throw_bad_castv
                0x000000000004bb20       0x40 /home/berkeley/nacl_sdk/pepper_42/toolchain/linux_x86_newlib/bin/../lib/gcc/x86_64-nacl/4.4.3/../../../../x86_64-nacl/lib/../lib32/libstdc++.a(functexcept.o)
                0x000000000004bb20                _ZSt16__throw_bad_castv
 .text._ZSt17__throw_bad_allocv
                0x000000000004bb60       0x40 /home/berkeley/nacl_sdk/pepper_42/toolchain/linux_x86_newlib/bin/../lib/gcc/x86_64-nacl/4.4.3/../../../../x86_64-nacl/lib/../lib32/libstdc++.a(functexcept.o)
                0x000000000004bb60                _ZSt17__throw_bad_allocv
 .text._ZSt21__throw_bad_exceptionv
                0x000000000004bba0       0x40 /home/berkeley/nacl_sdk/pepper_42/toolchain/linux_x86_newlib/bin/../lib/gcc/x86_64-nacl/4.4.3/../../../../x86_64-nacl/lib/../lib32/libstdc++.a(functexcept.o)
                0x000000000004bba0                _ZSt21__throw_bad_exceptionv
 .text._ZNSt15underflow_errorD1Ev
                0x000000000004bbe0       0x20 /home/berkeley/nacl_sdk/pepper_42/toolchain/linux_x86_newlib/bin/../lib/gcc/x86_64-nacl/4.4.3/../../../../x86_64-nacl/lib/../lib32/libstdc++.a(functexcept.o)
                0x000000000004bbe0                _ZNSt15underflow_errorD1Ev
 .text._ZNSt14overflow_errorD1Ev
                0x000000000004bc00       0x20 /home/berkeley/nacl_sdk/pepper_42/toolchain/linux_x86_newlib/bin/../lib/gcc/x86_64-nacl/4.4.3/../../../../x86_64-nacl/lib/../lib32/libstdc++.a(functexcept.o)
                0x000000000004bc00                _ZNSt14overflow_errorD1Ev
 .text._ZNSt11range_errorD1Ev
                0x000000000004bc20       0x20 /home/berkeley/nacl_sdk/pepper_42/toolchain/linux_x86_newlib/bin/../lib/gcc/x86_64-nacl/4.4.3/../../../../x86_64-nacl/lib/../lib32/libstdc++.a(functexcept.o)
                0x000000000004bc20                _ZNSt11range_errorD1Ev
 .text._ZNSt15underflow_errorD0Ev
                0x000000000004bc40       0x40 /home/berkeley/nacl_sdk/pepper_42/toolchain/linux_x86_newlib/bin/../lib/gcc/x86_64-nacl/4.4.3/../../../../x86_64-nacl/lib/../lib32/libstdc++.a(functexcept.o)
                0x000000000004bc40                _ZNSt15underflow_errorD0Ev
 .text._ZNSt14overflow_errorD0Ev
                0x000000000004bc80       0x40 /home/berkeley/nacl_sdk/pepper_42/toolchain/linux_x86_newlib/bin/../lib/gcc/x86_64-nacl/4.4.3/../../../../x86_64-nacl/lib/../lib32/libstdc++.a(functexcept.o)
                0x000000000004bc80                _ZNSt14overflow_errorD0Ev
 .text._ZNSt11range_errorD0Ev
                0x000000000004bcc0       0x40 /home/berkeley/nacl_sdk/pepper_42/toolchain/linux_x86_newlib/bin/../lib/gcc/x86_64-nacl/4.4.3/../../../../x86_64-nacl/lib/../lib32/libstdc++.a(functexcept.o)
                0x000000000004bcc0                _ZNSt11range_errorD0Ev
 .text._ZNSt12out_of_rangeD1Ev
                0x000000000004bd00       0x20 /home/berkeley/nacl_sdk/pepper_42/toolchain/linux_x86_newlib/bin/../lib/gcc/x86_64-nacl/4.4.3/../../../../x86_64-nacl/lib/../lib32/libstdc++.a(functexcept.o)
                0x000000000004bd00                _ZNSt12out_of_rangeD1Ev
 .text._ZNSt12out_of_rangeD0Ev
                0x000000000004bd20       0x40 /home/berkeley/nacl_sdk/pepper_42/toolchain/linux_x86_newlib/bin/../lib/gcc/x86_64-nacl/4.4.3/../../../../x86_64-nacl/lib/../lib32/libstdc++.a(functexcept.o)
                0x000000000004bd20                _ZNSt12out_of_rangeD0Ev
 .text._ZNSt12length_errorD1Ev
                0x000000000004bd60       0x20 /home/berkeley/nacl_sdk/pepper_42/toolchain/linux_x86_newlib/bin/../lib/gcc/x86_64-nacl/4.4.3/../../../../x86_64-nacl/lib/../lib32/libstdc++.a(functexcept.o)
                0x000000000004bd60                _ZNSt12length_errorD1Ev
 .text._ZNSt12length_errorD0Ev
                0x000000000004bd80       0x40 /home/berkeley/nacl_sdk/pepper_42/toolchain/linux_x86_newlib/bin/../lib/gcc/x86_64-nacl/4.4.3/../../../../x86_64-nacl/lib/../lib32/libstdc++.a(functexcept.o)
                0x000000000004bd80                _ZNSt12length_errorD0Ev
 .text._ZNSt16invalid_argumentD1Ev
                0x000000000004bdc0       0x20 /home/berkeley/nacl_sdk/pepper_42/toolchain/linux_x86_newlib/bin/../lib/gcc/x86_64-nacl/4.4.3/../../../../x86_64-nacl/lib/../lib32/libstdc++.a(functexcept.o)
                0x000000000004bdc0                _ZNSt16invalid_argumentD1Ev
 .text._ZNSt16invalid_argumentD0Ev
                0x000000000004bde0       0x40 /home/berkeley/nacl_sdk/pepper_42/toolchain/linux_x86_newlib/bin/../lib/gcc/x86_64-nacl/4.4.3/../../../../x86_64-nacl/lib/../lib32/libstdc++.a(functexcept.o)
                0x000000000004bde0                _ZNSt16invalid_argumentD0Ev
 .text._ZNSt12domain_errorD1Ev
                0x000000000004be20       0x20 /home/berkeley/nacl_sdk/pepper_42/toolchain/linux_x86_newlib/bin/../lib/gcc/x86_64-nacl/4.4.3/../../../../x86_64-nacl/lib/../lib32/libstdc++.a(functexcept.o)
                0x000000000004be20                _ZNSt12domain_errorD1Ev
 .text._ZNSt12domain_errorD0Ev
                0x000000000004be40       0x40 /home/berkeley/nacl_sdk/pepper_42/toolchain/linux_x86_newlib/bin/../lib/gcc/x86_64-nacl/4.4.3/../../../../x86_64-nacl/lib/../lib32/libstdc++.a(functexcept.o)
                0x000000000004be40                _ZNSt12domain_errorD0Ev
 .text._ZSt20__throw_system_errori
                0x000000000004be80      0x1e0 /home/berkeley/nacl_sdk/pepper_42/toolchain/linux_x86_newlib/bin/../lib/gcc/x86_64-nacl/4.4.3/../../../../x86_64-nacl/lib/../lib32/libstdc++.a(functexcept.o)
                0x000000000004be80                _ZSt20__throw_system_errori
 .text._ZSt19__throw_ios_failurePKc
                0x000000000004c060      0x160 /home/berkeley/nacl_sdk/pepper_42/toolchain/linux_x86_newlib/bin/../lib/gcc/x86_64-nacl/4.4.3/../../../../x86_64-nacl/lib/../lib32/libstdc++.a(functexcept.o)
                0x000000000004c060                _ZSt19__throw_ios_failurePKc
 .text._ZSt23__throw_underflow_errorPKc
                0x000000000004c1c0      0x1e0 /home/berkeley/nacl_sdk/pepper_42/toolchain/linux_x86_newlib/bin/../lib/gcc/x86_64-nacl/4.4.3/../../../../x86_64-nacl/lib/../lib32/libstdc++.a(functexcept.o)
                0x000000000004c1c0                _ZSt23__throw_underflow_errorPKc
 .text._ZSt22__throw_overflow_errorPKc
                0x000000000004c3a0      0x1e0 /home/berkeley/nacl_sdk/pepper_42/toolchain/linux_x86_newlib/bin/../lib/gcc/x86_64-nacl/4.4.3/../../../../x86_64-nacl/lib/../lib32/libstdc++.a(functexcept.o)
                0x000000000004c3a0                _ZSt22__throw_overflow_errorPKc
 .text._ZSt19__throw_range_errorPKc
                0x000000000004c580      0x1e0 /home/berkeley/nacl_sdk/pepper_42/toolchain/linux_x86_newlib/bin/../lib/gcc/x86_64-nacl/4.4.3/../../../../x86_64-nacl/lib/../lib32/libstdc++.a(functexcept.o)
                0x000000000004c580                _ZSt19__throw_range_errorPKc
 .text._ZSt21__throw_runtime_errorPKc
                0x000000000004c760      0x1e0 /home/berkeley/nacl_sdk/pepper_42/toolchain/linux_x86_newlib/bin/../lib/gcc/x86_64-nacl/4.4.3/../../../../x86_64-nacl/lib/../lib32/libstdc++.a(functexcept.o)
                0x000000000004c760                _ZSt21__throw_runtime_errorPKc
 .text._ZSt20__throw_out_of_rangePKc
                0x000000000004c940      0x1e0 /home/berkeley/nacl_sdk/pepper_42/toolchain/linux_x86_newlib/bin/../lib/gcc/x86_64-nacl/4.4.3/../../../../x86_64-nacl/lib/../lib32/libstdc++.a(functexcept.o)
                0x000000000004c940                _ZSt20__throw_out_of_rangePKc
 .text._ZSt20__throw_length_errorPKc
                0x000000000004cb20      0x1e0 /home/berkeley/nacl_sdk/pepper_42/toolchain/linux_x86_newlib/bin/../lib/gcc/x86_64-nacl/4.4.3/../../../../x86_64-nacl/lib/../lib32/libstdc++.a(functexcept.o)
                0x000000000004cb20                _ZSt20__throw_length_errorPKc
 .text._ZSt24__throw_invalid_argumentPKc
                0x000000000004cd00      0x1e0 /home/berkeley/nacl_sdk/pepper_42/toolchain/linux_x86_newlib/bin/../lib/gcc/x86_64-nacl/4.4.3/../../../../x86_64-nacl/lib/../lib32/libstdc++.a(functexcept.o)
                0x000000000004cd00                _ZSt24__throw_invalid_argumentPKc
 .text._ZSt20__throw_domain_errorPKc
                0x000000000004cee0      0x1e0 /home/berkeley/nacl_sdk/pepper_42/toolchain/linux_x86_newlib/bin/../lib/gcc/x86_64-nacl/4.4.3/../../../../x86_64-nacl/lib/../lib32/libstdc++.a(functexcept.o)
                0x000000000004cee0                _ZSt20__throw_domain_errorPKc
 .text._ZSt19__throw_logic_errorPKc
                0x000000000004d0c0      0x1e0 /home/berkeley/nacl_sdk/pepper_42/toolchain/linux_x86_newlib/bin/../lib/gcc/x86_64-nacl/4.4.3/../../../../x86_64-nacl/lib/../lib32/libstdc++.a(functexcept.o)
                0x000000000004d0c0                _ZSt19__throw_logic_errorPKc
 .text          0x000000000004d2a0        0x0 /home/berkeley/nacl_sdk/pepper_42/toolchain/linux_x86_newlib/bin/../lib/gcc/x86_64-nacl/4.4.3/../../../../x86_64-nacl/lib/../lib32/libstdc++.a(ios_failure.o)
 .text._ZNKSt8ios_base7failure4whatEv
                0x000000000004d2a0       0x20 /home/berkeley/nacl_sdk/pepper_42/toolchain/linux_x86_newlib/bin/../lib/gcc/x86_64-nacl/4.4.3/../../../../x86_64-nacl/lib/../lib32/libstdc++.a(ios_failure.o)
                0x000000000004d2a0                _ZNKSt8ios_base7failure4whatEv
 .text._ZNSt8ios_base7failureC1ERKSs
                0x000000000004d2c0       0xc0 /home/berkeley/nacl_sdk/pepper_42/toolchain/linux_x86_newlib/bin/../lib/gcc/x86_64-nacl/4.4.3/../../../../x86_64-nacl/lib/../lib32/libstdc++.a(ios_failure.o)
                0x000000000004d2c0                _ZNSt8ios_base7failureC1ERKSs
 .text._ZNSt8ios_base7failureC2ERKSs
                0x000000000004d380       0xc0 /home/berkeley/nacl_sdk/pepper_42/toolchain/linux_x86_newlib/bin/../lib/gcc/x86_64-nacl/4.4.3/../../../../x86_64-nacl/lib/../lib32/libstdc++.a(ios_failure.o)
                0x000000000004d380                _ZNSt8ios_base7failureC2ERKSs
 .text._ZNSt8ios_base7failureD0Ev
                0x000000000004d440      0x120 /home/berkeley/nacl_sdk/pepper_42/toolchain/linux_x86_newlib/bin/../lib/gcc/x86_64-nacl/4.4.3/../../../../x86_64-nacl/lib/../lib32/libstdc++.a(ios_failure.o)
                0x000000000004d440                _ZNSt8ios_base7failureD0Ev
 .text._ZNSt8ios_base7failureD1Ev
                0x000000000004d560      0x100 /home/berkeley/nacl_sdk/pepper_42/toolchain/linux_x86_newlib/bin/../lib/gcc/x86_64-nacl/4.4.3/../../../../x86_64-nacl/lib/../lib32/libstdc++.a(ios_failure.o)
                0x000000000004d560                _ZNSt8ios_base7failureD1Ev
 .text._ZNSt8ios_base7failureD2Ev
                0x000000000004d660      0x100 /home/berkeley/nacl_sdk/pepper_42/toolchain/linux_x86_newlib/bin/../lib/gcc/x86_64-nacl/4.4.3/../../../../x86_64-nacl/lib/../lib32/libstdc++.a(ios_failure.o)
                0x000000000004d660                _ZNSt8ios_base7failureD2Ev
 .text          0x000000000004d760        0x0 /home/berkeley/nacl_sdk/pepper_42/toolchain/linux_x86_newlib/bin/../lib/gcc/x86_64-nacl/4.4.3/../../../../x86_64-nacl/lib/../lib32/libstdc++.a(stdexcept.o)
 .text._ZNKSt11logic_error4whatEv
                0x000000000004d760       0x20 /home/berkeley/nacl_sdk/pepper_42/toolchain/linux_x86_newlib/bin/../lib/gcc/x86_64-nacl/4.4.3/../../../../x86_64-nacl/lib/../lib32/libstdc++.a(stdexcept.o)
                0x000000000004d760                _ZNKSt11logic_error4whatEv
 .text._ZNKSt13runtime_error4whatEv
                0x000000000004d780       0x20 /home/berkeley/nacl_sdk/pepper_42/toolchain/linux_x86_newlib/bin/../lib/gcc/x86_64-nacl/4.4.3/../../../../x86_64-nacl/lib/../lib32/libstdc++.a(stdexcept.o)
                0x000000000004d780                _ZNKSt13runtime_error4whatEv
 .text._ZNSt13runtime_errorC1ERKSs
                0x000000000004d7a0       0xa0 /home/berkeley/nacl_sdk/pepper_42/toolchain/linux_x86_newlib/bin/../lib/gcc/x86_64-nacl/4.4.3/../../../../x86_64-nacl/lib/../lib32/libstdc++.a(stdexcept.o)
                0x000000000004d7a0                _ZNSt13runtime_errorC1ERKSs
 .text._ZNSt13runtime_errorC2ERKSs
                0x000000000004d840       0xa0 /home/berkeley/nacl_sdk/pepper_42/toolchain/linux_x86_newlib/bin/../lib/gcc/x86_64-nacl/4.4.3/../../../../x86_64-nacl/lib/../lib32/libstdc++.a(stdexcept.o)
                0x000000000004d840                _ZNSt13runtime_errorC2ERKSs
 .text._ZNSt15underflow_errorC1ERKSs
                0x000000000004d8e0       0x40 /home/berkeley/nacl_sdk/pepper_42/toolchain/linux_x86_newlib/bin/../lib/gcc/x86_64-nacl/4.4.3/../../../../x86_64-nacl/lib/../lib32/libstdc++.a(stdexcept.o)
                0x000000000004d8e0                _ZNSt15underflow_errorC1ERKSs
 .text._ZNSt15underflow_errorC2ERKSs
                0x000000000004d920       0x40 /home/berkeley/nacl_sdk/pepper_42/toolchain/linux_x86_newlib/bin/../lib/gcc/x86_64-nacl/4.4.3/../../../../x86_64-nacl/lib/../lib32/libstdc++.a(stdexcept.o)
                0x000000000004d920                _ZNSt15underflow_errorC2ERKSs
 .text._ZNSt14overflow_errorC1ERKSs
                0x000000000004d960       0x40 /home/berkeley/nacl_sdk/pepper_42/toolchain/linux_x86_newlib/bin/../lib/gcc/x86_64-nacl/4.4.3/../../../../x86_64-nacl/lib/../lib32/libstdc++.a(stdexcept.o)
                0x000000000004d960                _ZNSt14overflow_errorC1ERKSs
 .text._ZNSt14overflow_errorC2ERKSs
                0x000000000004d9a0       0x40 /home/berkeley/nacl_sdk/pepper_42/toolchain/linux_x86_newlib/bin/../lib/gcc/x86_64-nacl/4.4.3/../../../../x86_64-nacl/lib/../lib32/libstdc++.a(stdexcept.o)
                0x000000000004d9a0                _ZNSt14overflow_errorC2ERKSs
 .text._ZNSt11range_errorC1ERKSs
                0x000000000004d9e0       0x40 /home/berkeley/nacl_sdk/pepper_42/toolchain/linux_x86_newlib/bin/../lib/gcc/x86_64-nacl/4.4.3/../../../../x86_64-nacl/lib/../lib32/libstdc++.a(stdexcept.o)
                0x000000000004d9e0                _ZNSt11range_errorC1ERKSs
 .text._ZNSt11range_errorC2ERKSs
                0x000000000004da20       0x40 /home/berkeley/nacl_sdk/pepper_42/toolchain/linux_x86_newlib/bin/../lib/gcc/x86_64-nacl/4.4.3/../../../../x86_64-nacl/lib/../lib32/libstdc++.a(stdexcept.o)
                0x000000000004da20                _ZNSt11range_errorC2ERKSs
 .text._ZNSt11logic_errorC1ERKSs
                0x000000000004da60       0xa0 /home/berkeley/nacl_sdk/pepper_42/toolchain/linux_x86_newlib/bin/../lib/gcc/x86_64-nacl/4.4.3/../../../../x86_64-nacl/lib/../lib32/libstdc++.a(stdexcept.o)
                0x000000000004da60                _ZNSt11logic_errorC1ERKSs
 .text._ZNSt11logic_errorC2ERKSs
                0x000000000004db00       0xa0 /home/berkeley/nacl_sdk/pepper_42/toolchain/linux_x86_newlib/bin/../lib/gcc/x86_64-nacl/4.4.3/../../../../x86_64-nacl/lib/../lib32/libstdc++.a(stdexcept.o)
                0x000000000004db00                _ZNSt11logic_errorC2ERKSs
 .text._ZNSt12out_of_rangeC1ERKSs
                0x000000000004dba0       0x40 /home/berkeley/nacl_sdk/pepper_42/toolchain/linux_x86_newlib/bin/../lib/gcc/x86_64-nacl/4.4.3/../../../../x86_64-nacl/lib/../lib32/libstdc++.a(stdexcept.o)
                0x000000000004dba0                _ZNSt12out_of_rangeC1ERKSs
 .text._ZNSt12out_of_rangeC2ERKSs
                0x000000000004dbe0       0x40 /home/berkeley/nacl_sdk/pepper_42/toolchain/linux_x86_newlib/bin/../lib/gcc/x86_64-nacl/4.4.3/../../../../x86_64-nacl/lib/../lib32/libstdc++.a(stdexcept.o)
                0x000000000004dbe0                _ZNSt12out_of_rangeC2ERKSs
 .text._ZNSt12length_errorC1ERKSs
                0x000000000004dc20       0x40 /home/berkeley/nacl_sdk/pepper_42/toolchain/linux_x86_newlib/bin/../lib/gcc/x86_64-nacl/4.4.3/../../../../x86_64-nacl/lib/../lib32/libstdc++.a(stdexcept.o)
                0x000000000004dc20                _ZNSt12length_errorC1ERKSs
 .text._ZNSt12length_errorC2ERKSs
                0x000000000004dc60       0x40 /home/berkeley/nacl_sdk/pepper_42/toolchain/linux_x86_newlib/bin/../lib/gcc/x86_64-nacl/4.4.3/../../../../x86_64-nacl/lib/../lib32/libstdc++.a(stdexcept.o)
                0x000000000004dc60                _ZNSt12length_errorC2ERKSs
 .text._ZNSt16invalid_argumentC1ERKSs
                0x000000000004dca0       0x40 /home/berkeley/nacl_sdk/pepper_42/toolchain/linux_x86_newlib/bin/../lib/gcc/x86_64-nacl/4.4.3/../../../../x86_64-nacl/lib/../lib32/libstdc++.a(stdexcept.o)
                0x000000000004dca0                _ZNSt16invalid_argumentC1ERKSs
 .text._ZNSt16invalid_argumentC2ERKSs
                0x000000000004dce0       0x40 /home/berkeley/nacl_sdk/pepper_42/toolchain/linux_x86_newlib/bin/../lib/gcc/x86_64-nacl/4.4.3/../../../../x86_64-nacl/lib/../lib32/libstdc++.a(stdexcept.o)
                0x000000000004dce0                _ZNSt16invalid_argumentC2ERKSs
 .text._ZNSt12domain_errorC1ERKSs
                0x000000000004dd20       0x40 /home/berkeley/nacl_sdk/pepper_42/toolchain/linux_x86_newlib/bin/../lib/gcc/x86_64-nacl/4.4.3/../../../../x86_64-nacl/lib/../lib32/libstdc++.a(stdexcept.o)
                0x000000000004dd20                _ZNSt12domain_errorC1ERKSs
 .text._ZNSt12domain_errorC2ERKSs
                0x000000000004dd60       0x40 /home/berkeley/nacl_sdk/pepper_42/toolchain/linux_x86_newlib/bin/../lib/gcc/x86_64-nacl/4.4.3/../../../../x86_64-nacl/lib/../lib32/libstdc++.a(stdexcept.o)
                0x000000000004dd60                _ZNSt12domain_errorC2ERKSs
 .text._ZNSt13runtime_errorD2Ev
                0x000000000004dda0      0x100 /home/berkeley/nacl_sdk/pepper_42/toolchain/linux_x86_newlib/bin/../lib/gcc/x86_64-nacl/4.4.3/../../../../x86_64-nacl/lib/../lib32/libstdc++.a(stdexcept.o)
                0x000000000004dda0                _ZNSt13runtime_errorD2Ev
 .text._ZNSt11logic_errorD1Ev
                0x000000000004dea0      0x100 /home/berkeley/nacl_sdk/pepper_42/toolchain/linux_x86_newlib/bin/../lib/gcc/x86_64-nacl/4.4.3/../../../../x86_64-nacl/lib/../lib32/libstdc++.a(stdexcept.o)
                0x000000000004dea0                _ZNSt11logic_errorD1Ev
 .text._ZNSt11logic_errorD2Ev
                0x000000000004dfa0      0x100 /home/berkeley/nacl_sdk/pepper_42/toolchain/linux_x86_newlib/bin/../lib/gcc/x86_64-nacl/4.4.3/../../../../x86_64-nacl/lib/../lib32/libstdc++.a(stdexcept.o)
                0x000000000004dfa0                _ZNSt11logic_errorD2Ev
 .text._ZNSt13runtime_errorD0Ev
                0x000000000004e0a0      0x120 /home/berkeley/nacl_sdk/pepper_42/toolchain/linux_x86_newlib/bin/../lib/gcc/x86_64-nacl/4.4.3/../../../../x86_64-nacl/lib/../lib32/libstdc++.a(stdexcept.o)
                0x000000000004e0a0                _ZNSt13runtime_errorD0Ev
 .text._ZNSt13runtime_errorD1Ev
                0x000000000004e1c0      0x100 /home/berkeley/nacl_sdk/pepper_42/toolchain/linux_x86_newlib/bin/../lib/gcc/x86_64-nacl/4.4.3/../../../../x86_64-nacl/lib/../lib32/libstdc++.a(stdexcept.o)
                0x000000000004e1c0                _ZNSt13runtime_errorD1Ev
 .text._ZNSt11logic_errorD0Ev
                0x000000000004e2c0      0x120 /home/berkeley/nacl_sdk/pepper_42/toolchain/linux_x86_newlib/bin/../lib/gcc/x86_64-nacl/4.4.3/../../../../x86_64-nacl/lib/../lib32/libstdc++.a(stdexcept.o)
                0x000000000004e2c0                _ZNSt11logic_errorD0Ev
 .text          0x000000000004e3e0        0x0 /home/berkeley/nacl_sdk/pepper_42/toolchain/linux_x86_newlib/bin/../lib/gcc/x86_64-nacl/4.4.3/../../../../x86_64-nacl/lib/../lib32/libstdc++.a(system_error.o)
 .text._ZNSt14error_categoryD1Ev
                0x000000000004e3e0       0x20 /home/berkeley/nacl_sdk/pepper_42/toolchain/linux_x86_newlib/bin/../lib/gcc/x86_64-nacl/4.4.3/../../../../x86_64-nacl/lib/../lib32/libstdc++.a(system_error.o)
                0x000000000004e3e0                _ZNSt14error_categoryD1Ev
 .text._ZNK12_GLOBAL__N_122generic_error_category4nameEv
                0x000000000004e400       0x20 /home/berkeley/nacl_sdk/pepper_42/toolchain/linux_x86_newlib/bin/../lib/gcc/x86_64-nacl/4.4.3/../../../../x86_64-nacl/lib/../lib32/libstdc++.a(system_error.o)
 .text._ZNK12_GLOBAL__N_121system_error_category4nameEv
                0x000000000004e420       0x20 /home/berkeley/nacl_sdk/pepper_42/toolchain/linux_x86_newlib/bin/../lib/gcc/x86_64-nacl/4.4.3/../../../../x86_64-nacl/lib/../lib32/libstdc++.a(system_error.o)
 .text._ZSt15system_categoryv
                0x000000000004e440       0x20 /home/berkeley/nacl_sdk/pepper_42/toolchain/linux_x86_newlib/bin/../lib/gcc/x86_64-nacl/4.4.3/../../../../x86_64-nacl/lib/../lib32/libstdc++.a(system_error.o)
                0x000000000004e440                _ZSt15system_categoryv
 .text._ZSt16generic_categoryv
                0x000000000004e460       0x20 /home/berkeley/nacl_sdk/pepper_42/toolchain/linux_x86_newlib/bin/../lib/gcc/x86_64-nacl/4.4.3/../../../../x86_64-nacl/lib/../lib32/libstdc++.a(system_error.o)
                0x000000000004e460                _ZSt16generic_categoryv
 .text._ZNKSt14error_category23default_error_conditionEi
                0x000000000004e480       0x20 /home/berkeley/nacl_sdk/pepper_42/toolchain/linux_x86_newlib/bin/../lib/gcc/x86_64-nacl/4.4.3/../../../../x86_64-nacl/lib/../lib32/libstdc++.a(system_error.o)
                0x000000000004e480                _ZNKSt14error_category23default_error_conditionEi
 .text._ZNKSt14error_category10equivalentEiRKSt15error_condition
                0x000000000004e4a0       0x80 /home/berkeley/nacl_sdk/pepper_42/toolchain/linux_x86_newlib/bin/../lib/gcc/x86_64-nacl/4.4.3/../../../../x86_64-nacl/lib/../lib32/libstdc++.a(system_error.o)
                0x000000000004e4a0                _ZNKSt14error_category10equivalentEiRKSt15error_condition
 .text._ZNKSt14error_category10equivalentERKSt10error_codei
                0x000000000004e520       0x40 /home/berkeley/nacl_sdk/pepper_42/toolchain/linux_x86_newlib/bin/../lib/gcc/x86_64-nacl/4.4.3/../../../../x86_64-nacl/lib/../lib32/libstdc++.a(system_error.o)
                0x000000000004e520                _ZNKSt14error_category10equivalentERKSt10error_codei
 .text._ZNKSt10error_code23default_error_conditionEv
                0x000000000004e560       0x60 /home/berkeley/nacl_sdk/pepper_42/toolchain/linux_x86_newlib/bin/../lib/gcc/x86_64-nacl/4.4.3/../../../../x86_64-nacl/lib/../lib32/libstdc++.a(system_error.o)
                0x000000000004e560                _ZNKSt10error_code23default_error_conditionEv
 .text._ZN12_GLOBAL__N_122generic_error_categoryD1Ev
                0x000000000004e5c0       0x20 /home/berkeley/nacl_sdk/pepper_42/toolchain/linux_x86_newlib/bin/../lib/gcc/x86_64-nacl/4.4.3/../../../../x86_64-nacl/lib/../lib32/libstdc++.a(system_error.o)
 .text._ZN12_GLOBAL__N_121system_error_categoryD1Ev
                0x000000000004e5e0       0x20 /home/berkeley/nacl_sdk/pepper_42/toolchain/linux_x86_newlib/bin/../lib/gcc/x86_64-nacl/4.4.3/../../../../x86_64-nacl/lib/../lib32/libstdc++.a(system_error.o)
 .text._ZNSt14error_categoryD0Ev
                0x000000000004e600       0x20 /home/berkeley/nacl_sdk/pepper_42/toolchain/linux_x86_newlib/bin/../lib/gcc/x86_64-nacl/4.4.3/../../../../x86_64-nacl/lib/../lib32/libstdc++.a(system_error.o)
                0x000000000004e600                _ZNSt14error_categoryD0Ev
 .text._ZN12_GLOBAL__N_122generic_error_categoryD0Ev
                0x000000000004e620       0x20 /home/berkeley/nacl_sdk/pepper_42/toolchain/linux_x86_newlib/bin/../lib/gcc/x86_64-nacl/4.4.3/../../../../x86_64-nacl/lib/../lib32/libstdc++.a(system_error.o)
 .text._ZN12_GLOBAL__N_121system_error_categoryD0Ev
                0x000000000004e640       0x20 /home/berkeley/nacl_sdk/pepper_42/toolchain/linux_x86_newlib/bin/../lib/gcc/x86_64-nacl/4.4.3/../../../../x86_64-nacl/lib/../lib32/libstdc++.a(system_error.o)
 .text._GLOBAL__I__ZSt15system_categoryv
                0x000000000004e660       0xa0 /home/berkeley/nacl_sdk/pepper_42/toolchain/linux_x86_newlib/bin/../lib/gcc/x86_64-nacl/4.4.3/../../../../x86_64-nacl/lib/../lib32/libstdc++.a(system_error.o)
 .text._ZNK12_GLOBAL__N_122generic_error_category7messageEi
                0x000000000004e700       0x80 /home/berkeley/nacl_sdk/pepper_42/toolchain/linux_x86_newlib/bin/../lib/gcc/x86_64-nacl/4.4.3/../../../../x86_64-nacl/lib/../lib32/libstdc++.a(system_error.o)
 .text._ZNK12_GLOBAL__N_121system_error_category7messageEi
                0x000000000004e780       0x80 /home/berkeley/nacl_sdk/pepper_42/toolchain/linux_x86_newlib/bin/../lib/gcc/x86_64-nacl/4.4.3/../../../../x86_64-nacl/lib/../lib32/libstdc++.a(system_error.o)
 .text._ZNSt12system_errorD0Ev
                0x000000000004e800       0x40 /home/berkeley/nacl_sdk/pepper_42/toolchain/linux_x86_newlib/bin/../lib/gcc/x86_64-nacl/4.4.3/../../../../x86_64-nacl/lib/../lib32/libstdc++.a(system_error.o)
                0x000000000004e800                _ZNSt12system_errorD0Ev
 .text._ZNSt12system_errorD1Ev
                0x000000000004e840       0x20 /home/berkeley/nacl_sdk/pepper_42/toolchain/linux_x86_newlib/bin/../lib/gcc/x86_64-nacl/4.4.3/../../../../x86_64-nacl/lib/../lib32/libstdc++.a(system_error.o)
                0x000000000004e840                _ZNSt12system_errorD1Ev
 .text._ZNSt12system_errorD2Ev
                0x000000000004e860       0x20 /home/berkeley/nacl_sdk/pepper_42/toolchain/linux_x86_newlib/bin/../lib/gcc/x86_64-nacl/4.4.3/../../../../x86_64-nacl/lib/../lib32/libstdc++.a(system_error.o)
                0x000000000004e860                _ZNSt12system_errorD2Ev
 .text          0x000000000004e880        0x0 /home/berkeley/nacl_sdk/pepper_42/toolchain/linux_x86_newlib/bin/../lib/gcc/x86_64-nacl/4.4.3/../../../../x86_64-nacl/lib/../lib32/libstdc++.a(eh_unex_handler.o)
 .text          0x000000000004e880        0x0 /home/berkeley/nacl_sdk/pepper_42/toolchain/linux_x86_newlib/bin/../lib/gcc/x86_64-nacl/4.4.3/../../../../x86_64-nacl/lib/../lib32/libstdc++.a(eh_term_handler.o)
 .text          0x000000000004e880        0x0 /home/berkeley/nacl_sdk/pepper_42/toolchain/linux_x86_newlib/bin/../lib/gcc/x86_64-nacl/4.4.3/../../../../x86_64-nacl/lib/../lib32/libstdc++.a(bad_typeid.o)
 .text._ZNKSt10bad_typeid4whatEv
                0x000000000004e880       0x20 /home/berkeley/nacl_sdk/pepper_42/toolchain/linux_x86_newlib/bin/../lib/gcc/x86_64-nacl/4.4.3/../../../../x86_64-nacl/lib/../lib32/libstdc++.a(bad_typeid.o)
                0x000000000004e880                _ZNKSt10bad_typeid4whatEv
 .text._ZNSt10bad_typeidD1Ev
                0x000000000004e8a0       0x20 /home/berkeley/nacl_sdk/pepper_42/toolchain/linux_x86_newlib/bin/../lib/gcc/x86_64-nacl/4.4.3/../../../../x86_64-nacl/lib/../lib32/libstdc++.a(bad_typeid.o)
                0x000000000004e8a0                _ZNSt10bad_typeidD1Ev
 .text._ZNSt10bad_typeidD2Ev
                0x000000000004e8c0       0x20 /home/berkeley/nacl_sdk/pepper_42/toolchain/linux_x86_newlib/bin/../lib/gcc/x86_64-nacl/4.4.3/../../../../x86_64-nacl/lib/../lib32/libstdc++.a(bad_typeid.o)
                0x000000000004e8c0                _ZNSt10bad_typeidD2Ev
 .text._ZNSt10bad_typeidD0Ev
                0x000000000004e8e0       0x40 /home/berkeley/nacl_sdk/pepper_42/toolchain/linux_x86_newlib/bin/../lib/gcc/x86_64-nacl/4.4.3/../../../../x86_64-nacl/lib/../lib32/libstdc++.a(bad_typeid.o)
                0x000000000004e8e0                _ZNSt10bad_typeidD0Ev
 .text          0x000000000004e920        0x0 /home/berkeley/nacl_sdk/pepper_42/toolchain/linux_x86_newlib/bin/../lib/gcc/x86_64-nacl/4.4.3/../../../../x86_64-nacl/lib/../lib32/libstdc++.a(new_handler.o)
 .text._ZSt15set_new_handlerPFvvE
                0x000000000004e920       0x20 /home/berkeley/nacl_sdk/pepper_42/toolchain/linux_x86_newlib/bin/../lib/gcc/x86_64-nacl/4.4.3/../../../../x86_64-nacl/lib/../lib32/libstdc++.a(new_handler.o)
                0x000000000004e920                _ZSt15set_new_handlerPFvvE
 .text._ZNKSt9bad_alloc4whatEv
                0x000000000004e940       0x20 /home/berkeley/nacl_sdk/pepper_42/toolchain/linux_x86_newlib/bin/../lib/gcc/x86_64-nacl/4.4.3/../../../../x86_64-nacl/lib/../lib32/libstdc++.a(new_handler.o)
                0x000000000004e940                _ZNKSt9bad_alloc4whatEv
 .text._ZNSt9bad_allocD1Ev
                0x000000000004e960       0x20 /home/berkeley/nacl_sdk/pepper_42/toolchain/linux_x86_newlib/bin/../lib/gcc/x86_64-nacl/4.4.3/../../../../x86_64-nacl/lib/../lib32/libstdc++.a(new_handler.o)
                0x000000000004e960                _ZNSt9bad_allocD1Ev
 .text._ZNSt9bad_allocD2Ev
                0x000000000004e980       0x20 /home/berkeley/nacl_sdk/pepper_42/toolchain/linux_x86_newlib/bin/../lib/gcc/x86_64-nacl/4.4.3/../../../../x86_64-nacl/lib/../lib32/libstdc++.a(new_handler.o)
                0x000000000004e980                _ZNSt9bad_allocD2Ev
 .text._ZNSt9bad_allocD0Ev
                0x000000000004e9a0       0x40 /home/berkeley/nacl_sdk/pepper_42/toolchain/linux_x86_newlib/bin/../lib/gcc/x86_64-nacl/4.4.3/../../../../x86_64-nacl/lib/../lib32/libstdc++.a(new_handler.o)
                0x000000000004e9a0                _ZNSt9bad_allocD0Ev
 .text          0x000000000004e9e0        0x0 /home/berkeley/nacl_sdk/pepper_42/toolchain/linux_x86_newlib/bin/../lib/gcc/x86_64-nacl/4.4.3/../../../../x86_64-nacl/lib/../lib32/libstdc++.a(bad_cast.o)
 .text._ZNKSt8bad_cast4whatEv
                0x000000000004e9e0       0x20 /home/berkeley/nacl_sdk/pepper_42/toolchain/linux_x86_newlib/bin/../lib/gcc/x86_64-nacl/4.4.3/../../../../x86_64-nacl/lib/../lib32/libstdc++.a(bad_cast.o)
                0x000000000004e9e0                _ZNKSt8bad_cast4whatEv
 .text._ZNSt8bad_castD1Ev
                0x000000000004ea00       0x20 /home/berkeley/nacl_sdk/pepper_42/toolchain/linux_x86_newlib/bin/../lib/gcc/x86_64-nacl/4.4.3/../../../../x86_64-nacl/lib/../lib32/libstdc++.a(bad_cast.o)
                0x000000000004ea00                _ZNSt8bad_castD1Ev
 .text._ZNSt8bad_castD2Ev
                0x000000000004ea20       0x20 /home/berkeley/nacl_sdk/pepper_42/toolchain/linux_x86_newlib/bin/../lib/gcc/x86_64-nacl/4.4.3/../../../../x86_64-nacl/lib/../lib32/libstdc++.a(bad_cast.o)
                0x000000000004ea20                _ZNSt8bad_castD2Ev
 .text._ZNSt8bad_castD0Ev
                0x000000000004ea40       0x40 /home/berkeley/nacl_sdk/pepper_42/toolchain/linux_x86_newlib/bin/../lib/gcc/x86_64-nacl/4.4.3/../../../../x86_64-nacl/lib/../lib32/libstdc++.a(bad_cast.o)
                0x000000000004ea40                _ZNSt8bad_castD0Ev
 .text          0x000000000004ea80        0x0 /home/berkeley/nacl_sdk/pepper_42/toolchain/linux_x86_newlib/bin/../lib/gcc/x86_64-nacl/4.4.3/../../../../x86_64-nacl/lib/../lib32/libstdc++.a(vterminate.o)
 .text._ZN9__gnu_cxx27__verbose_terminate_handlerEv
                0x000000000004ea80      0x420 /home/berkeley/nacl_sdk/pepper_42/toolchain/linux_x86_newlib/bin/../lib/gcc/x86_64-nacl/4.4.3/../../../../x86_64-nacl/lib/../lib32/libstdc++.a(vterminate.o)
                0x000000000004ea80                _ZN9__gnu_cxx27__verbose_terminate_handlerEv
 .text          0x000000000004eea0     0x8340 /home/berkeley/nacl_sdk/pepper_42/toolchain/linux_x86_newlib/bin/../lib/gcc/x86_64-nacl/4.4.3/../../../../x86_64-nacl/lib/../lib32/libstdc++.a(cp-demangle.o)
                0x0000000000056700                __gcclibcxx_demangle_callback
                0x0000000000056780                __cxa_demangle
 .text          0x00000000000571e0        0x0 /home/berkeley/nacl_sdk/pepper_42/toolchain/linux_x86_newlib/bin/../lib/gcc/x86_64-nacl/4.4.3/../../../../x86_64-nacl/lib/../lib32/libstdc++.a(eh_type.o)
 .text.__cxa_current_exception_type
                0x00000000000571e0       0xa0 /home/berkeley/nacl_sdk/pepper_42/toolchain/linux_x86_newlib/bin/../lib/gcc/x86_64-nacl/4.4.3/../../../../x86_64-nacl/lib/../lib32/libstdc++.a(eh_type.o)
                0x00000000000571e0                __cxa_current_exception_type
 .text          0x0000000000057280     0x4920 /home/berkeley/nacl_sdk/pepper_42/toolchain/linux_x86_newlib/bin/../lib/gcc/x86_64-nacl/4.4.3/32/libgcc.a(unwind-dw2.o)
                0x0000000000057300                _Unwind_GetCFA
                0x0000000000057320                _Unwind_GetIP
                0x0000000000057340                _Unwind_GetIPInfo
                0x0000000000057360                _Unwind_SetIP
                0x0000000000057380                _Unwind_GetLanguageSpecificData
                0x00000000000573a0                _Unwind_GetRegionStart
                0x00000000000573c0                _Unwind_GetDataRelBase
                0x00000000000573e0                _Unwind_GetTextRelBase
                0x0000000000057400                _Unwind_DeleteException
                0x0000000000057440                _Unwind_SetGR
                0x0000000000057540                _Unwind_GetGR
                0x0000000000057780                _Unwind_FindEnclosingFunction
                0x000000000005af20                _Unwind_Backtrace
                0x000000000005b240                _Unwind_ForcedUnwind
                0x000000000005b4c0                _Unwind_Resume
                0x000000000005b640                __frame_state_for
                0x000000000005b7e0                _Unwind_RaiseException
                0x000000000005ba40                _Unwind_Resume_or_Rethrow
 .text.__i686.get_pc_thunk.cx
                0x000000000005bba0       0x20 /home/berkeley/nacl_sdk/pepper_42/toolchain/linux_x86_newlib/bin/../lib/gcc/x86_64-nacl/4.4.3/32/libgcc.a(unwind-dw2.o)
                0x000000000005bba0                __i686.get_pc_thunk.cx
 .text.__i686.get_pc_thunk.bx
                0x000000000005bbc0       0x20 /home/berkeley/nacl_sdk/pepper_42/toolchain/linux_x86_newlib/bin/../lib/gcc/x86_64-nacl/4.4.3/32/libgcc.a(unwind-dw2.o)
                0x000000000005bbc0                __i686.get_pc_thunk.bx
 .text          0x000000000005bbe0     0x2700 /home/berkeley/nacl_sdk/pepper_42/toolchain/linux_x86_newlib/bin/../lib/gcc/x86_64-nacl/4.4.3/32/libgcc.a(unwind-dw2-fde-glibc.o)
                0x000000000005d8a0                __deregister_frame_info_bases
                0x000000000005db00                __deregister_frame_info
                0x000000000005db60                __deregister_frame
                0x000000000005dbe0                __register_frame_info_table_bases
                0x000000000005dcc0                __register_frame_info_table
                0x000000000005dd40                __register_frame_table
                0x000000000005ddc0                _Unwind_Find_FDE
                0x000000000005e0e0                __register_frame_info_bases
                0x000000000005e1e0                __register_frame_info
                0x000000000005e260                __register_frame
 .text          0x000000000005e2e0       0x40 /home/berkeley/nacl_sdk/pepper_42/toolchain/linux_x86_newlib/bin/../lib/gcc/x86_64-nacl/4.4.3/../../../../x86_64-nacl/lib/../lib32/libnacl.a(_exit_710c7d0d.o)
                0x000000000005e2e0                _exit
 .text          0x000000000005e320       0x40 /home/berkeley/nacl_sdk/pepper_42/toolchain/linux_x86_newlib/bin/../lib/gcc/x86_64-nacl/4.4.3/../../../../x86_64-nacl/lib/../lib32/libnacl.a(abort_9f6b5845.o)
                0x000000000005e320                abort
 .text          0x000000000005e360        0x0 /home/berkeley/nacl_sdk/pepper_42/toolchain/linux_x86_newlib/bin/../lib/gcc/x86_64-nacl/4.4.3/../../../../x86_64-nacl/lib/../lib32/libnacl.a(environ_25cd24d8.o)
 .text          0x000000000005e360      0x120 /home/berkeley/nacl_sdk/pepper_42/toolchain/linux_x86_newlib/bin/../lib/gcc/x86_64-nacl/4.4.3/../../../../x86_64-nacl/lib/../lib32/libnacl.a(start_fa9ef7de.o)
                0x000000000005e360                _start
 .text          0x000000000005e480     0x6460 /home/berkeley/nacl_sdk/pepper_42/toolchain/linux_x86_newlib/bin/../lib/gcc/x86_64-nacl/4.4.3/../../../../x86_64-nacl/lib/../lib32/libnacl.a(malloc_222c4a1e.o)
                0x000000000005e480                malloc_footprint
                0x000000000005e4a0                malloc_max_footprint
                0x000000000005e4c0                malloc_footprint_limit
                0x000000000005e4e0                malloc_set_footprint_limit
                0x000000000005e520                malloc_usable_size
                0x000000000005e760                mallopt
                0x000000000005fca0                bulk_free
                0x000000000005fea0                malloc_trim
                0x000000000005ffc0                free
                0x0000000000060ba0                _free_r
                0x0000000000060bc0                mallinfo
                0x0000000000060f60                malloc_stats
                0x0000000000061280                malloc
                0x0000000000063320                _malloc_r
                0x0000000000063340                calloc
                0x0000000000063400                _calloc_r
                0x0000000000063a20                realloc
                0x0000000000063ca0                _realloc_r
                0x0000000000063cc0                realloc_in_place
                0x00000000000641a0                memalign
                0x00000000000641e0                pvalloc
                0x0000000000064240                valloc
                0x00000000000642a0                posix_memalign
                0x0000000000064860                independent_calloc
                0x00000000000648c0                independent_comalloc
 .text          0x00000000000648e0      0x340 /home/berkeley/nacl_sdk/pepper_42/toolchain/linux_x86_newlib/bin/../lib/gcc/x86_64-nacl/4.4.3/../../../../x86_64-nacl/lib/../lib32/libnacl.a(nacl_irt_6de1d53f.o)
                0x00000000000649e0                __libnacl_irt_init_fn
                0x0000000000064b20                __libnacl_irt_query
                0x0000000000064bc0                __libnacl_mandatory_irt_query
 .text          0x0000000000064c20      0x100 /home/berkeley/nacl_sdk/pepper_42/toolchain/linux_x86_newlib/bin/../lib/gcc/x86_64-nacl/4.4.3/../../../../x86_64-nacl/lib/../lib32/libnacl.a(pthread_initialize_minimal_4b6e776b.o)
                0x0000000000064c20                __pthread_initialize_minimal
 .text          0x0000000000064d20       0x20 /home/berkeley/nacl_sdk/pepper_42/toolchain/linux_x86_newlib/bin/../lib/gcc/x86_64-nacl/4.4.3/../../../../x86_64-nacl/lib/../lib32/libnacl.a(nacl_read_tp_5748ac47.o)
                0x0000000000064d20                __nacl_read_tp
 .text          0x0000000000064d40       0xc0 /home/berkeley/nacl_sdk/pepper_42/toolchain/linux_x86_newlib/bin/../lib/gcc/x86_64-nacl/4.4.3/../../../../x86_64-nacl/lib/../lib32/libnacl.a(mmap_767fb080.o)
                0x0000000000064d40                mmap
 .text          0x0000000000064e00       0xa0 /home/berkeley/nacl_sdk/pepper_42/toolchain/linux_x86_newlib/bin/../lib/gcc/x86_64-nacl/4.4.3/../../../../x86_64-nacl/lib/../lib32/libnacl.a(sched_yield_56c375be.o)
                0x0000000000064e00                sched_yield
 .text          0x0000000000064ea0       0xa0 /home/berkeley/nacl_sdk/pepper_42/toolchain/linux_x86_newlib/bin/../lib/gcc/x86_64-nacl/4.4.3/../../../../x86_64-nacl/lib/../lib32/libnacl.a(munmap_d4f09867.o)
                0x0000000000064ea0                munmap
 .text          0x0000000000064f40      0x2e0 /home/berkeley/nacl_sdk/pepper_42/toolchain/linux_x86_newlib/bin/../lib/gcc/x86_64-nacl/4.4.3/../../../../x86_64-nacl/lib/../lib32/libnacl.a(tls_bba1975b.o)
                0x0000000000065080                __nacl_tls_combined_size
                0x0000000000065100                __nacl_tls_initialize_memory
 .text          0x0000000000065220       0xc0 /home/berkeley/nacl_sdk/pepper_42/toolchain/linux_x86_newlib/bin/../lib/gcc/x86_64-nacl/4.4.3/../../../../x86_64-nacl/lib/../lib32/libnacl.a(write_fb49787f.o)
                0x0000000000065220                write
 .text          0x00000000000652e0       0x20 /home/berkeley/nacl_sdk/pepper_42/toolchain/linux_x86_newlib/bin/../lib/gcc/x86_64-nacl/4.4.3/../../../../x86_64-nacl/lib/../lib32/libnacl.a(nacl_tls_get_d2f842b5.o)
                0x00000000000652e0                nacl_tls_get
 .text          0x0000000000065300      0x260 /home/berkeley/nacl_sdk/pepper_42/toolchain/linux_x86_newlib/bin/../lib/gcc/x86_64-nacl/4.4.3/../../../../x86_64-nacl/lib/../lib32/libnacl.a(nacl_irt_init_7b4f826e.o)
                0x0000000000065320                __libnacl_irt_init
 .text          0x0000000000065560       0xa0 /home/berkeley/nacl_sdk/pepper_42/toolchain/linux_x86_newlib/bin/../lib/gcc/x86_64-nacl/4.4.3/../../../../x86_64-nacl/lib/../lib32/libnacl.a(sysconf_ad295ea2.o)
                0x0000000000065560                sysconf
 .text          0x0000000000065600       0x20 /home/berkeley/nacl_sdk/pepper_42/toolchain/linux_x86_newlib/bin/../lib/gcc/x86_64-nacl/4.4.3/../../../../x86_64-nacl/lib/../lib32/libnacl.a(nacl_tls_init_eb0cd232.o)
                0x0000000000065600                nacl_tls_init
 .text          0x0000000000065620       0x60 /home/berkeley/nacl_sdk/pepper_42/toolchain/linux_x86_newlib/bin/../lib/gcc/x86_64-nacl/4.4.3/../../../../x86_64-nacl/lib/../lib32/libcrt_common.a(lib_a-atexit.o)
                0x0000000000065620                atexit
 .text          0x0000000000065680       0x60 /home/berkeley/nacl_sdk/pepper_42/toolchain/linux_x86_newlib/bin/../lib/gcc/x86_64-nacl/4.4.3/../../../../x86_64-nacl/lib/../lib32/libcrt_common.a(lib_a-cxa_atexit.o)
                0x0000000000065680                __cxa_atexit
 .text          0x00000000000656e0       0x20 /home/berkeley/nacl_sdk/pepper_42/toolchain/linux_x86_newlib/bin/../lib/gcc/x86_64-nacl/4.4.3/../../../../x86_64-nacl/lib/../lib32/libcrt_common.a(lib_a-errno.o)
                0x00000000000656e0                __errno
 .text          0x0000000000065700       0x60 /home/berkeley/nacl_sdk/pepper_42/toolchain/linux_x86_newlib/bin/../lib/gcc/x86_64-nacl/4.4.3/../../../../x86_64-nacl/lib/../lib32/libcrt_common.a(lib_a-exit.o)
                0x0000000000065700                exit
 .text          0x0000000000065760       0x80 /home/berkeley/nacl_sdk/pepper_42/toolchain/linux_x86_newlib/bin/../lib/gcc/x86_64-nacl/4.4.3/../../../../x86_64-nacl/lib/../lib32/libcrt_common.a(lib_a-fini.o)
                0x0000000000065760                __libc_fini_array
 .text          0x00000000000657e0       0xc0 /home/berkeley/nacl_sdk/pepper_42/toolchain/linux_x86_newlib/bin/../lib/gcc/x86_64-nacl/4.4.3/../../../../x86_64-nacl/lib/../lib32/libcrt_common.a(lib_a-fprintf.o)
                0x00000000000657e0                fprintf
                0x0000000000065840                _fprintf_r
 .text          0x00000000000658a0      0x2a0 /home/berkeley/nacl_sdk/pepper_42/toolchain/linux_x86_newlib/bin/../lib/gcc/x86_64-nacl/4.4.3/../../../../x86_64-nacl/lib/../lib32/libcrt_common.a(lib_a-fputc.o)
                0x00000000000658a0                fputc
                0x0000000000065a00                _fputc_r
 .text          0x0000000000065b40      0x200 /home/berkeley/nacl_sdk/pepper_42/toolchain/linux_x86_newlib/bin/../lib/gcc/x86_64-nacl/4.4.3/../../../../x86_64-nacl/lib/../lib32/libcrt_common.a(lib_a-fputs.o)
                0x0000000000065b40                _fputs_r
                0x0000000000065ce0                fputs
 .text          0x0000000000065d40      0x7e0 /home/berkeley/nacl_sdk/pepper_42/toolchain/linux_x86_newlib/bin/../lib/gcc/x86_64-nacl/4.4.3/../../../../x86_64-nacl/lib/../lib32/libcrt_common.a(lib_a-fvwrite.o)
                0x0000000000065d40                __sfvwrite_r
 .text          0x0000000000066520      0x280 /home/berkeley/nacl_sdk/pepper_42/toolchain/linux_x86_newlib/bin/../lib/gcc/x86_64-nacl/4.4.3/../../../../x86_64-nacl/lib/../lib32/libcrt_common.a(lib_a-fwrite.o)
                0x0000000000066520                _fwrite_r
                0x0000000000066740                fwrite
 .text          0x00000000000667a0       0xc0 /home/berkeley/nacl_sdk/pepper_42/toolchain/linux_x86_newlib/bin/../lib/gcc/x86_64-nacl/4.4.3/../../../../x86_64-nacl/lib/../lib32/libcrt_common.a(lib_a-getenv.o)
                0x00000000000667a0                getenv
                0x0000000000066800                _findenv
 .text          0x0000000000066860      0x240 /home/berkeley/nacl_sdk/pepper_42/toolchain/linux_x86_newlib/bin/../lib/gcc/x86_64-nacl/4.4.3/../../../../x86_64-nacl/lib/../lib32/libcrt_common.a(lib_a-getenv_r.o)
                0x0000000000066860                _findenv_r
                0x0000000000066a60                _getenv_r
 .text          0x0000000000066aa0       0x40 /home/berkeley/nacl_sdk/pepper_42/toolchain/linux_x86_newlib/bin/../lib/gcc/x86_64-nacl/4.4.3/../../../../x86_64-nacl/lib/../lib32/libcrt_common.a(lib_a-impure.o)
                0x0000000000066aa0                __newlib_thread_init
                0x0000000000066ac0                __newlib_thread_exit
 .text          0x0000000000066ae0      0x100 /home/berkeley/nacl_sdk/pepper_42/toolchain/linux_x86_newlib/bin/../lib/gcc/x86_64-nacl/4.4.3/../../../../x86_64-nacl/lib/../lib32/libcrt_common.a(lib_a-init.o)
                0x0000000000066ae0                __libc_init_array
 .text          0x0000000000066be0       0xa0 /home/berkeley/nacl_sdk/pepper_42/toolchain/linux_x86_newlib/bin/../lib/gcc/x86_64-nacl/4.4.3/../../../../x86_64-nacl/lib/../lib32/libcrt_common.a(lib_a-memchr.o)
                0x0000000000066be0                memchr
 .text          0x0000000000066c80       0x60 /home/berkeley/nacl_sdk/pepper_42/toolchain/linux_x86_newlib/bin/../lib/gcc/x86_64-nacl/4.4.3/../../../../x86_64-nacl/lib/../lib32/libcrt_common.a(lib_a-memcpy.o)
                0x0000000000066c80                memcpy
 .text          0x0000000000066ce0       0xa0 /home/berkeley/nacl_sdk/pepper_42/toolchain/linux_x86_newlib/bin/../lib/gcc/x86_64-nacl/4.4.3/../../../../x86_64-nacl/lib/../lib32/libcrt_common.a(lib_a-memmove.o)
                0x0000000000066ce0                memmove
 .text          0x0000000000066d80       0xa0 /home/berkeley/nacl_sdk/pepper_42/toolchain/linux_x86_newlib/bin/../lib/gcc/x86_64-nacl/4.4.3/../../../../x86_64-nacl/lib/../lib32/libcrt_common.a(lib_a-memset.o)
                0x0000000000066d80                memset
 .text          0x0000000000066e20      0x440 /home/berkeley/nacl_sdk/pepper_42/toolchain/linux_x86_newlib/bin/../lib/gcc/x86_64-nacl/4.4.3/../../../../x86_64-nacl/lib/../lib32/libcrt_common.a(lib_a-putc.o)
                0x0000000000066e20                putc
                0x0000000000067040                _putc_r
 .text          0x0000000000067260      0x240 /home/berkeley/nacl_sdk/pepper_42/toolchain/linux_x86_newlib/bin/../lib/gcc/x86_64-nacl/4.4.3/../../../../x86_64-nacl/lib/../lib32/libcrt_common.a(lib_a-snprintf.o)
                0x0000000000067260                snprintf
                0x0000000000067380                _snprintf_r
 .text          0x00000000000674a0      0x100 /home/berkeley/nacl_sdk/pepper_42/toolchain/linux_x86_newlib/bin/../lib/gcc/x86_64-nacl/4.4.3/../../../../x86_64-nacl/lib/../lib32/libcrt_common.a(lib_a-sprintf.o)
                0x00000000000674a0                sprintf
                0x0000000000067520                _sprintf_r
 .text          0x00000000000675a0       0xa0 /home/berkeley/nacl_sdk/pepper_42/toolchain/linux_x86_newlib/bin/../lib/gcc/x86_64-nacl/4.4.3/../../../../x86_64-nacl/lib/../lib32/libcrt_common.a(lib_a-strcpy.o)
                0x00000000000675a0                strcpy
 .text          0x0000000000067640      0x840 /home/berkeley/nacl_sdk/pepper_42/toolchain/linux_x86_newlib/bin/../lib/gcc/x86_64-nacl/4.4.3/../../../../x86_64-nacl/lib/../lib32/libcrt_common.a(lib_a-strerror.o)
                0x0000000000067640                _strerror_r
                0x0000000000067e20                strerror
 .text          0x0000000000067e80       0xa0 /home/berkeley/nacl_sdk/pepper_42/toolchain/linux_x86_newlib/bin/../lib/gcc/x86_64-nacl/4.4.3/../../../../x86_64-nacl/lib/../lib32/libcrt_common.a(lib_a-strlen.o)
                0x0000000000067e80                strlen
 .text          0x0000000000067f20      0x180 /home/berkeley/nacl_sdk/pepper_42/toolchain/linux_x86_newlib/bin/../lib/gcc/x86_64-nacl/4.4.3/../../../../x86_64-nacl/lib/../lib32/libcrt_common.a(lib_a-strncmp.o)
                0x0000000000067f20                strncmp
 .text          0x00000000000680a0     0x4740 /home/berkeley/nacl_sdk/pepper_42/toolchain/linux_x86_newlib/bin/../lib/gcc/x86_64-nacl/4.4.3/../../../../x86_64-nacl/lib/../lib32/libcrt_common.a(lib_a-svfprintf.o)
                0x00000000000680a0                _svfprintf_r
 .text          0x000000000006c7e0       0x20 /home/berkeley/nacl_sdk/pepper_42/toolchain/linux_x86_newlib/bin/../lib/gcc/x86_64-nacl/4.4.3/../../../../x86_64-nacl/lib/../lib32/libcrt_common.a(lib_a-u_strerr.o)
                0x000000000006c7e0                _user_strerror
 .text          0x000000000006c800     0x4b00 /home/berkeley/nacl_sdk/pepper_42/toolchain/linux_x86_newlib/bin/../lib/gcc/x86_64-nacl/4.4.3/../../../../x86_64-nacl/lib/../lib32/libcrt_common.a(lib_a-vfprintf.o)
                0x000000000006c800                _vfprintf_r
                0x00000000000712a0                vfprintf
 .text          0x0000000000071300      0x2a0 /home/berkeley/nacl_sdk/pepper_42/toolchain/linux_x86_newlib/bin/../lib/gcc/x86_64-nacl/4.4.3/../../../../x86_64-nacl/lib/../lib32/libcrt_common.a(lib_a-wbuf.o)
                0x0000000000071300                __swbuf_r
                0x0000000000071540                __swbuf
 .text          0x00000000000715a0      0x220 /home/berkeley/nacl_sdk/pepper_42/toolchain/linux_x86_newlib/bin/../lib/gcc/x86_64-nacl/4.4.3/../../../../x86_64-nacl/lib/../lib32/libcrt_common.a(lib_a-wcrtomb.o)
                0x00000000000715a0                wcrtomb
                0x00000000000716c0                _wcrtomb_r
 .text          0x00000000000717c0       0xe0 /home/berkeley/nacl_sdk/pepper_42/toolchain/linux_x86_newlib/bin/../lib/gcc/x86_64-nacl/4.4.3/../../../../x86_64-nacl/lib/../lib32/libcrt_common.a(lib_a-wcsrtombs.o)
                0x00000000000717c0                wcsrtombs
                0x0000000000071840                _wcsrtombs_r
 .text          0x00000000000718a0      0x540 /home/berkeley/nacl_sdk/pepper_42/toolchain/linux_x86_newlib/bin/../lib/gcc/x86_64-nacl/4.4.3/../../../../x86_64-nacl/lib/../lib32/libcrt_common.a(lib_a-wctomb_r.o)
                0x00000000000718a0                __ascii_wctomb
                0x0000000000071900                __utf8_wctomb
                0x0000000000071a60                __sjis_wctomb
                0x0000000000071b40                __eucjp_wctomb
                0x0000000000071c40                __jis_wctomb
                0x0000000000071d60                _wctomb_r
 .text          0x0000000000071de0      0x2c0 /home/berkeley/nacl_sdk/pepper_42/toolchain/linux_x86_newlib/bin/../lib/gcc/x86_64-nacl/4.4.3/../../../../x86_64-nacl/lib/../lib32/libcrt_common.a(lib_a-wsetup.o)
                0x0000000000071de0                __swsetup_r
 .text          0x00000000000720a0      0x220 /home/berkeley/nacl_sdk/pepper_42/toolchain/linux_x86_newlib/bin/../lib/gcc/x86_64-nacl/4.4.3/../../../../x86_64-nacl/lib/../lib32/libcrt_common.a(lib_a-__atexit.o)
                0x00000000000720a0                __register_exitproc
 .text          0x00000000000722c0      0x300 /home/berkeley/nacl_sdk/pepper_42/toolchain/linux_x86_newlib/bin/../lib/gcc/x86_64-nacl/4.4.3/../../../../x86_64-nacl/lib/../lib32/libcrt_common.a(lib_a-__call_atexit.o)
                0x00000000000722c0                __call_exitprocs
 .text          0x00000000000725c0     0x2220 /home/berkeley/nacl_sdk/pepper_42/toolchain/linux_x86_newlib/bin/../lib/gcc/x86_64-nacl/4.4.3/../../../../x86_64-nacl/lib/../lib32/libcrt_common.a(lib_a-dtoa.o)
                0x00000000000728e0                _dtoa_r
 .text          0x00000000000747e0       0x40 /home/berkeley/nacl_sdk/pepper_42/toolchain/linux_x86_newlib/bin/../lib/gcc/x86_64-nacl/4.4.3/../../../../x86_64-nacl/lib/../lib32/libcrt_common.a(lib_a-envlock.o)
                0x00000000000747e0                __env_unlock
                0x0000000000074800                __env_lock
 .text          0x0000000000074820      0x620 /home/berkeley/nacl_sdk/pepper_42/toolchain/linux_x86_newlib/bin/../lib/gcc/x86_64-nacl/4.4.3/../../../../x86_64-nacl/lib/../lib32/libcrt_common.a(lib_a-fflush.o)
                0x0000000000074820                __sflush_r
                0x0000000000074c20                _fflush_r
                0x0000000000074da0                fflush
 .text          0x0000000000074e40      0x880 /home/berkeley/nacl_sdk/pepper_42/toolchain/linux_x86_newlib/bin/../lib/gcc/x86_64-nacl/4.4.3/../../../../x86_64-nacl/lib/../lib32/libcrt_common.a(lib_a-findfp.o)
                0x0000000000074e80                __sinit_lock_release
                0x0000000000074ec0                __sfp_lock_release
                0x0000000000074f00                __fp_unlock_all
                0x0000000000074fa0                __sinit_lock_acquire
                0x0000000000074fe0                __sfp_lock_acquire
                0x0000000000075020                __fp_lock_all
                0x0000000000075140                __sinit
                0x00000000000752e0                _cleanup_r
                0x0000000000075320                _cleanup
                0x0000000000075360                __sfmoreglue
                0x0000000000075420                __sfp
 .text          0x00000000000756c0      0x420 /home/berkeley/nacl_sdk/pepper_42/toolchain/linux_x86_newlib/bin/../lib/gcc/x86_64-nacl/4.4.3/../../../../x86_64-nacl/lib/../lib32/libcrt_common.a(lib_a-fwalk.o)
                0x00000000000756c0                _fwalk_reent
                0x0000000000075880                _fwalk
 .text          0x0000000000075ae0     0x1880 /home/berkeley/nacl_sdk/pepper_42/toolchain/linux_x86_newlib/bin/../lib/gcc/x86_64-nacl/4.4.3/../../../../x86_64-nacl/lib/../lib32/libcrt_common.a(lib_a-locale.o)
                0x0000000000075ae0                __locale_charset
                0x0000000000075b00                __locale_mb_cur_max
                0x0000000000075b20                __locale_msgcharset
                0x0000000000075b40                __locale_cjk_lang
                0x0000000000075b60                _localeconv_r
                0x0000000000075b80                localeconv
                0x0000000000076c40                _setlocale_r
                0x0000000000077300                setlocale
 .text          0x0000000000077360      0x260 /home/berkeley/nacl_sdk/pepper_42/toolchain/linux_x86_newlib/bin/../lib/gcc/x86_64-nacl/4.4.3/../../../../x86_64-nacl/lib/../lib32/libcrt_common.a(lib_a-makebuf.o)
                0x0000000000077360                __smakebuf_r
 .text          0x00000000000775c0      0xd20 /home/berkeley/nacl_sdk/pepper_42/toolchain/linux_x86_newlib/bin/../lib/gcc/x86_64-nacl/4.4.3/../../../../x86_64-nacl/lib/../lib32/libcrt_common.a(lib_a-mbtowc_r.o)
                0x00000000000775c0                __ascii_mbtowc
                0x0000000000077640                __utf8_mbtowc
                0x0000000000077be0                __sjis_mbtowc
                0x0000000000077d60                __eucjp_mbtowc
                0x0000000000077fc0                __jis_mbtowc
                0x0000000000078260                _mbtowc_r
 .text          0x00000000000782e0     0x1840 /home/berkeley/nacl_sdk/pepper_42/toolchain/linux_x86_newlib/bin/../lib/gcc/x86_64-nacl/4.4.3/../../../../x86_64-nacl/lib/../lib32/libcrt_common.a(lib_a-mprec.o)
                0x00000000000782e0                _Bfree
                0x0000000000078320                __hi0bits
                0x00000000000783e0                __lo0bits
                0x0000000000078560                __mcmp
                0x0000000000078600                __ulp
                0x00000000000786e0                __b2d
                0x0000000000078860                __ratio
                0x0000000000078900                _mprec_log10
                0x0000000000078960                __copybits
                0x0000000000078a20                __any_on
                0x0000000000078b40                _Balloc
                0x0000000000078c60                __d2b
                0x0000000000078e40                __mdiff
                0x00000000000790c0                __lshift
                0x0000000000079280                __multiply
                0x0000000000079580                __i2b
                0x00000000000795c0                __multadd
                0x0000000000079700                __pow5mult
                0x0000000000079940                __s2b
 .text          0x0000000000079b20      0x140 /home/berkeley/nacl_sdk/pepper_42/toolchain/linux_x86_newlib/bin/../lib/gcc/x86_64-nacl/4.4.3/../../../../x86_64-nacl/lib/../lib32/libcrt_common.a(lib_a-s_fpclassify.o)
                0x0000000000079b20                __fpclassifyd
 .text          0x0000000000079c60       0xe0 /home/berkeley/nacl_sdk/pepper_42/toolchain/linux_x86_newlib/bin/../lib/gcc/x86_64-nacl/4.4.3/../../../../x86_64-nacl/lib/../lib32/libcrt_common.a(lib_a-s_frexp.o)
                0x0000000000079c60                frexp
 .text          0x0000000000079d40      0x200 /home/berkeley/nacl_sdk/pepper_42/toolchain/linux_x86_newlib/bin/../lib/gcc/x86_64-nacl/4.4.3/../../../../x86_64-nacl/lib/../lib32/libcrt_common.a(lib_a-stdio.o)
                0x0000000000079d40                __seofread
                0x0000000000079d60                __sclose
                0x0000000000079d80                __sseek
                0x0000000000079e00                __swrite
                0x0000000000079ec0                __sread
 .text          0x0000000000079f40       0x80 /home/berkeley/nacl_sdk/pepper_42/toolchain/linux_x86_newlib/bin/../lib/gcc/x86_64-nacl/4.4.3/../../../../x86_64-nacl/lib/../lib32/libcrt_common.a(lib_a-strcasecmp.o)
                0x0000000000079f40                strcasecmp
 .text          0x0000000000079fc0       0xe0 /home/berkeley/nacl_sdk/pepper_42/toolchain/linux_x86_newlib/bin/../lib/gcc/x86_64-nacl/4.4.3/../../../../x86_64-nacl/lib/../lib32/libcrt_common.a(lib_a-strcat.o)
                0x0000000000079fc0                strcat
 .text          0x000000000007a0a0      0x120 /home/berkeley/nacl_sdk/pepper_42/toolchain/linux_x86_newlib/bin/../lib/gcc/x86_64-nacl/4.4.3/../../../../x86_64-nacl/lib/../lib32/libcrt_common.a(lib_a-strchr.o)
                0x000000000007a0a0                strchr
 .text          0x000000000007a1c0      0x100 /home/berkeley/nacl_sdk/pepper_42/toolchain/linux_x86_newlib/bin/../lib/gcc/x86_64-nacl/4.4.3/../../../../x86_64-nacl/lib/../lib32/libcrt_common.a(lib_a-strcmp.o)
                0x000000000007a1c0                strcmp
 .text          0x000000000007a2c0       0xa0 /home/berkeley/nacl_sdk/pepper_42/toolchain/linux_x86_newlib/bin/../lib/gcc/x86_64-nacl/4.4.3/../../../../x86_64-nacl/lib/../lib32/libcrt_common.a(lib_a-strlcpy.o)
                0x000000000007a2c0                strlcpy
 .text          0x000000000007a360       0xa0 /home/berkeley/nacl_sdk/pepper_42/toolchain/linux_x86_newlib/bin/../lib/gcc/x86_64-nacl/4.4.3/../../../../x86_64-nacl/lib/../lib32/libcrt_common.a(lib_a-strncasecmp.o)
                0x000000000007a360                strncasecmp
 .text          0x000000000007a400      0x140 /home/berkeley/nacl_sdk/pepper_42/toolchain/linux_x86_newlib/bin/../lib/gcc/x86_64-nacl/4.4.3/../../../../x86_64-nacl/lib/../lib32/libcrt_common.a(lib_a-strncpy.o)
                0x000000000007a400                strncpy
 .text          0x000000000007a540      0x360 /home/berkeley/nacl_sdk/pepper_42/toolchain/linux_x86_newlib/bin/../lib/gcc/x86_64-nacl/4.4.3/../../../../x86_64-nacl/lib/../lib32/libcrt_common.a(lib_a-strtol.o)
                0x000000000007a540                _strtol_r
                0x000000000007a840                strtol
 .text          0x000000000007a8a0     0x27e0 /home/berkeley/nacl_sdk/pepper_42/toolchain/linux_x86_newlib/bin/../lib/gcc/x86_64-nacl/4.4.3/../../../../x86_64-nacl/lib/../lib32/libcrt_common.a(lib_a-svfiprintf.o)
                0x000000000007a8a0                __ssprint_r
                0x000000000007ab40                _svfiprintf_r
 .text          0x000000000007d080     0x2a00 /home/berkeley/nacl_sdk/pepper_42/toolchain/linux_x86_newlib/bin/../lib/gcc/x86_64-nacl/4.4.3/../../../../x86_64-nacl/lib/../lib32/libcrt_common.a(lib_a-vfiprintf.o)
                0x000000000007d080                __sprint_r
                0x000000000007d200                _vfiprintf_r
                0x000000000007fa20                vfiprintf
 .text          0x000000000007fa80      0x300 /home/berkeley/nacl_sdk/pepper_42/toolchain/linux_x86_newlib/bin/../lib/gcc/x86_64-nacl/4.4.3/../../../../x86_64-nacl/lib/../lib32/libcrt_common.a(lib_a-wcsnrtombs.o)
                0x000000000007fa80                _wcsnrtombs_r
                0x000000000007fd00                wcsnrtombs
 .text          0x000000000007fd80       0x20 /home/berkeley/nacl_sdk/pepper_42/toolchain/linux_x86_newlib/bin/../lib/gcc/x86_64-nacl/4.4.3/../../../../x86_64-nacl/lib/../lib32/libcrt_common.a(lib_a-ctype_.o)
                0x000000000007fd80                __set_ctype
 .text          0x000000000007fda0      0x340 /home/berkeley/nacl_sdk/pepper_42/toolchain/linux_x86_newlib/bin/../lib/gcc/x86_64-nacl/4.4.3/../../../../x86_64-nacl/lib/../lib32/libcrt_common.a(lib_a-fclose.o)
                0x000000000007fda0                _fclose_r
                0x0000000000080080                fclose
 .text          0x00000000000800e0      0x3a0 /home/berkeley/nacl_sdk/pepper_42/toolchain/linux_x86_newlib/bin/../lib/gcc/x86_64-nacl/4.4.3/../../../../x86_64-nacl/lib/../lib32/libcrt_common.a(lib_a-fputwc.o)
                0x00000000000800e0                _fputwc_r
                0x0000000000080400                fputwc
 .text          0x0000000000080480       0xa0 /home/berkeley/nacl_sdk/pepper_42/toolchain/linux_x86_newlib/bin/../lib/gcc/x86_64-nacl/4.4.3/../../../../x86_64-nacl/lib/../lib32/libnacl.a(close_e9b92fbd.o)
                0x0000000000080480                close
 .text          0x0000000000080520       0xe0 /home/berkeley/nacl_sdk/pepper_42/toolchain/linux_x86_newlib/bin/../lib/gcc/x86_64-nacl/4.4.3/../../../../x86_64-nacl/lib/../lib32/libnacl.a(isatty_02f56e94.o)
                0x0000000000080520                isatty
 .text          0x0000000000080600       0xc0 /home/berkeley/nacl_sdk/pepper_42/toolchain/linux_x86_newlib/bin/../lib/gcc/x86_64-nacl/4.4.3/../../../../x86_64-nacl/lib/../lib32/libnacl.a(nacl_irt_fdio_b571b5e7.o)
                0x0000000000080600                __libnacl_irt_dev_fdio_init
 .text          0x00000000000806c0       0xa0 /home/berkeley/nacl_sdk/pepper_42/toolchain/linux_x86_newlib/bin/../lib/gcc/x86_64-nacl/4.4.3/../../../../x86_64-nacl/lib/../lib32/libnacl.a(fstat_0540ff63.o)
                0x00000000000806c0                fstat
 .text          0x0000000000080760       0xc0 /home/berkeley/nacl_sdk/pepper_42/toolchain/linux_x86_newlib/bin/../lib/gcc/x86_64-nacl/4.4.3/../../../../x86_64-nacl/lib/../lib32/libnacl.a(lseek_64d2d05c.o)
                0x0000000000080760                lseek
 .text          0x0000000000080820       0xc0 /home/berkeley/nacl_sdk/pepper_42/toolchain/linux_x86_newlib/bin/../lib/gcc/x86_64-nacl/4.4.3/../../../../x86_64-nacl/lib/../lib32/libnacl.a(read_df872e10.o)
                0x0000000000080820                read
 .text          0x00000000000808e0      0x1e0 /home/berkeley/nacl_sdk/pepper_42/toolchain/linux_x86_newlib/bin/../lib/gcc/x86_64-nacl/4.4.3/32/libgcc.a(_udivdi3.o)
                0x00000000000808e0                __udivdi3
 .text          0x0000000000080ac0      0x240 /home/berkeley/nacl_sdk/pepper_42/toolchain/linux_x86_newlib/bin/../lib/gcc/x86_64-nacl/4.4.3/32/libgcc.a(_umoddi3.o)
                0x0000000000080ac0                __umoddi3
 .text          0x0000000000080d00       0x80 /home/berkeley/nacl_sdk/pepper_42/toolchain/linux_x86_newlib/bin/../lib/gcc/x86_64-nacl/4.4.3/32/crtend.o
 .text          0x0000000000080d80        0x0 /home/berkeley/nacl_sdk/pepper_42/toolchain/linux_x86_newlib/bin/../lib/gcc/x86_64-nacl/4.4.3/../../../../x86_64-nacl/lib/../lib32/crtn.o
 *(.gnu.warning)

.fini           0x0000000000080d80       0x60
 *(SORT(.fini))
 .fini          0x0000000000080d80       0x20 /home/berkeley/nacl_sdk/pepper_42/toolchain/linux_x86_newlib/bin/../lib/gcc/x86_64-nacl/4.4.3/../../../../x86_64-nacl/lib/../lib32/crti.o
                0x0000000000080d80                _fini
 .fini          0x0000000000080da0       0x20 /home/berkeley/nacl_sdk/pepper_42/toolchain/linux_x86_newlib/bin/../lib/gcc/x86_64-nacl/4.4.3/32/crtbegin.o
 .fini          0x0000000000080dc0       0x20 /home/berkeley/nacl_sdk/pepper_42/toolchain/linux_x86_newlib/bin/../lib/gcc/x86_64-nacl/4.4.3/../../../../x86_64-nacl/lib/../lib32/crtn.o
                0x0000000000080de0                PROVIDE (__etext, .)
                0x0000000000080de0                PROVIDE (_etext, .)
                0x0000000000080de0                PROVIDE (etext, .)
                0x0000000010020114                . = (0x10020000 + SIZEOF_HEADERS)

.interp
 *(.interp)

.note.gnu.build-id
                0x0000000010020114       0x24
 *(.note.gnu.build-id)
 .note.gnu.build-id
                0x0000000010020114       0x24 /home/berkeley/nacl_sdk/pepper_42/toolchain/linux_x86_newlib/bin/../lib/gcc/x86_64-nacl/4.4.3/../../../../x86_64-nacl/lib/../lib32/crti.o

.hash
 *(.hash)

.gnu.hash
 *(.gnu.hash)

.dynsym
 *(.dynsym)

.dynstr
 *(.dynstr)

.gnu.version
 *(.gnu.version)

.gnu.version_d
 *(.gnu.version_d)

.gnu.version_r
 *(.gnu.version_r)

.rel.dyn        0x0000000010020138        0x0
 *(.rel.init)
 *(.rel.text .rel.text.* .rel.gnu.linkonce.t.*)
 .rel.text      0x0000000000000000        0x0 /home/berkeley/nacl_sdk/pepper_42/toolchain/linux_x86_newlib/bin/../lib/gcc/x86_64-nacl/4.4.3/32/crtbegin.o
 .rel.text._ZN19HelloTutorialModule14CreateInstanceEi
                0x0000000000000000        0x0 /home/berkeley/nacl_sdk/pepper_42/toolchain/linux_x86_newlib/bin/../lib/gcc/x86_64-nacl/4.4.3/32/crtbegin.o
 .rel.text._ZN21HelloTutorialInstance13HandleMessageERKN2pp3VarE
                0x0000000000000000        0x0 /home/berkeley/nacl_sdk/pepper_42/toolchain/linux_x86_newlib/bin/../lib/gcc/x86_64-nacl/4.4.3/32/crtbegin.o
 .rel.text._ZN21HelloTutorialInstanceD0Ev
                0x0000000000000000        0x0 /home/berkeley/nacl_sdk/pepper_42/toolchain/linux_x86_newlib/bin/../lib/gcc/x86_64-nacl/4.4.3/32/crtbegin.o
 .rel.text._ZN21HelloTutorialInstanceD1Ev
                0x0000000000000000        0x0 /home/berkeley/nacl_sdk/pepper_42/toolchain/linux_x86_newlib/bin/../lib/gcc/x86_64-nacl/4.4.3/32/crtbegin.o
 .rel.text._ZN19HelloTutorialModuleD0Ev
                0x0000000000000000        0x0 /home/berkeley/nacl_sdk/pepper_42/toolchain/linux_x86_newlib/bin/../lib/gcc/x86_64-nacl/4.4.3/32/crtbegin.o
 .rel.text._ZN19HelloTutorialModuleD1Ev
                0x0000000000000000        0x0 /home/berkeley/nacl_sdk/pepper_42/toolchain/linux_x86_newlib/bin/../lib/gcc/x86_64-nacl/4.4.3/32/crtbegin.o
 .rel.text._ZNSt8_Rb_treeISsSt4pairIKSsPvESt10_Select1stIS3_ESt4lessISsESaIS3_EE8_M_eraseEPSt13_Rb_tree_nodeIS3_E
                0x0000000000000000        0x0 /home/berkeley/nacl_sdk/pepper_42/toolchain/linux_x86_newlib/bin/../lib/gcc/x86_64-nacl/4.4.3/32/crtbegin.o
 .rel.text._ZNSt8_Rb_treeISsSt4pairIKSsPvESt10_Select1stIS3_ESt4lessISsESaIS3_EE10_M_insert_EPKSt18_Rb_tree_node_baseSC_RKS3_
                0x0000000000000000        0x0 /home/berkeley/nacl_sdk/pepper_42/toolchain/linux_x86_newlib/bin/../lib/gcc/x86_64-nacl/4.4.3/32/crtbegin.o
 .rel.text._ZNSt8_Rb_treeISsSt4pairIKSsPvESt10_Select1stIS3_ESt4lessISsESaIS3_EE16_M_insert_uniqueERKS3_
                0x0000000000000000        0x0 /home/berkeley/nacl_sdk/pepper_42/toolchain/linux_x86_newlib/bin/../lib/gcc/x86_64-nacl/4.4.3/32/crtbegin.o
 .rel.text._ZNSt8_Rb_treeISsSt4pairIKSsPvESt10_Select1stIS3_ESt4lessISsESaIS3_EE17_M_insert_unique_ESt23_Rb_tree_const_iteratorIS3_ERKS3_
                0x0000000000000000        0x0 /home/berkeley/nacl_sdk/pepper_42/toolchain/linux_x86_newlib/bin/../lib/gcc/x86_64-nacl/4.4.3/32/crtbegin.o
 .rel.text._ZNSt8_Rb_treeIiSt4pairIKiPN2pp8InstanceEESt10_Select1stIS5_ESt4lessIiESaIS5_EE8_M_eraseEPSt13_Rb_tree_nodeIS5_E
                0x0000000000000000        0x0 /home/berkeley/nacl_sdk/pepper_42/toolchain/linux_x86_newlib/bin/../lib/gcc/x86_64-nacl/4.4.3/32/crtbegin.o
 .rel.text._ZNSt8_Rb_treeIiSt4pairIKiPN2pp8InstanceEESt10_Select1stIS5_ESt4lessIiESaIS5_EE10_M_insert_EPKSt18_Rb_tree_node_baseSE_RKS5_
                0x0000000000000000        0x0 /home/berkeley/nacl_sdk/pepper_42/toolchain/linux_x86_newlib/bin/../lib/gcc/x86_64-nacl/4.4.3/32/crtbegin.o
 .rel.text._ZNSt8_Rb_treeIiSt4pairIKiPN2pp8InstanceEESt10_Select1stIS5_ESt4lessIiESaIS5_EE16_M_insert_uniqueERKS5_
                0x0000000000000000        0x0 /home/berkeley/nacl_sdk/pepper_42/toolchain/linux_x86_newlib/bin/../lib/gcc/x86_64-nacl/4.4.3/32/crtbegin.o
 .rel.text._ZNSt8_Rb_treeIiSt4pairIKiPN2pp8InstanceEESt10_Select1stIS5_ESt4lessIiESaIS5_EE17_M_insert_unique_ESt23_Rb_tree_const_iteratorIS5_ERKS5_
                0x0000000000000000        0x0 /home/berkeley/nacl_sdk/pepper_42/toolchain/linux_x86_newlib/bin/../lib/gcc/x86_64-nacl/4.4.3/32/crtbegin.o
 .rel.text._ZN2pp9URLLoaderD1Ev
                0x0000000000000000        0x0 /home/berkeley/nacl_sdk/pepper_42/toolchain/linux_x86_newlib/bin/../lib/gcc/x86_64-nacl/4.4.3/32/crtbegin.o
 .rel.text._ZN2pp9URLLoaderD0Ev
                0x0000000000000000        0x0 /home/berkeley/nacl_sdk/pepper_42/toolchain/linux_x86_newlib/bin/../lib/gcc/x86_64-nacl/4.4.3/32/crtbegin.o
 .rel.text._ZN2pp4ViewD1Ev
                0x0000000000000000        0x0 /home/berkeley/nacl_sdk/pepper_42/toolchain/linux_x86_newlib/bin/../lib/gcc/x86_64-nacl/4.4.3/32/crtbegin.o
 .rel.text._ZN2pp4ViewD0Ev
                0x0000000000000000        0x0 /home/berkeley/nacl_sdk/pepper_42/toolchain/linux_x86_newlib/bin/../lib/gcc/x86_64-nacl/4.4.3/32/crtbegin.o
 .rel.text._ZNSt8_Rb_treeISsSt4pairIKSsPKvESt10_Select1stIS4_ESt4lessISsESaIS4_EE8_M_eraseEPSt13_Rb_tree_nodeIS4_E
                0x0000000000000000        0x0 /home/berkeley/nacl_sdk/pepper_42/toolchain/linux_x86_newlib/bin/../lib/gcc/x86_64-nacl/4.4.3/32/crtbegin.o
 .rel.text._ZNSt8_Rb_treeISsSt4pairIKSsPKvESt10_Select1stIS4_ESt4lessISsESaIS4_EE10_M_insert_EPKSt18_Rb_tree_node_baseSD_RKS4_
                0x0000000000000000        0x0 /home/berkeley/nacl_sdk/pepper_42/toolchain/linux_x86_newlib/bin/../lib/gcc/x86_64-nacl/4.4.3/32/crtbegin.o
 .rel.text._ZNSt8_Rb_treeISsSt4pairIKSsPKvESt10_Select1stIS4_ESt4lessISsESaIS4_EE16_M_insert_uniqueERKS4_
                0x0000000000000000        0x0 /home/berkeley/nacl_sdk/pepper_42/toolchain/linux_x86_newlib/bin/../lib/gcc/x86_64-nacl/4.4.3/32/crtbegin.o
 .rel.text._ZNSt8_Rb_treeISsSt4pairIKSsPKvESt10_Select1stIS4_ESt4lessISsESaIS4_EE17_M_insert_unique_ESt23_Rb_tree_const_iteratorIS4_ERKS4_
                0x0000000000000000        0x0 /home/berkeley/nacl_sdk/pepper_42/toolchain/linux_x86_newlib/bin/../lib/gcc/x86_64-nacl/4.4.3/32/crtbegin.o
 .rel.text._ZN2pp15URLResponseInfoD1Ev
                0x0000000000000000        0x0 /home/berkeley/nacl_sdk/pepper_42/toolchain/linux_x86_newlib/bin/../lib/gcc/x86_64-nacl/4.4.3/32/crtbegin.o
 .rel.text._ZN2pp15URLResponseInfoD0Ev
                0x0000000000000000        0x0 /home/berkeley/nacl_sdk/pepper_42/toolchain/linux_x86_newlib/bin/../lib/gcc/x86_64-nacl/4.4.3/32/crtbegin.o
 .rel.text._ZN2pp7FileRefD1Ev
                0x0000000000000000        0x0 /home/berkeley/nacl_sdk/pepper_42/toolchain/linux_x86_newlib/bin/../lib/gcc/x86_64-nacl/4.4.3/32/crtbegin.o
 .rel.text._ZN2pp7FileRefD0Ev
                0x0000000000000000        0x0 /home/berkeley/nacl_sdk/pepper_42/toolchain/linux_x86_newlib/bin/../lib/gcc/x86_64-nacl/4.4.3/32/crtbegin.o
 .rel.text._ZN2pp13IMEInputEventD0Ev
                0x0000000000000000        0x0 /home/berkeley/nacl_sdk/pepper_42/toolchain/linux_x86_newlib/bin/../lib/gcc/x86_64-nacl/4.4.3/32/crtbegin.o
 .rel.text._ZN2pp13IMEInputEventD1Ev
                0x0000000000000000        0x0 /home/berkeley/nacl_sdk/pepper_42/toolchain/linux_x86_newlib/bin/../lib/gcc/x86_64-nacl/4.4.3/32/crtbegin.o
 .rel.text._ZN2pp15TouchInputEventD0Ev
                0x0000000000000000        0x0 /home/berkeley/nacl_sdk/pepper_42/toolchain/linux_x86_newlib/bin/../lib/gcc/x86_64-nacl/4.4.3/32/crtbegin.o
 .rel.text._ZN2pp15TouchInputEventD1Ev
                0x0000000000000000        0x0 /home/berkeley/nacl_sdk/pepper_42/toolchain/linux_x86_newlib/bin/../lib/gcc/x86_64-nacl/4.4.3/32/crtbegin.o
 .rel.text._ZN2pp18KeyboardInputEventD0Ev
                0x0000000000000000        0x0 /home/berkeley/nacl_sdk/pepper_42/toolchain/linux_x86_newlib/bin/../lib/gcc/x86_64-nacl/4.4.3/32/crtbegin.o
 .rel.text._ZN2pp18KeyboardInputEventD1Ev
                0x0000000000000000        0x0 /home/berkeley/nacl_sdk/pepper_42/toolchain/linux_x86_newlib/bin/../lib/gcc/x86_64-nacl/4.4.3/32/crtbegin.o
 .rel.text._ZN2pp15WheelInputEventD0Ev
                0x0000000000000000        0x0 /home/berkeley/nacl_sdk/pepper_42/toolchain/linux_x86_newlib/bin/../lib/gcc/x86_64-nacl/4.4.3/32/crtbegin.o
 .rel.text._ZN2pp15WheelInputEventD1Ev
                0x0000000000000000        0x0 /home/berkeley/nacl_sdk/pepper_42/toolchain/linux_x86_newlib/bin/../lib/gcc/x86_64-nacl/4.4.3/32/crtbegin.o
 .rel.text._ZN2pp15MouseInputEventD0Ev
                0x0000000000000000        0x0 /home/berkeley/nacl_sdk/pepper_42/toolchain/linux_x86_newlib/bin/../lib/gcc/x86_64-nacl/4.4.3/32/crtbegin.o
 .rel.text._ZN2pp15MouseInputEventD1Ev
                0x0000000000000000        0x0 /home/berkeley/nacl_sdk/pepper_42/toolchain/linux_x86_newlib/bin/../lib/gcc/x86_64-nacl/4.4.3/32/crtbegin.o
 .rel.text._ZNSs12_S_empty_repEv
                0x0000000000000000        0x0 /home/berkeley/nacl_sdk/pepper_42/toolchain/linux_x86_newlib/bin/../lib/gcc/x86_64-nacl/4.4.3/32/crtbegin.o
 .rel.text._ZNSsC2Ev
                0x0000000000000000        0x0 /home/berkeley/nacl_sdk/pepper_42/toolchain/linux_x86_newlib/bin/../lib/gcc/x86_64-nacl/4.4.3/32/crtbegin.o
 .rel.text._ZNSsC1Ev
                0x0000000000000000        0x0 /home/berkeley/nacl_sdk/pepper_42/toolchain/linux_x86_newlib/bin/../lib/gcc/x86_64-nacl/4.4.3/32/crtbegin.o
 .rel.text._ZNKSs12find_last_ofEcj
                0x0000000000000000        0x0 /home/berkeley/nacl_sdk/pepper_42/toolchain/linux_x86_newlib/bin/../lib/gcc/x86_64-nacl/4.4.3/32/crtbegin.o
 .rel.text._ZNSs4_Rep12_S_empty_repEv
                0x0000000000000000        0x0 /home/berkeley/nacl_sdk/pepper_42/toolchain/linux_x86_newlib/bin/../lib/gcc/x86_64-nacl/4.4.3/32/crtbegin.o
 .rel.text._ZNSs4_Rep10_M_refcopyEv
                0x0000000000000000        0x0 /home/berkeley/nacl_sdk/pepper_42/toolchain/linux_x86_newlib/bin/../lib/gcc/x86_64-nacl/4.4.3/32/crtbegin.o
 .rel.text._ZNSs4_Rep10_M_destroyERKSaIcE
                0x0000000000000000        0x0 /home/berkeley/nacl_sdk/pepper_42/toolchain/linux_x86_newlib/bin/../lib/gcc/x86_64-nacl/4.4.3/32/crtbegin.o
 .rel.text._ZNSs4_Rep10_M_disposeERKSaIcE
                0x0000000000000000        0x0 /home/berkeley/nacl_sdk/pepper_42/toolchain/linux_x86_newlib/bin/../lib/gcc/x86_64-nacl/4.4.3/32/crtbegin.o
 .rel.text._ZNKSs15_M_check_lengthEjjPKc
                0x0000000000000000        0x0 /home/berkeley/nacl_sdk/pepper_42/toolchain/linux_x86_newlib/bin/../lib/gcc/x86_64-nacl/4.4.3/32/crtbegin.o
 .rel.text._ZNSs4_Rep9_S_createEjjRKSaIcE
                0x0000000000000000        0x0 /home/berkeley/nacl_sdk/pepper_42/toolchain/linux_x86_newlib/bin/../lib/gcc/x86_64-nacl/4.4.3/32/crtbegin.o
 .rel.text._ZNKSs4findERKSsj
                0x0000000000000000        0x0 /home/berkeley/nacl_sdk/pepper_42/toolchain/linux_x86_newlib/bin/../lib/gcc/x86_64-nacl/4.4.3/32/crtbegin.o
 .rel.text._ZNKSs4findEcj
                0x0000000000000000        0x0 /home/berkeley/nacl_sdk/pepper_42/toolchain/linux_x86_newlib/bin/../lib/gcc/x86_64-nacl/4.4.3/32/crtbegin.o
 .rel.text._ZNKSs13find_first_ofEcj
                0x0000000000000000        0x0 /home/berkeley/nacl_sdk/pepper_42/toolchain/linux_x86_newlib/bin/../lib/gcc/x86_64-nacl/4.4.3/32/crtbegin.o
 .rel.text._ZNKSs2atEj
                0x0000000000000000        0x0 /home/berkeley/nacl_sdk/pepper_42/toolchain/linux_x86_newlib/bin/../lib/gcc/x86_64-nacl/4.4.3/32/crtbegin.o
 .rel.text._ZNKSs8_M_checkEjPKc
                0x0000000000000000        0x0 /home/berkeley/nacl_sdk/pepper_42/toolchain/linux_x86_newlib/bin/../lib/gcc/x86_64-nacl/4.4.3/32/crtbegin.o
 .rel.text._ZNSs9_M_assignEPcjc
                0x0000000000000000        0x0 /home/berkeley/nacl_sdk/pepper_42/toolchain/linux_x86_newlib/bin/../lib/gcc/x86_64-nacl/4.4.3/32/crtbegin.o
 .rel.text._ZNSs7_M_moveEPcPKcj
                0x0000000000000000        0x0 /home/berkeley/nacl_sdk/pepper_42/toolchain/linux_x86_newlib/bin/../lib/gcc/x86_64-nacl/4.4.3/32/crtbegin.o
 .rel.text._ZNSs7_M_copyEPcPKcj
                0x0000000000000000        0x0 /home/berkeley/nacl_sdk/pepper_42/toolchain/linux_x86_newlib/bin/../lib/gcc/x86_64-nacl/4.4.3/32/crtbegin.o
 .rel.text._ZNKSs16find_last_not_ofEPKcjj
                0x0000000000000000        0x0 /home/berkeley/nacl_sdk/pepper_42/toolchain/linux_x86_newlib/bin/../lib/gcc/x86_64-nacl/4.4.3/32/crtbegin.o
 .rel.text._ZNKSs16find_last_not_ofERKSsj
                0x0000000000000000        0x0 /home/berkeley/nacl_sdk/pepper_42/toolchain/linux_x86_newlib/bin/../lib/gcc/x86_64-nacl/4.4.3/32/crtbegin.o
 .rel.text._ZNKSs17find_first_not_ofEPKcjj
                0x0000000000000000        0x0 /home/berkeley/nacl_sdk/pepper_42/toolchain/linux_x86_newlib/bin/../lib/gcc/x86_64-nacl/4.4.3/32/crtbegin.o
 .rel.text._ZNKSs17find_first_not_ofERKSsj
                0x0000000000000000        0x0 /home/berkeley/nacl_sdk/pepper_42/toolchain/linux_x86_newlib/bin/../lib/gcc/x86_64-nacl/4.4.3/32/crtbegin.o
 .rel.text._ZNKSs12find_last_ofEPKcjj
                0x0000000000000000        0x0 /home/berkeley/nacl_sdk/pepper_42/toolchain/linux_x86_newlib/bin/../lib/gcc/x86_64-nacl/4.4.3/32/crtbegin.o
 .rel.text._ZNKSs12find_last_ofERKSsj
                0x0000000000000000        0x0 /home/berkeley/nacl_sdk/pepper_42/toolchain/linux_x86_newlib/bin/../lib/gcc/x86_64-nacl/4.4.3/32/crtbegin.o
 .rel.text._ZNKSs13find_first_ofEPKcjj
                0x0000000000000000        0x0 /home/berkeley/nacl_sdk/pepper_42/toolchain/linux_x86_newlib/bin/../lib/gcc/x86_64-nacl/4.4.3/32/crtbegin.o
 .rel.text._ZNKSs13find_first_ofERKSsj
                0x0000000000000000        0x0 /home/berkeley/nacl_sdk/pepper_42/toolchain/linux_x86_newlib/bin/../lib/gcc/x86_64-nacl/4.4.3/32/crtbegin.o
 .rel.text._ZNKSs5rfindERKSsj
                0x0000000000000000        0x0 /home/berkeley/nacl_sdk/pepper_42/toolchain/linux_x86_newlib/bin/../lib/gcc/x86_64-nacl/4.4.3/32/crtbegin.o
 .rel.text._ZNKSs7compareEjjPKcj
                0x0000000000000000        0x0 /home/berkeley/nacl_sdk/pepper_42/toolchain/linux_x86_newlib/bin/../lib/gcc/x86_64-nacl/4.4.3/32/crtbegin.o
 .rel.text._ZNKSs7compareEjjRKSsjj
                0x0000000000000000        0x0 /home/berkeley/nacl_sdk/pepper_42/toolchain/linux_x86_newlib/bin/../lib/gcc/x86_64-nacl/4.4.3/32/crtbegin.o
 .rel.text._ZNKSs7compareEjjRKSs
                0x0000000000000000        0x0 /home/berkeley/nacl_sdk/pepper_42/toolchain/linux_x86_newlib/bin/../lib/gcc/x86_64-nacl/4.4.3/32/crtbegin.o
 .rel.text._ZNKSs7compareEPKc
                0x0000000000000000        0x0 /home/berkeley/nacl_sdk/pepper_42/toolchain/linux_x86_newlib/bin/../lib/gcc/x86_64-nacl/4.4.3/32/crtbegin.o
 .rel.text._ZNKSs5rfindEPKcj
                0x0000000000000000        0x0 /home/berkeley/nacl_sdk/pepper_42/toolchain/linux_x86_newlib/bin/../lib/gcc/x86_64-nacl/4.4.3/32/crtbegin.o
 .rel.text._ZNKSs4findEPKcj
                0x0000000000000000        0x0 /home/berkeley/nacl_sdk/pepper_42/toolchain/linux_x86_newlib/bin/../lib/gcc/x86_64-nacl/4.4.3/32/crtbegin.o
 .rel.text._ZNKSs16find_last_not_ofEPKcj
                0x0000000000000000        0x0 /home/berkeley/nacl_sdk/pepper_42/toolchain/linux_x86_newlib/bin/../lib/gcc/x86_64-nacl/4.4.3/32/crtbegin.o
 .rel.text._ZNKSs17find_first_not_ofEPKcj
                0x0000000000000000        0x0 /home/berkeley/nacl_sdk/pepper_42/toolchain/linux_x86_newlib/bin/../lib/gcc/x86_64-nacl/4.4.3/32/crtbegin.o
 .rel.text._ZNKSs12find_last_ofEPKcj
                0x0000000000000000        0x0 /home/berkeley/nacl_sdk/pepper_42/toolchain/linux_x86_newlib/bin/../lib/gcc/x86_64-nacl/4.4.3/32/crtbegin.o
 .rel.text._ZNKSs13find_first_ofEPKcj
                0x0000000000000000        0x0 /home/berkeley/nacl_sdk/pepper_42/toolchain/linux_x86_newlib/bin/../lib/gcc/x86_64-nacl/4.4.3/32/crtbegin.o
 .rel.text._ZNKSs7compareEjjPKc
                0x0000000000000000        0x0 /home/berkeley/nacl_sdk/pepper_42/toolchain/linux_x86_newlib/bin/../lib/gcc/x86_64-nacl/4.4.3/32/crtbegin.o
 .rel.text._ZNSs13_S_copy_charsEPcS_S_
                0x0000000000000000        0x0 /home/berkeley/nacl_sdk/pepper_42/toolchain/linux_x86_newlib/bin/../lib/gcc/x86_64-nacl/4.4.3/32/crtbegin.o
 .rel.text._ZNSs13_S_copy_charsEPcPKcS1_
                0x0000000000000000        0x0 /home/berkeley/nacl_sdk/pepper_42/toolchain/linux_x86_newlib/bin/../lib/gcc/x86_64-nacl/4.4.3/32/crtbegin.o
 .rel.text._ZNSs13_S_copy_charsEPcN9__gnu_cxx17__normal_iteratorIPKcSsEES4_
                0x0000000000000000        0x0 /home/berkeley/nacl_sdk/pepper_42/toolchain/linux_x86_newlib/bin/../lib/gcc/x86_64-nacl/4.4.3/32/crtbegin.o
 .rel.text._ZNSs13_S_copy_charsEPcN9__gnu_cxx17__normal_iteratorIS_SsEES2_
                0x0000000000000000        0x0 /home/berkeley/nacl_sdk/pepper_42/toolchain/linux_x86_newlib/bin/../lib/gcc/x86_64-nacl/4.4.3/32/crtbegin.o
 .rel.text._ZNSs4_Rep8_M_cloneERKSaIcEj
                0x0000000000000000        0x0 /home/berkeley/nacl_sdk/pepper_42/toolchain/linux_x86_newlib/bin/../lib/gcc/x86_64-nacl/4.4.3/32/crtbegin.o
 .rel.text._ZNSs4_Rep7_M_grabERKSaIcES2_
                0x0000000000000000        0x0 /home/berkeley/nacl_sdk/pepper_42/toolchain/linux_x86_newlib/bin/../lib/gcc/x86_64-nacl/4.4.3/32/crtbegin.o
 .rel.text._ZNSsC1ERKSs
                0x0000000000000000        0x0 /home/berkeley/nacl_sdk/pepper_42/toolchain/linux_x86_newlib/bin/../lib/gcc/x86_64-nacl/4.4.3/32/crtbegin.o
 .rel.text._ZNSsC2ERKSs
                0x0000000000000000        0x0 /home/berkeley/nacl_sdk/pepper_42/toolchain/linux_x86_newlib/bin/../lib/gcc/x86_64-nacl/4.4.3/32/crtbegin.o
 .rel.text._ZNKSs4copyEPcjj
                0x0000000000000000        0x0 /home/berkeley/nacl_sdk/pepper_42/toolchain/linux_x86_newlib/bin/../lib/gcc/x86_64-nacl/4.4.3/32/crtbegin.o
 .rel.text._ZNSs12_S_constructIPKcEEPcT_S3_RKSaIcESt20forward_iterator_tag
                0x0000000000000000        0x0 /home/berkeley/nacl_sdk/pepper_42/toolchain/linux_x86_newlib/bin/../lib/gcc/x86_64-nacl/4.4.3/32/crtbegin.o
 .rel.text._ZNSsC1IPKcEET_S2_RKSaIcE
                0x0000000000000000        0x0 /home/berkeley/nacl_sdk/pepper_42/toolchain/linux_x86_newlib/bin/../lib/gcc/x86_64-nacl/4.4.3/32/crtbegin.o
 .rel.text._ZNSsC2IPKcEET_S2_RKSaIcE
                0x0000000000000000        0x0 /home/berkeley/nacl_sdk/pepper_42/toolchain/linux_x86_newlib/bin/../lib/gcc/x86_64-nacl/4.4.3/32/crtbegin.o
 .rel.text._ZNSsC1ESt16initializer_listIcERKSaIcE
                0x0000000000000000        0x0 /home/berkeley/nacl_sdk/pepper_42/toolchain/linux_x86_newlib/bin/../lib/gcc/x86_64-nacl/4.4.3/32/crtbegin.o
 .rel.text._ZNSsC2ESt16initializer_listIcERKSaIcE
                0x0000000000000000        0x0 /home/berkeley/nacl_sdk/pepper_42/toolchain/linux_x86_newlib/bin/../lib/gcc/x86_64-nacl/4.4.3/32/crtbegin.o
 .rel.text._ZNSsC1EPKcRKSaIcE
                0x0000000000000000        0x0 /home/berkeley/nacl_sdk/pepper_42/toolchain/linux_x86_newlib/bin/../lib/gcc/x86_64-nacl/4.4.3/32/crtbegin.o
 .rel.text._ZNSsC2EPKcRKSaIcE
                0x0000000000000000        0x0 /home/berkeley/nacl_sdk/pepper_42/toolchain/linux_x86_newlib/bin/../lib/gcc/x86_64-nacl/4.4.3/32/crtbegin.o
 .rel.text._ZNSsC1EPKcjRKSaIcE
                0x0000000000000000        0x0 /home/berkeley/nacl_sdk/pepper_42/toolchain/linux_x86_newlib/bin/../lib/gcc/x86_64-nacl/4.4.3/32/crtbegin.o
 .rel.text._ZNSsC2EPKcjRKSaIcE
                0x0000000000000000        0x0 /home/berkeley/nacl_sdk/pepper_42/toolchain/linux_x86_newlib/bin/../lib/gcc/x86_64-nacl/4.4.3/32/crtbegin.o
 .rel.text._ZNSs12_S_constructIPcEES0_T_S1_RKSaIcESt20forward_iterator_tag
                0x0000000000000000        0x0 /home/berkeley/nacl_sdk/pepper_42/toolchain/linux_x86_newlib/bin/../lib/gcc/x86_64-nacl/4.4.3/32/crtbegin.o
 .rel.text._ZNSsC1IPcEET_S1_RKSaIcE
                0x0000000000000000        0x0 /home/berkeley/nacl_sdk/pepper_42/toolchain/linux_x86_newlib/bin/../lib/gcc/x86_64-nacl/4.4.3/32/crtbegin.o
 .rel.text._ZNSsC2IPcEET_S1_RKSaIcE
                0x0000000000000000        0x0 /home/berkeley/nacl_sdk/pepper_42/toolchain/linux_x86_newlib/bin/../lib/gcc/x86_64-nacl/4.4.3/32/crtbegin.o
 .rel.text._ZNSsC1ERKSsjjRKSaIcE
                0x0000000000000000        0x0 /home/berkeley/nacl_sdk/pepper_42/toolchain/linux_x86_newlib/bin/../lib/gcc/x86_64-nacl/4.4.3/32/crtbegin.o
 .rel.text._ZNSsC2ERKSsjjRKSaIcE
                0x0000000000000000        0x0 /home/berkeley/nacl_sdk/pepper_42/toolchain/linux_x86_newlib/bin/../lib/gcc/x86_64-nacl/4.4.3/32/crtbegin.o
 .rel.text._ZNSsC1ERKSsjj
                0x0000000000000000        0x0 /home/berkeley/nacl_sdk/pepper_42/toolchain/linux_x86_newlib/bin/../lib/gcc/x86_64-nacl/4.4.3/32/crtbegin.o
 .rel.text._ZNKSs6substrEjj
                0x0000000000000000        0x0 /home/berkeley/nacl_sdk/pepper_42/toolchain/linux_x86_newlib/bin/../lib/gcc/x86_64-nacl/4.4.3/32/crtbegin.o
 .rel.text._ZNSsC2ERKSsjj
                0x0000000000000000        0x0 /home/berkeley/nacl_sdk/pepper_42/toolchain/linux_x86_newlib/bin/../lib/gcc/x86_64-nacl/4.4.3/32/crtbegin.o
 .rel.text._ZNSs12_S_constructEjcRKSaIcE
                0x0000000000000000        0x0 /home/berkeley/nacl_sdk/pepper_42/toolchain/linux_x86_newlib/bin/../lib/gcc/x86_64-nacl/4.4.3/32/crtbegin.o
 .rel.text._ZNSsC1EjcRKSaIcE
                0x0000000000000000        0x0 /home/berkeley/nacl_sdk/pepper_42/toolchain/linux_x86_newlib/bin/../lib/gcc/x86_64-nacl/4.4.3/32/crtbegin.o
 .rel.text._ZNSsC2EjcRKSaIcE
                0x0000000000000000        0x0 /home/berkeley/nacl_sdk/pepper_42/toolchain/linux_x86_newlib/bin/../lib/gcc/x86_64-nacl/4.4.3/32/crtbegin.o
 .rel.text._ZNSsC1ERKSaIcE
                0x0000000000000000        0x0 /home/berkeley/nacl_sdk/pepper_42/toolchain/linux_x86_newlib/bin/../lib/gcc/x86_64-nacl/4.4.3/32/crtbegin.o
 .rel.text._ZNSsC2ERKSaIcE
                0x0000000000000000        0x0 /home/berkeley/nacl_sdk/pepper_42/toolchain/linux_x86_newlib/bin/../lib/gcc/x86_64-nacl/4.4.3/32/crtbegin.o
 .rel.text._ZNSs12_S_constructIN9__gnu_cxx17__normal_iteratorIPcSsEEEES2_T_S4_RKSaIcESt20forward_iterator_tag
                0x0000000000000000        0x0 /home/berkeley/nacl_sdk/pepper_42/toolchain/linux_x86_newlib/bin/../lib/gcc/x86_64-nacl/4.4.3/32/crtbegin.o
 .rel.text._ZNSsC1IN9__gnu_cxx17__normal_iteratorIPcSsEEEET_S4_RKSaIcE
                0x0000000000000000        0x0 /home/berkeley/nacl_sdk/pepper_42/toolchain/linux_x86_newlib/bin/../lib/gcc/x86_64-nacl/4.4.3/32/crtbegin.o
 .rel.text._ZNSsC2IN9__gnu_cxx17__normal_iteratorIPcSsEEEET_S4_RKSaIcE
                0x0000000000000000        0x0 /home/berkeley/nacl_sdk/pepper_42/toolchain/linux_x86_newlib/bin/../lib/gcc/x86_64-nacl/4.4.3/32/crtbegin.o
 .rel.text._ZNSsD1Ev
                0x0000000000000000        0x0 /home/berkeley/nacl_sdk/pepper_42/toolchain/linux_x86_newlib/bin/../lib/gcc/x86_64-nacl/4.4.3/32/crtbegin.o
 .rel.text._ZNSsD2Ev
                0x0000000000000000        0x0 /home/berkeley/nacl_sdk/pepper_42/toolchain/linux_x86_newlib/bin/../lib/gcc/x86_64-nacl/4.4.3/32/crtbegin.o
 .rel.text._ZNSs6assignERKSs
                0x0000000000000000        0x0 /home/berkeley/nacl_sdk/pepper_42/toolchain/linux_x86_newlib/bin/../lib/gcc/x86_64-nacl/4.4.3/32/crtbegin.o
 .rel.text._ZNSsaSERKSs
                0x0000000000000000        0x0 /home/berkeley/nacl_sdk/pepper_42/toolchain/linux_x86_newlib/bin/../lib/gcc/x86_64-nacl/4.4.3/32/crtbegin.o
 .rel.text._ZNSs7reserveEj
                0x0000000000000000        0x0 /home/berkeley/nacl_sdk/pepper_42/toolchain/linux_x86_newlib/bin/../lib/gcc/x86_64-nacl/4.4.3/32/crtbegin.o
 .rel.text._ZNSs9push_backEc
                0x0000000000000000        0x0 /home/berkeley/nacl_sdk/pepper_42/toolchain/linux_x86_newlib/bin/../lib/gcc/x86_64-nacl/4.4.3/32/crtbegin.o
 .rel.text._ZNSs6appendEjc
                0x0000000000000000        0x0 /home/berkeley/nacl_sdk/pepper_42/toolchain/linux_x86_newlib/bin/../lib/gcc/x86_64-nacl/4.4.3/32/crtbegin.o
 .rel.text._ZNSs6appendEPKcj
                0x0000000000000000        0x0 /home/berkeley/nacl_sdk/pepper_42/toolchain/linux_x86_newlib/bin/../lib/gcc/x86_64-nacl/4.4.3/32/crtbegin.o
 .rel.text._ZNSs6appendEPKc
                0x0000000000000000        0x0 /home/berkeley/nacl_sdk/pepper_42/toolchain/linux_x86_newlib/bin/../lib/gcc/x86_64-nacl/4.4.3/32/crtbegin.o
 .rel.text._ZNSspLEPKc
                0x0000000000000000        0x0 /home/berkeley/nacl_sdk/pepper_42/toolchain/linux_x86_newlib/bin/../lib/gcc/x86_64-nacl/4.4.3/32/crtbegin.o
 .rel.text._ZNSs6appendERKSsjj
                0x0000000000000000        0x0 /home/berkeley/nacl_sdk/pepper_42/toolchain/linux_x86_newlib/bin/../lib/gcc/x86_64-nacl/4.4.3/32/crtbegin.o
 .rel.text._ZNSs6appendERKSs
                0x0000000000000000        0x0 /home/berkeley/nacl_sdk/pepper_42/toolchain/linux_x86_newlib/bin/../lib/gcc/x86_64-nacl/4.4.3/32/crtbegin.o
 .rel.text._ZStplIcSt11char_traitsIcESaIcEESbIT_T0_T1_ERKS6_S8_
                0x0000000000000000        0x0 /home/berkeley/nacl_sdk/pepper_42/toolchain/linux_x86_newlib/bin/../lib/gcc/x86_64-nacl/4.4.3/32/crtbegin.o
 .rel.text._ZNSspLERKSs
                0x0000000000000000        0x0 /home/berkeley/nacl_sdk/pepper_42/toolchain/linux_x86_newlib/bin/../lib/gcc/x86_64-nacl/4.4.3/32/crtbegin.o
 .rel.text._ZStplIcSt11char_traitsIcESaIcEESbIT_T0_T1_ES3_RKS6_
                0x0000000000000000        0x0 /home/berkeley/nacl_sdk/pepper_42/toolchain/linux_x86_newlib/bin/../lib/gcc/x86_64-nacl/4.4.3/32/crtbegin.o
 .rel.text._ZStplIcSt11char_traitsIcESaIcEESbIT_T0_T1_EPKS3_RKS6_
                0x0000000000000000        0x0 /home/berkeley/nacl_sdk/pepper_42/toolchain/linux_x86_newlib/bin/../lib/gcc/x86_64-nacl/4.4.3/32/crtbegin.o
 .rel.text._ZNSspLEc
                0x0000000000000000        0x0 /home/berkeley/nacl_sdk/pepper_42/toolchain/linux_x86_newlib/bin/../lib/gcc/x86_64-nacl/4.4.3/32/crtbegin.o
 .rel.text._ZNSs9_M_mutateEjjj
                0x0000000000000000        0x0 /home/berkeley/nacl_sdk/pepper_42/toolchain/linux_x86_newlib/bin/../lib/gcc/x86_64-nacl/4.4.3/32/crtbegin.o
 .rel.text._ZNSs15_M_replace_safeEjjPKcj
                0x0000000000000000        0x0 /home/berkeley/nacl_sdk/pepper_42/toolchain/linux_x86_newlib/bin/../lib/gcc/x86_64-nacl/4.4.3/32/crtbegin.o
 .rel.text._ZNSs6assignEPKcj
                0x0000000000000000        0x0 /home/berkeley/nacl_sdk/pepper_42/toolchain/linux_x86_newlib/bin/../lib/gcc/x86_64-nacl/4.4.3/32/crtbegin.o
 .rel.text._ZNSs6assignEPKc
                0x0000000000000000        0x0 /home/berkeley/nacl_sdk/pepper_42/toolchain/linux_x86_newlib/bin/../lib/gcc/x86_64-nacl/4.4.3/32/crtbegin.o
 .rel.text._ZNSs6assignERKSsjj
                0x0000000000000000        0x0 /home/berkeley/nacl_sdk/pepper_42/toolchain/linux_x86_newlib/bin/../lib/gcc/x86_64-nacl/4.4.3/32/crtbegin.o
 .rel.text._ZNSsaSEPKc
                0x0000000000000000        0x0 /home/berkeley/nacl_sdk/pepper_42/toolchain/linux_x86_newlib/bin/../lib/gcc/x86_64-nacl/4.4.3/32/crtbegin.o
 .rel.text._ZNSs14_M_replace_auxEjjjc
                0x0000000000000000        0x0 /home/berkeley/nacl_sdk/pepper_42/toolchain/linux_x86_newlib/bin/../lib/gcc/x86_64-nacl/4.4.3/32/crtbegin.o
 .rel.text._ZNSs7replaceEN9__gnu_cxx17__normal_iteratorIPcSsEES2_jc
                0x0000000000000000        0x0 /home/berkeley/nacl_sdk/pepper_42/toolchain/linux_x86_newlib/bin/../lib/gcc/x86_64-nacl/4.4.3/32/crtbegin.o
 .rel.text._ZNSs7replaceEjjjc
                0x0000000000000000        0x0 /home/berkeley/nacl_sdk/pepper_42/toolchain/linux_x86_newlib/bin/../lib/gcc/x86_64-nacl/4.4.3/32/crtbegin.o
 .rel.text._ZNSs6insertEN9__gnu_cxx17__normal_iteratorIPcSsEEc
                0x0000000000000000        0x0 /home/berkeley/nacl_sdk/pepper_42/toolchain/linux_x86_newlib/bin/../lib/gcc/x86_64-nacl/4.4.3/32/crtbegin.o
 .rel.text._ZNSs6insertEjjc
                0x0000000000000000        0x0 /home/berkeley/nacl_sdk/pepper_42/toolchain/linux_x86_newlib/bin/../lib/gcc/x86_64-nacl/4.4.3/32/crtbegin.o
 .rel.text._ZNSs6assignEjc
                0x0000000000000000        0x0 /home/berkeley/nacl_sdk/pepper_42/toolchain/linux_x86_newlib/bin/../lib/gcc/x86_64-nacl/4.4.3/32/crtbegin.o
 .rel.text._ZNSs6insertEN9__gnu_cxx17__normal_iteratorIPcSsEEjc
                0x0000000000000000        0x0 /home/berkeley/nacl_sdk/pepper_42/toolchain/linux_x86_newlib/bin/../lib/gcc/x86_64-nacl/4.4.3/32/crtbegin.o
 .rel.text._ZNSsaSEc
                0x0000000000000000        0x0 /home/berkeley/nacl_sdk/pepper_42/toolchain/linux_x86_newlib/bin/../lib/gcc/x86_64-nacl/4.4.3/32/crtbegin.o
 .rel.text._ZNSs5eraseEN9__gnu_cxx17__normal_iteratorIPcSsEES2_
                0x0000000000000000        0x0 /home/berkeley/nacl_sdk/pepper_42/toolchain/linux_x86_newlib/bin/../lib/gcc/x86_64-nacl/4.4.3/32/crtbegin.o
 .rel.text._ZNSs5eraseEN9__gnu_cxx17__normal_iteratorIPcSsEE
                0x0000000000000000        0x0 /home/berkeley/nacl_sdk/pepper_42/toolchain/linux_x86_newlib/bin/../lib/gcc/x86_64-nacl/4.4.3/32/crtbegin.o
 .rel.text._ZNSs5eraseEjj
                0x0000000000000000        0x0 /home/berkeley/nacl_sdk/pepper_42/toolchain/linux_x86_newlib/bin/../lib/gcc/x86_64-nacl/4.4.3/32/crtbegin.o
 .rel.text._ZNSs6insertEjPKcj
                0x0000000000000000        0x0 /home/berkeley/nacl_sdk/pepper_42/toolchain/linux_x86_newlib/bin/../lib/gcc/x86_64-nacl/4.4.3/32/crtbegin.o
 .rel.text._ZNSs6insertEjPKc
                0x0000000000000000        0x0 /home/berkeley/nacl_sdk/pepper_42/toolchain/linux_x86_newlib/bin/../lib/gcc/x86_64-nacl/4.4.3/32/crtbegin.o
 .rel.text._ZNSs6insertEjRKSsjj
                0x0000000000000000        0x0 /home/berkeley/nacl_sdk/pepper_42/toolchain/linux_x86_newlib/bin/../lib/gcc/x86_64-nacl/4.4.3/32/crtbegin.o
 .rel.text._ZNSs6insertEjRKSs
                0x0000000000000000        0x0 /home/berkeley/nacl_sdk/pepper_42/toolchain/linux_x86_newlib/bin/../lib/gcc/x86_64-nacl/4.4.3/32/crtbegin.o
 .rel.text._ZNSs5clearEv
                0x0000000000000000        0x0 /home/berkeley/nacl_sdk/pepper_42/toolchain/linux_x86_newlib/bin/../lib/gcc/x86_64-nacl/4.4.3/32/crtbegin.o
 .rel.text._ZNSs12_M_leak_hardEv
                0x0000000000000000        0x0 /home/berkeley/nacl_sdk/pepper_42/toolchain/linux_x86_newlib/bin/../lib/gcc/x86_64-nacl/4.4.3/32/crtbegin.o
 .rel.text._ZNSs7_M_leakEv
                0x0000000000000000        0x0 /home/berkeley/nacl_sdk/pepper_42/toolchain/linux_x86_newlib/bin/../lib/gcc/x86_64-nacl/4.4.3/32/crtbegin.o
 .rel.text._ZNSs2atEj
                0x0000000000000000        0x0 /home/berkeley/nacl_sdk/pepper_42/toolchain/linux_x86_newlib/bin/../lib/gcc/x86_64-nacl/4.4.3/32/crtbegin.o
 .rel.text._ZNSsixEj
                0x0000000000000000        0x0 /home/berkeley/nacl_sdk/pepper_42/toolchain/linux_x86_newlib/bin/../lib/gcc/x86_64-nacl/4.4.3/32/crtbegin.o
 .rel.text._ZNSs3endEv
                0x0000000000000000        0x0 /home/berkeley/nacl_sdk/pepper_42/toolchain/linux_x86_newlib/bin/../lib/gcc/x86_64-nacl/4.4.3/32/crtbegin.o
 .rel.text._ZNSs5beginEv
                0x0000000000000000        0x0 /home/berkeley/nacl_sdk/pepper_42/toolchain/linux_x86_newlib/bin/../lib/gcc/x86_64-nacl/4.4.3/32/crtbegin.o
 .rel.text._ZNSs4rendEv
                0x0000000000000000        0x0 /home/berkeley/nacl_sdk/pepper_42/toolchain/linux_x86_newlib/bin/../lib/gcc/x86_64-nacl/4.4.3/32/crtbegin.o
 .rel.text._ZNSs6rbeginEv
                0x0000000000000000        0x0 /home/berkeley/nacl_sdk/pepper_42/toolchain/linux_x86_newlib/bin/../lib/gcc/x86_64-nacl/4.4.3/32/crtbegin.o
 .rel.text._ZNSs6resizeEjc
                0x0000000000000000        0x0 /home/berkeley/nacl_sdk/pepper_42/toolchain/linux_x86_newlib/bin/../lib/gcc/x86_64-nacl/4.4.3/32/crtbegin.o
 .rel.text._ZNSs6resizeEj
                0x0000000000000000        0x0 /home/berkeley/nacl_sdk/pepper_42/toolchain/linux_x86_newlib/bin/../lib/gcc/x86_64-nacl/4.4.3/32/crtbegin.o
 .rel.text._ZNSs7replaceEjjPKcj
                0x0000000000000000        0x0 /home/berkeley/nacl_sdk/pepper_42/toolchain/linux_x86_newlib/bin/../lib/gcc/x86_64-nacl/4.4.3/32/crtbegin.o
 .rel.text._ZNSs7replaceEN9__gnu_cxx17__normal_iteratorIPcSsEES2_NS0_IPKcSsEES5_
                0x0000000000000000        0x0 /home/berkeley/nacl_sdk/pepper_42/toolchain/linux_x86_newlib/bin/../lib/gcc/x86_64-nacl/4.4.3/32/crtbegin.o
 .rel.text._ZNSs7replaceEN9__gnu_cxx17__normal_iteratorIPcSsEES2_S2_S2_
                0x0000000000000000        0x0 /home/berkeley/nacl_sdk/pepper_42/toolchain/linux_x86_newlib/bin/../lib/gcc/x86_64-nacl/4.4.3/32/crtbegin.o
 .rel.text._ZNSs7replaceEN9__gnu_cxx17__normal_iteratorIPcSsEES2_PKcS4_
                0x0000000000000000        0x0 /home/berkeley/nacl_sdk/pepper_42/toolchain/linux_x86_newlib/bin/../lib/gcc/x86_64-nacl/4.4.3/32/crtbegin.o
 .rel.text._ZNSs7replaceEN9__gnu_cxx17__normal_iteratorIPcSsEES2_S1_S1_
                0x0000000000000000        0x0 /home/berkeley/nacl_sdk/pepper_42/toolchain/linux_x86_newlib/bin/../lib/gcc/x86_64-nacl/4.4.3/32/crtbegin.o
 .rel.text._ZNSs7replaceEN9__gnu_cxx17__normal_iteratorIPcSsEES2_PKcj
                0x0000000000000000        0x0 /home/berkeley/nacl_sdk/pepper_42/toolchain/linux_x86_newlib/bin/../lib/gcc/x86_64-nacl/4.4.3/32/crtbegin.o
 .rel.text._ZNSs7replaceEjjPKc
                0x0000000000000000        0x0 /home/berkeley/nacl_sdk/pepper_42/toolchain/linux_x86_newlib/bin/../lib/gcc/x86_64-nacl/4.4.3/32/crtbegin.o
 .rel.text._ZNSs7replaceEjjRKSsjj
                0x0000000000000000        0x0 /home/berkeley/nacl_sdk/pepper_42/toolchain/linux_x86_newlib/bin/../lib/gcc/x86_64-nacl/4.4.3/32/crtbegin.o
 .rel.text._ZNSs7replaceEjjRKSs
                0x0000000000000000        0x0 /home/berkeley/nacl_sdk/pepper_42/toolchain/linux_x86_newlib/bin/../lib/gcc/x86_64-nacl/4.4.3/32/crtbegin.o
 .rel.text._ZNSs7replaceEN9__gnu_cxx17__normal_iteratorIPcSsEES2_PKc
                0x0000000000000000        0x0 /home/berkeley/nacl_sdk/pepper_42/toolchain/linux_x86_newlib/bin/../lib/gcc/x86_64-nacl/4.4.3/32/crtbegin.o
 .rel.text._ZNSs7replaceEN9__gnu_cxx17__normal_iteratorIPcSsEES2_RKSs
                0x0000000000000000        0x0 /home/berkeley/nacl_sdk/pepper_42/toolchain/linux_x86_newlib/bin/../lib/gcc/x86_64-nacl/4.4.3/32/crtbegin.o
 .rel.text._ZNSs6assignESt16initializer_listIcE
                0x0000000000000000        0x0 /home/berkeley/nacl_sdk/pepper_42/toolchain/linux_x86_newlib/bin/../lib/gcc/x86_64-nacl/4.4.3/32/crtbegin.o
 .rel.text._ZNSsaSESt16initializer_listIcE
                0x0000000000000000        0x0 /home/berkeley/nacl_sdk/pepper_42/toolchain/linux_x86_newlib/bin/../lib/gcc/x86_64-nacl/4.4.3/32/crtbegin.o
 .rel.text._ZNSs6appendESt16initializer_listIcE
                0x0000000000000000        0x0 /home/berkeley/nacl_sdk/pepper_42/toolchain/linux_x86_newlib/bin/../lib/gcc/x86_64-nacl/4.4.3/32/crtbegin.o
 .rel.text._ZNSspLESt16initializer_listIcE
                0x0000000000000000        0x0 /home/berkeley/nacl_sdk/pepper_42/toolchain/linux_x86_newlib/bin/../lib/gcc/x86_64-nacl/4.4.3/32/crtbegin.o
 .rel.text._ZNSs7replaceEN9__gnu_cxx17__normal_iteratorIPcSsEES2_St16initializer_listIcE
                0x0000000000000000        0x0 /home/berkeley/nacl_sdk/pepper_42/toolchain/linux_x86_newlib/bin/../lib/gcc/x86_64-nacl/4.4.3/32/crtbegin.o
 .rel.text._ZNSs6insertEN9__gnu_cxx17__normal_iteratorIPcSsEESt16initializer_listIcE
                0x0000000000000000        0x0 /home/berkeley/nacl_sdk/pepper_42/toolchain/linux_x86_newlib/bin/../lib/gcc/x86_64-nacl/4.4.3/32/crtbegin.o
 .rel.text._ZL21base_of_encoded_valuehP15_Unwind_Context
                0x0000000000000000        0x0 /home/berkeley/nacl_sdk/pepper_42/toolchain/linux_x86_newlib/bin/../lib/gcc/x86_64-nacl/4.4.3/32/crtbegin.o
 .rel.text._ZL28read_encoded_value_with_basehjPKhPj
                0x0000000000000000        0x0 /home/berkeley/nacl_sdk/pepper_42/toolchain/linux_x86_newlib/bin/../lib/gcc/x86_64-nacl/4.4.3/32/crtbegin.o
 .rel.text._ZL17parse_lsda_headerP15_Unwind_ContextPKhP16lsda_header_info
                0x0000000000000000        0x0 /home/berkeley/nacl_sdk/pepper_42/toolchain/linux_x86_newlib/bin/../lib/gcc/x86_64-nacl/4.4.3/32/crtbegin.o
 .rel.text._ZL15get_ttype_entryP16lsda_header_infom
                0x0000000000000000        0x0 /home/berkeley/nacl_sdk/pepper_42/toolchain/linux_x86_newlib/bin/../lib/gcc/x86_64-nacl/4.4.3/32/crtbegin.o
 .rel.text.__cxa_call_unexpected
                0x0000000000000000        0x0 /home/berkeley/nacl_sdk/pepper_42/toolchain/linux_x86_newlib/bin/../lib/gcc/x86_64-nacl/4.4.3/32/crtbegin.o
 .rel.text.__gxx_personality_v0
                0x0000000000000000        0x0 /home/berkeley/nacl_sdk/pepper_42/toolchain/linux_x86_newlib/bin/../lib/gcc/x86_64-nacl/4.4.3/32/crtbegin.o
 .rel.text._GLOBAL__I___cxa_get_globals_fast
                0x0000000000000000        0x0 /home/berkeley/nacl_sdk/pepper_42/toolchain/linux_x86_newlib/bin/../lib/gcc/x86_64-nacl/4.4.3/32/crtbegin.o
 .rel.text._ZL15eh_globals_dtorPv
                0x0000000000000000        0x0 /home/berkeley/nacl_sdk/pepper_42/toolchain/linux_x86_newlib/bin/../lib/gcc/x86_64-nacl/4.4.3/32/crtbegin.o
 .rel.text.__cxa_get_globals
                0x0000000000000000        0x0 /home/berkeley/nacl_sdk/pepper_42/toolchain/linux_x86_newlib/bin/../lib/gcc/x86_64-nacl/4.4.3/32/crtbegin.o
 .rel.text.__cxa_get_globals_fast
                0x0000000000000000        0x0 /home/berkeley/nacl_sdk/pepper_42/toolchain/linux_x86_newlib/bin/../lib/gcc/x86_64-nacl/4.4.3/32/crtbegin.o
 .rel.text.__cxa_rethrow
                0x0000000000000000        0x0 /home/berkeley/nacl_sdk/pepper_42/toolchain/linux_x86_newlib/bin/../lib/gcc/x86_64-nacl/4.4.3/32/crtbegin.o
 .rel.text.__cxa_throw
                0x0000000000000000        0x0 /home/berkeley/nacl_sdk/pepper_42/toolchain/linux_x86_newlib/bin/../lib/gcc/x86_64-nacl/4.4.3/32/crtbegin.o
 .rel.text._ZL23__gxx_exception_cleanup19_Unwind_Reason_CodeP17_Unwind_Exception
                0x0000000000000000        0x0 /home/berkeley/nacl_sdk/pepper_42/toolchain/linux_x86_newlib/bin/../lib/gcc/x86_64-nacl/4.4.3/32/crtbegin.o
 .rel.text._ZdlPv
                0x0000000000000000        0x0 /home/berkeley/nacl_sdk/pepper_42/toolchain/linux_x86_newlib/bin/../lib/gcc/x86_64-nacl/4.4.3/32/crtbegin.o
 .rel.text.__cxa_call_terminate
                0x0000000000000000        0x0 /home/berkeley/nacl_sdk/pepper_42/toolchain/linux_x86_newlib/bin/../lib/gcc/x86_64-nacl/4.4.3/32/crtbegin.o
 .rel.text._ZN10__cxxabiv1L7acquireEPx
                0x0000000000000000        0x0 /home/berkeley/nacl_sdk/pepper_42/toolchain/linux_x86_newlib/bin/../lib/gcc/x86_64-nacl/4.4.3/32/crtbegin.o
 .rel.text._ZN9__gnu_cxx26__concurrence_unlock_errorD1Ev
                0x0000000000000000        0x0 /home/berkeley/nacl_sdk/pepper_42/toolchain/linux_x86_newlib/bin/../lib/gcc/x86_64-nacl/4.4.3/32/crtbegin.o
 .rel.text._ZN9__gnu_cxx24__concurrence_lock_errorD1Ev
                0x0000000000000000        0x0 /home/berkeley/nacl_sdk/pepper_42/toolchain/linux_x86_newlib/bin/../lib/gcc/x86_64-nacl/4.4.3/32/crtbegin.o
 .rel.text._ZN9__gnu_cxx20recursive_init_errorD1Ev
                0x0000000000000000        0x0 /home/berkeley/nacl_sdk/pepper_42/toolchain/linux_x86_newlib/bin/../lib/gcc/x86_64-nacl/4.4.3/32/crtbegin.o
 .rel.text._ZN9__gnu_cxx20recursive_init_errorD2Ev
                0x0000000000000000        0x0 /home/berkeley/nacl_sdk/pepper_42/toolchain/linux_x86_newlib/bin/../lib/gcc/x86_64-nacl/4.4.3/32/crtbegin.o
 .rel.text._ZN9__gnu_cxx26__concurrence_unlock_errorD0Ev
                0x0000000000000000        0x0 /home/berkeley/nacl_sdk/pepper_42/toolchain/linux_x86_newlib/bin/../lib/gcc/x86_64-nacl/4.4.3/32/crtbegin.o
 .rel.text._ZN9__gnu_cxx24__concurrence_lock_errorD0Ev
                0x0000000000000000        0x0 /home/berkeley/nacl_sdk/pepper_42/toolchain/linux_x86_newlib/bin/../lib/gcc/x86_64-nacl/4.4.3/32/crtbegin.o
 .rel.text._ZN9__gnu_cxx20recursive_init_errorD0Ev
                0x0000000000000000        0x0 /home/berkeley/nacl_sdk/pepper_42/toolchain/linux_x86_newlib/bin/../lib/gcc/x86_64-nacl/4.4.3/32/crtbegin.o
 .rel.text.__cxa_guard_release
                0x0000000000000000        0x0 /home/berkeley/nacl_sdk/pepper_42/toolchain/linux_x86_newlib/bin/../lib/gcc/x86_64-nacl/4.4.3/32/crtbegin.o
 .rel.text.__cxa_guard_abort
                0x0000000000000000        0x0 /home/berkeley/nacl_sdk/pepper_42/toolchain/linux_x86_newlib/bin/../lib/gcc/x86_64-nacl/4.4.3/32/crtbegin.o
 .rel.text.__cxa_guard_acquire
                0x0000000000000000        0x0 /home/berkeley/nacl_sdk/pepper_42/toolchain/linux_x86_newlib/bin/../lib/gcc/x86_64-nacl/4.4.3/32/crtbegin.o
 .rel.text._ZNK10__cxxabiv120__si_class_type_info11__do_upcastEPKNS_17__class_type_infoEPKvRNS1_15__upcast_resultE
                0x0000000000000000        0x0 /home/berkeley/nacl_sdk/pepper_42/toolchain/linux_x86_newlib/bin/../lib/gcc/x86_64-nacl/4.4.3/32/crtbegin.o
 .rel.text._ZN10__cxxabiv120__si_class_type_infoD1Ev
                0x0000000000000000        0x0 /home/berkeley/nacl_sdk/pepper_42/toolchain/linux_x86_newlib/bin/../lib/gcc/x86_64-nacl/4.4.3/32/crtbegin.o
 .rel.text._ZN10__cxxabiv120__si_class_type_infoD2Ev
                0x0000000000000000        0x0 /home/berkeley/nacl_sdk/pepper_42/toolchain/linux_x86_newlib/bin/../lib/gcc/x86_64-nacl/4.4.3/32/crtbegin.o
 .rel.text._ZN10__cxxabiv120__si_class_type_infoD0Ev
                0x0000000000000000        0x0 /home/berkeley/nacl_sdk/pepper_42/toolchain/linux_x86_newlib/bin/../lib/gcc/x86_64-nacl/4.4.3/32/crtbegin.o
 .rel.text._ZSt13set_terminatePFvvE
                0x0000000000000000        0x0 /home/berkeley/nacl_sdk/pepper_42/toolchain/linux_x86_newlib/bin/../lib/gcc/x86_64-nacl/4.4.3/32/crtbegin.o
 .rel.text._ZSt14set_unexpectedPFvvE
                0x0000000000000000        0x0 /home/berkeley/nacl_sdk/pepper_42/toolchain/linux_x86_newlib/bin/../lib/gcc/x86_64-nacl/4.4.3/32/crtbegin.o
 .rel.text._ZN10__cxxabiv111__terminateEPFvvE
                0x0000000000000000        0x0 /home/berkeley/nacl_sdk/pepper_42/toolchain/linux_x86_newlib/bin/../lib/gcc/x86_64-nacl/4.4.3/32/crtbegin.o
 .rel.text._ZSt9terminatev
                0x0000000000000000        0x0 /home/berkeley/nacl_sdk/pepper_42/toolchain/linux_x86_newlib/bin/../lib/gcc/x86_64-nacl/4.4.3/32/crtbegin.o
 .rel.text._ZSt10unexpectedv
                0x0000000000000000        0x0 /home/berkeley/nacl_sdk/pepper_42/toolchain/linux_x86_newlib/bin/../lib/gcc/x86_64-nacl/4.4.3/32/crtbegin.o
 .rel.text._ZN10__cxxabiv117__class_type_infoD1Ev
                0x0000000000000000        0x0 /home/berkeley/nacl_sdk/pepper_42/toolchain/linux_x86_newlib/bin/../lib/gcc/x86_64-nacl/4.4.3/32/crtbegin.o
 .rel.text._ZN10__cxxabiv117__class_type_infoD2Ev
                0x0000000000000000        0x0 /home/berkeley/nacl_sdk/pepper_42/toolchain/linux_x86_newlib/bin/../lib/gcc/x86_64-nacl/4.4.3/32/crtbegin.o
 .rel.text._ZN10__cxxabiv117__class_type_infoD0Ev
                0x0000000000000000        0x0 /home/berkeley/nacl_sdk/pepper_42/toolchain/linux_x86_newlib/bin/../lib/gcc/x86_64-nacl/4.4.3/32/crtbegin.o
 .rel.text._ZN9__gnu_cxx13__scoped_lockD1Ev
                0x0000000000000000        0x0 /home/berkeley/nacl_sdk/pepper_42/toolchain/linux_x86_newlib/bin/../lib/gcc/x86_64-nacl/4.4.3/32/crtbegin.o
 .rel.text.__cxa_free_dependent_exception
                0x0000000000000000        0x0 /home/berkeley/nacl_sdk/pepper_42/toolchain/linux_x86_newlib/bin/../lib/gcc/x86_64-nacl/4.4.3/32/crtbegin.o
 .rel.text.__cxa_free_exception
                0x0000000000000000        0x0 /home/berkeley/nacl_sdk/pepper_42/toolchain/linux_x86_newlib/bin/../lib/gcc/x86_64-nacl/4.4.3/32/crtbegin.o
 .rel.text.__cxa_allocate_exception
                0x0000000000000000        0x0 /home/berkeley/nacl_sdk/pepper_42/toolchain/linux_x86_newlib/bin/../lib/gcc/x86_64-nacl/4.4.3/32/crtbegin.o
 .rel.text.__cxa_allocate_dependent_exception
                0x0000000000000000        0x0 /home/berkeley/nacl_sdk/pepper_42/toolchain/linux_x86_newlib/bin/../lib/gcc/x86_64-nacl/4.4.3/32/crtbegin.o
 .rel.text.__cxa_end_catch
                0x0000000000000000        0x0 /home/berkeley/nacl_sdk/pepper_42/toolchain/linux_x86_newlib/bin/../lib/gcc/x86_64-nacl/4.4.3/32/crtbegin.o
 .rel.text.__cxa_begin_catch
                0x0000000000000000        0x0 /home/berkeley/nacl_sdk/pepper_42/toolchain/linux_x86_newlib/bin/../lib/gcc/x86_64-nacl/4.4.3/32/crtbegin.o
 .rel.text._ZNSt9exceptionD2Ev
                0x0000000000000000        0x0 /home/berkeley/nacl_sdk/pepper_42/toolchain/linux_x86_newlib/bin/../lib/gcc/x86_64-nacl/4.4.3/32/crtbegin.o
 .rel.text._ZNSt9exceptionD1Ev
                0x0000000000000000        0x0 /home/berkeley/nacl_sdk/pepper_42/toolchain/linux_x86_newlib/bin/../lib/gcc/x86_64-nacl/4.4.3/32/crtbegin.o
 .rel.text._ZNSt13bad_exceptionD2Ev
                0x0000000000000000        0x0 /home/berkeley/nacl_sdk/pepper_42/toolchain/linux_x86_newlib/bin/../lib/gcc/x86_64-nacl/4.4.3/32/crtbegin.o
 .rel.text._ZNSt13bad_exceptionD1Ev
                0x0000000000000000        0x0 /home/berkeley/nacl_sdk/pepper_42/toolchain/linux_x86_newlib/bin/../lib/gcc/x86_64-nacl/4.4.3/32/crtbegin.o
 .rel.text._ZN10__cxxabiv115__forced_unwindD2Ev
                0x0000000000000000        0x0 /home/berkeley/nacl_sdk/pepper_42/toolchain/linux_x86_newlib/bin/../lib/gcc/x86_64-nacl/4.4.3/32/crtbegin.o
 .rel.text._ZN10__cxxabiv115__forced_unwindD1Ev
                0x0000000000000000        0x0 /home/berkeley/nacl_sdk/pepper_42/toolchain/linux_x86_newlib/bin/../lib/gcc/x86_64-nacl/4.4.3/32/crtbegin.o
 .rel.text._ZN10__cxxabiv119__foreign_exceptionD2Ev
                0x0000000000000000        0x0 /home/berkeley/nacl_sdk/pepper_42/toolchain/linux_x86_newlib/bin/../lib/gcc/x86_64-nacl/4.4.3/32/crtbegin.o
 .rel.text._ZN10__cxxabiv119__foreign_exceptionD1Ev
                0x0000000000000000        0x0 /home/berkeley/nacl_sdk/pepper_42/toolchain/linux_x86_newlib/bin/../lib/gcc/x86_64-nacl/4.4.3/32/crtbegin.o
 .rel.text._ZN10__cxxabiv119__foreign_exceptionD0Ev
                0x0000000000000000        0x0 /home/berkeley/nacl_sdk/pepper_42/toolchain/linux_x86_newlib/bin/../lib/gcc/x86_64-nacl/4.4.3/32/crtbegin.o
 .rel.text._ZN10__cxxabiv115__forced_unwindD0Ev
                0x0000000000000000        0x0 /home/berkeley/nacl_sdk/pepper_42/toolchain/linux_x86_newlib/bin/../lib/gcc/x86_64-nacl/4.4.3/32/crtbegin.o
 .rel.text._ZNSt9exceptionD0Ev
                0x0000000000000000        0x0 /home/berkeley/nacl_sdk/pepper_42/toolchain/linux_x86_newlib/bin/../lib/gcc/x86_64-nacl/4.4.3/32/crtbegin.o
 .rel.text._ZNSt13bad_exceptionD0Ev
                0x0000000000000000        0x0 /home/berkeley/nacl_sdk/pepper_42/toolchain/linux_x86_newlib/bin/../lib/gcc/x86_64-nacl/4.4.3/32/crtbegin.o
 .rel.text.__cxa_pure_virtual
                0x0000000000000000        0x0 /home/berkeley/nacl_sdk/pepper_42/toolchain/linux_x86_newlib/bin/../lib/gcc/x86_64-nacl/4.4.3/32/crtbegin.o
 .rel.text._Znwj
                0x0000000000000000        0x0 /home/berkeley/nacl_sdk/pepper_42/toolchain/linux_x86_newlib/bin/../lib/gcc/x86_64-nacl/4.4.3/32/crtbegin.o
 .rel.text._ZNSt9type_infoD2Ev
                0x0000000000000000        0x0 /home/berkeley/nacl_sdk/pepper_42/toolchain/linux_x86_newlib/bin/../lib/gcc/x86_64-nacl/4.4.3/32/crtbegin.o
 .rel.text._ZNSt9type_infoD1Ev
                0x0000000000000000        0x0 /home/berkeley/nacl_sdk/pepper_42/toolchain/linux_x86_newlib/bin/../lib/gcc/x86_64-nacl/4.4.3/32/crtbegin.o
 .rel.text._ZNSt9type_infoD0Ev
                0x0000000000000000        0x0 /home/berkeley/nacl_sdk/pepper_42/toolchain/linux_x86_newlib/bin/../lib/gcc/x86_64-nacl/4.4.3/32/crtbegin.o
 .rel.text._ZSt18__throw_bad_typeidv
                0x0000000000000000        0x0 /home/berkeley/nacl_sdk/pepper_42/toolchain/linux_x86_newlib/bin/../lib/gcc/x86_64-nacl/4.4.3/32/crtbegin.o
 .rel.text._ZSt16__throw_bad_castv
                0x0000000000000000        0x0 /home/berkeley/nacl_sdk/pepper_42/toolchain/linux_x86_newlib/bin/../lib/gcc/x86_64-nacl/4.4.3/32/crtbegin.o
 .rel.text._ZSt17__throw_bad_allocv
                0x0000000000000000        0x0 /home/berkeley/nacl_sdk/pepper_42/toolchain/linux_x86_newlib/bin/../lib/gcc/x86_64-nacl/4.4.3/32/crtbegin.o
 .rel.text._ZSt21__throw_bad_exceptionv
                0x0000000000000000        0x0 /home/berkeley/nacl_sdk/pepper_42/toolchain/linux_x86_newlib/bin/../lib/gcc/x86_64-nacl/4.4.3/32/crtbegin.o
 .rel.text._ZNSt15underflow_errorD1Ev
                0x0000000000000000        0x0 /home/berkeley/nacl_sdk/pepper_42/toolchain/linux_x86_newlib/bin/../lib/gcc/x86_64-nacl/4.4.3/32/crtbegin.o
 .rel.text._ZNSt14overflow_errorD1Ev
                0x0000000000000000        0x0 /home/berkeley/nacl_sdk/pepper_42/toolchain/linux_x86_newlib/bin/../lib/gcc/x86_64-nacl/4.4.3/32/crtbegin.o
 .rel.text._ZNSt11range_errorD1Ev
                0x0000000000000000        0x0 /home/berkeley/nacl_sdk/pepper_42/toolchain/linux_x86_newlib/bin/../lib/gcc/x86_64-nacl/4.4.3/32/crtbegin.o
 .rel.text._ZNSt15underflow_errorD0Ev
                0x0000000000000000        0x0 /home/berkeley/nacl_sdk/pepper_42/toolchain/linux_x86_newlib/bin/../lib/gcc/x86_64-nacl/4.4.3/32/crtbegin.o
 .rel.text._ZNSt14overflow_errorD0Ev
                0x0000000000000000        0x0 /home/berkeley/nacl_sdk/pepper_42/toolchain/linux_x86_newlib/bin/../lib/gcc/x86_64-nacl/4.4.3/32/crtbegin.o
 .rel.text._ZNSt11range_errorD0Ev
                0x0000000000000000        0x0 /home/berkeley/nacl_sdk/pepper_42/toolchain/linux_x86_newlib/bin/../lib/gcc/x86_64-nacl/4.4.3/32/crtbegin.o
 .rel.text._ZNSt12out_of_rangeD1Ev
                0x0000000000000000        0x0 /home/berkeley/nacl_sdk/pepper_42/toolchain/linux_x86_newlib/bin/../lib/gcc/x86_64-nacl/4.4.3/32/crtbegin.o
 .rel.text._ZNSt12out_of_rangeD0Ev
                0x0000000000000000        0x0 /home/berkeley/nacl_sdk/pepper_42/toolchain/linux_x86_newlib/bin/../lib/gcc/x86_64-nacl/4.4.3/32/crtbegin.o
 .rel.text._ZNSt12length_errorD1Ev
                0x0000000000000000        0x0 /home/berkeley/nacl_sdk/pepper_42/toolchain/linux_x86_newlib/bin/../lib/gcc/x86_64-nacl/4.4.3/32/crtbegin.o
 .rel.text._ZNSt12length_errorD0Ev
                0x0000000000000000        0x0 /home/berkeley/nacl_sdk/pepper_42/toolchain/linux_x86_newlib/bin/../lib/gcc/x86_64-nacl/4.4.3/32/crtbegin.o
 .rel.text._ZNSt16invalid_argumentD1Ev
                0x0000000000000000        0x0 /home/berkeley/nacl_sdk/pepper_42/toolchain/linux_x86_newlib/bin/../lib/gcc/x86_64-nacl/4.4.3/32/crtbegin.o
 .rel.text._ZNSt16invalid_argumentD0Ev
                0x0000000000000000        0x0 /home/berkeley/nacl_sdk/pepper_42/toolchain/linux_x86_newlib/bin/../lib/gcc/x86_64-nacl/4.4.3/32/crtbegin.o
 .rel.text._ZNSt12domain_errorD1Ev
                0x0000000000000000        0x0 /home/berkeley/nacl_sdk/pepper_42/toolchain/linux_x86_newlib/bin/../lib/gcc/x86_64-nacl/4.4.3/32/crtbegin.o
 .rel.text._ZNSt12domain_errorD0Ev
                0x0000000000000000        0x0 /home/berkeley/nacl_sdk/pepper_42/toolchain/linux_x86_newlib/bin/../lib/gcc/x86_64-nacl/4.4.3/32/crtbegin.o
 .rel.text._ZSt20__throw_system_errori
                0x0000000000000000        0x0 /home/berkeley/nacl_sdk/pepper_42/toolchain/linux_x86_newlib/bin/../lib/gcc/x86_64-nacl/4.4.3/32/crtbegin.o
 .rel.text._ZSt19__throw_ios_failurePKc
                0x0000000000000000        0x0 /home/berkeley/nacl_sdk/pepper_42/toolchain/linux_x86_newlib/bin/../lib/gcc/x86_64-nacl/4.4.3/32/crtbegin.o
 .rel.text._ZSt23__throw_underflow_errorPKc
                0x0000000000000000        0x0 /home/berkeley/nacl_sdk/pepper_42/toolchain/linux_x86_newlib/bin/../lib/gcc/x86_64-nacl/4.4.3/32/crtbegin.o
 .rel.text._ZSt22__throw_overflow_errorPKc
                0x0000000000000000        0x0 /home/berkeley/nacl_sdk/pepper_42/toolchain/linux_x86_newlib/bin/../lib/gcc/x86_64-nacl/4.4.3/32/crtbegin.o
 .rel.text._ZSt19__throw_range_errorPKc
                0x0000000000000000        0x0 /home/berkeley/nacl_sdk/pepper_42/toolchain/linux_x86_newlib/bin/../lib/gcc/x86_64-nacl/4.4.3/32/crtbegin.o
 .rel.text._ZSt21__throw_runtime_errorPKc
                0x0000000000000000        0x0 /home/berkeley/nacl_sdk/pepper_42/toolchain/linux_x86_newlib/bin/../lib/gcc/x86_64-nacl/4.4.3/32/crtbegin.o
 .rel.text._ZSt20__throw_out_of_rangePKc
                0x0000000000000000        0x0 /home/berkeley/nacl_sdk/pepper_42/toolchain/linux_x86_newlib/bin/../lib/gcc/x86_64-nacl/4.4.3/32/crtbegin.o
 .rel.text._ZSt20__throw_length_errorPKc
                0x0000000000000000        0x0 /home/berkeley/nacl_sdk/pepper_42/toolchain/linux_x86_newlib/bin/../lib/gcc/x86_64-nacl/4.4.3/32/crtbegin.o
 .rel.text._ZSt24__throw_invalid_argumentPKc
                0x0000000000000000        0x0 /home/berkeley/nacl_sdk/pepper_42/toolchain/linux_x86_newlib/bin/../lib/gcc/x86_64-nacl/4.4.3/32/crtbegin.o
 .rel.text._ZSt20__throw_domain_errorPKc
                0x0000000000000000        0x0 /home/berkeley/nacl_sdk/pepper_42/toolchain/linux_x86_newlib/bin/../lib/gcc/x86_64-nacl/4.4.3/32/crtbegin.o
 .rel.text._ZSt19__throw_logic_errorPKc
                0x0000000000000000        0x0 /home/berkeley/nacl_sdk/pepper_42/toolchain/linux_x86_newlib/bin/../lib/gcc/x86_64-nacl/4.4.3/32/crtbegin.o
 .rel.text._ZNSt8ios_base7failureC1ERKSs
                0x0000000000000000        0x0 /home/berkeley/nacl_sdk/pepper_42/toolchain/linux_x86_newlib/bin/../lib/gcc/x86_64-nacl/4.4.3/32/crtbegin.o
 .rel.text._ZNSt8ios_base7failureC2ERKSs
                0x0000000000000000        0x0 /home/berkeley/nacl_sdk/pepper_42/toolchain/linux_x86_newlib/bin/../lib/gcc/x86_64-nacl/4.4.3/32/crtbegin.o
 .rel.text._ZNSt8ios_base7failureD0Ev
                0x0000000000000000        0x0 /home/berkeley/nacl_sdk/pepper_42/toolchain/linux_x86_newlib/bin/../lib/gcc/x86_64-nacl/4.4.3/32/crtbegin.o
 .rel.text._ZNSt8ios_base7failureD1Ev
                0x0000000000000000        0x0 /home/berkeley/nacl_sdk/pepper_42/toolchain/linux_x86_newlib/bin/../lib/gcc/x86_64-nacl/4.4.3/32/crtbegin.o
 .rel.text._ZNSt8ios_base7failureD2Ev
                0x0000000000000000        0x0 /home/berkeley/nacl_sdk/pepper_42/toolchain/linux_x86_newlib/bin/../lib/gcc/x86_64-nacl/4.4.3/32/crtbegin.o
 .rel.text._ZNSt13runtime_errorC1ERKSs
                0x0000000000000000        0x0 /home/berkeley/nacl_sdk/pepper_42/toolchain/linux_x86_newlib/bin/../lib/gcc/x86_64-nacl/4.4.3/32/crtbegin.o
 .rel.text._ZNSt13runtime_errorC2ERKSs
                0x0000000000000000        0x0 /home/berkeley/nacl_sdk/pepper_42/toolchain/linux_x86_newlib/bin/../lib/gcc/x86_64-nacl/4.4.3/32/crtbegin.o
 .rel.text._ZNSt15underflow_errorC1ERKSs
                0x0000000000000000        0x0 /home/berkeley/nacl_sdk/pepper_42/toolchain/linux_x86_newlib/bin/../lib/gcc/x86_64-nacl/4.4.3/32/crtbegin.o
 .rel.text._ZNSt15underflow_errorC2ERKSs
                0x0000000000000000        0x0 /home/berkeley/nacl_sdk/pepper_42/toolchain/linux_x86_newlib/bin/../lib/gcc/x86_64-nacl/4.4.3/32/crtbegin.o
 .rel.text._ZNSt14overflow_errorC1ERKSs
                0x0000000000000000        0x0 /home/berkeley/nacl_sdk/pepper_42/toolchain/linux_x86_newlib/bin/../lib/gcc/x86_64-nacl/4.4.3/32/crtbegin.o
 .rel.text._ZNSt14overflow_errorC2ERKSs
                0x0000000000000000        0x0 /home/berkeley/nacl_sdk/pepper_42/toolchain/linux_x86_newlib/bin/../lib/gcc/x86_64-nacl/4.4.3/32/crtbegin.o
 .rel.text._ZNSt11range_errorC1ERKSs
                0x0000000000000000        0x0 /home/berkeley/nacl_sdk/pepper_42/toolchain/linux_x86_newlib/bin/../lib/gcc/x86_64-nacl/4.4.3/32/crtbegin.o
 .rel.text._ZNSt11range_errorC2ERKSs
                0x0000000000000000        0x0 /home/berkeley/nacl_sdk/pepper_42/toolchain/linux_x86_newlib/bin/../lib/gcc/x86_64-nacl/4.4.3/32/crtbegin.o
 .rel.text._ZNSt11logic_errorC1ERKSs
                0x0000000000000000        0x0 /home/berkeley/nacl_sdk/pepper_42/toolchain/linux_x86_newlib/bin/../lib/gcc/x86_64-nacl/4.4.3/32/crtbegin.o
 .rel.text._ZNSt11logic_errorC2ERKSs
                0x0000000000000000        0x0 /home/berkeley/nacl_sdk/pepper_42/toolchain/linux_x86_newlib/bin/../lib/gcc/x86_64-nacl/4.4.3/32/crtbegin.o
 .rel.text._ZNSt12out_of_rangeC1ERKSs
                0x0000000000000000        0x0 /home/berkeley/nacl_sdk/pepper_42/toolchain/linux_x86_newlib/bin/../lib/gcc/x86_64-nacl/4.4.3/32/crtbegin.o
 .rel.text._ZNSt12out_of_rangeC2ERKSs
                0x0000000000000000        0x0 /home/berkeley/nacl_sdk/pepper_42/toolchain/linux_x86_newlib/bin/../lib/gcc/x86_64-nacl/4.4.3/32/crtbegin.o
 .rel.text._ZNSt12length_errorC1ERKSs
                0x0000000000000000        0x0 /home/berkeley/nacl_sdk/pepper_42/toolchain/linux_x86_newlib/bin/../lib/gcc/x86_64-nacl/4.4.3/32/crtbegin.o
 .rel.text._ZNSt12length_errorC2ERKSs
                0x0000000000000000        0x0 /home/berkeley/nacl_sdk/pepper_42/toolchain/linux_x86_newlib/bin/../lib/gcc/x86_64-nacl/4.4.3/32/crtbegin.o
 .rel.text._ZNSt16invalid_argumentC1ERKSs
                0x0000000000000000        0x0 /home/berkeley/nacl_sdk/pepper_42/toolchain/linux_x86_newlib/bin/../lib/gcc/x86_64-nacl/4.4.3/32/crtbegin.o
 .rel.text._ZNSt16invalid_argumentC2ERKSs
                0x0000000000000000        0x0 /home/berkeley/nacl_sdk/pepper_42/toolchain/linux_x86_newlib/bin/../lib/gcc/x86_64-nacl/4.4.3/32/crtbegin.o
 .rel.text._ZNSt12domain_errorC1ERKSs
                0x0000000000000000        0x0 /home/berkeley/nacl_sdk/pepper_42/toolchain/linux_x86_newlib/bin/../lib/gcc/x86_64-nacl/4.4.3/32/crtbegin.o
 .rel.text._ZNSt12domain_errorC2ERKSs
                0x0000000000000000        0x0 /home/berkeley/nacl_sdk/pepper_42/toolchain/linux_x86_newlib/bin/../lib/gcc/x86_64-nacl/4.4.3/32/crtbegin.o
 .rel.text._ZNSt13runtime_errorD2Ev
                0x0000000000000000        0x0 /home/berkeley/nacl_sdk/pepper_42/toolchain/linux_x86_newlib/bin/../lib/gcc/x86_64-nacl/4.4.3/32/crtbegin.o
 .rel.text._ZNSt11logic_errorD1Ev
                0x0000000000000000        0x0 /home/berkeley/nacl_sdk/pepper_42/toolchain/linux_x86_newlib/bin/../lib/gcc/x86_64-nacl/4.4.3/32/crtbegin.o
 .rel.text._ZNSt11logic_errorD2Ev
                0x0000000000000000        0x0 /home/berkeley/nacl_sdk/pepper_42/toolchain/linux_x86_newlib/bin/../lib/gcc/x86_64-nacl/4.4.3/32/crtbegin.o
 .rel.text._ZNSt13runtime_errorD0Ev
                0x0000000000000000        0x0 /home/berkeley/nacl_sdk/pepper_42/toolchain/linux_x86_newlib/bin/../lib/gcc/x86_64-nacl/4.4.3/32/crtbegin.o
 .rel.text._ZNSt13runtime_errorD1Ev
                0x0000000000000000        0x0 /home/berkeley/nacl_sdk/pepper_42/toolchain/linux_x86_newlib/bin/../lib/gcc/x86_64-nacl/4.4.3/32/crtbegin.o
 .rel.text._ZNSt11logic_errorD0Ev
                0x0000000000000000        0x0 /home/berkeley/nacl_sdk/pepper_42/toolchain/linux_x86_newlib/bin/../lib/gcc/x86_64-nacl/4.4.3/32/crtbegin.o
 .rel.text._ZNSt14error_categoryD1Ev
                0x0000000000000000        0x0 /home/berkeley/nacl_sdk/pepper_42/toolchain/linux_x86_newlib/bin/../lib/gcc/x86_64-nacl/4.4.3/32/crtbegin.o
 .rel.text._ZN12_GLOBAL__N_122generic_error_categoryD1Ev
                0x0000000000000000        0x0 /home/berkeley/nacl_sdk/pepper_42/toolchain/linux_x86_newlib/bin/../lib/gcc/x86_64-nacl/4.4.3/32/crtbegin.o
 .rel.text._ZN12_GLOBAL__N_121system_error_categoryD1Ev
                0x0000000000000000        0x0 /home/berkeley/nacl_sdk/pepper_42/toolchain/linux_x86_newlib/bin/../lib/gcc/x86_64-nacl/4.4.3/32/crtbegin.o
 .rel.text._ZNSt14error_categoryD0Ev
                0x0000000000000000        0x0 /home/berkeley/nacl_sdk/pepper_42/toolchain/linux_x86_newlib/bin/../lib/gcc/x86_64-nacl/4.4.3/32/crtbegin.o
 .rel.text._ZN12_GLOBAL__N_122generic_error_categoryD0Ev
                0x0000000000000000        0x0 /home/berkeley/nacl_sdk/pepper_42/toolchain/linux_x86_newlib/bin/../lib/gcc/x86_64-nacl/4.4.3/32/crtbegin.o
 .rel.text._ZN12_GLOBAL__N_121system_error_categoryD0Ev
                0x0000000000000000        0x0 /home/berkeley/nacl_sdk/pepper_42/toolchain/linux_x86_newlib/bin/../lib/gcc/x86_64-nacl/4.4.3/32/crtbegin.o
 .rel.text._GLOBAL__I__ZSt15system_categoryv
                0x0000000000000000        0x0 /home/berkeley/nacl_sdk/pepper_42/toolchain/linux_x86_newlib/bin/../lib/gcc/x86_64-nacl/4.4.3/32/crtbegin.o
 .rel.text._ZNK12_GLOBAL__N_122generic_error_category7messageEi
                0x0000000000000000        0x0 /home/berkeley/nacl_sdk/pepper_42/toolchain/linux_x86_newlib/bin/../lib/gcc/x86_64-nacl/4.4.3/32/crtbegin.o
 .rel.text._ZNK12_GLOBAL__N_121system_error_category7messageEi
                0x0000000000000000        0x0 /home/berkeley/nacl_sdk/pepper_42/toolchain/linux_x86_newlib/bin/../lib/gcc/x86_64-nacl/4.4.3/32/crtbegin.o
 .rel.text._ZNSt12system_errorD0Ev
                0x0000000000000000        0x0 /home/berkeley/nacl_sdk/pepper_42/toolchain/linux_x86_newlib/bin/../lib/gcc/x86_64-nacl/4.4.3/32/crtbegin.o
 .rel.text._ZNSt12system_errorD1Ev
                0x0000000000000000        0x0 /home/berkeley/nacl_sdk/pepper_42/toolchain/linux_x86_newlib/bin/../lib/gcc/x86_64-nacl/4.4.3/32/crtbegin.o
 .rel.text._ZNSt12system_errorD2Ev
                0x0000000000000000        0x0 /home/berkeley/nacl_sdk/pepper_42/toolchain/linux_x86_newlib/bin/../lib/gcc/x86_64-nacl/4.4.3/32/crtbegin.o
 .rel.text._ZNSt10bad_typeidD1Ev
                0x0000000000000000        0x0 /home/berkeley/nacl_sdk/pepper_42/toolchain/linux_x86_newlib/bin/../lib/gcc/x86_64-nacl/4.4.3/32/crtbegin.o
 .rel.text._ZNSt10bad_typeidD2Ev
                0x0000000000000000        0x0 /home/berkeley/nacl_sdk/pepper_42/toolchain/linux_x86_newlib/bin/../lib/gcc/x86_64-nacl/4.4.3/32/crtbegin.o
 .rel.text._ZNSt10bad_typeidD0Ev
                0x0000000000000000        0x0 /home/berkeley/nacl_sdk/pepper_42/toolchain/linux_x86_newlib/bin/../lib/gcc/x86_64-nacl/4.4.3/32/crtbegin.o
 .rel.text._ZNSt9bad_allocD1Ev
                0x0000000000000000        0x0 /home/berkeley/nacl_sdk/pepper_42/toolchain/linux_x86_newlib/bin/../lib/gcc/x86_64-nacl/4.4.3/32/crtbegin.o
 .rel.text._ZNSt9bad_allocD2Ev
                0x0000000000000000        0x0 /home/berkeley/nacl_sdk/pepper_42/toolchain/linux_x86_newlib/bin/../lib/gcc/x86_64-nacl/4.4.3/32/crtbegin.o
 .rel.text._ZNSt9bad_allocD0Ev
                0x0000000000000000        0x0 /home/berkeley/nacl_sdk/pepper_42/toolchain/linux_x86_newlib/bin/../lib/gcc/x86_64-nacl/4.4.3/32/crtbegin.o
 .rel.text._ZNSt8bad_castD1Ev
                0x0000000000000000        0x0 /home/berkeley/nacl_sdk/pepper_42/toolchain/linux_x86_newlib/bin/../lib/gcc/x86_64-nacl/4.4.3/32/crtbegin.o
 .rel.text._ZNSt8bad_castD2Ev
                0x0000000000000000        0x0 /home/berkeley/nacl_sdk/pepper_42/toolchain/linux_x86_newlib/bin/../lib/gcc/x86_64-nacl/4.4.3/32/crtbegin.o
 .rel.text._ZNSt8bad_castD0Ev
                0x0000000000000000        0x0 /home/berkeley/nacl_sdk/pepper_42/toolchain/linux_x86_newlib/bin/../lib/gcc/x86_64-nacl/4.4.3/32/crtbegin.o
 .rel.text._ZN9__gnu_cxx27__verbose_terminate_handlerEv
                0x0000000000000000        0x0 /home/berkeley/nacl_sdk/pepper_42/toolchain/linux_x86_newlib/bin/../lib/gcc/x86_64-nacl/4.4.3/32/crtbegin.o
 *(.rel.fini)
 *(.rel.rodata .rel.rodata.* .rel.gnu.linkonce.r.*)
 .rel.rodata._ZTV19HelloTutorialModule
                0x0000000000000000        0x0 /home/berkeley/nacl_sdk/pepper_42/toolchain/linux_x86_newlib/bin/../lib/gcc/x86_64-nacl/4.4.3/32/crtbegin.o
 .rel.rodata._ZTI19HelloTutorialModule
                0x0000000000000000        0x0 /home/berkeley/nacl_sdk/pepper_42/toolchain/linux_x86_newlib/bin/../lib/gcc/x86_64-nacl/4.4.3/32/crtbegin.o
 .rel.rodata._ZTV21HelloTutorialInstance
                0x0000000000000000        0x0 /home/berkeley/nacl_sdk/pepper_42/toolchain/linux_x86_newlib/bin/../lib/gcc/x86_64-nacl/4.4.3/32/crtbegin.o
 .rel.rodata._ZTI21HelloTutorialInstance
                0x0000000000000000        0x0 /home/berkeley/nacl_sdk/pepper_42/toolchain/linux_x86_newlib/bin/../lib/gcc/x86_64-nacl/4.4.3/32/crtbegin.o
 .rel.rodata._ZTVN2pp8InstanceE
                0x0000000000000000        0x0 /home/berkeley/nacl_sdk/pepper_42/toolchain/linux_x86_newlib/bin/../lib/gcc/x86_64-nacl/4.4.3/32/crtbegin.o
 .rel.rodata._ZTIN2pp8InstanceE
                0x0000000000000000        0x0 /home/berkeley/nacl_sdk/pepper_42/toolchain/linux_x86_newlib/bin/../lib/gcc/x86_64-nacl/4.4.3/32/crtbegin.o
 .rel.rodata._ZTVN2pp6ModuleE
                0x0000000000000000        0x0 /home/berkeley/nacl_sdk/pepper_42/toolchain/linux_x86_newlib/bin/../lib/gcc/x86_64-nacl/4.4.3/32/crtbegin.o
 .rel.rodata._ZTIN2pp6ModuleE
                0x0000000000000000        0x0 /home/berkeley/nacl_sdk/pepper_42/toolchain/linux_x86_newlib/bin/../lib/gcc/x86_64-nacl/4.4.3/32/crtbegin.o
 .rel.rodata._ZTVN2pp9URLLoaderE
                0x0000000000000000        0x0 /home/berkeley/nacl_sdk/pepper_42/toolchain/linux_x86_newlib/bin/../lib/gcc/x86_64-nacl/4.4.3/32/crtbegin.o
 .rel.rodata._ZTIN2pp9URLLoaderE
                0x0000000000000000        0x0 /home/berkeley/nacl_sdk/pepper_42/toolchain/linux_x86_newlib/bin/../lib/gcc/x86_64-nacl/4.4.3/32/crtbegin.o
 .rel.rodata._ZTVN2pp4ViewE
                0x0000000000000000        0x0 /home/berkeley/nacl_sdk/pepper_42/toolchain/linux_x86_newlib/bin/../lib/gcc/x86_64-nacl/4.4.3/32/crtbegin.o
 .rel.rodata._ZTIN2pp4ViewE
                0x0000000000000000        0x0 /home/berkeley/nacl_sdk/pepper_42/toolchain/linux_x86_newlib/bin/../lib/gcc/x86_64-nacl/4.4.3/32/crtbegin.o
 .rel.rodata._ZTVN2pp8ResourceE
                0x0000000000000000        0x0 /home/berkeley/nacl_sdk/pepper_42/toolchain/linux_x86_newlib/bin/../lib/gcc/x86_64-nacl/4.4.3/32/crtbegin.o
 .rel.rodata._ZTIN2pp8ResourceE
                0x0000000000000000        0x0 /home/berkeley/nacl_sdk/pepper_42/toolchain/linux_x86_newlib/bin/../lib/gcc/x86_64-nacl/4.4.3/32/crtbegin.o
 .rel.rodata._ZTVN2pp15URLResponseInfoE
                0x0000000000000000        0x0 /home/berkeley/nacl_sdk/pepper_42/toolchain/linux_x86_newlib/bin/../lib/gcc/x86_64-nacl/4.4.3/32/crtbegin.o
 .rel.rodata._ZTIN2pp15URLResponseInfoE
                0x0000000000000000        0x0 /home/berkeley/nacl_sdk/pepper_42/toolchain/linux_x86_newlib/bin/../lib/gcc/x86_64-nacl/4.4.3/32/crtbegin.o
 .rel.rodata._ZTVN2pp7FileRefE
                0x0000000000000000        0x0 /home/berkeley/nacl_sdk/pepper_42/toolchain/linux_x86_newlib/bin/../lib/gcc/x86_64-nacl/4.4.3/32/crtbegin.o
 .rel.rodata._ZTIN2pp7FileRefE
                0x0000000000000000        0x0 /home/berkeley/nacl_sdk/pepper_42/toolchain/linux_x86_newlib/bin/../lib/gcc/x86_64-nacl/4.4.3/32/crtbegin.o
 .rel.rodata._ZTVN2pp3VarE
                0x0000000000000000        0x0 /home/berkeley/nacl_sdk/pepper_42/toolchain/linux_x86_newlib/bin/../lib/gcc/x86_64-nacl/4.4.3/32/crtbegin.o
 .rel.rodata._ZTIN2pp3VarE
                0x0000000000000000        0x0 /home/berkeley/nacl_sdk/pepper_42/toolchain/linux_x86_newlib/bin/../lib/gcc/x86_64-nacl/4.4.3/32/crtbegin.o
 .rel.rodata._ZTVN2pp10InputEventE
                0x0000000000000000        0x0 /home/berkeley/nacl_sdk/pepper_42/toolchain/linux_x86_newlib/bin/../lib/gcc/x86_64-nacl/4.4.3/32/crtbegin.o
 .rel.rodata._ZTIN2pp10InputEventE
                0x0000000000000000        0x0 /home/berkeley/nacl_sdk/pepper_42/toolchain/linux_x86_newlib/bin/../lib/gcc/x86_64-nacl/4.4.3/32/crtbegin.o
 .rel.rodata._ZTVN2pp13IMEInputEventE
                0x0000000000000000        0x0 /home/berkeley/nacl_sdk/pepper_42/toolchain/linux_x86_newlib/bin/../lib/gcc/x86_64-nacl/4.4.3/32/crtbegin.o
 .rel.rodata._ZTIN2pp13IMEInputEventE
                0x0000000000000000        0x0 /home/berkeley/nacl_sdk/pepper_42/toolchain/linux_x86_newlib/bin/../lib/gcc/x86_64-nacl/4.4.3/32/crtbegin.o
 .rel.rodata._ZTVN2pp15TouchInputEventE
                0x0000000000000000        0x0 /home/berkeley/nacl_sdk/pepper_42/toolchain/linux_x86_newlib/bin/../lib/gcc/x86_64-nacl/4.4.3/32/crtbegin.o
 .rel.rodata._ZTIN2pp15TouchInputEventE
                0x0000000000000000        0x0 /home/berkeley/nacl_sdk/pepper_42/toolchain/linux_x86_newlib/bin/../lib/gcc/x86_64-nacl/4.4.3/32/crtbegin.o
 .rel.rodata._ZTVN2pp18KeyboardInputEventE
                0x0000000000000000        0x0 /home/berkeley/nacl_sdk/pepper_42/toolchain/linux_x86_newlib/bin/../lib/gcc/x86_64-nacl/4.4.3/32/crtbegin.o
 .rel.rodata._ZTIN2pp18KeyboardInputEventE
                0x0000000000000000        0x0 /home/berkeley/nacl_sdk/pepper_42/toolchain/linux_x86_newlib/bin/../lib/gcc/x86_64-nacl/4.4.3/32/crtbegin.o
 .rel.rodata._ZTVN2pp15WheelInputEventE
                0x0000000000000000        0x0 /home/berkeley/nacl_sdk/pepper_42/toolchain/linux_x86_newlib/bin/../lib/gcc/x86_64-nacl/4.4.3/32/crtbegin.o
 .rel.rodata._ZTIN2pp15WheelInputEventE
                0x0000000000000000        0x0 /home/berkeley/nacl_sdk/pepper_42/toolchain/linux_x86_newlib/bin/../lib/gcc/x86_64-nacl/4.4.3/32/crtbegin.o
 .rel.rodata._ZTVN2pp15MouseInputEventE
                0x0000000000000000        0x0 /home/berkeley/nacl_sdk/pepper_42/toolchain/linux_x86_newlib/bin/../lib/gcc/x86_64-nacl/4.4.3/32/crtbegin.o
 .rel.rodata._ZTIN2pp15MouseInputEventE
                0x0000000000000000        0x0 /home/berkeley/nacl_sdk/pepper_42/toolchain/linux_x86_newlib/bin/../lib/gcc/x86_64-nacl/4.4.3/32/crtbegin.o
 .rel.rodata._ZTVN9__gnu_cxx20recursive_init_errorE
                0x0000000000000000        0x0 /home/berkeley/nacl_sdk/pepper_42/toolchain/linux_x86_newlib/bin/../lib/gcc/x86_64-nacl/4.4.3/32/crtbegin.o
 .rel.rodata._ZTIN9__gnu_cxx20recursive_init_errorE
                0x0000000000000000        0x0 /home/berkeley/nacl_sdk/pepper_42/toolchain/linux_x86_newlib/bin/../lib/gcc/x86_64-nacl/4.4.3/32/crtbegin.o
 .rel.rodata._ZTIN9__gnu_cxx26__concurrence_unlock_errorE
                0x0000000000000000        0x0 /home/berkeley/nacl_sdk/pepper_42/toolchain/linux_x86_newlib/bin/../lib/gcc/x86_64-nacl/4.4.3/32/crtbegin.o
 .rel.rodata._ZTVN9__gnu_cxx26__concurrence_unlock_errorE
                0x0000000000000000        0x0 /home/berkeley/nacl_sdk/pepper_42/toolchain/linux_x86_newlib/bin/../lib/gcc/x86_64-nacl/4.4.3/32/crtbegin.o
 .rel.rodata._ZTIN9__gnu_cxx24__concurrence_lock_errorE
                0x0000000000000000        0x0 /home/berkeley/nacl_sdk/pepper_42/toolchain/linux_x86_newlib/bin/../lib/gcc/x86_64-nacl/4.4.3/32/crtbegin.o
 .rel.rodata._ZTVN9__gnu_cxx24__concurrence_lock_errorE
                0x0000000000000000        0x0 /home/berkeley/nacl_sdk/pepper_42/toolchain/linux_x86_newlib/bin/../lib/gcc/x86_64-nacl/4.4.3/32/crtbegin.o
 .rel.rodata._ZTVN10__cxxabiv120__si_class_type_infoE
                0x0000000000000000        0x0 /home/berkeley/nacl_sdk/pepper_42/toolchain/linux_x86_newlib/bin/../lib/gcc/x86_64-nacl/4.4.3/32/crtbegin.o
 .rel.rodata._ZTIN10__cxxabiv120__si_class_type_infoE
                0x0000000000000000        0x0 /home/berkeley/nacl_sdk/pepper_42/toolchain/linux_x86_newlib/bin/../lib/gcc/x86_64-nacl/4.4.3/32/crtbegin.o
 .rel.rodata._ZTVN10__cxxabiv117__class_type_infoE
                0x0000000000000000        0x0 /home/berkeley/nacl_sdk/pepper_42/toolchain/linux_x86_newlib/bin/../lib/gcc/x86_64-nacl/4.4.3/32/crtbegin.o
 .rel.rodata._ZTIN10__cxxabiv117__class_type_infoE
                0x0000000000000000        0x0 /home/berkeley/nacl_sdk/pepper_42/toolchain/linux_x86_newlib/bin/../lib/gcc/x86_64-nacl/4.4.3/32/crtbegin.o
 .rel.rodata._ZTVN10__cxxabiv119__foreign_exceptionE
                0x0000000000000000        0x0 /home/berkeley/nacl_sdk/pepper_42/toolchain/linux_x86_newlib/bin/../lib/gcc/x86_64-nacl/4.4.3/32/crtbegin.o
 .rel.rodata._ZTVN10__cxxabiv115__forced_unwindE
                0x0000000000000000        0x0 /home/berkeley/nacl_sdk/pepper_42/toolchain/linux_x86_newlib/bin/../lib/gcc/x86_64-nacl/4.4.3/32/crtbegin.o
 .rel.rodata._ZTVSt13bad_exception
                0x0000000000000000        0x0 /home/berkeley/nacl_sdk/pepper_42/toolchain/linux_x86_newlib/bin/../lib/gcc/x86_64-nacl/4.4.3/32/crtbegin.o
 .rel.rodata._ZTVSt9exception
                0x0000000000000000        0x0 /home/berkeley/nacl_sdk/pepper_42/toolchain/linux_x86_newlib/bin/../lib/gcc/x86_64-nacl/4.4.3/32/crtbegin.o
 .rel.rodata._ZTIN10__cxxabiv119__foreign_exceptionE
                0x0000000000000000        0x0 /home/berkeley/nacl_sdk/pepper_42/toolchain/linux_x86_newlib/bin/../lib/gcc/x86_64-nacl/4.4.3/32/crtbegin.o
 .rel.rodata._ZTIN10__cxxabiv115__forced_unwindE
                0x0000000000000000        0x0 /home/berkeley/nacl_sdk/pepper_42/toolchain/linux_x86_newlib/bin/../lib/gcc/x86_64-nacl/4.4.3/32/crtbegin.o
 .rel.rodata._ZTISt13bad_exception
                0x0000000000000000        0x0 /home/berkeley/nacl_sdk/pepper_42/toolchain/linux_x86_newlib/bin/../lib/gcc/x86_64-nacl/4.4.3/32/crtbegin.o
 .rel.rodata._ZTISt9exception
                0x0000000000000000        0x0 /home/berkeley/nacl_sdk/pepper_42/toolchain/linux_x86_newlib/bin/../lib/gcc/x86_64-nacl/4.4.3/32/crtbegin.o
 .rel.rodata._ZTVSt9type_info
                0x0000000000000000        0x0 /home/berkeley/nacl_sdk/pepper_42/toolchain/linux_x86_newlib/bin/../lib/gcc/x86_64-nacl/4.4.3/32/crtbegin.o
 .rel.rodata._ZTISt9type_info
                0x0000000000000000        0x0 /home/berkeley/nacl_sdk/pepper_42/toolchain/linux_x86_newlib/bin/../lib/gcc/x86_64-nacl/4.4.3/32/crtbegin.o
 .rel.rodata._ZTISt15underflow_error
                0x0000000000000000        0x0 /home/berkeley/nacl_sdk/pepper_42/toolchain/linux_x86_newlib/bin/../lib/gcc/x86_64-nacl/4.4.3/32/crtbegin.o
 .rel.rodata._ZTVSt15underflow_error
                0x0000000000000000        0x0 /home/berkeley/nacl_sdk/pepper_42/toolchain/linux_x86_newlib/bin/../lib/gcc/x86_64-nacl/4.4.3/32/crtbegin.o
 .rel.rodata._ZTISt14overflow_error
                0x0000000000000000        0x0 /home/berkeley/nacl_sdk/pepper_42/toolchain/linux_x86_newlib/bin/../lib/gcc/x86_64-nacl/4.4.3/32/crtbegin.o
 .rel.rodata._ZTVSt14overflow_error
                0x0000000000000000        0x0 /home/berkeley/nacl_sdk/pepper_42/toolchain/linux_x86_newlib/bin/../lib/gcc/x86_64-nacl/4.4.3/32/crtbegin.o
 .rel.rodata._ZTISt11range_error
                0x0000000000000000        0x0 /home/berkeley/nacl_sdk/pepper_42/toolchain/linux_x86_newlib/bin/../lib/gcc/x86_64-nacl/4.4.3/32/crtbegin.o
 .rel.rodata._ZTVSt11range_error
                0x0000000000000000        0x0 /home/berkeley/nacl_sdk/pepper_42/toolchain/linux_x86_newlib/bin/../lib/gcc/x86_64-nacl/4.4.3/32/crtbegin.o
 .rel.rodata._ZTISt12out_of_range
                0x0000000000000000        0x0 /home/berkeley/nacl_sdk/pepper_42/toolchain/linux_x86_newlib/bin/../lib/gcc/x86_64-nacl/4.4.3/32/crtbegin.o
 .rel.rodata._ZTVSt12out_of_range
                0x0000000000000000        0x0 /home/berkeley/nacl_sdk/pepper_42/toolchain/linux_x86_newlib/bin/../lib/gcc/x86_64-nacl/4.4.3/32/crtbegin.o
 .rel.rodata._ZTISt12length_error
                0x0000000000000000        0x0 /home/berkeley/nacl_sdk/pepper_42/toolchain/linux_x86_newlib/bin/../lib/gcc/x86_64-nacl/4.4.3/32/crtbegin.o
 .rel.rodata._ZTVSt12length_error
                0x0000000000000000        0x0 /home/berkeley/nacl_sdk/pepper_42/toolchain/linux_x86_newlib/bin/../lib/gcc/x86_64-nacl/4.4.3/32/crtbegin.o
 .rel.rodata._ZTISt16invalid_argument
                0x0000000000000000        0x0 /home/berkeley/nacl_sdk/pepper_42/toolchain/linux_x86_newlib/bin/../lib/gcc/x86_64-nacl/4.4.3/32/crtbegin.o
 .rel.rodata._ZTVSt16invalid_argument
                0x0000000000000000        0x0 /home/berkeley/nacl_sdk/pepper_42/toolchain/linux_x86_newlib/bin/../lib/gcc/x86_64-nacl/4.4.3/32/crtbegin.o
 .rel.rodata._ZTISt12domain_error
                0x0000000000000000        0x0 /home/berkeley/nacl_sdk/pepper_42/toolchain/linux_x86_newlib/bin/../lib/gcc/x86_64-nacl/4.4.3/32/crtbegin.o
 .rel.rodata._ZTVSt12domain_error
                0x0000000000000000        0x0 /home/berkeley/nacl_sdk/pepper_42/toolchain/linux_x86_newlib/bin/../lib/gcc/x86_64-nacl/4.4.3/32/crtbegin.o
 .rel.rodata._ZTVNSt8ios_base7failureE
                0x0000000000000000        0x0 /home/berkeley/nacl_sdk/pepper_42/toolchain/linux_x86_newlib/bin/../lib/gcc/x86_64-nacl/4.4.3/32/crtbegin.o
 .rel.rodata._ZTINSt8ios_base7failureE
                0x0000000000000000        0x0 /home/berkeley/nacl_sdk/pepper_42/toolchain/linux_x86_newlib/bin/../lib/gcc/x86_64-nacl/4.4.3/32/crtbegin.o
 .rel.rodata._ZTVSt13runtime_error
                0x0000000000000000        0x0 /home/berkeley/nacl_sdk/pepper_42/toolchain/linux_x86_newlib/bin/../lib/gcc/x86_64-nacl/4.4.3/32/crtbegin.o
 .rel.rodata._ZTVSt11logic_error
                0x0000000000000000        0x0 /home/berkeley/nacl_sdk/pepper_42/toolchain/linux_x86_newlib/bin/../lib/gcc/x86_64-nacl/4.4.3/32/crtbegin.o
 .rel.rodata._ZTISt13runtime_error
                0x0000000000000000        0x0 /home/berkeley/nacl_sdk/pepper_42/toolchain/linux_x86_newlib/bin/../lib/gcc/x86_64-nacl/4.4.3/32/crtbegin.o
 .rel.rodata._ZTISt11logic_error
                0x0000000000000000        0x0 /home/berkeley/nacl_sdk/pepper_42/toolchain/linux_x86_newlib/bin/../lib/gcc/x86_64-nacl/4.4.3/32/crtbegin.o
 .rel.rodata._ZTVSt14error_category
                0x0000000000000000        0x0 /home/berkeley/nacl_sdk/pepper_42/toolchain/linux_x86_newlib/bin/../lib/gcc/x86_64-nacl/4.4.3/32/crtbegin.o
 .rel.rodata._ZTVSt12system_error
                0x0000000000000000        0x0 /home/berkeley/nacl_sdk/pepper_42/toolchain/linux_x86_newlib/bin/../lib/gcc/x86_64-nacl/4.4.3/32/crtbegin.o
 .rel.rodata._ZTISt12system_error
                0x0000000000000000        0x0 /home/berkeley/nacl_sdk/pepper_42/toolchain/linux_x86_newlib/bin/../lib/gcc/x86_64-nacl/4.4.3/32/crtbegin.o
 .rel.rodata._ZTISt14error_category
                0x0000000000000000        0x0 /home/berkeley/nacl_sdk/pepper_42/toolchain/linux_x86_newlib/bin/../lib/gcc/x86_64-nacl/4.4.3/32/crtbegin.o
 .rel.rodata._ZTIN12_GLOBAL__N_122generic_error_categoryE
                0x0000000000000000        0x0 /home/berkeley/nacl_sdk/pepper_42/toolchain/linux_x86_newlib/bin/../lib/gcc/x86_64-nacl/4.4.3/32/crtbegin.o
 .rel.rodata._ZTIN12_GLOBAL__N_121system_error_categoryE
                0x0000000000000000        0x0 /home/berkeley/nacl_sdk/pepper_42/toolchain/linux_x86_newlib/bin/../lib/gcc/x86_64-nacl/4.4.3/32/crtbegin.o
 .rel.rodata._ZTVSt10bad_typeid
                0x0000000000000000        0x0 /home/berkeley/nacl_sdk/pepper_42/toolchain/linux_x86_newlib/bin/../lib/gcc/x86_64-nacl/4.4.3/32/crtbegin.o
 .rel.rodata._ZTISt10bad_typeid
                0x0000000000000000        0x0 /home/berkeley/nacl_sdk/pepper_42/toolchain/linux_x86_newlib/bin/../lib/gcc/x86_64-nacl/4.4.3/32/crtbegin.o
 .rel.rodata._ZTVSt9bad_alloc
                0x0000000000000000        0x0 /home/berkeley/nacl_sdk/pepper_42/toolchain/linux_x86_newlib/bin/../lib/gcc/x86_64-nacl/4.4.3/32/crtbegin.o
 .rel.rodata._ZTISt9bad_alloc
                0x0000000000000000        0x0 /home/berkeley/nacl_sdk/pepper_42/toolchain/linux_x86_newlib/bin/../lib/gcc/x86_64-nacl/4.4.3/32/crtbegin.o
 .rel.rodata._ZTVSt8bad_cast
                0x0000000000000000        0x0 /home/berkeley/nacl_sdk/pepper_42/toolchain/linux_x86_newlib/bin/../lib/gcc/x86_64-nacl/4.4.3/32/crtbegin.o
 .rel.rodata._ZTISt8bad_cast
                0x0000000000000000        0x0 /home/berkeley/nacl_sdk/pepper_42/toolchain/linux_x86_newlib/bin/../lib/gcc/x86_64-nacl/4.4.3/32/crtbegin.o
 *(.rel.data.rel.ro .rel.data.rel.ro.* .rel.gnu.linkonce.d.rel.ro.*)
 *(.rel.data .rel.data.* .rel.gnu.linkonce.d.*)
 .rel.data._ZN10__cxxabiv119__terminate_handlerE
                0x0000000000000000        0x0 /home/berkeley/nacl_sdk/pepper_42/toolchain/linux_x86_newlib/bin/../lib/gcc/x86_64-nacl/4.4.3/32/crtbegin.o
 *(.rel.tdata .rel.tdata.* .rel.gnu.linkonce.td.*)
 *(.rel.tbss .rel.tbss.* .rel.gnu.linkonce.tb.*)
 *(.rel.ctors)
 *(.rel.dtors)
 *(.rel.got)
 .rel.got       0x0000000000000000        0x0 /home/berkeley/nacl_sdk/pepper_42/toolchain/linux_x86_newlib/bin/../lib/gcc/x86_64-nacl/4.4.3/32/crtbegin.o
 *(.rel.bss .rel.bss.* .rel.gnu.linkonce.b.*)
 *(.rel.ifunc)
 .rel.eh_frame  0x0000000000000000        0x0 /home/berkeley/nacl_sdk/pepper_42/toolchain/linux_x86_newlib/bin/../lib/gcc/x86_64-nacl/4.4.3/32/crtbegin.o
 .rel.gcc_except_table._Znwj
                0x0000000000000000        0x0 /home/berkeley/nacl_sdk/pepper_42/toolchain/linux_x86_newlib/bin/../lib/gcc/x86_64-nacl/4.4.3/32/crtbegin.o
 .rel.gcc_except_table._ZN9__gnu_cxx27__verbose_terminate_handlerEv
                0x0000000000000000        0x0 /home/berkeley/nacl_sdk/pepper_42/toolchain/linux_x86_newlib/bin/../lib/gcc/x86_64-nacl/4.4.3/32/crtbegin.o

.rel.plt        0x0000000010020138        0x0
 *(.rel.plt)
                0x0000000010020138                PROVIDE (__rel_iplt_start, .)
 *(.rel.iplt)
 .rel.iplt      0x0000000000000000        0x0 /home/berkeley/nacl_sdk/pepper_42/toolchain/linux_x86_newlib/bin/../lib/gcc/x86_64-nacl/4.4.3/32/crtbegin.o
                0x0000000010020138                PROVIDE (__rel_iplt_end, .)

.rodata         0x0000000010020140     0x41b6
 *(.rodata .rodata.* .gnu.linkonce.r.*)
 .rodata._ZTV19HelloTutorialModule
                0x0000000010020140       0x18 newlib/Release/popcnt_x86_32.o
                0x0000000010020140                _ZTV19HelloTutorialModule
 .rodata._ZTI19HelloTutorialModule
                0x0000000010020158        0xc newlib/Release/popcnt_x86_32.o
                0x0000000010020158                _ZTI19HelloTutorialModule
 .rodata._ZTS19HelloTutorialModule
                0x0000000010020164       0x16 newlib/Release/popcnt_x86_32.o
                0x0000000010020164                _ZTS19HelloTutorialModule
 *fill*         0x000000001002017a        0x6 
 .rodata._ZTV21HelloTutorialInstance
                0x0000000010020180       0x2c newlib/Release/popcnt_x86_32.o
                0x0000000010020180                _ZTV21HelloTutorialInstance
 .rodata._ZTI21HelloTutorialInstance
                0x00000000100201ac        0xc newlib/Release/popcnt_x86_32.o
                0x00000000100201ac                _ZTI21HelloTutorialInstance
 .rodata._ZTS21HelloTutorialInstance
                0x00000000100201b8       0x18 newlib/Release/popcnt_x86_32.o
                0x00000000100201b8                _ZTS21HelloTutorialInstance
 .rodata.str1.1
                0x00000000100201d0       0x58 /home/berkeley/nacl_sdk/pepper_42/lib/newlib_x86_32/Release/libppapi_cpp.a(instance_x86_32.o)
 *fill*         0x0000000010020228       0x18 
 .rodata._ZTVN2pp8InstanceE
                0x0000000010020240       0x2c /home/berkeley/nacl_sdk/pepper_42/lib/newlib_x86_32/Release/libppapi_cpp.a(instance_x86_32.o)
                0x0000000010020240                _ZTVN2pp8InstanceE
 .rodata._ZTSN2pp8InstanceE
                0x000000001002026c        0xf /home/berkeley/nacl_sdk/pepper_42/lib/newlib_x86_32/Release/libppapi_cpp.a(instance_x86_32.o)
                0x000000001002026c                _ZTSN2pp8InstanceE
 *fill*         0x000000001002027b        0x1 
 .rodata._ZTIN2pp8InstanceE
                0x000000001002027c        0x8 /home/berkeley/nacl_sdk/pepper_42/lib/newlib_x86_32/Release/libppapi_cpp.a(instance_x86_32.o)
                0x000000001002027c                _ZTIN2pp8InstanceE
 .rodata.str1.1
                0x0000000010020284       0x43 /home/berkeley/nacl_sdk/pepper_42/lib/newlib_x86_32/Release/libppapi_cpp.a(module_x86_32.o)
 *fill*         0x00000000100202c7        0x1 
 .rodata._ZTVN2pp6ModuleE
                0x00000000100202c8       0x18 /home/berkeley/nacl_sdk/pepper_42/lib/newlib_x86_32/Release/libppapi_cpp.a(module_x86_32.o)
                0x00000000100202c8                _ZTVN2pp6ModuleE
 .rodata._ZTSN2pp6ModuleE
                0x00000000100202e0        0xd /home/berkeley/nacl_sdk/pepper_42/lib/newlib_x86_32/Release/libppapi_cpp.a(module_x86_32.o)
                0x00000000100202e0                _ZTSN2pp6ModuleE
 *fill*         0x00000000100202ed        0x3 
 .rodata._ZTIN2pp6ModuleE
                0x00000000100202f0        0x8 /home/berkeley/nacl_sdk/pepper_42/lib/newlib_x86_32/Release/libppapi_cpp.a(module_x86_32.o)
                0x00000000100202f0                _ZTIN2pp6ModuleE
 .rodata        0x00000000100202f8        0x4 /home/berkeley/nacl_sdk/pepper_42/lib/newlib_x86_32/Release/libppapi_cpp.a(module_x86_32.o)
 *fill*         0x00000000100202fc        0x4 
 .rodata._ZTVN2pp9URLLoaderE
                0x0000000010020300       0x10 /home/berkeley/nacl_sdk/pepper_42/lib/newlib_x86_32/Release/libppapi_cpp.a(module_x86_32.o)
                0x0000000010020300                _ZTVN2pp9URLLoaderE
 .rodata._ZTIN2pp9URLLoaderE
                0x0000000010020310        0xc /home/berkeley/nacl_sdk/pepper_42/lib/newlib_x86_32/Release/libppapi_cpp.a(module_x86_32.o)
                0x0000000010020310                _ZTIN2pp9URLLoaderE
 .rodata._ZTSN2pp9URLLoaderE
                0x000000001002031c       0x10 /home/berkeley/nacl_sdk/pepper_42/lib/newlib_x86_32/Release/libppapi_cpp.a(module_x86_32.o)
                0x000000001002031c                _ZTSN2pp9URLLoaderE
 *fill*         0x000000001002032c        0x4 
 .rodata._ZTVN2pp4ViewE
                0x0000000010020330       0x10 /home/berkeley/nacl_sdk/pepper_42/lib/newlib_x86_32/Release/libppapi_cpp.a(module_x86_32.o)
                0x0000000010020330                _ZTVN2pp4ViewE
 .rodata._ZTIN2pp4ViewE
                0x0000000010020340        0xc /home/berkeley/nacl_sdk/pepper_42/lib/newlib_x86_32/Release/libppapi_cpp.a(module_x86_32.o)
                0x0000000010020340                _ZTIN2pp4ViewE
 .rodata._ZTSN2pp4ViewE
                0x000000001002034c        0xb /home/berkeley/nacl_sdk/pepper_42/lib/newlib_x86_32/Release/libppapi_cpp.a(module_x86_32.o)
                0x000000001002034c                _ZTSN2pp4ViewE
 *fill*         0x0000000010020357        0x1 
 .rodata._ZTVN2pp8ResourceE
                0x0000000010020358       0x10 /home/berkeley/nacl_sdk/pepper_42/lib/newlib_x86_32/Release/libppapi_cpp.a(resource_x86_32.o)
                0x0000000010020358                _ZTVN2pp8ResourceE
 .rodata._ZTSN2pp8ResourceE
                0x0000000010020368        0xf /home/berkeley/nacl_sdk/pepper_42/lib/newlib_x86_32/Release/libppapi_cpp.a(resource_x86_32.o)
                0x0000000010020368                _ZTSN2pp8ResourceE
 *fill*         0x0000000010020377        0x1 
 .rodata._ZTIN2pp8ResourceE
                0x0000000010020378        0x8 /home/berkeley/nacl_sdk/pepper_42/lib/newlib_x86_32/Release/libppapi_cpp.a(resource_x86_32.o)
                0x0000000010020378                _ZTIN2pp8ResourceE
 .rodata.str1.1
                0x0000000010020380       0x12 /home/berkeley/nacl_sdk/pepper_42/lib/newlib_x86_32/Release/libppapi_cpp.a(url_loader_x86_32.o)
 *fill*         0x0000000010020392        0x6 
 .rodata._ZTVN2pp15URLResponseInfoE
                0x0000000010020398       0x10 /home/berkeley/nacl_sdk/pepper_42/lib/newlib_x86_32/Release/libppapi_cpp.a(url_loader_x86_32.o)
                0x0000000010020398                _ZTVN2pp15URLResponseInfoE
 .rodata._ZTIN2pp15URLResponseInfoE
                0x00000000100203a8        0xc /home/berkeley/nacl_sdk/pepper_42/lib/newlib_x86_32/Release/libppapi_cpp.a(url_loader_x86_32.o)
                0x00000000100203a8                _ZTIN2pp15URLResponseInfoE
 .rodata._ZTSN2pp15URLResponseInfoE
                0x00000000100203b4       0x17 /home/berkeley/nacl_sdk/pepper_42/lib/newlib_x86_32/Release/libppapi_cpp.a(url_loader_x86_32.o)
                0x00000000100203b4                _ZTSN2pp15URLResponseInfoE
 .rodata.str1.1
                0x00000000100203cb       0x18 /home/berkeley/nacl_sdk/pepper_42/lib/newlib_x86_32/Release/libppapi_cpp.a(url_response_info_x86_32.o)
 *fill*         0x00000000100203e3        0x5 
 .rodata._ZTVN2pp7FileRefE
                0x00000000100203e8       0x10 /home/berkeley/nacl_sdk/pepper_42/lib/newlib_x86_32/Release/libppapi_cpp.a(url_response_info_x86_32.o)
                0x00000000100203e8                _ZTVN2pp7FileRefE
 .rodata._ZTIN2pp7FileRefE
                0x00000000100203f8        0xc /home/berkeley/nacl_sdk/pepper_42/lib/newlib_x86_32/Release/libppapi_cpp.a(url_response_info_x86_32.o)
                0x00000000100203f8                _ZTIN2pp7FileRefE
 .rodata._ZTSN2pp7FileRefE
                0x0000000010020404        0xe /home/berkeley/nacl_sdk/pepper_42/lib/newlib_x86_32/Release/libppapi_cpp.a(url_response_info_x86_32.o)
                0x0000000010020404                _ZTSN2pp7FileRefE
 .rodata.str1.1
                0x0000000010020412       0xad /home/berkeley/nacl_sdk/pepper_42/lib/newlib_x86_32/Release/libppapi_cpp.a(var_x86_32.o)
 *fill*         0x00000000100204bf        0x1 
 .rodata        0x00000000100204c0       0x18 /home/berkeley/nacl_sdk/pepper_42/lib/newlib_x86_32/Release/libppapi_cpp.a(var_x86_32.o)
 .rodata._ZTVN2pp3VarE
                0x00000000100204d8       0x14 /home/berkeley/nacl_sdk/pepper_42/lib/newlib_x86_32/Release/libppapi_cpp.a(var_x86_32.o)
                0x00000000100204d8                _ZTVN2pp3VarE
 .rodata._ZTSN2pp3VarE
                0x00000000100204ec        0xa /home/berkeley/nacl_sdk/pepper_42/lib/newlib_x86_32/Release/libppapi_cpp.a(var_x86_32.o)
                0x00000000100204ec                _ZTSN2pp3VarE
 *fill*         0x00000000100204f6        0x2 
 .rodata._ZTIN2pp3VarE
                0x00000000100204f8        0x8 /home/berkeley/nacl_sdk/pepper_42/lib/newlib_x86_32/Release/libppapi_cpp.a(var_x86_32.o)
                0x00000000100204f8                _ZTIN2pp3VarE
 .rodata.str1.1
                0x0000000010020500       0x27 /home/berkeley/nacl_sdk/pepper_42/lib/newlib_x86_32/Release/libppapi_cpp.a(view_x86_32.o)
 .rodata.str1.1
                0x0000000010020527       0x30 /home/berkeley/nacl_sdk/pepper_42/lib/newlib_x86_32/Release/libppapi_cpp.a(file_ref_x86_32.o)
 .rodata.str1.1
                0x0000000010020557       0x94 /home/berkeley/nacl_sdk/pepper_42/lib/newlib_x86_32/Release/libppapi_cpp.a(input_event_x86_32.o)
                                         0xa7 (size before relaxing)
 *fill*         0x00000000100205eb        0x5 
 .rodata._ZTVN2pp10InputEventE
                0x00000000100205f0       0x10 /home/berkeley/nacl_sdk/pepper_42/lib/newlib_x86_32/Release/libppapi_cpp.a(input_event_x86_32.o)
                0x00000000100205f0                _ZTVN2pp10InputEventE
 .rodata._ZTSN2pp10InputEventE
                0x0000000010020600       0x12 /home/berkeley/nacl_sdk/pepper_42/lib/newlib_x86_32/Release/libppapi_cpp.a(input_event_x86_32.o)
                0x0000000010020600                _ZTSN2pp10InputEventE
 *fill*         0x0000000010020612        0x2 
 .rodata._ZTIN2pp10InputEventE
                0x0000000010020614        0xc /home/berkeley/nacl_sdk/pepper_42/lib/newlib_x86_32/Release/libppapi_cpp.a(input_event_x86_32.o)
                0x0000000010020614                _ZTIN2pp10InputEventE
 .rodata._ZTVN2pp13IMEInputEventE
                0x0000000010020620       0x10 /home/berkeley/nacl_sdk/pepper_42/lib/newlib_x86_32/Release/libppapi_cpp.a(input_event_x86_32.o)
                0x0000000010020620                _ZTVN2pp13IMEInputEventE
 .rodata._ZTIN2pp13IMEInputEventE
                0x0000000010020630        0xc /home/berkeley/nacl_sdk/pepper_42/lib/newlib_x86_32/Release/libppapi_cpp.a(input_event_x86_32.o)
                0x0000000010020630                _ZTIN2pp13IMEInputEventE
 .rodata._ZTSN2pp13IMEInputEventE
                0x000000001002063c       0x15 /home/berkeley/nacl_sdk/pepper_42/lib/newlib_x86_32/Release/libppapi_cpp.a(input_event_x86_32.o)
                0x000000001002063c                _ZTSN2pp13IMEInputEventE
 *fill*         0x0000000010020651        0x7 
 .rodata._ZTVN2pp15TouchInputEventE
                0x0000000010020658       0x10 /home/berkeley/nacl_sdk/pepper_42/lib/newlib_x86_32/Release/libppapi_cpp.a(input_event_x86_32.o)
                0x0000000010020658                _ZTVN2pp15TouchInputEventE
 .rodata._ZTIN2pp15TouchInputEventE
                0x0000000010020668        0xc /home/berkeley/nacl_sdk/pepper_42/lib/newlib_x86_32/Release/libppapi_cpp.a(input_event_x86_32.o)
                0x0000000010020668                _ZTIN2pp15TouchInputEventE
 .rodata._ZTSN2pp15TouchInputEventE
                0x0000000010020674       0x17 /home/berkeley/nacl_sdk/pepper_42/lib/newlib_x86_32/Release/libppapi_cpp.a(input_event_x86_32.o)
                0x0000000010020674                _ZTSN2pp15TouchInputEventE
 *fill*         0x000000001002068b        0x5 
 .rodata._ZTVN2pp18KeyboardInputEventE
                0x0000000010020690       0x10 /home/berkeley/nacl_sdk/pepper_42/lib/newlib_x86_32/Release/libppapi_cpp.a(input_event_x86_32.o)
                0x0000000010020690                _ZTVN2pp18KeyboardInputEventE
 .rodata._ZTIN2pp18KeyboardInputEventE
                0x00000000100206a0        0xc /home/berkeley/nacl_sdk/pepper_42/lib/newlib_x86_32/Release/libppapi_cpp.a(input_event_x86_32.o)
                0x00000000100206a0                _ZTIN2pp18KeyboardInputEventE
 .rodata._ZTSN2pp18KeyboardInputEventE
                0x00000000100206ac       0x1a /home/berkeley/nacl_sdk/pepper_42/lib/newlib_x86_32/Release/libppapi_cpp.a(input_event_x86_32.o)
                0x00000000100206ac                _ZTSN2pp18KeyboardInputEventE
 *fill*         0x00000000100206c6        0x2 
 .rodata._ZTVN2pp15WheelInputEventE
                0x00000000100206c8       0x10 /home/berkeley/nacl_sdk/pepper_42/lib/newlib_x86_32/Release/libppapi_cpp.a(input_event_x86_32.o)
                0x00000000100206c8                _ZTVN2pp15WheelInputEventE
 .rodata._ZTIN2pp15WheelInputEventE
                0x00000000100206d8        0xc /home/berkeley/nacl_sdk/pepper_42/lib/newlib_x86_32/Release/libppapi_cpp.a(input_event_x86_32.o)
                0x00000000100206d8                _ZTIN2pp15WheelInputEventE
 .rodata._ZTSN2pp15WheelInputEventE
                0x00000000100206e4       0x17 /home/berkeley/nacl_sdk/pepper_42/lib/newlib_x86_32/Release/libppapi_cpp.a(input_event_x86_32.o)
                0x00000000100206e4                _ZTSN2pp15WheelInputEventE
 *fill*         0x00000000100206fb        0x5 
 .rodata._ZTVN2pp15MouseInputEventE
                0x0000000010020700       0x10 /home/berkeley/nacl_sdk/pepper_42/lib/newlib_x86_32/Release/libppapi_cpp.a(input_event_x86_32.o)
                0x0000000010020700                _ZTVN2pp15MouseInputEventE
 .rodata._ZTIN2pp15MouseInputEventE
                0x0000000010020710        0xc /home/berkeley/nacl_sdk/pepper_42/lib/newlib_x86_32/Release/libppapi_cpp.a(input_event_x86_32.o)
                0x0000000010020710                _ZTIN2pp15MouseInputEventE
 .rodata._ZTSN2pp15MouseInputEventE
                0x000000001002071c       0x17 /home/berkeley/nacl_sdk/pepper_42/lib/newlib_x86_32/Release/libppapi_cpp.a(input_event_x86_32.o)
                0x000000001002071c                _ZTSN2pp15MouseInputEventE
 *fill*         0x0000000010020733        0x1 
 .rodata        0x0000000010020734        0xc /home/berkeley/nacl_sdk/pepper_42/toolchain/linux_x86_newlib/bin/../lib/gcc/x86_64-nacl/4.4.3/../../../../x86_64-nacl/lib/../lib32/libppapi_stub.a(ppapi_plugin_main_399d0cf7.o)
 .rodata.str1.4
                0x0000000010020740       0x99 /home/berkeley/nacl_sdk/pepper_42/toolchain/linux_x86_newlib/bin/../lib/gcc/x86_64-nacl/4.4.3/../../../../x86_64-nacl/lib/../lib32/libppapi_stub.a(ppapi_plugin_start_8da67623.o)
 .rodata.str1.1
                0x00000000100207d9       0x17 /home/berkeley/nacl_sdk/pepper_42/toolchain/linux_x86_newlib/bin/../lib/gcc/x86_64-nacl/4.4.3/../../../../x86_64-nacl/lib/../lib32/libppapi_stub.a(ppapi_plugin_start_8da67623.o)
 .rodata        0x00000000100207f0        0x8 /home/berkeley/nacl_sdk/pepper_42/toolchain/linux_x86_newlib/bin/../lib/gcc/x86_64-nacl/4.4.3/../../../../x86_64-nacl/lib/../lib32/libppapi_stub.a(thread_creator_ccf263e1.o)
 .rodata.str1.1
                0x00000000100207f8        0xc /home/berkeley/nacl_sdk/pepper_42/toolchain/linux_x86_newlib/bin/../lib/gcc/x86_64-nacl/4.4.3/../../../../x86_64-nacl/lib/../lib32/libpthread.a(nc_thread_7e478b15.o)
 .rodata        0x0000000010020804        0x4 /home/berkeley/nacl_sdk/pepper_42/toolchain/linux_x86_newlib/bin/../lib/gcc/x86_64-nacl/4.4.3/../../../../x86_64-nacl/lib/../lib32/libpthread.a(nc_thread_7e478b15.o)
                0x0000000010020804                __nc_kMaxCachedMemoryBlocks
 .rodata.str1.1
                0x0000000010020808       0x14 /home/berkeley/nacl_sdk/pepper_42/toolchain/linux_x86_newlib/bin/../lib/gcc/x86_64-nacl/4.4.3/../../../../x86_64-nacl/lib/../lib32/libpthread.a(dynamic_annotations_33ba59cc.o)
                                         0x16 (size before relaxing)
 .rodata.str1.1
                0x000000001002081c       0x27 /home/berkeley/nacl_sdk/pepper_42/toolchain/linux_x86_newlib/bin/../lib/gcc/x86_64-nacl/4.4.3/../../../../x86_64-nacl/lib/../lib32/libpthread.a(nc_init_irt_d3daafc0.o)
 .rodata.str1.1
                0x0000000010020843      0x11d /home/berkeley/nacl_sdk/pepper_42/toolchain/linux_x86_newlib/bin/../lib/gcc/x86_64-nacl/4.4.3/../../../../x86_64-nacl/lib/../lib32/libstdc++.a(string-inst.o)
 .rodata.str1.4
                0x0000000010020960       0x2a /home/berkeley/nacl_sdk/pepper_42/toolchain/linux_x86_newlib/bin/../lib/gcc/x86_64-nacl/4.4.3/../../../../x86_64-nacl/lib/../lib32/libstdc++.a(string-inst.o)
 *fill*         0x000000001002098a        0x2 
 .rodata._ZNSs4nposE
                0x000000001002098c        0x4 /home/berkeley/nacl_sdk/pepper_42/toolchain/linux_x86_newlib/bin/../lib/gcc/x86_64-nacl/4.4.3/../../../../x86_64-nacl/lib/../lib32/libstdc++.a(string-inst.o)
                0x000000001002098c                _ZNSs4nposE
 .rodata._ZNSs4_Rep11_S_max_sizeE
                0x0000000010020990        0x4 /home/berkeley/nacl_sdk/pepper_42/toolchain/linux_x86_newlib/bin/../lib/gcc/x86_64-nacl/4.4.3/../../../../x86_64-nacl/lib/../lib32/libstdc++.a(string-inst.o)
                0x0000000010020990                _ZNSs4_Rep11_S_max_sizeE
 .rodata._ZNSs4_Rep11_S_terminalE
                0x0000000010020994        0x1 /home/berkeley/nacl_sdk/pepper_42/toolchain/linux_x86_newlib/bin/../lib/gcc/x86_64-nacl/4.4.3/../../../../x86_64-nacl/lib/../lib32/libstdc++.a(string-inst.o)
                0x0000000010020994                _ZNSs4_Rep11_S_terminalE
 *fill*         0x0000000010020995        0x3 
 .rodata._ZL28read_encoded_value_with_basehjPKhPj
                0x0000000010020998       0x34 /home/berkeley/nacl_sdk/pepper_42/toolchain/linux_x86_newlib/bin/../lib/gcc/x86_64-nacl/4.4.3/../../../../x86_64-nacl/lib/../lib32/libstdc++.a(eh_personality.o)
 .rodata.str1.4
                0x00000000100209cc       0x4a /home/berkeley/nacl_sdk/pepper_42/toolchain/linux_x86_newlib/bin/../lib/gcc/x86_64-nacl/4.4.3/../../../../x86_64-nacl/lib/../lib32/libstdc++.a(guard.o)
 *fill*         0x0000000010020a16        0x2 
 .rodata._ZTVN9__gnu_cxx20recursive_init_errorE
                0x0000000010020a18       0x14 /home/berkeley/nacl_sdk/pepper_42/toolchain/linux_x86_newlib/bin/../lib/gcc/x86_64-nacl/4.4.3/../../../../x86_64-nacl/lib/../lib32/libstdc++.a(guard.o)
                0x0000000010020a18                _ZTVN9__gnu_cxx20recursive_init_errorE
 *fill*         0x0000000010020a2c       0x14 
 .rodata._ZTSN9__gnu_cxx20recursive_init_errorE
                0x0000000010020a40       0x23 /home/berkeley/nacl_sdk/pepper_42/toolchain/linux_x86_newlib/bin/../lib/gcc/x86_64-nacl/4.4.3/../../../../x86_64-nacl/lib/../lib32/libstdc++.a(guard.o)
                0x0000000010020a40                _ZTSN9__gnu_cxx20recursive_init_errorE
 *fill*         0x0000000010020a63        0x1 
 .rodata._ZTIN9__gnu_cxx20recursive_init_errorE
                0x0000000010020a64        0xc /home/berkeley/nacl_sdk/pepper_42/toolchain/linux_x86_newlib/bin/../lib/gcc/x86_64-nacl/4.4.3/../../../../x86_64-nacl/lib/../lib32/libstdc++.a(guard.o)
                0x0000000010020a64                _ZTIN9__gnu_cxx20recursive_init_errorE
 .rodata._ZTIN9__gnu_cxx26__concurrence_unlock_errorE
                0x0000000010020a70        0xc /home/berkeley/nacl_sdk/pepper_42/toolchain/linux_x86_newlib/bin/../lib/gcc/x86_64-nacl/4.4.3/../../../../x86_64-nacl/lib/../lib32/libstdc++.a(guard.o)
                0x0000000010020a70                _ZTIN9__gnu_cxx26__concurrence_unlock_errorE
 *fill*         0x0000000010020a7c        0x4 
 .rodata._ZTSN9__gnu_cxx26__concurrence_unlock_errorE
                0x0000000010020a80       0x29 /home/berkeley/nacl_sdk/pepper_42/toolchain/linux_x86_newlib/bin/../lib/gcc/x86_64-nacl/4.4.3/../../../../x86_64-nacl/lib/../lib32/libstdc++.a(guard.o)
                0x0000000010020a80                _ZTSN9__gnu_cxx26__concurrence_unlock_errorE
 *fill*         0x0000000010020aa9        0x7 
 .rodata._ZTVN9__gnu_cxx26__concurrence_unlock_errorE
                0x0000000010020ab0       0x14 /home/berkeley/nacl_sdk/pepper_42/toolchain/linux_x86_newlib/bin/../lib/gcc/x86_64-nacl/4.4.3/../../../../x86_64-nacl/lib/../lib32/libstdc++.a(guard.o)
                0x0000000010020ab0                _ZTVN9__gnu_cxx26__concurrence_unlock_errorE
 .rodata._ZTIN9__gnu_cxx24__concurrence_lock_errorE
                0x0000000010020ac4        0xc /home/berkeley/nacl_sdk/pepper_42/toolchain/linux_x86_newlib/bin/../lib/gcc/x86_64-nacl/4.4.3/../../../../x86_64-nacl/lib/../lib32/libstdc++.a(guard.o)
                0x0000000010020ac4                _ZTIN9__gnu_cxx24__concurrence_lock_errorE
 *fill*         0x0000000010020ad0       0x10 
 .rodata._ZTSN9__gnu_cxx24__concurrence_lock_errorE
                0x0000000010020ae0       0x27 /home/berkeley/nacl_sdk/pepper_42/toolchain/linux_x86_newlib/bin/../lib/gcc/x86_64-nacl/4.4.3/../../../../x86_64-nacl/lib/../lib32/libstdc++.a(guard.o)
                0x0000000010020ae0                _ZTSN9__gnu_cxx24__concurrence_lock_errorE
 *fill*         0x0000000010020b07        0x1 
 .rodata._ZTVN9__gnu_cxx24__concurrence_lock_errorE
                0x0000000010020b08       0x14 /home/berkeley/nacl_sdk/pepper_42/toolchain/linux_x86_newlib/bin/../lib/gcc/x86_64-nacl/4.4.3/../../../../x86_64-nacl/lib/../lib32/libstdc++.a(guard.o)
                0x0000000010020b08                _ZTVN9__gnu_cxx24__concurrence_lock_errorE
 *fill*         0x0000000010020b1c        0x4 
 .rodata._ZTVN10__cxxabiv120__si_class_type_infoE
                0x0000000010020b20       0x2c /home/berkeley/nacl_sdk/pepper_42/toolchain/linux_x86_newlib/bin/../lib/gcc/x86_64-nacl/4.4.3/../../../../x86_64-nacl/lib/../lib32/libstdc++.a(si_class_type_info.o)
                0x0000000010020b20                _ZTVN10__cxxabiv120__si_class_type_infoE
 *fill*         0x0000000010020b4c       0x14 
 .rodata._ZTSN10__cxxabiv120__si_class_type_infoE
                0x0000000010020b60       0x25 /home/berkeley/nacl_sdk/pepper_42/toolchain/linux_x86_newlib/bin/../lib/gcc/x86_64-nacl/4.4.3/../../../../x86_64-nacl/lib/../lib32/libstdc++.a(si_class_type_info.o)
                0x0000000010020b60                _ZTSN10__cxxabiv120__si_class_type_infoE
 *fill*         0x0000000010020b85        0x3 
 .rodata._ZTIN10__cxxabiv120__si_class_type_infoE
                0x0000000010020b88        0xc /home/berkeley/nacl_sdk/pepper_42/toolchain/linux_x86_newlib/bin/../lib/gcc/x86_64-nacl/4.4.3/../../../../x86_64-nacl/lib/../lib32/libstdc++.a(si_class_type_info.o)
                0x0000000010020b88                _ZTIN10__cxxabiv120__si_class_type_infoE
 *fill*         0x0000000010020b94        0xc 
 .rodata._ZTVN10__cxxabiv117__class_type_infoE
                0x0000000010020ba0       0x2c /home/berkeley/nacl_sdk/pepper_42/toolchain/linux_x86_newlib/bin/../lib/gcc/x86_64-nacl/4.4.3/../../../../x86_64-nacl/lib/../lib32/libstdc++.a(class_type_info.o)
                0x0000000010020ba0                _ZTVN10__cxxabiv117__class_type_infoE
 *fill*         0x0000000010020bcc       0x14 
 .rodata._ZTSN10__cxxabiv117__class_type_infoE
                0x0000000010020be0       0x22 /home/berkeley/nacl_sdk/pepper_42/toolchain/linux_x86_newlib/bin/../lib/gcc/x86_64-nacl/4.4.3/../../../../x86_64-nacl/lib/../lib32/libstdc++.a(class_type_info.o)
                0x0000000010020be0                _ZTSN10__cxxabiv117__class_type_infoE
 *fill*         0x0000000010020c02        0x2 
 .rodata._ZTIN10__cxxabiv117__class_type_infoE
                0x0000000010020c04        0xc /home/berkeley/nacl_sdk/pepper_42/toolchain/linux_x86_newlib/bin/../lib/gcc/x86_64-nacl/4.4.3/../../../../x86_64-nacl/lib/../lib32/libstdc++.a(class_type_info.o)
                0x0000000010020c04                _ZTIN10__cxxabiv117__class_type_infoE
 .rodata.str1.4
                0x0000000000000000       0x4a /home/berkeley/nacl_sdk/pepper_42/toolchain/linux_x86_newlib/bin/../lib/gcc/x86_64-nacl/4.4.3/../../../../x86_64-nacl/lib/../lib32/libstdc++.a(eh_alloc.o)
 .rodata.str1.1
                0x0000000010020c10       0x22 /home/berkeley/nacl_sdk/pepper_42/toolchain/linux_x86_newlib/bin/../lib/gcc/x86_64-nacl/4.4.3/../../../../x86_64-nacl/lib/../lib32/libstdc++.a(eh_exception.o)
 *fill*         0x0000000010020c32        0x6 
 .rodata._ZTVN10__cxxabiv119__foreign_exceptionE
                0x0000000010020c38       0x14 /home/berkeley/nacl_sdk/pepper_42/toolchain/linux_x86_newlib/bin/../lib/gcc/x86_64-nacl/4.4.3/../../../../x86_64-nacl/lib/../lib32/libstdc++.a(eh_exception.o)
                0x0000000010020c38                _ZTVN10__cxxabiv119__foreign_exceptionE
 *fill*         0x0000000010020c4c        0x4 
 .rodata._ZTVN10__cxxabiv115__forced_unwindE
                0x0000000010020c50       0x14 /home/berkeley/nacl_sdk/pepper_42/toolchain/linux_x86_newlib/bin/../lib/gcc/x86_64-nacl/4.4.3/../../../../x86_64-nacl/lib/../lib32/libstdc++.a(eh_exception.o)
                0x0000000010020c50                _ZTVN10__cxxabiv115__forced_unwindE
 *fill*         0x0000000010020c64        0x4 
 .rodata._ZTVSt13bad_exception
                0x0000000010020c68       0x14 /home/berkeley/nacl_sdk/pepper_42/toolchain/linux_x86_newlib/bin/../lib/gcc/x86_64-nacl/4.4.3/../../../../x86_64-nacl/lib/../lib32/libstdc++.a(eh_exception.o)
                0x0000000010020c68                _ZTVSt13bad_exception
 *fill*         0x0000000010020c7c        0x4 
 .rodata._ZTVSt9exception
                0x0000000010020c80       0x14 /home/berkeley/nacl_sdk/pepper_42/toolchain/linux_x86_newlib/bin/../lib/gcc/x86_64-nacl/4.4.3/../../../../x86_64-nacl/lib/../lib32/libstdc++.a(eh_exception.o)
                0x0000000010020c80                _ZTVSt9exception
 *fill*         0x0000000010020c94        0xc 
 .rodata._ZTSN10__cxxabiv119__foreign_exceptionE
                0x0000000010020ca0       0x24 /home/berkeley/nacl_sdk/pepper_42/toolchain/linux_x86_newlib/bin/../lib/gcc/x86_64-nacl/4.4.3/../../../../x86_64-nacl/lib/../lib32/libstdc++.a(eh_exception.o)
                0x0000000010020ca0                _ZTSN10__cxxabiv119__foreign_exceptionE
 .rodata._ZTIN10__cxxabiv119__foreign_exceptionE
                0x0000000010020cc4        0x8 /home/berkeley/nacl_sdk/pepper_42/toolchain/linux_x86_newlib/bin/../lib/gcc/x86_64-nacl/4.4.3/../../../../x86_64-nacl/lib/../lib32/libstdc++.a(eh_exception.o)
                0x0000000010020cc4                _ZTIN10__cxxabiv119__foreign_exceptionE
 *fill*         0x0000000010020ccc       0x14 
 .rodata._ZTSN10__cxxabiv115__forced_unwindE
                0x0000000010020ce0       0x20 /home/berkeley/nacl_sdk/pepper_42/toolchain/linux_x86_newlib/bin/../lib/gcc/x86_64-nacl/4.4.3/../../../../x86_64-nacl/lib/../lib32/libstdc++.a(eh_exception.o)
                0x0000000010020ce0                _ZTSN10__cxxabiv115__forced_unwindE
 .rodata._ZTIN10__cxxabiv115__forced_unwindE
                0x0000000010020d00        0x8 /home/berkeley/nacl_sdk/pepper_42/toolchain/linux_x86_newlib/bin/../lib/gcc/x86_64-nacl/4.4.3/../../../../x86_64-nacl/lib/../lib32/libstdc++.a(eh_exception.o)
                0x0000000010020d00                _ZTIN10__cxxabiv115__forced_unwindE
 .rodata._ZTSSt13bad_exception
                0x0000000010020d08       0x12 /home/berkeley/nacl_sdk/pepper_42/toolchain/linux_x86_newlib/bin/../lib/gcc/x86_64-nacl/4.4.3/../../../../x86_64-nacl/lib/../lib32/libstdc++.a(eh_exception.o)
                0x0000000010020d08                _ZTSSt13bad_exception
 *fill*         0x0000000010020d1a        0x2 
 .rodata._ZTISt13bad_exception
                0x0000000010020d1c        0xc /home/berkeley/nacl_sdk/pepper_42/toolchain/linux_x86_newlib/bin/../lib/gcc/x86_64-nacl/4.4.3/../../../../x86_64-nacl/lib/../lib32/libstdc++.a(eh_exception.o)
                0x0000000010020d1c                _ZTISt13bad_exception
 .rodata._ZTSSt9exception
                0x0000000010020d28        0xd /home/berkeley/nacl_sdk/pepper_42/toolchain/linux_x86_newlib/bin/../lib/gcc/x86_64-nacl/4.4.3/../../../../x86_64-nacl/lib/../lib32/libstdc++.a(eh_exception.o)
                0x0000000010020d28                _ZTSSt9exception
 *fill*         0x0000000010020d35        0x3 
 .rodata._ZTISt9exception
                0x0000000010020d38        0x8 /home/berkeley/nacl_sdk/pepper_42/toolchain/linux_x86_newlib/bin/../lib/gcc/x86_64-nacl/4.4.3/../../../../x86_64-nacl/lib/../lib32/libstdc++.a(eh_exception.o)
                0x0000000010020d38                _ZTISt9exception
 .rodata.str1.1
                0x0000000010020d40       0x1c /home/berkeley/nacl_sdk/pepper_42/toolchain/linux_x86_newlib/bin/../lib/gcc/x86_64-nacl/4.4.3/../../../../x86_64-nacl/lib/../lib32/libstdc++.a(pure.o)
 *fill*         0x0000000010020d5c        0x4 
 .rodata._ZTVSt9type_info
                0x0000000010020d60       0x20 /home/berkeley/nacl_sdk/pepper_42/toolchain/linux_x86_newlib/bin/../lib/gcc/x86_64-nacl/4.4.3/../../../../x86_64-nacl/lib/../lib32/libstdc++.a(tinfo.o)
                0x0000000010020d60                _ZTVSt9type_info
 .rodata._ZTSSt9type_info
                0x0000000010020d80        0xd /home/berkeley/nacl_sdk/pepper_42/toolchain/linux_x86_newlib/bin/../lib/gcc/x86_64-nacl/4.4.3/../../../../x86_64-nacl/lib/../lib32/libstdc++.a(tinfo.o)
                0x0000000010020d80                _ZTSSt9type_info
 *fill*         0x0000000010020d8d        0x3 
 .rodata._ZTISt9type_info
                0x0000000010020d90        0x8 /home/berkeley/nacl_sdk/pepper_42/toolchain/linux_x86_newlib/bin/../lib/gcc/x86_64-nacl/4.4.3/../../../../x86_64-nacl/lib/../lib32/libstdc++.a(tinfo.o)
                0x0000000010020d90                _ZTISt9type_info
 .rodata.str1.1
                0x0000000000000000       0x1c /home/berkeley/nacl_sdk/pepper_42/toolchain/linux_x86_newlib/bin/../lib/gcc/x86_64-nacl/4.4.3/../../../../x86_64-nacl/lib/../lib32/libstdc++.a(functexcept.o)
                                          0x1 (size before relaxing)
 .rodata._ZTISt15underflow_error
                0x0000000010020d98        0xc /home/berkeley/nacl_sdk/pepper_42/toolchain/linux_x86_newlib/bin/../lib/gcc/x86_64-nacl/4.4.3/../../../../x86_64-nacl/lib/../lib32/libstdc++.a(functexcept.o)
                0x0000000010020d98                _ZTISt15underflow_error
 .rodata._ZTSSt15underflow_error
                0x0000000010020da4       0x14 /home/berkeley/nacl_sdk/pepper_42/toolchain/linux_x86_newlib/bin/../lib/gcc/x86_64-nacl/4.4.3/../../../../x86_64-nacl/lib/../lib32/libstdc++.a(functexcept.o)
                0x0000000010020da4                _ZTSSt15underflow_error
 .rodata._ZTVSt15underflow_error
                0x0000000010020db8       0x14 /home/berkeley/nacl_sdk/pepper_42/toolchain/linux_x86_newlib/bin/../lib/gcc/x86_64-nacl/4.4.3/../../../../x86_64-nacl/lib/../lib32/libstdc++.a(functexcept.o)
                0x0000000010020db8                _ZTVSt15underflow_error
 .rodata._ZTISt14overflow_error
                0x0000000010020dcc        0xc /home/berkeley/nacl_sdk/pepper_42/toolchain/linux_x86_newlib/bin/../lib/gcc/x86_64-nacl/4.4.3/../../../../x86_64-nacl/lib/../lib32/libstdc++.a(functexcept.o)
                0x0000000010020dcc                _ZTISt14overflow_error
 .rodata._ZTSSt14overflow_error
                0x0000000010020dd8       0x13 /home/berkeley/nacl_sdk/pepper_42/toolchain/linux_x86_newlib/bin/../lib/gcc/x86_64-nacl/4.4.3/../../../../x86_64-nacl/lib/../lib32/libstdc++.a(functexcept.o)
                0x0000000010020dd8                _ZTSSt14overflow_error
 *fill*         0x0000000010020deb        0x5 
 .rodata._ZTVSt14overflow_error
                0x0000000010020df0       0x14 /home/berkeley/nacl_sdk/pepper_42/toolchain/linux_x86_newlib/bin/../lib/gcc/x86_64-nacl/4.4.3/../../../../x86_64-nacl/lib/../lib32/libstdc++.a(functexcept.o)
                0x0000000010020df0                _ZTVSt14overflow_error
 .rodata._ZTISt11range_error
                0x0000000010020e04        0xc /home/berkeley/nacl_sdk/pepper_42/toolchain/linux_x86_newlib/bin/../lib/gcc/x86_64-nacl/4.4.3/../../../../x86_64-nacl/lib/../lib32/libstdc++.a(functexcept.o)
                0x0000000010020e04                _ZTISt11range_error
 .rodata._ZTSSt11range_error
                0x0000000010020e10       0x10 /home/berkeley/nacl_sdk/pepper_42/toolchain/linux_x86_newlib/bin/../lib/gcc/x86_64-nacl/4.4.3/../../../../x86_64-nacl/lib/../lib32/libstdc++.a(functexcept.o)
                0x0000000010020e10                _ZTSSt11range_error
 .rodata._ZTVSt11range_error
                0x0000000010020e20       0x14 /home/berkeley/nacl_sdk/pepper_42/toolchain/linux_x86_newlib/bin/../lib/gcc/x86_64-nacl/4.4.3/../../../../x86_64-nacl/lib/../lib32/libstdc++.a(functexcept.o)
                0x0000000010020e20                _ZTVSt11range_error
 .rodata._ZTISt12out_of_range
                0x0000000010020e34        0xc /home/berkeley/nacl_sdk/pepper_42/toolchain/linux_x86_newlib/bin/../lib/gcc/x86_64-nacl/4.4.3/../../../../x86_64-nacl/lib/../lib32/libstdc++.a(functexcept.o)
                0x0000000010020e34                _ZTISt12out_of_range
 .rodata._ZTSSt12out_of_range
                0x0000000010020e40       0x11 /home/berkeley/nacl_sdk/pepper_42/toolchain/linux_x86_newlib/bin/../lib/gcc/x86_64-nacl/4.4.3/../../../../x86_64-nacl/lib/../lib32/libstdc++.a(functexcept.o)
                0x0000000010020e40                _ZTSSt12out_of_range
 *fill*         0x0000000010020e51        0x7 
 .rodata._ZTVSt12out_of_range
                0x0000000010020e58       0x14 /home/berkeley/nacl_sdk/pepper_42/toolchain/linux_x86_newlib/bin/../lib/gcc/x86_64-nacl/4.4.3/../../../../x86_64-nacl/lib/../lib32/libstdc++.a(functexcept.o)
                0x0000000010020e58                _ZTVSt12out_of_range
 .rodata._ZTISt12length_error
                0x0000000010020e6c        0xc /home/berkeley/nacl_sdk/pepper_42/toolchain/linux_x86_newlib/bin/../lib/gcc/x86_64-nacl/4.4.3/../../../../x86_64-nacl/lib/../lib32/libstdc++.a(functexcept.o)
                0x0000000010020e6c                _ZTISt12length_error
 .rodata._ZTSSt12length_error
                0x0000000010020e78       0x11 /home/berkeley/nacl_sdk/pepper_42/toolchain/linux_x86_newlib/bin/../lib/gcc/x86_64-nacl/4.4.3/../../../../x86_64-nacl/lib/../lib32/libstdc++.a(functexcept.o)
                0x0000000010020e78                _ZTSSt12length_error
 *fill*         0x0000000010020e89        0x7 
 .rodata._ZTVSt12length_error
                0x0000000010020e90       0x14 /home/berkeley/nacl_sdk/pepper_42/toolchain/linux_x86_newlib/bin/../lib/gcc/x86_64-nacl/4.4.3/../../../../x86_64-nacl/lib/../lib32/libstdc++.a(functexcept.o)
                0x0000000010020e90                _ZTVSt12length_error
 .rodata._ZTISt16invalid_argument
                0x0000000010020ea4        0xc /home/berkeley/nacl_sdk/pepper_42/toolchain/linux_x86_newlib/bin/../lib/gcc/x86_64-nacl/4.4.3/../../../../x86_64-nacl/lib/../lib32/libstdc++.a(functexcept.o)
                0x0000000010020ea4                _ZTISt16invalid_argument
 .rodata._ZTSSt16invalid_argument
                0x0000000010020eb0       0x15 /home/berkeley/nacl_sdk/pepper_42/toolchain/linux_x86_newlib/bin/../lib/gcc/x86_64-nacl/4.4.3/../../../../x86_64-nacl/lib/../lib32/libstdc++.a(functexcept.o)
                0x0000000010020eb0                _ZTSSt16invalid_argument
 *fill*         0x0000000010020ec5        0x3 
 .rodata._ZTVSt16invalid_argument
                0x0000000010020ec8       0x14 /home/berkeley/nacl_sdk/pepper_42/toolchain/linux_x86_newlib/bin/../lib/gcc/x86_64-nacl/4.4.3/../../../../x86_64-nacl/lib/../lib32/libstdc++.a(functexcept.o)
                0x0000000010020ec8                _ZTVSt16invalid_argument
 .rodata._ZTISt12domain_error
                0x0000000010020edc        0xc /home/berkeley/nacl_sdk/pepper_42/toolchain/linux_x86_newlib/bin/../lib/gcc/x86_64-nacl/4.4.3/../../../../x86_64-nacl/lib/../lib32/libstdc++.a(functexcept.o)
                0x0000000010020edc                _ZTISt12domain_error
 .rodata._ZTSSt12domain_error
                0x0000000010020ee8       0x11 /home/berkeley/nacl_sdk/pepper_42/toolchain/linux_x86_newlib/bin/../lib/gcc/x86_64-nacl/4.4.3/../../../../x86_64-nacl/lib/../lib32/libstdc++.a(functexcept.o)
                0x0000000010020ee8                _ZTSSt12domain_error
 *fill*         0x0000000010020ef9        0x7 
 .rodata._ZTVSt12domain_error
                0x0000000010020f00       0x14 /home/berkeley/nacl_sdk/pepper_42/toolchain/linux_x86_newlib/bin/../lib/gcc/x86_64-nacl/4.4.3/../../../../x86_64-nacl/lib/../lib32/libstdc++.a(functexcept.o)
                0x0000000010020f00                _ZTVSt12domain_error
 *fill*         0x0000000010020f14        0x4 
 .rodata._ZTVNSt8ios_base7failureE
                0x0000000010020f18       0x14 /home/berkeley/nacl_sdk/pepper_42/toolchain/linux_x86_newlib/bin/../lib/gcc/x86_64-nacl/4.4.3/../../../../x86_64-nacl/lib/../lib32/libstdc++.a(ios_failure.o)
                0x0000000010020f18                _ZTVNSt8ios_base7failureE
 .rodata._ZTSNSt8ios_base7failureE
                0x0000000010020f2c       0x16 /home/berkeley/nacl_sdk/pepper_42/toolchain/linux_x86_newlib/bin/../lib/gcc/x86_64-nacl/4.4.3/../../../../x86_64-nacl/lib/../lib32/libstdc++.a(ios_failure.o)
                0x0000000010020f2c                _ZTSNSt8ios_base7failureE
 *fill*         0x0000000010020f42        0x2 
 .rodata._ZTINSt8ios_base7failureE
                0x0000000010020f44        0xc /home/berkeley/nacl_sdk/pepper_42/toolchain/linux_x86_newlib/bin/../lib/gcc/x86_64-nacl/4.4.3/../../../../x86_64-nacl/lib/../lib32/libstdc++.a(ios_failure.o)
                0x0000000010020f44                _ZTINSt8ios_base7failureE
 .rodata._ZTVSt13runtime_error
                0x0000000010020f50       0x14 /home/berkeley/nacl_sdk/pepper_42/toolchain/linux_x86_newlib/bin/../lib/gcc/x86_64-nacl/4.4.3/../../../../x86_64-nacl/lib/../lib32/libstdc++.a(stdexcept.o)
                0x0000000010020f50                _ZTVSt13runtime_error
 *fill*         0x0000000010020f64        0x4 
 .rodata._ZTVSt11logic_error
                0x0000000010020f68       0x14 /home/berkeley/nacl_sdk/pepper_42/toolchain/linux_x86_newlib/bin/../lib/gcc/x86_64-nacl/4.4.3/../../../../x86_64-nacl/lib/../lib32/libstdc++.a(stdexcept.o)
                0x0000000010020f68                _ZTVSt11logic_error
 .rodata._ZTSSt13runtime_error
                0x0000000010020f7c       0x12 /home/berkeley/nacl_sdk/pepper_42/toolchain/linux_x86_newlib/bin/../lib/gcc/x86_64-nacl/4.4.3/../../../../x86_64-nacl/lib/../lib32/libstdc++.a(stdexcept.o)
                0x0000000010020f7c                _ZTSSt13runtime_error
 *fill*         0x0000000010020f8e        0x2 
 .rodata._ZTISt13runtime_error
                0x0000000010020f90        0xc /home/berkeley/nacl_sdk/pepper_42/toolchain/linux_x86_newlib/bin/../lib/gcc/x86_64-nacl/4.4.3/../../../../x86_64-nacl/lib/../lib32/libstdc++.a(stdexcept.o)
                0x0000000010020f90                _ZTISt13runtime_error
 .rodata._ZTSSt11logic_error
                0x0000000010020f9c       0x10 /home/berkeley/nacl_sdk/pepper_42/toolchain/linux_x86_newlib/bin/../lib/gcc/x86_64-nacl/4.4.3/../../../../x86_64-nacl/lib/../lib32/libstdc++.a(stdexcept.o)
                0x0000000010020f9c                _ZTSSt11logic_error
 .rodata._ZTISt11logic_error
                0x0000000010020fac        0xc /home/berkeley/nacl_sdk/pepper_42/toolchain/linux_x86_newlib/bin/../lib/gcc/x86_64-nacl/4.4.3/../../../../x86_64-nacl/lib/../lib32/libstdc++.a(stdexcept.o)
                0x0000000010020fac                _ZTISt11logic_error
 .rodata.str1.1
                0x0000000010020fb8        0x8 /home/berkeley/nacl_sdk/pepper_42/toolchain/linux_x86_newlib/bin/../lib/gcc/x86_64-nacl/4.4.3/../../../../x86_64-nacl/lib/../lib32/libstdc++.a(system_error.o)
                                          0xf (size before relaxing)
 .rodata._ZTVSt14error_category
                0x0000000010020fc0       0x24 /home/berkeley/nacl_sdk/pepper_42/toolchain/linux_x86_newlib/bin/../lib/gcc/x86_64-nacl/4.4.3/../../../../x86_64-nacl/lib/../lib32/libstdc++.a(system_error.o)
                0x0000000010020fc0                _ZTVSt14error_category
 *fill*         0x0000000010020fe4        0x4 
 .rodata._ZTVSt12system_error
                0x0000000010020fe8       0x14 /home/berkeley/nacl_sdk/pepper_42/toolchain/linux_x86_newlib/bin/../lib/gcc/x86_64-nacl/4.4.3/../../../../x86_64-nacl/lib/../lib32/libstdc++.a(system_error.o)
                0x0000000010020fe8                _ZTVSt12system_error
 .rodata._ZTSSt12system_error
                0x0000000010020ffc       0x11 /home/berkeley/nacl_sdk/pepper_42/toolchain/linux_x86_newlib/bin/../lib/gcc/x86_64-nacl/4.4.3/../../../../x86_64-nacl/lib/../lib32/libstdc++.a(system_error.o)
                0x0000000010020ffc                _ZTSSt12system_error
 *fill*         0x000000001002100d        0x3 
 .rodata._ZTISt12system_error
                0x0000000010021010        0xc /home/berkeley/nacl_sdk/pepper_42/toolchain/linux_x86_newlib/bin/../lib/gcc/x86_64-nacl/4.4.3/../../../../x86_64-nacl/lib/../lib32/libstdc++.a(system_error.o)
                0x0000000010021010                _ZTISt12system_error
 .rodata._ZTSSt14error_category
                0x000000001002101c       0x13 /home/berkeley/nacl_sdk/pepper_42/toolchain/linux_x86_newlib/bin/../lib/gcc/x86_64-nacl/4.4.3/../../../../x86_64-nacl/lib/../lib32/libstdc++.a(system_error.o)
                0x000000001002101c                _ZTSSt14error_category
 *fill*         0x000000001002102f        0x1 
 .rodata._ZTISt14error_category
                0x0000000010021030        0x8 /home/berkeley/nacl_sdk/pepper_42/toolchain/linux_x86_newlib/bin/../lib/gcc/x86_64-nacl/4.4.3/../../../../x86_64-nacl/lib/../lib32/libstdc++.a(system_error.o)
                0x0000000010021030                _ZTISt14error_category
 *fill*         0x0000000010021038        0x8 
 .rodata._ZTVN12_GLOBAL__N_122generic_error_categoryE
                0x0000000010021040       0x24 /home/berkeley/nacl_sdk/pepper_42/toolchain/linux_x86_newlib/bin/../lib/gcc/x86_64-nacl/4.4.3/../../../../x86_64-nacl/lib/../lib32/libstdc++.a(system_error.o)
 *fill*         0x0000000010021064       0x1c 
 .rodata._ZTSN12_GLOBAL__N_122generic_error_categoryE
                0x0000000010021080       0x29 /home/berkeley/nacl_sdk/pepper_42/toolchain/linux_x86_newlib/bin/../lib/gcc/x86_64-nacl/4.4.3/../../../../x86_64-nacl/lib/../lib32/libstdc++.a(system_error.o)
 *fill*         0x00000000100210a9       0x17 
 .rodata._ZTVN12_GLOBAL__N_121system_error_categoryE
                0x00000000100210c0       0x24 /home/berkeley/nacl_sdk/pepper_42/toolchain/linux_x86_newlib/bin/../lib/gcc/x86_64-nacl/4.4.3/../../../../x86_64-nacl/lib/../lib32/libstdc++.a(system_error.o)
 *fill*         0x00000000100210e4       0x1c 
 .rodata._ZTSN12_GLOBAL__N_121system_error_categoryE
                0x0000000010021100       0x28 /home/berkeley/nacl_sdk/pepper_42/toolchain/linux_x86_newlib/bin/../lib/gcc/x86_64-nacl/4.4.3/../../../../x86_64-nacl/lib/../lib32/libstdc++.a(system_error.o)
 .rodata._ZTIN12_GLOBAL__N_122generic_error_categoryE
                0x0000000010021128        0xc /home/berkeley/nacl_sdk/pepper_42/toolchain/linux_x86_newlib/bin/../lib/gcc/x86_64-nacl/4.4.3/../../../../x86_64-nacl/lib/../lib32/libstdc++.a(system_error.o)
 .rodata._ZTIN12_GLOBAL__N_121system_error_categoryE
                0x0000000010021134        0xc /home/berkeley/nacl_sdk/pepper_42/toolchain/linux_x86_newlib/bin/../lib/gcc/x86_64-nacl/4.4.3/../../../../x86_64-nacl/lib/../lib32/libstdc++.a(system_error.o)
 .rodata.str1.1
                0x0000000010021140       0x10 /home/berkeley/nacl_sdk/pepper_42/toolchain/linux_x86_newlib/bin/../lib/gcc/x86_64-nacl/4.4.3/../../../../x86_64-nacl/lib/../lib32/libstdc++.a(bad_typeid.o)
 .rodata._ZTVSt10bad_typeid
                0x0000000010021150       0x14 /home/berkeley/nacl_sdk/pepper_42/toolchain/linux_x86_newlib/bin/../lib/gcc/x86_64-nacl/4.4.3/../../../../x86_64-nacl/lib/../lib32/libstdc++.a(bad_typeid.o)
                0x0000000010021150                _ZTVSt10bad_typeid
 .rodata._ZTSSt10bad_typeid
                0x0000000010021164        0xf /home/berkeley/nacl_sdk/pepper_42/toolchain/linux_x86_newlib/bin/../lib/gcc/x86_64-nacl/4.4.3/../../../../x86_64-nacl/lib/../lib32/libstdc++.a(bad_typeid.o)
                0x0000000010021164                _ZTSSt10bad_typeid
 *fill*         0x0000000010021173        0x1 
 .rodata._ZTISt10bad_typeid
                0x0000000010021174        0xc /home/berkeley/nacl_sdk/pepper_42/toolchain/linux_x86_newlib/bin/../lib/gcc/x86_64-nacl/4.4.3/../../../../x86_64-nacl/lib/../lib32/libstdc++.a(bad_typeid.o)
                0x0000000010021174                _ZTISt10bad_typeid
 .rodata.str1.1
                0x0000000010021180        0xf /home/berkeley/nacl_sdk/pepper_42/toolchain/linux_x86_newlib/bin/../lib/gcc/x86_64-nacl/4.4.3/../../../../x86_64-nacl/lib/../lib32/libstdc++.a(new_handler.o)
 .rodata._ZSt7nothrow
                0x000000001002118f        0x1 /home/berkeley/nacl_sdk/pepper_42/toolchain/linux_x86_newlib/bin/../lib/gcc/x86_64-nacl/4.4.3/../../../../x86_64-nacl/lib/../lib32/libstdc++.a(new_handler.o)
                0x000000001002118f                _ZSt7nothrow
 .rodata._ZTVSt9bad_alloc
                0x0000000010021190       0x14 /home/berkeley/nacl_sdk/pepper_42/toolchain/linux_x86_newlib/bin/../lib/gcc/x86_64-nacl/4.4.3/../../../../x86_64-nacl/lib/../lib32/libstdc++.a(new_handler.o)
                0x0000000010021190                _ZTVSt9bad_alloc
 .rodata._ZTSSt9bad_alloc
                0x00000000100211a4        0xd /home/berkeley/nacl_sdk/pepper_42/toolchain/linux_x86_newlib/bin/../lib/gcc/x86_64-nacl/4.4.3/../../../../x86_64-nacl/lib/../lib32/libstdc++.a(new_handler.o)
                0x00000000100211a4                _ZTSSt9bad_alloc
 *fill*         0x00000000100211b1        0x3 
 .rodata._ZTISt9bad_alloc
                0x00000000100211b4        0xc /home/berkeley/nacl_sdk/pepper_42/toolchain/linux_x86_newlib/bin/../lib/gcc/x86_64-nacl/4.4.3/../../../../x86_64-nacl/lib/../lib32/libstdc++.a(new_handler.o)
                0x00000000100211b4                _ZTISt9bad_alloc
 .rodata.str1.1
                0x00000000100211c0        0xe /home/berkeley/nacl_sdk/pepper_42/toolchain/linux_x86_newlib/bin/../lib/gcc/x86_64-nacl/4.4.3/../../../../x86_64-nacl/lib/../lib32/libstdc++.a(bad_cast.o)
 *fill*         0x00000000100211ce        0x2 
 .rodata._ZTVSt8bad_cast
                0x00000000100211d0       0x14 /home/berkeley/nacl_sdk/pepper_42/toolchain/linux_x86_newlib/bin/../lib/gcc/x86_64-nacl/4.4.3/../../../../x86_64-nacl/lib/../lib32/libstdc++.a(bad_cast.o)
                0x00000000100211d0                _ZTVSt8bad_cast
 .rodata._ZTSSt8bad_cast
                0x00000000100211e4        0xc /home/berkeley/nacl_sdk/pepper_42/toolchain/linux_x86_newlib/bin/../lib/gcc/x86_64-nacl/4.4.3/../../../../x86_64-nacl/lib/../lib32/libstdc++.a(bad_cast.o)
                0x00000000100211e4                _ZTSSt8bad_cast
 .rodata._ZTISt8bad_cast
                0x00000000100211f0        0xc /home/berkeley/nacl_sdk/pepper_42/toolchain/linux_x86_newlib/bin/../lib/gcc/x86_64-nacl/4.4.3/../../../../x86_64-nacl/lib/../lib32/libstdc++.a(bad_cast.o)
                0x00000000100211f0                _ZTISt8bad_cast
 .rodata.str1.1
                0x00000000100211fc       0x2d /home/berkeley/nacl_sdk/pepper_42/toolchain/linux_x86_newlib/bin/../lib/gcc/x86_64-nacl/4.4.3/../../../../x86_64-nacl/lib/../lib32/libstdc++.a(vterminate.o)
 *fill*         0x0000000010021229        0x3 
 .rodata.str1.4
                0x000000001002122c       0x62 /home/berkeley/nacl_sdk/pepper_42/toolchain/linux_x86_newlib/bin/../lib/gcc/x86_64-nacl/4.4.3/../../../../x86_64-nacl/lib/../lib32/libstdc++.a(vterminate.o)
 *fill*         0x000000001002128e       0x12 
 .rodata        0x00000000100212a0      0xdb0 /home/berkeley/nacl_sdk/pepper_42/toolchain/linux_x86_newlib/bin/../lib/gcc/x86_64-nacl/4.4.3/../../../../x86_64-nacl/lib/../lib32/libstdc++.a(cp-demangle.o)
 .rodata.str1.1
                0x0000000010022050      0x438 /home/berkeley/nacl_sdk/pepper_42/toolchain/linux_x86_newlib/bin/../lib/gcc/x86_64-nacl/4.4.3/../../../../x86_64-nacl/lib/../lib32/libstdc++.a(cp-demangle.o)
                                        0x4ea (size before relaxing)
 .rodata.str1.4
                0x0000000010022488       0xe3 /home/berkeley/nacl_sdk/pepper_42/toolchain/linux_x86_newlib/bin/../lib/gcc/x86_64-nacl/4.4.3/../../../../x86_64-nacl/lib/../lib32/libstdc++.a(cp-demangle.o)
 *fill*         0x000000001002256b        0x1 
 .rodata        0x000000001002256c      0x5b8 /home/berkeley/nacl_sdk/pepper_42/toolchain/linux_x86_newlib/bin/../lib/gcc/x86_64-nacl/4.4.3/32/libgcc.a(unwind-dw2.o)
 .rodata        0x0000000010022b24       0x34 /home/berkeley/nacl_sdk/pepper_42/toolchain/linux_x86_newlib/bin/../lib/gcc/x86_64-nacl/4.4.3/32/libgcc.a(unwind-dw2-fde-glibc.o)
 .rodata        0x0000000010022b58       0x13 /home/berkeley/nacl_sdk/pepper_42/toolchain/linux_x86_newlib/bin/../lib/gcc/x86_64-nacl/4.4.3/../../../../x86_64-nacl/lib/../lib32/libnacl.a(abort_9f6b5845.o)
 .rodata.str1.1
                0x0000000010022b6b       0x4e /home/berkeley/nacl_sdk/pepper_42/toolchain/linux_x86_newlib/bin/../lib/gcc/x86_64-nacl/4.4.3/../../../../x86_64-nacl/lib/../lib32/libnacl.a(malloc_222c4a1e.o)
 *fill*         0x0000000010022bb9        0x3 
 .rodata.str1.4
                0x0000000010022bbc       0x58 /home/berkeley/nacl_sdk/pepper_42/toolchain/linux_x86_newlib/bin/../lib/gcc/x86_64-nacl/4.4.3/../../../../x86_64-nacl/lib/../lib32/libnacl.a(nacl_irt_6de1d53f.o)
 .rodata.str1.1
                0x0000000010022c14       0x88 /home/berkeley/nacl_sdk/pepper_42/toolchain/linux_x86_newlib/bin/../lib/gcc/x86_64-nacl/4.4.3/../../../../x86_64-nacl/lib/../lib32/libnacl.a(nacl_irt_init_7b4f826e.o)
 .rodata        0x0000000010022c9c        0x4 /home/berkeley/nacl_sdk/pepper_42/toolchain/linux_x86_newlib/bin/../lib/gcc/x86_64-nacl/4.4.3/../../../../x86_64-nacl/lib/../lib32/libcrt_common.a(lib_a-impure.o)
                0x0000000010022c9c                _global_impure_ptr
 .rodata.str1.1
                0x0000000000000000       0x88 /home/berkeley/nacl_sdk/pepper_42/toolchain/linux_x86_newlib/bin/../lib/gcc/x86_64-nacl/4.4.3/../../../../x86_64-nacl/lib/../lib32/libcrt_common.a(lib_a-impure.o)
                                          0x2 (size before relaxing)
 .rodata.str1.1
                0x0000000010022ca0      0x56b /home/berkeley/nacl_sdk/pepper_42/toolchain/linux_x86_newlib/bin/../lib/gcc/x86_64-nacl/4.4.3/../../../../x86_64-nacl/lib/../lib32/libcrt_common.a(lib_a-strerror.o)
                                        0x56c (size before relaxing)
 *fill*         0x000000001002320b        0x1 
 .rodata.str1.4
                0x000000001002320c      0x1d4 /home/berkeley/nacl_sdk/pepper_42/toolchain/linux_x86_newlib/bin/../lib/gcc/x86_64-nacl/4.4.3/../../../../x86_64-nacl/lib/../lib32/libcrt_common.a(lib_a-strerror.o)
                                        0x1d1 (size before relaxing)
 .rodata.str1.1
                0x00000000100233e0       0x39 /home/berkeley/nacl_sdk/pepper_42/toolchain/linux_x86_newlib/bin/../lib/gcc/x86_64-nacl/4.4.3/../../../../x86_64-nacl/lib/../lib32/libcrt_common.a(lib_a-svfprintf.o)
                                         0x3b (size before relaxing)
 *fill*         0x0000000010023419        0x3 
 .rodata        0x000000001002341c      0x18c /home/berkeley/nacl_sdk/pepper_42/toolchain/linux_x86_newlib/bin/../lib/gcc/x86_64-nacl/4.4.3/../../../../x86_64-nacl/lib/../lib32/libcrt_common.a(lib_a-svfprintf.o)
 .rodata.cst4   0x00000000100235a8        0xc /home/berkeley/nacl_sdk/pepper_42/toolchain/linux_x86_newlib/bin/../lib/gcc/x86_64-nacl/4.4.3/../../../../x86_64-nacl/lib/../lib32/libcrt_common.a(lib_a-svfprintf.o)
 .rodata.str1.1
                0x0000000000000000       0x3b /home/berkeley/nacl_sdk/pepper_42/toolchain/linux_x86_newlib/bin/../lib/gcc/x86_64-nacl/4.4.3/../../../../x86_64-nacl/lib/../lib32/libcrt_common.a(lib_a-vfprintf.o)
 .rodata        0x00000000100235b4      0x18c /home/berkeley/nacl_sdk/pepper_42/toolchain/linux_x86_newlib/bin/../lib/gcc/x86_64-nacl/4.4.3/../../../../x86_64-nacl/lib/../lib32/libcrt_common.a(lib_a-vfprintf.o)
 .rodata.cst4   0x0000000000000000        0xc /home/berkeley/nacl_sdk/pepper_42/toolchain/linux_x86_newlib/bin/../lib/gcc/x86_64-nacl/4.4.3/../../../../x86_64-nacl/lib/../lib32/libcrt_common.a(lib_a-vfprintf.o)
 .rodata.str1.1
                0x0000000010023740        0xd /home/berkeley/nacl_sdk/pepper_42/toolchain/linux_x86_newlib/bin/../lib/gcc/x86_64-nacl/4.4.3/../../../../x86_64-nacl/lib/../lib32/libcrt_common.a(lib_a-dtoa.o)
                                          0xf (size before relaxing)
 *fill*         0x000000001002374d        0x3 
 .rodata.cst4   0x0000000010023750       0x14 /home/berkeley/nacl_sdk/pepper_42/toolchain/linux_x86_newlib/bin/../lib/gcc/x86_64-nacl/4.4.3/../../../../x86_64-nacl/lib/../lib32/libcrt_common.a(lib_a-dtoa.o)
                                         0x18 (size before relaxing)
 *fill*         0x0000000010023764        0x4 
 .rodata.cst8   0x0000000010023768       0x18 /home/berkeley/nacl_sdk/pepper_42/toolchain/linux_x86_newlib/bin/../lib/gcc/x86_64-nacl/4.4.3/../../../../x86_64-nacl/lib/../lib32/libcrt_common.a(lib_a-dtoa.o)
 .rodata.str1.1
                0x0000000010023780       0xe6 /home/berkeley/nacl_sdk/pepper_42/toolchain/linux_x86_newlib/bin/../lib/gcc/x86_64-nacl/4.4.3/../../../../x86_64-nacl/lib/../lib32/libcrt_common.a(lib_a-locale.o)
                                         0xf4 (size before relaxing)
 *fill*         0x0000000010023866        0x2 
 .rodata        0x0000000010023868       0xf0 /home/berkeley/nacl_sdk/pepper_42/toolchain/linux_x86_newlib/bin/../lib/gcc/x86_64-nacl/4.4.3/../../../../x86_64-nacl/lib/../lib32/libcrt_common.a(lib_a-locale.o)
 *fill*         0x0000000010023958        0x8 
 .rodata        0x0000000010023960      0x260 /home/berkeley/nacl_sdk/pepper_42/toolchain/linux_x86_newlib/bin/../lib/gcc/x86_64-nacl/4.4.3/../../../../x86_64-nacl/lib/../lib32/libcrt_common.a(lib_a-mbtowc_r.o)
 .rodata        0x0000000010023bc0      0x154 /home/berkeley/nacl_sdk/pepper_42/toolchain/linux_x86_newlib/bin/../lib/gcc/x86_64-nacl/4.4.3/../../../../x86_64-nacl/lib/../lib32/libcrt_common.a(lib_a-mprec.o)
                0x0000000010023bc0                __mprec_tens
                0x0000000010023ca0                __mprec_bigtens
                0x0000000010023ce0                __mprec_tinytens
 .rodata.cst4   0x0000000000000000        0x4 /home/berkeley/nacl_sdk/pepper_42/toolchain/linux_x86_newlib/bin/../lib/gcc/x86_64-nacl/4.4.3/../../../../x86_64-nacl/lib/../lib32/libcrt_common.a(lib_a-mprec.o)
 .rodata.cst4   0x0000000010023d14        0x4 /home/berkeley/nacl_sdk/pepper_42/toolchain/linux_x86_newlib/bin/../lib/gcc/x86_64-nacl/4.4.3/../../../../x86_64-nacl/lib/../lib32/libcrt_common.a(lib_a-s_frexp.o)
 .rodata.str1.1
                0x0000000000000000       0x29 /home/berkeley/nacl_sdk/pepper_42/toolchain/linux_x86_newlib/bin/../lib/gcc/x86_64-nacl/4.4.3/../../../../x86_64-nacl/lib/../lib32/libcrt_common.a(lib_a-svfiprintf.o)
 .rodata        0x0000000010023d18      0x18c /home/berkeley/nacl_sdk/pepper_42/toolchain/linux_x86_newlib/bin/../lib/gcc/x86_64-nacl/4.4.3/../../../../x86_64-nacl/lib/../lib32/libcrt_common.a(lib_a-svfiprintf.o)
 .rodata.str1.1
                0x0000000000000000       0x29 /home/berkeley/nacl_sdk/pepper_42/toolchain/linux_x86_newlib/bin/../lib/gcc/x86_64-nacl/4.4.3/../../../../x86_64-nacl/lib/../lib32/libcrt_common.a(lib_a-vfiprintf.o)
 .rodata        0x0000000010023ea4      0x18c /home/berkeley/nacl_sdk/pepper_42/toolchain/linux_x86_newlib/bin/../lib/gcc/x86_64-nacl/4.4.3/../../../../x86_64-nacl/lib/../lib32/libcrt_common.a(lib_a-vfiprintf.o)
 *fill*         0x0000000010024030       0x10 
 .rodata        0x0000000010024040      0x2a0 /home/berkeley/nacl_sdk/pepper_42/toolchain/linux_x86_newlib/bin/../lib/gcc/x86_64-nacl/4.4.3/../../../../x86_64-nacl/lib/../lib32/libcrt_common.a(lib_a-ctype_.o)
                0x0000000010024040                _ctype_
 .rodata.str1.1
                0x00000000100242e0       0x16 /home/berkeley/nacl_sdk/pepper_42/toolchain/linux_x86_newlib/bin/../lib/gcc/x86_64-nacl/4.4.3/../../../../x86_64-nacl/lib/../lib32/libnacl.a(nacl_irt_fdio_b571b5e7.o)
                                         0x3e (size before relaxing)

.rodata1
 *(.rodata1)

.eh_frame_hdr   0x00000000100242f8     0x1ac4
 *(.eh_frame_hdr)
 .eh_frame_hdr  0x00000000100242f8     0x1ac4 newlib/Release/popcnt_x86_32.o

.eh_frame       0x0000000010025dbc     0x62fc
 *(.eh_frame)
 .eh_frame      0x0000000010025dbc        0x0 /home/berkeley/nacl_sdk/pepper_42/toolchain/linux_x86_newlib/bin/../lib/gcc/x86_64-nacl/4.4.3/32/crtbegin.o
 .eh_frame      0x0000000010025dbc      0x130 newlib/Release/popcnt_x86_32.o
 .eh_frame      0x0000000010025eec      0x484 /home/berkeley/nacl_sdk/pepper_42/lib/newlib_x86_32/Release/libppapi_cpp.a(instance_x86_32.o)
                                        0x4c0 (size before relaxing)
 .eh_frame      0x0000000010026370      0x3d8 /home/berkeley/nacl_sdk/pepper_42/lib/newlib_x86_32/Release/libppapi_cpp.a(module_x86_32.o)
                                        0x414 (size before relaxing)
 .eh_frame      0x0000000010026748       0x8c /home/berkeley/nacl_sdk/pepper_42/lib/newlib_x86_32/Release/libppapi_cpp.a(ppp_entrypoints_x86_32.o)
                                         0xa8 (size before relaxing)
 .eh_frame      0x00000000100267d4      0x1b4 /home/berkeley/nacl_sdk/pepper_42/lib/newlib_x86_32/Release/libppapi_cpp.a(resource_x86_32.o)
                                        0x1d0 (size before relaxing)
 .eh_frame      0x0000000010026988      0x200 /home/berkeley/nacl_sdk/pepper_42/lib/newlib_x86_32/Release/libppapi_cpp.a(url_loader_x86_32.o)
                                        0x274 (size before relaxing)
 .eh_frame      0x0000000010026b88       0xe8 /home/berkeley/nacl_sdk/pepper_42/lib/newlib_x86_32/Release/libppapi_cpp.a(url_response_info_x86_32.o)
                                        0x15c (size before relaxing)
 .eh_frame      0x0000000010026c70      0x440 /home/berkeley/nacl_sdk/pepper_42/lib/newlib_x86_32/Release/libppapi_cpp.a(var_x86_32.o)
                                        0x47c (size before relaxing)
 .eh_frame      0x00000000100270b0      0x198 /home/berkeley/nacl_sdk/pepper_42/lib/newlib_x86_32/Release/libppapi_cpp.a(view_x86_32.o)
                                        0x20c (size before relaxing)
 .eh_frame      0x0000000010027248       0x3c /home/berkeley/nacl_sdk/pepper_42/lib/newlib_x86_32/Release/libppapi_cpp.a(core_x86_32.o)
                                         0x58 (size before relaxing)
 .eh_frame      0x0000000010027284      0x2ac /home/berkeley/nacl_sdk/pepper_42/lib/newlib_x86_32/Release/libppapi_cpp.a(file_ref_x86_32.o)
                                        0x320 (size before relaxing)
 .eh_frame      0x0000000010027530      0x980 /home/berkeley/nacl_sdk/pepper_42/lib/newlib_x86_32/Release/libppapi_cpp.a(input_event_x86_32.o)
                                        0x9bc (size before relaxing)
 .eh_frame      0x0000000010027eb0       0x34 /home/berkeley/nacl_sdk/pepper_42/toolchain/linux_x86_newlib/bin/../lib/gcc/x86_64-nacl/4.4.3/../../../../x86_64-nacl/lib/../lib32/libppapi_stub.a(plugin_main_irt_21ce9d26.o)
 .eh_frame      0x0000000010027ee4       0x14 /home/berkeley/nacl_sdk/pepper_42/toolchain/linux_x86_newlib/bin/../lib/gcc/x86_64-nacl/4.4.3/../../../../x86_64-nacl/lib/../lib32/libppapi_stub.a(ppapi_plugin_main_399d0cf7.o)
                                         0x2c (size before relaxing)
 .eh_frame      0x0000000010027ef8       0x38 /home/berkeley/nacl_sdk/pepper_42/toolchain/linux_x86_newlib/bin/../lib/gcc/x86_64-nacl/4.4.3/../../../../x86_64-nacl/lib/../lib32/libppapi_stub.a(ppapi_plugin_start_8da67623.o)
                                         0x50 (size before relaxing)
 .eh_frame      0x0000000010027f30       0x3c /home/berkeley/nacl_sdk/pepper_42/toolchain/linux_x86_newlib/bin/../lib/gcc/x86_64-nacl/4.4.3/../../../../x86_64-nacl/lib/../lib32/libppapi_stub.a(thread_creator_ccf263e1.o)
                                         0x54 (size before relaxing)
 .eh_frame      0x0000000010027f6c      0x3c4 /home/berkeley/nacl_sdk/pepper_42/toolchain/linux_x86_newlib/bin/../lib/gcc/x86_64-nacl/4.4.3/../../../../x86_64-nacl/lib/../lib32/libpthread.a(nc_thread_7e478b15.o)
                                        0x3dc (size before relaxing)
 .eh_frame      0x0000000010028330       0x98 /home/berkeley/nacl_sdk/pepper_42/toolchain/linux_x86_newlib/bin/../lib/gcc/x86_64-nacl/4.4.3/../../../../x86_64-nacl/lib/../lib32/libpthread.a(nc_condvar_305aa45a.o)
                                         0xb0 (size before relaxing)
 .eh_frame      0x00000000100283c8      0x300 /home/berkeley/nacl_sdk/pepper_42/toolchain/linux_x86_newlib/bin/../lib/gcc/x86_64-nacl/4.4.3/../../../../x86_64-nacl/lib/../lib32/libpthread.a(dynamic_annotations_33ba59cc.o)
                                        0x318 (size before relaxing)
 .eh_frame      0x00000000100286c8      0x128 /home/berkeley/nacl_sdk/pepper_42/toolchain/linux_x86_newlib/bin/../lib/gcc/x86_64-nacl/4.4.3/../../../../x86_64-nacl/lib/../lib32/libpthread.a(nc_mutex_86341ae1.o)
                                        0x140 (size before relaxing)
 .eh_frame      0x00000000100287f0       0x14 /home/berkeley/nacl_sdk/pepper_42/toolchain/linux_x86_newlib/bin/../lib/gcc/x86_64-nacl/4.4.3/../../../../x86_64-nacl/lib/../lib32/libpthread.a(nc_init_irt_d3daafc0.o)
                                         0x2c (size before relaxing)
 .eh_frame      0x0000000010028804      0x104 /home/berkeley/nacl_sdk/pepper_42/toolchain/linux_x86_newlib/bin/../lib/gcc/x86_64-nacl/4.4.3/../../../../x86_64-nacl/lib/../lib32/libstdc++.a(tree.o)
                                        0x120 (size before relaxing)
 .eh_frame      0x0000000010028908     0x14bc /home/berkeley/nacl_sdk/pepper_42/toolchain/linux_x86_newlib/bin/../lib/gcc/x86_64-nacl/4.4.3/../../../../x86_64-nacl/lib/../lib32/libstdc++.a(string-inst.o)
                                       0x14f8 (size before relaxing)
 .eh_frame      0x0000000010029dc4      0x114 /home/berkeley/nacl_sdk/pepper_42/toolchain/linux_x86_newlib/bin/../lib/gcc/x86_64-nacl/4.4.3/../../../../x86_64-nacl/lib/../lib32/libstdc++.a(eh_personality.o)
                                        0x150 (size before relaxing)
 .eh_frame      0x0000000010029ed8       0x98 /home/berkeley/nacl_sdk/pepper_42/toolchain/linux_x86_newlib/bin/../lib/gcc/x86_64-nacl/4.4.3/../../../../x86_64-nacl/lib/../lib32/libstdc++.a(eh_globals.o)
                                         0xd4 (size before relaxing)
 .eh_frame      0x0000000010029f70       0x54 /home/berkeley/nacl_sdk/pepper_42/toolchain/linux_x86_newlib/bin/../lib/gcc/x86_64-nacl/4.4.3/../../../../x86_64-nacl/lib/../lib32/libstdc++.a(eh_throw.o)
                                         0x70 (size before relaxing)
 .eh_frame      0x0000000010029fc4       0x1c /home/berkeley/nacl_sdk/pepper_42/toolchain/linux_x86_newlib/bin/../lib/gcc/x86_64-nacl/4.4.3/../../../../x86_64-nacl/lib/../lib32/libstdc++.a(del_op.o)
                                         0x38 (size before relaxing)
 .eh_frame      0x0000000010029fe0       0x1c /home/berkeley/nacl_sdk/pepper_42/toolchain/linux_x86_newlib/bin/../lib/gcc/x86_64-nacl/4.4.3/../../../../x86_64-nacl/lib/../lib32/libstdc++.a(eh_call.o)
                                         0x38 (size before relaxing)
 .eh_frame      0x0000000010029ffc      0x18c /home/berkeley/nacl_sdk/pepper_42/toolchain/linux_x86_newlib/bin/../lib/gcc/x86_64-nacl/4.4.3/../../../../x86_64-nacl/lib/../lib32/libstdc++.a(guard.o)
                                        0x1c8 (size before relaxing)
 .eh_frame      0x000000001002a188       0xc0 /home/berkeley/nacl_sdk/pepper_42/toolchain/linux_x86_newlib/bin/../lib/gcc/x86_64-nacl/4.4.3/../../../../x86_64-nacl/lib/../lib32/libstdc++.a(si_class_type_info.o)
                                         0xdc (size before relaxing)
 .eh_frame      0x000000001002a248       0xac /home/berkeley/nacl_sdk/pepper_42/toolchain/linux_x86_newlib/bin/../lib/gcc/x86_64-nacl/4.4.3/../../../../x86_64-nacl/lib/../lib32/libstdc++.a(eh_terminate.o)
                                         0xe8 (size before relaxing)
 .eh_frame      0x000000001002a2f4       0xec /home/berkeley/nacl_sdk/pepper_42/toolchain/linux_x86_newlib/bin/../lib/gcc/x86_64-nacl/4.4.3/../../../../x86_64-nacl/lib/../lib32/libstdc++.a(class_type_info.o)
                                        0x108 (size before relaxing)
 .eh_frame      0x000000001002a3e0       0xc4 /home/berkeley/nacl_sdk/pepper_42/toolchain/linux_x86_newlib/bin/../lib/gcc/x86_64-nacl/4.4.3/../../../../x86_64-nacl/lib/../lib32/libstdc++.a(eh_alloc.o)
                                        0x1a8 (size before relaxing)
 .eh_frame      0x000000001002a4a4       0x78 /home/berkeley/nacl_sdk/pepper_42/toolchain/linux_x86_newlib/bin/../lib/gcc/x86_64-nacl/4.4.3/../../../../x86_64-nacl/lib/../lib32/libstdc++.a(eh_catch.o)
                                         0xb4 (size before relaxing)
 .eh_frame      0x000000001002a51c      0x188 /home/berkeley/nacl_sdk/pepper_42/toolchain/linux_x86_newlib/bin/../lib/gcc/x86_64-nacl/4.4.3/../../../../x86_64-nacl/lib/../lib32/libstdc++.a(eh_exception.o)
                                        0x1a4 (size before relaxing)
 .eh_frame      0x000000001002a6a4       0x1c /home/berkeley/nacl_sdk/pepper_42/toolchain/linux_x86_newlib/bin/../lib/gcc/x86_64-nacl/4.4.3/../../../../x86_64-nacl/lib/../lib32/libstdc++.a(pure.o)
                                         0x38 (size before relaxing)
 .eh_frame      0x000000001002a6c0       0x20 /home/berkeley/nacl_sdk/pepper_42/toolchain/linux_x86_newlib/bin/../lib/gcc/x86_64-nacl/4.4.3/../../../../x86_64-nacl/lib/../lib32/libstdc++.a(new_op.o)
                                         0x40 (size before relaxing)
 .eh_frame      0x000000001002a6e0       0xc4 /home/berkeley/nacl_sdk/pepper_42/toolchain/linux_x86_newlib/bin/../lib/gcc/x86_64-nacl/4.4.3/../../../../x86_64-nacl/lib/../lib32/libstdc++.a(tinfo.o)
                                         0xe0 (size before relaxing)
 .eh_frame      0x000000001002a7a4      0x3ac /home/berkeley/nacl_sdk/pepper_42/toolchain/linux_x86_newlib/bin/../lib/gcc/x86_64-nacl/4.4.3/../../../../x86_64-nacl/lib/../lib32/libstdc++.a(functexcept.o)
                                        0x3e8 (size before relaxing)
 .eh_frame      0x000000001002ab50       0xb0 /home/berkeley/nacl_sdk/pepper_42/toolchain/linux_x86_newlib/bin/../lib/gcc/x86_64-nacl/4.4.3/../../../../x86_64-nacl/lib/../lib32/libstdc++.a(ios_failure.o)
                                         0xec (size before relaxing)
 .eh_frame      0x000000001002ac00      0x2e8 /home/berkeley/nacl_sdk/pepper_42/toolchain/linux_x86_newlib/bin/../lib/gcc/x86_64-nacl/4.4.3/../../../../x86_64-nacl/lib/../lib32/libstdc++.a(stdexcept.o)
                                        0x4ac (size before relaxing)
 .eh_frame      0x000000001002aee8      0x23c /home/berkeley/nacl_sdk/pepper_42/toolchain/linux_x86_newlib/bin/../lib/gcc/x86_64-nacl/4.4.3/../../../../x86_64-nacl/lib/../lib32/libstdc++.a(system_error.o)
                                        0x278 (size before relaxing)
 .eh_frame      0x000000001002b124       0x70 /home/berkeley/nacl_sdk/pepper_42/toolchain/linux_x86_newlib/bin/../lib/gcc/x86_64-nacl/4.4.3/../../../../x86_64-nacl/lib/../lib32/libstdc++.a(bad_typeid.o)
                                         0x8c (size before relaxing)
 .eh_frame      0x000000001002b194       0x8c /home/berkeley/nacl_sdk/pepper_42/toolchain/linux_x86_newlib/bin/../lib/gcc/x86_64-nacl/4.4.3/../../../../x86_64-nacl/lib/../lib32/libstdc++.a(new_handler.o)
                                         0xa8 (size before relaxing)
 .eh_frame      0x000000001002b220       0x70 /home/berkeley/nacl_sdk/pepper_42/toolchain/linux_x86_newlib/bin/../lib/gcc/x86_64-nacl/4.4.3/../../../../x86_64-nacl/lib/../lib32/libstdc++.a(bad_cast.o)
                                         0x8c (size before relaxing)
 .eh_frame      0x000000001002b290       0x24 /home/berkeley/nacl_sdk/pepper_42/toolchain/linux_x86_newlib/bin/../lib/gcc/x86_64-nacl/4.4.3/../../../../x86_64-nacl/lib/../lib32/libstdc++.a(vterminate.o)
                                         0x44 (size before relaxing)
 .eh_frame      0x000000001002b2b4       0x1c /home/berkeley/nacl_sdk/pepper_42/toolchain/linux_x86_newlib/bin/../lib/gcc/x86_64-nacl/4.4.3/../../../../x86_64-nacl/lib/../lib32/libstdc++.a(eh_type.o)
                                         0x38 (size before relaxing)
 .eh_frame      0x000000001002b2d0      0x3c8 /home/berkeley/nacl_sdk/pepper_42/toolchain/linux_x86_newlib/bin/../lib/gcc/x86_64-nacl/4.4.3/32/libgcc.a(unwind-dw2.o)
                                        0x3e0 (size before relaxing)
 .eh_frame      0x000000001002b698      0x2d4 /home/berkeley/nacl_sdk/pepper_42/toolchain/linux_x86_newlib/bin/../lib/gcc/x86_64-nacl/4.4.3/32/libgcc.a(unwind-dw2-fde-glibc.o)
                                        0x2ec (size before relaxing)
 .eh_frame      0x000000001002b96c       0x14 /home/berkeley/nacl_sdk/pepper_42/toolchain/linux_x86_newlib/bin/../lib/gcc/x86_64-nacl/4.4.3/../../../../x86_64-nacl/lib/../lib32/libnacl.a(_exit_710c7d0d.o)
                                         0x2c (size before relaxing)
 .eh_frame      0x000000001002b980       0x14 /home/berkeley/nacl_sdk/pepper_42/toolchain/linux_x86_newlib/bin/../lib/gcc/x86_64-nacl/4.4.3/../../../../x86_64-nacl/lib/../lib32/libnacl.a(abort_9f6b5845.o)
                                         0x2c (size before relaxing)
 .eh_frame      0x000000001002b994       0x20 /home/berkeley/nacl_sdk/pepper_42/toolchain/linux_x86_newlib/bin/../lib/gcc/x86_64-nacl/4.4.3/../../../../x86_64-nacl/lib/../lib32/libnacl.a(start_fa9ef7de.o)
                                         0x38 (size before relaxing)
 .eh_frame      0x000000001002b9b4      0x3b0 /home/berkeley/nacl_sdk/pepper_42/toolchain/linux_x86_newlib/bin/../lib/gcc/x86_64-nacl/4.4.3/../../../../x86_64-nacl/lib/../lib32/libnacl.a(malloc_222c4a1e.o)
                                        0x3c8 (size before relaxing)
 .eh_frame      0x000000001002bd64      0x108 /home/berkeley/nacl_sdk/pepper_42/toolchain/linux_x86_newlib/bin/../lib/gcc/x86_64-nacl/4.4.3/../../../../x86_64-nacl/lib/../lib32/libnacl.a(nacl_irt_6de1d53f.o)
                                        0x120 (size before relaxing)
 .eh_frame      0x000000001002be6c       0x1c /home/berkeley/nacl_sdk/pepper_42/toolchain/linux_x86_newlib/bin/../lib/gcc/x86_64-nacl/4.4.3/../../../../x86_64-nacl/lib/../lib32/libnacl.a(pthread_initialize_minimal_4b6e776b.o)
                                         0x34 (size before relaxing)
 .eh_frame      0x000000001002be88       0x14 /home/berkeley/nacl_sdk/pepper_42/toolchain/linux_x86_newlib/bin/../lib/gcc/x86_64-nacl/4.4.3/../../../../x86_64-nacl/lib/../lib32/libnacl.a(nacl_read_tp_5748ac47.o)
                                         0x2c (size before relaxing)
 .eh_frame      0x000000001002be9c       0x1c /home/berkeley/nacl_sdk/pepper_42/toolchain/linux_x86_newlib/bin/../lib/gcc/x86_64-nacl/4.4.3/../../../../x86_64-nacl/lib/../lib32/libnacl.a(mmap_767fb080.o)
                                         0x34 (size before relaxing)
 .eh_frame      0x000000001002beb8       0x1c /home/berkeley/nacl_sdk/pepper_42/toolchain/linux_x86_newlib/bin/../lib/gcc/x86_64-nacl/4.4.3/../../../../x86_64-nacl/lib/../lib32/libnacl.a(sched_yield_56c375be.o)
                                         0x34 (size before relaxing)
 .eh_frame      0x000000001002bed4       0x1c /home/berkeley/nacl_sdk/pepper_42/toolchain/linux_x86_newlib/bin/../lib/gcc/x86_64-nacl/4.4.3/../../../../x86_64-nacl/lib/../lib32/libnacl.a(munmap_d4f09867.o)
                                         0x34 (size before relaxing)
 .eh_frame      0x000000001002bef0       0x54 /home/berkeley/nacl_sdk/pepper_42/toolchain/linux_x86_newlib/bin/../lib/gcc/x86_64-nacl/4.4.3/../../../../x86_64-nacl/lib/../lib32/libnacl.a(tls_bba1975b.o)
                                         0x6c (size before relaxing)
 .eh_frame      0x000000001002bf44       0x1c /home/berkeley/nacl_sdk/pepper_42/toolchain/linux_x86_newlib/bin/../lib/gcc/x86_64-nacl/4.4.3/../../../../x86_64-nacl/lib/../lib32/libnacl.a(write_fb49787f.o)
                                         0x34 (size before relaxing)
 .eh_frame      0x000000001002bf60       0x14 /home/berkeley/nacl_sdk/pepper_42/toolchain/linux_x86_newlib/bin/../lib/gcc/x86_64-nacl/4.4.3/../../../../x86_64-nacl/lib/../lib32/libnacl.a(nacl_tls_get_d2f842b5.o)
                                         0x2c (size before relaxing)
 .eh_frame      0x000000001002bf74       0x30 /home/berkeley/nacl_sdk/pepper_42/toolchain/linux_x86_newlib/bin/../lib/gcc/x86_64-nacl/4.4.3/../../../../x86_64-nacl/lib/../lib32/libnacl.a(nacl_irt_init_7b4f826e.o)
                                         0x48 (size before relaxing)
 .eh_frame      0x000000001002bfa4       0x1c /home/berkeley/nacl_sdk/pepper_42/toolchain/linux_x86_newlib/bin/../lib/gcc/x86_64-nacl/4.4.3/../../../../x86_64-nacl/lib/../lib32/libnacl.a(sysconf_ad295ea2.o)
                                         0x34 (size before relaxing)
 .eh_frame      0x000000001002bfc0       0x14 /home/berkeley/nacl_sdk/pepper_42/toolchain/linux_x86_newlib/bin/../lib/gcc/x86_64-nacl/4.4.3/../../../../x86_64-nacl/lib/../lib32/libnacl.a(nacl_tls_init_eb0cd232.o)
                                         0x2c (size before relaxing)
 .eh_frame      0x000000001002bfd4       0x1c /home/berkeley/nacl_sdk/pepper_42/toolchain/linux_x86_newlib/bin/../lib/gcc/x86_64-nacl/4.4.3/../../../../x86_64-nacl/lib/../lib32/libnacl.a(close_e9b92fbd.o)
                                         0x34 (size before relaxing)
 .eh_frame      0x000000001002bff0       0x1c /home/berkeley/nacl_sdk/pepper_42/toolchain/linux_x86_newlib/bin/../lib/gcc/x86_64-nacl/4.4.3/../../../../x86_64-nacl/lib/../lib32/libnacl.a(isatty_02f56e94.o)
                                         0x34 (size before relaxing)
 .eh_frame      0x000000001002c00c       0x14 /home/berkeley/nacl_sdk/pepper_42/toolchain/linux_x86_newlib/bin/../lib/gcc/x86_64-nacl/4.4.3/../../../../x86_64-nacl/lib/../lib32/libnacl.a(nacl_irt_fdio_b571b5e7.o)
                                         0x2c (size before relaxing)
 .eh_frame      0x000000001002c020       0x1c /home/berkeley/nacl_sdk/pepper_42/toolchain/linux_x86_newlib/bin/../lib/gcc/x86_64-nacl/4.4.3/../../../../x86_64-nacl/lib/../lib32/libnacl.a(fstat_0540ff63.o)
                                         0x34 (size before relaxing)
 .eh_frame      0x000000001002c03c       0x1c /home/berkeley/nacl_sdk/pepper_42/toolchain/linux_x86_newlib/bin/../lib/gcc/x86_64-nacl/4.4.3/../../../../x86_64-nacl/lib/../lib32/libnacl.a(lseek_64d2d05c.o)
                                         0x34 (size before relaxing)
 .eh_frame      0x000000001002c058       0x1c /home/berkeley/nacl_sdk/pepper_42/toolchain/linux_x86_newlib/bin/../lib/gcc/x86_64-nacl/4.4.3/../../../../x86_64-nacl/lib/../lib32/libnacl.a(read_df872e10.o)
                                         0x34 (size before relaxing)
 .eh_frame      0x000000001002c074       0x20 /home/berkeley/nacl_sdk/pepper_42/toolchain/linux_x86_newlib/bin/../lib/gcc/x86_64-nacl/4.4.3/32/libgcc.a(_udivdi3.o)
                                         0x38 (size before relaxing)
 .eh_frame      0x000000001002c094       0x20 /home/berkeley/nacl_sdk/pepper_42/toolchain/linux_x86_newlib/bin/../lib/gcc/x86_64-nacl/4.4.3/32/libgcc.a(_umoddi3.o)
                                         0x38 (size before relaxing)
 .eh_frame      0x000000001002c0b4        0x4 /home/berkeley/nacl_sdk/pepper_42/toolchain/linux_x86_newlib/bin/../lib/gcc/x86_64-nacl/4.4.3/32/crtend.o

.gcc_except_table
                0x000000001002c0b8     0x1434
 *(.gcc_except_table .gcc_except_table.*)
 .gcc_except_table
                0x000000001002c0b8       0x3b newlib/Release/popcnt_x86_32.o
 *fill*         0x000000001002c0f3        0x1 
 .gcc_except_table
                0x000000001002c0f4      0x1ef /home/berkeley/nacl_sdk/pepper_42/lib/newlib_x86_32/Release/libppapi_cpp.a(instance_x86_32.o)
 *fill*         0x000000001002c2e3        0x1 
 .gcc_except_table
                0x000000001002c2e4       0xff /home/berkeley/nacl_sdk/pepper_42/lib/newlib_x86_32/Release/libppapi_cpp.a(module_x86_32.o)
 .gcc_except_table
                0x000000001002c3e3      0x11e /home/berkeley/nacl_sdk/pepper_42/lib/newlib_x86_32/Release/libppapi_cpp.a(url_loader_x86_32.o)
 .gcc_except_table
                0x000000001002c501       0x3c /home/berkeley/nacl_sdk/pepper_42/lib/newlib_x86_32/Release/libppapi_cpp.a(url_response_info_x86_32.o)
 .gcc_except_table
                0x000000001002c53d      0x16c /home/berkeley/nacl_sdk/pepper_42/lib/newlib_x86_32/Release/libppapi_cpp.a(var_x86_32.o)
 .gcc_except_table
                0x000000001002c6a9      0x18f /home/berkeley/nacl_sdk/pepper_42/lib/newlib_x86_32/Release/libppapi_cpp.a(view_x86_32.o)
 .gcc_except_table
                0x000000001002c838      0x282 /home/berkeley/nacl_sdk/pepper_42/lib/newlib_x86_32/Release/libppapi_cpp.a(file_ref_x86_32.o)
 .gcc_except_table
                0x000000001002caba      0x561 /home/berkeley/nacl_sdk/pepper_42/lib/newlib_x86_32/Release/libppapi_cpp.a(input_event_x86_32.o)
 .gcc_except_table._ZNSs4_Rep9_S_createEjjRKSaIcE
                0x000000001002d01b        0xe /home/berkeley/nacl_sdk/pepper_42/toolchain/linux_x86_newlib/bin/../lib/gcc/x86_64-nacl/4.4.3/../../../../x86_64-nacl/lib/../lib32/libstdc++.a(string-inst.o)
 .gcc_except_table._ZNSsC1ERKSs
                0x000000001002d029        0xe /home/berkeley/nacl_sdk/pepper_42/toolchain/linux_x86_newlib/bin/../lib/gcc/x86_64-nacl/4.4.3/../../../../x86_64-nacl/lib/../lib32/libstdc++.a(string-inst.o)
 .gcc_except_table._ZNSsC2ERKSs
                0x000000001002d037        0xe /home/berkeley/nacl_sdk/pepper_42/toolchain/linux_x86_newlib/bin/../lib/gcc/x86_64-nacl/4.4.3/../../../../x86_64-nacl/lib/../lib32/libstdc++.a(string-inst.o)
 .gcc_except_table._ZNSsC1ERKSsjj
                0x000000001002d045        0xe /home/berkeley/nacl_sdk/pepper_42/toolchain/linux_x86_newlib/bin/../lib/gcc/x86_64-nacl/4.4.3/../../../../x86_64-nacl/lib/../lib32/libstdc++.a(string-inst.o)
 .gcc_except_table._ZNSsC2ERKSsjj
                0x000000001002d053        0xe /home/berkeley/nacl_sdk/pepper_42/toolchain/linux_x86_newlib/bin/../lib/gcc/x86_64-nacl/4.4.3/../../../../x86_64-nacl/lib/../lib32/libstdc++.a(string-inst.o)
 .gcc_except_table._ZNSs6assignERKSs
                0x000000001002d061        0xf /home/berkeley/nacl_sdk/pepper_42/toolchain/linux_x86_newlib/bin/../lib/gcc/x86_64-nacl/4.4.3/../../../../x86_64-nacl/lib/../lib32/libstdc++.a(string-inst.o)
 .gcc_except_table._ZNSs7reserveEj
                0x000000001002d070        0xe /home/berkeley/nacl_sdk/pepper_42/toolchain/linux_x86_newlib/bin/../lib/gcc/x86_64-nacl/4.4.3/../../../../x86_64-nacl/lib/../lib32/libstdc++.a(string-inst.o)
 .gcc_except_table._ZStplIcSt11char_traitsIcESaIcEESbIT_T0_T1_ERKS6_S8_
                0x000000001002d07e       0x11 /home/berkeley/nacl_sdk/pepper_42/toolchain/linux_x86_newlib/bin/../lib/gcc/x86_64-nacl/4.4.3/../../../../x86_64-nacl/lib/../lib32/libstdc++.a(string-inst.o)
 .gcc_except_table._ZStplIcSt11char_traitsIcESaIcEESbIT_T0_T1_ES3_RKS6_
                0x000000001002d08f        0xe /home/berkeley/nacl_sdk/pepper_42/toolchain/linux_x86_newlib/bin/../lib/gcc/x86_64-nacl/4.4.3/../../../../x86_64-nacl/lib/../lib32/libstdc++.a(string-inst.o)
 .gcc_except_table._ZStplIcSt11char_traitsIcESaIcEESbIT_T0_T1_EPKS3_RKS6_
                0x000000001002d09d        0xe /home/berkeley/nacl_sdk/pepper_42/toolchain/linux_x86_newlib/bin/../lib/gcc/x86_64-nacl/4.4.3/../../../../x86_64-nacl/lib/../lib32/libstdc++.a(string-inst.o)
 .gcc_except_table._ZNSs9_M_mutateEjjj
                0x000000001002d0ab        0xf /home/berkeley/nacl_sdk/pepper_42/toolchain/linux_x86_newlib/bin/../lib/gcc/x86_64-nacl/4.4.3/../../../../x86_64-nacl/lib/../lib32/libstdc++.a(string-inst.o)
 .gcc_except_table._ZNSs7replaceEjjPKcj
                0x000000001002d0ba       0x1f /home/berkeley/nacl_sdk/pepper_42/toolchain/linux_x86_newlib/bin/../lib/gcc/x86_64-nacl/4.4.3/../../../../x86_64-nacl/lib/../lib32/libstdc++.a(string-inst.o)
 *fill*         0x000000001002d0d9        0x3 
 .gcc_except_table.__cxa_call_unexpected
                0x000000001002d0dc       0x24 /home/berkeley/nacl_sdk/pepper_42/toolchain/linux_x86_newlib/bin/../lib/gcc/x86_64-nacl/4.4.3/../../../../x86_64-nacl/lib/../lib32/libstdc++.a(eh_personality.o)
 .gcc_except_table.__gxx_personality_v0
                0x000000001002d100       0x28 /home/berkeley/nacl_sdk/pepper_42/toolchain/linux_x86_newlib/bin/../lib/gcc/x86_64-nacl/4.4.3/../../../../x86_64-nacl/lib/../lib32/libstdc++.a(eh_personality.o)
 .gcc_except_table.__cxa_get_globals
                0x000000001002d128       0x15 /home/berkeley/nacl_sdk/pepper_42/toolchain/linux_x86_newlib/bin/../lib/gcc/x86_64-nacl/4.4.3/../../../../x86_64-nacl/lib/../lib32/libstdc++.a(eh_globals.o)
 *fill*         0x000000001002d13d        0x3 
 .gcc_except_table.__cxa_get_globals_fast
                0x000000001002d140       0x11 /home/berkeley/nacl_sdk/pepper_42/toolchain/linux_x86_newlib/bin/../lib/gcc/x86_64-nacl/4.4.3/../../../../x86_64-nacl/lib/../lib32/libstdc++.a(eh_globals.o)
 .gcc_except_table.__cxa_guard_acquire
                0x000000001002d151       0x18 /home/berkeley/nacl_sdk/pepper_42/toolchain/linux_x86_newlib/bin/../lib/gcc/x86_64-nacl/4.4.3/../../../../x86_64-nacl/lib/../lib32/libstdc++.a(guard.o)
 *fill*         0x000000001002d169        0x3 
 .gcc_except_table._ZN10__cxxabiv111__terminateEPFvvE
                0x000000001002d16c       0x1c /home/berkeley/nacl_sdk/pepper_42/toolchain/linux_x86_newlib/bin/../lib/gcc/x86_64-nacl/4.4.3/../../../../x86_64-nacl/lib/../lib32/libstdc++.a(eh_terminate.o)
 .gcc_except_table._ZN9__gnu_cxx13__scoped_lockD1Ev
                0x000000001002d188       0x15 /home/berkeley/nacl_sdk/pepper_42/toolchain/linux_x86_newlib/bin/../lib/gcc/x86_64-nacl/4.4.3/../../../../x86_64-nacl/lib/../lib32/libstdc++.a(eh_alloc.o)
 *fill*         0x000000001002d19d        0x3 
 .gcc_except_table.__cxa_free_dependent_exception
                0x000000001002d1a0       0x31 /home/berkeley/nacl_sdk/pepper_42/toolchain/linux_x86_newlib/bin/../lib/gcc/x86_64-nacl/4.4.3/../../../../x86_64-nacl/lib/../lib32/libstdc++.a(eh_alloc.o)
 *fill*         0x000000001002d1d1        0x3 
 .gcc_except_table.__cxa_free_exception
                0x000000001002d1d4       0x31 /home/berkeley/nacl_sdk/pepper_42/toolchain/linux_x86_newlib/bin/../lib/gcc/x86_64-nacl/4.4.3/../../../../x86_64-nacl/lib/../lib32/libstdc++.a(eh_alloc.o)
 *fill*         0x000000001002d205        0x3 
 .gcc_except_table.__cxa_allocate_exception
                0x000000001002d208       0x35 /home/berkeley/nacl_sdk/pepper_42/toolchain/linux_x86_newlib/bin/../lib/gcc/x86_64-nacl/4.4.3/../../../../x86_64-nacl/lib/../lib32/libstdc++.a(eh_alloc.o)
 *fill*         0x000000001002d23d        0x3 
 .gcc_except_table.__cxa_allocate_dependent_exception
                0x000000001002d240       0x35 /home/berkeley/nacl_sdk/pepper_42/toolchain/linux_x86_newlib/bin/../lib/gcc/x86_64-nacl/4.4.3/../../../../x86_64-nacl/lib/../lib32/libstdc++.a(eh_alloc.o)
 *fill*         0x000000001002d275        0x3 
 .gcc_except_table.__cxa_begin_catch
                0x000000001002d278       0x15 /home/berkeley/nacl_sdk/pepper_42/toolchain/linux_x86_newlib/bin/../lib/gcc/x86_64-nacl/4.4.3/../../../../x86_64-nacl/lib/../lib32/libstdc++.a(eh_catch.o)
 *fill*         0x000000001002d28d        0x3 
 .gcc_except_table._Znwj
                0x000000001002d290       0x1a /home/berkeley/nacl_sdk/pepper_42/toolchain/linux_x86_newlib/bin/../lib/gcc/x86_64-nacl/4.4.3/../../../../x86_64-nacl/lib/../lib32/libstdc++.a(new_op.o)
 .gcc_except_table._ZSt20__throw_system_errori
                0x000000001002d2aa       0x1c /home/berkeley/nacl_sdk/pepper_42/toolchain/linux_x86_newlib/bin/../lib/gcc/x86_64-nacl/4.4.3/../../../../x86_64-nacl/lib/../lib32/libstdc++.a(functexcept.o)
 .gcc_except_table._ZSt19__throw_ios_failurePKc
                0x000000001002d2c6        0xf /home/berkeley/nacl_sdk/pepper_42/toolchain/linux_x86_newlib/bin/../lib/gcc/x86_64-nacl/4.4.3/../../../../x86_64-nacl/lib/../lib32/libstdc++.a(functexcept.o)
 *fill*         0x000000001002d2d5        0x3 
 .gcc_except_table._ZSt23__throw_underflow_errorPKc
                0x000000001002d2d8       0x25 /home/berkeley/nacl_sdk/pepper_42/toolchain/linux_x86_newlib/bin/../lib/gcc/x86_64-nacl/4.4.3/../../../../x86_64-nacl/lib/../lib32/libstdc++.a(functexcept.o)
 *fill*         0x000000001002d2fd        0x3 
 .gcc_except_table._ZSt22__throw_overflow_errorPKc
                0x000000001002d300       0x25 /home/berkeley/nacl_sdk/pepper_42/toolchain/linux_x86_newlib/bin/../lib/gcc/x86_64-nacl/4.4.3/../../../../x86_64-nacl/lib/../lib32/libstdc++.a(functexcept.o)
 *fill*         0x000000001002d325        0x3 
 .gcc_except_table._ZSt19__throw_range_errorPKc
                0x000000001002d328       0x25 /home/berkeley/nacl_sdk/pepper_42/toolchain/linux_x86_newlib/bin/../lib/gcc/x86_64-nacl/4.4.3/../../../../x86_64-nacl/lib/../lib32/libstdc++.a(functexcept.o)
 *fill*         0x000000001002d34d        0x3 
 .gcc_except_table._ZSt21__throw_runtime_errorPKc
                0x000000001002d350       0x25 /home/berkeley/nacl_sdk/pepper_42/toolchain/linux_x86_newlib/bin/../lib/gcc/x86_64-nacl/4.4.3/../../../../x86_64-nacl/lib/../lib32/libstdc++.a(functexcept.o)
 *fill*         0x000000001002d375        0x3 
 .gcc_except_table._ZSt20__throw_out_of_rangePKc
                0x000000001002d378       0x25 /home/berkeley/nacl_sdk/pepper_42/toolchain/linux_x86_newlib/bin/../lib/gcc/x86_64-nacl/4.4.3/../../../../x86_64-nacl/lib/../lib32/libstdc++.a(functexcept.o)
 *fill*         0x000000001002d39d        0x3 
 .gcc_except_table._ZSt20__throw_length_errorPKc
                0x000000001002d3a0       0x25 /home/berkeley/nacl_sdk/pepper_42/toolchain/linux_x86_newlib/bin/../lib/gcc/x86_64-nacl/4.4.3/../../../../x86_64-nacl/lib/../lib32/libstdc++.a(functexcept.o)
 *fill*         0x000000001002d3c5        0x3 
 .gcc_except_table._ZSt24__throw_invalid_argumentPKc
                0x000000001002d3c8       0x25 /home/berkeley/nacl_sdk/pepper_42/toolchain/linux_x86_newlib/bin/../lib/gcc/x86_64-nacl/4.4.3/../../../../x86_64-nacl/lib/../lib32/libstdc++.a(functexcept.o)
 *fill*         0x000000001002d3ed        0x3 
 .gcc_except_table._ZSt20__throw_domain_errorPKc
                0x000000001002d3f0       0x25 /home/berkeley/nacl_sdk/pepper_42/toolchain/linux_x86_newlib/bin/../lib/gcc/x86_64-nacl/4.4.3/../../../../x86_64-nacl/lib/../lib32/libstdc++.a(functexcept.o)
 *fill*         0x000000001002d415        0x3 
 .gcc_except_table._ZSt19__throw_logic_errorPKc
                0x000000001002d418       0x25 /home/berkeley/nacl_sdk/pepper_42/toolchain/linux_x86_newlib/bin/../lib/gcc/x86_64-nacl/4.4.3/../../../../x86_64-nacl/lib/../lib32/libstdc++.a(functexcept.o)
 *fill*         0x000000001002d43d        0x3 
 .gcc_except_table._ZNSt8ios_base7failureC1ERKSs
                0x000000001002d440       0x15 /home/berkeley/nacl_sdk/pepper_42/toolchain/linux_x86_newlib/bin/../lib/gcc/x86_64-nacl/4.4.3/../../../../x86_64-nacl/lib/../lib32/libstdc++.a(ios_failure.o)
 *fill*         0x000000001002d455        0x3 
 .gcc_except_table._ZNSt8ios_base7failureC2ERKSs
                0x000000001002d458       0x15 /home/berkeley/nacl_sdk/pepper_42/toolchain/linux_x86_newlib/bin/../lib/gcc/x86_64-nacl/4.4.3/../../../../x86_64-nacl/lib/../lib32/libstdc++.a(ios_failure.o)
 .gcc_except_table._ZNSt13runtime_errorC1ERKSs
                0x000000001002d46d        0xd /home/berkeley/nacl_sdk/pepper_42/toolchain/linux_x86_newlib/bin/../lib/gcc/x86_64-nacl/4.4.3/../../../../x86_64-nacl/lib/../lib32/libstdc++.a(stdexcept.o)
 .gcc_except_table._ZNSt13runtime_errorC2ERKSs
                0x000000001002d47a        0xd /home/berkeley/nacl_sdk/pepper_42/toolchain/linux_x86_newlib/bin/../lib/gcc/x86_64-nacl/4.4.3/../../../../x86_64-nacl/lib/../lib32/libstdc++.a(stdexcept.o)
 .gcc_except_table._ZNSt11logic_errorC1ERKSs
                0x000000001002d487        0xd /home/berkeley/nacl_sdk/pepper_42/toolchain/linux_x86_newlib/bin/../lib/gcc/x86_64-nacl/4.4.3/../../../../x86_64-nacl/lib/../lib32/libstdc++.a(stdexcept.o)
 .gcc_except_table._ZNSt11logic_errorC2ERKSs
                0x000000001002d494        0xd /home/berkeley/nacl_sdk/pepper_42/toolchain/linux_x86_newlib/bin/../lib/gcc/x86_64-nacl/4.4.3/../../../../x86_64-nacl/lib/../lib32/libstdc++.a(stdexcept.o)
 .gcc_except_table._ZNK12_GLOBAL__N_122generic_error_category7messageEi
                0x000000001002d4a1        0xc /home/berkeley/nacl_sdk/pepper_42/toolchain/linux_x86_newlib/bin/../lib/gcc/x86_64-nacl/4.4.3/../../../../x86_64-nacl/lib/../lib32/libstdc++.a(system_error.o)
 .gcc_except_table._ZNK12_GLOBAL__N_121system_error_category7messageEi
                0x000000001002d4ad        0xc /home/berkeley/nacl_sdk/pepper_42/toolchain/linux_x86_newlib/bin/../lib/gcc/x86_64-nacl/4.4.3/../../../../x86_64-nacl/lib/../lib32/libstdc++.a(system_error.o)
 *fill*         0x000000001002d4b9        0x3 
 .gcc_except_table._ZN9__gnu_cxx27__verbose_terminate_handlerEv
                0x000000001002d4bc       0x30 /home/berkeley/nacl_sdk/pepper_42/toolchain/linux_x86_newlib/bin/../lib/gcc/x86_64-nacl/4.4.3/../../../../x86_64-nacl/lib/../lib32/libstdc++.a(vterminate.o)

.exception_ranges
 *(.exception_ranges .exception_ranges*)
                0x000000001002d4ec                . = (ALIGN (0x10000) - ((0x10000 - .) & 0xffff))
                0x0000000010030000                . = DATA_SEGMENT_ALIGN (0x10000, 0x10000)

.eh_frame
 *(.eh_frame)

.gcc_except_table
 *(.gcc_except_table .gcc_except_table.*)

.exception_ranges
 *(.exception_ranges .exception_ranges*)

.tdata          0x0000000010030000      0x478
 *(.tdata .tdata.* .gnu.linkonce.td.*)
 .tdata         0x0000000010030000      0x478 /home/berkeley/nacl_sdk/pepper_42/toolchain/linux_x86_newlib/bin/../lib/gcc/x86_64-nacl/4.4.3/../../../../x86_64-nacl/lib/../lib32/libcrt_common.a(lib_a-impure.o)
                0x0000000010030000                _impure_ptr

.tbss           0x0000000010030478        0x8
 *(.tbss .tbss.* .gnu.linkonce.tb.*)
 .tbss          0x0000000010030478        0x8 /home/berkeley/nacl_sdk/pepper_42/toolchain/linux_x86_newlib/bin/../lib/gcc/x86_64-nacl/4.4.3/../../../../x86_64-nacl/lib/../lib32/libpthread.a(nc_thread_7e478b15.o)
 *(.tcommon)

.preinit_array  0x0000000010030478        0x0
                0x0000000010030478                PROVIDE (__preinit_array_start, .)
 *(.preinit_array)
                0x0000000010030478                PROVIDE (__preinit_array_end, .)

.init_array     0x0000000010030478        0xc
                0x0000000010030478                PROVIDE (__init_array_start, .)
 *(SORT(.init_array.*) SORT(.ctors.*))
 *(.init_array EXCLUDE_FILE(*crtend?.o *crtend.o *crtbegin?.o *crtbegin.o) .ctors)
 .ctors         0x0000000010030478        0x4 /home/berkeley/nacl_sdk/pepper_42/toolchain/linux_x86_newlib/bin/../lib/gcc/x86_64-nacl/4.4.3/../../../../x86_64-nacl/lib/../lib32/libstdc++.a(eh_globals.o)
 .ctors         0x000000001003047c        0x4 /home/berkeley/nacl_sdk/pepper_42/toolchain/linux_x86_newlib/bin/../lib/gcc/x86_64-nacl/4.4.3/../../../../x86_64-nacl/lib/../lib32/libstdc++.a(eh_alloc.o)
 .ctors         0x0000000010030480        0x4 /home/berkeley/nacl_sdk/pepper_42/toolchain/linux_x86_newlib/bin/../lib/gcc/x86_64-nacl/4.4.3/../../../../x86_64-nacl/lib/../lib32/libstdc++.a(system_error.o)
                0x0000000010030484                PROVIDE (__init_array_end, .)

.fini_array     0x0000000010030484        0x0
                0x0000000010030484                PROVIDE (__fini_array_start, .)
 *(SORT(.fini_array.*) SORT(.dtors.*))
 *(.fini_array EXCLUDE_FILE(*crtend?.o *crtend.o *crtbegin?.o *crtbegin.o) .dtors)
                0x0000000010030484                PROVIDE (__fini_array_end, .)

.ctors          0x0000000010030484        0x8
 *crtbegin.o(.ctors)
 .ctors         0x0000000010030484        0x4 /home/berkeley/nacl_sdk/pepper_42/toolchain/linux_x86_newlib/bin/../lib/gcc/x86_64-nacl/4.4.3/32/crtbegin.o
 *crtbegin?.o(.ctors)
 *(EXCLUDE_FILE(*crtend?.o *crtend.o) .ctors)
 *(SORT(.ctors.*))
 *(.ctors)
 .ctors         0x0000000010030488        0x4 /home/berkeley/nacl_sdk/pepper_42/toolchain/linux_x86_newlib/bin/../lib/gcc/x86_64-nacl/4.4.3/32/crtend.o

.dtors          0x000000001003048c        0x8
 *crtbegin.o(.dtors)
 .dtors         0x000000001003048c        0x4 /home/berkeley/nacl_sdk/pepper_42/toolchain/linux_x86_newlib/bin/../lib/gcc/x86_64-nacl/4.4.3/32/crtbegin.o
 *crtbegin?.o(.dtors)
 *(EXCLUDE_FILE(*crtend?.o *crtend.o) .dtors)
 *(SORT(.dtors.*))
 *(.dtors)
 .dtors         0x0000000010030490        0x4 /home/berkeley/nacl_sdk/pepper_42/toolchain/linux_x86_newlib/bin/../lib/gcc/x86_64-nacl/4.4.3/32/crtend.o
                0x0000000010030490                __DTOR_END__

.jcr            0x0000000010030494        0x4
 *(.jcr)
 .jcr           0x0000000010030494        0x0 /home/berkeley/nacl_sdk/pepper_42/toolchain/linux_x86_newlib/bin/../lib/gcc/x86_64-nacl/4.4.3/32/crtbegin.o
 .jcr           0x0000000010030494        0x4 /home/berkeley/nacl_sdk/pepper_42/toolchain/linux_x86_newlib/bin/../lib/gcc/x86_64-nacl/4.4.3/32/crtend.o

.data.rel.ro
 *(.data.rel.ro.local* .gnu.linkonce.d.rel.ro.local.*)
 *(.data.rel.ro .data.rel.ro.* .gnu.linkonce.d.rel.ro.*)

.dynamic
 *(.dynamic)

.got            0x0000000010030498        0x0
 *(.got)
 .got           0x0000000000000000        0x0 /home/berkeley/nacl_sdk/pepper_42/toolchain/linux_x86_newlib/bin/../lib/gcc/x86_64-nacl/4.4.3/32/crtbegin.o
 *(.igot)
                0x0000000010030498                . = DATA_SEGMENT_RELRO_END (., (SIZEOF (.got.plt) >= 0xc)?0xc:0x0)

.got.plt        0x0000000010030498        0xc
 *(.got.plt)
 .got.plt       0x0000000010030498        0xc /home/berkeley/nacl_sdk/pepper_42/toolchain/linux_x86_newlib/bin/../lib/gcc/x86_64-nacl/4.4.3/32/crtbegin.o
                0x0000000010030498                _GLOBAL_OFFSET_TABLE_
 *(.igot.plt)
 .igot.plt      0x0000000000000000        0x0 /home/berkeley/nacl_sdk/pepper_42/toolchain/linux_x86_newlib/bin/../lib/gcc/x86_64-nacl/4.4.3/32/crtbegin.o

.data           0x00000000100304c0      0x728
 *(.data .data.* .gnu.linkonce.d.*)
 .data          0x00000000100304c0        0x0 /home/berkeley/nacl_sdk/pepper_42/toolchain/linux_x86_newlib/bin/../lib/gcc/x86_64-nacl/4.4.3/../../../../x86_64-nacl/lib/../lib32/crti.o
 .data          0x00000000100304c0        0x4 /home/berkeley/nacl_sdk/pepper_42/toolchain/linux_x86_newlib/bin/../lib/gcc/x86_64-nacl/4.4.3/32/crtbegin.o
                0x00000000100304c0                __dso_handle
 .data          0x00000000100304c4        0x0 newlib/Release/popcnt_x86_32.o
 .data          0x00000000100304c4        0xc /home/berkeley/nacl_sdk/pepper_42/lib/newlib_x86_32/Release/libppapi_cpp.a(instance_x86_32.o)
 .data          0x00000000100304d0       0x18 /home/berkeley/nacl_sdk/pepper_42/lib/newlib_x86_32/Release/libppapi_cpp.a(module_x86_32.o)
 .data          0x00000000100304e8        0x0 /home/berkeley/nacl_sdk/pepper_42/lib/newlib_x86_32/Release/libppapi_cpp.a(ppp_entrypoints_x86_32.o)
 .data          0x00000000100304e8        0x0 /home/berkeley/nacl_sdk/pepper_42/lib/newlib_x86_32/Release/libppapi_cpp.a(resource_x86_32.o)
 .data          0x00000000100304e8        0x0 /home/berkeley/nacl_sdk/pepper_42/lib/newlib_x86_32/Release/libppapi_cpp.a(url_loader_x86_32.o)
 .data          0x00000000100304e8        0x0 /home/berkeley/nacl_sdk/pepper_42/lib/newlib_x86_32/Release/libppapi_cpp.a(url_response_info_x86_32.o)
 .data          0x00000000100304e8        0x0 /home/berkeley/nacl_sdk/pepper_42/lib/newlib_x86_32/Release/libppapi_cpp.a(var_x86_32.o)
 .data          0x00000000100304e8        0x0 /home/berkeley/nacl_sdk/pepper_42/lib/newlib_x86_32/Release/libppapi_cpp.a(view_x86_32.o)
 .data          0x00000000100304e8        0x0 /home/berkeley/nacl_sdk/pepper_42/lib/newlib_x86_32/Release/libppapi_cpp.a(core_x86_32.o)
 .data          0x00000000100304e8        0x0 /home/berkeley/nacl_sdk/pepper_42/lib/newlib_x86_32/Release/libppapi_cpp.a(file_ref_x86_32.o)
 .data          0x00000000100304e8        0x0 /home/berkeley/nacl_sdk/pepper_42/lib/newlib_x86_32/Release/libppapi_cpp.a(input_event_x86_32.o)
 .data          0x00000000100304e8        0x0 /home/berkeley/nacl_sdk/pepper_42/toolchain/linux_x86_newlib/bin/../lib/gcc/x86_64-nacl/4.4.3/../../../../x86_64-nacl/lib/../lib32/libppapi_stub.a(plugin_main_irt_21ce9d26.o)
 .data          0x00000000100304e8        0x0 /home/berkeley/nacl_sdk/pepper_42/toolchain/linux_x86_newlib/bin/../lib/gcc/x86_64-nacl/4.4.3/../../../../x86_64-nacl/lib/../lib32/libppapi_stub.a(ppapi_plugin_main_399d0cf7.o)
 .data          0x00000000100304e8        0x0 /home/berkeley/nacl_sdk/pepper_42/toolchain/linux_x86_newlib/bin/../lib/gcc/x86_64-nacl/4.4.3/../../../../x86_64-nacl/lib/../lib32/libppapi_stub.a(ppapi_plugin_start_8da67623.o)
 .data          0x00000000100304e8        0x0 /home/berkeley/nacl_sdk/pepper_42/toolchain/linux_x86_newlib/bin/../lib/gcc/x86_64-nacl/4.4.3/../../../../x86_64-nacl/lib/../lib32/libppapi_stub.a(thread_creator_ccf263e1.o)
 .data          0x00000000100304e8        0x4 /home/berkeley/nacl_sdk/pepper_42/toolchain/linux_x86_newlib/bin/../lib/gcc/x86_64-nacl/4.4.3/../../../../x86_64-nacl/lib/../lib32/libpthread.a(nc_thread_7e478b15.o)
                0x00000000100304e8                __nc_running_threads_counter
 .data          0x00000000100304ec        0x0 /home/berkeley/nacl_sdk/pepper_42/toolchain/linux_x86_newlib/bin/../lib/gcc/x86_64-nacl/4.4.3/../../../../x86_64-nacl/lib/../lib32/libpthread.a(nc_condvar_305aa45a.o)
 .data          0x00000000100304ec        0x4 /home/berkeley/nacl_sdk/pepper_42/toolchain/linux_x86_newlib/bin/../lib/gcc/x86_64-nacl/4.4.3/../../../../x86_64-nacl/lib/../lib32/libpthread.a(dynamic_annotations_33ba59cc.o)
 .data          0x00000000100304f0        0x0 /home/berkeley/nacl_sdk/pepper_42/toolchain/linux_x86_newlib/bin/../lib/gcc/x86_64-nacl/4.4.3/../../../../x86_64-nacl/lib/../lib32/libpthread.a(nc_mutex_86341ae1.o)
 .data          0x00000000100304f0        0x0 /home/berkeley/nacl_sdk/pepper_42/toolchain/linux_x86_newlib/bin/../lib/gcc/x86_64-nacl/4.4.3/../../../../x86_64-nacl/lib/../lib32/libpthread.a(nc_init_irt_d3daafc0.o)
 .data          0x00000000100304f0        0x0 /home/berkeley/nacl_sdk/pepper_42/toolchain/linux_x86_newlib/bin/../lib/gcc/x86_64-nacl/4.4.3/../../../../x86_64-nacl/lib/../lib32/libstdc++.a(tree.o)
 .data          0x00000000100304f0        0x0 /home/berkeley/nacl_sdk/pepper_42/toolchain/linux_x86_newlib/bin/../lib/gcc/x86_64-nacl/4.4.3/../../../../x86_64-nacl/lib/../lib32/libstdc++.a(string-inst.o)
 .data          0x00000000100304f0        0x0 /home/berkeley/nacl_sdk/pepper_42/toolchain/linux_x86_newlib/bin/../lib/gcc/x86_64-nacl/4.4.3/../../../../x86_64-nacl/lib/../lib32/libstdc++.a(eh_personality.o)
 .data          0x00000000100304f0        0x0 /home/berkeley/nacl_sdk/pepper_42/toolchain/linux_x86_newlib/bin/../lib/gcc/x86_64-nacl/4.4.3/../../../../x86_64-nacl/lib/../lib32/libstdc++.a(eh_globals.o)
 .data          0x00000000100304f0        0x0 /home/berkeley/nacl_sdk/pepper_42/toolchain/linux_x86_newlib/bin/../lib/gcc/x86_64-nacl/4.4.3/../../../../x86_64-nacl/lib/../lib32/libstdc++.a(eh_throw.o)
 .data          0x00000000100304f0        0x0 /home/berkeley/nacl_sdk/pepper_42/toolchain/linux_x86_newlib/bin/../lib/gcc/x86_64-nacl/4.4.3/../../../../x86_64-nacl/lib/../lib32/libstdc++.a(del_op.o)
 .data          0x00000000100304f0        0x0 /home/berkeley/nacl_sdk/pepper_42/toolchain/linux_x86_newlib/bin/../lib/gcc/x86_64-nacl/4.4.3/../../../../x86_64-nacl/lib/../lib32/libstdc++.a(eh_call.o)
 .data          0x00000000100304f0        0x0 /home/berkeley/nacl_sdk/pepper_42/toolchain/linux_x86_newlib/bin/../lib/gcc/x86_64-nacl/4.4.3/../../../../x86_64-nacl/lib/../lib32/libstdc++.a(guard.o)
 .data._ZZN12_GLOBAL__N_116get_static_mutexEvE4once
                0x00000000100304f0       0x18 /home/berkeley/nacl_sdk/pepper_42/toolchain/linux_x86_newlib/bin/../lib/gcc/x86_64-nacl/4.4.3/../../../../x86_64-nacl/lib/../lib32/libstdc++.a(guard.o)
 .data          0x0000000010030508        0x0 /home/berkeley/nacl_sdk/pepper_42/toolchain/linux_x86_newlib/bin/../lib/gcc/x86_64-nacl/4.4.3/../../../../x86_64-nacl/lib/../lib32/libstdc++.a(si_class_type_info.o)
 .data          0x0000000010030508        0x0 /home/berkeley/nacl_sdk/pepper_42/toolchain/linux_x86_newlib/bin/../lib/gcc/x86_64-nacl/4.4.3/../../../../x86_64-nacl/lib/../lib32/libstdc++.a(eh_terminate.o)
 .data          0x0000000010030508        0x0 /home/berkeley/nacl_sdk/pepper_42/toolchain/linux_x86_newlib/bin/../lib/gcc/x86_64-nacl/4.4.3/../../../../x86_64-nacl/lib/../lib32/libstdc++.a(class_type_info.o)
 .data          0x0000000010030508        0x0 /home/berkeley/nacl_sdk/pepper_42/toolchain/linux_x86_newlib/bin/../lib/gcc/x86_64-nacl/4.4.3/../../../../x86_64-nacl/lib/../lib32/libstdc++.a(eh_alloc.o)
 .data          0x0000000010030508        0x0 /home/berkeley/nacl_sdk/pepper_42/toolchain/linux_x86_newlib/bin/../lib/gcc/x86_64-nacl/4.4.3/../../../../x86_64-nacl/lib/../lib32/libstdc++.a(eh_catch.o)
 .data          0x0000000010030508        0x0 /home/berkeley/nacl_sdk/pepper_42/toolchain/linux_x86_newlib/bin/../lib/gcc/x86_64-nacl/4.4.3/../../../../x86_64-nacl/lib/../lib32/libstdc++.a(eh_exception.o)
 .data          0x0000000010030508        0x0 /home/berkeley/nacl_sdk/pepper_42/toolchain/linux_x86_newlib/bin/../lib/gcc/x86_64-nacl/4.4.3/../../../../x86_64-nacl/lib/../lib32/libstdc++.a(pure.o)
 .data          0x0000000010030508        0x0 /home/berkeley/nacl_sdk/pepper_42/toolchain/linux_x86_newlib/bin/../lib/gcc/x86_64-nacl/4.4.3/../../../../x86_64-nacl/lib/../lib32/libstdc++.a(new_op.o)
 .data          0x0000000010030508        0x0 /home/berkeley/nacl_sdk/pepper_42/toolchain/linux_x86_newlib/bin/../lib/gcc/x86_64-nacl/4.4.3/../../../../x86_64-nacl/lib/../lib32/libstdc++.a(tinfo.o)
 .data          0x0000000010030508        0x0 /home/berkeley/nacl_sdk/pepper_42/toolchain/linux_x86_newlib/bin/../lib/gcc/x86_64-nacl/4.4.3/../../../../x86_64-nacl/lib/../lib32/libstdc++.a(functexcept.o)
 .data          0x0000000010030508        0x0 /home/berkeley/nacl_sdk/pepper_42/toolchain/linux_x86_newlib/bin/../lib/gcc/x86_64-nacl/4.4.3/../../../../x86_64-nacl/lib/../lib32/libstdc++.a(ios_failure.o)
 .data          0x0000000010030508        0x0 /home/berkeley/nacl_sdk/pepper_42/toolchain/linux_x86_newlib/bin/../lib/gcc/x86_64-nacl/4.4.3/../../../../x86_64-nacl/lib/../lib32/libstdc++.a(stdexcept.o)
 .data          0x0000000010030508        0x0 /home/berkeley/nacl_sdk/pepper_42/toolchain/linux_x86_newlib/bin/../lib/gcc/x86_64-nacl/4.4.3/../../../../x86_64-nacl/lib/../lib32/libstdc++.a(system_error.o)
 .data          0x0000000010030508        0x0 /home/berkeley/nacl_sdk/pepper_42/toolchain/linux_x86_newlib/bin/../lib/gcc/x86_64-nacl/4.4.3/../../../../x86_64-nacl/lib/../lib32/libstdc++.a(eh_unex_handler.o)
 .data._ZN10__cxxabiv120__unexpected_handlerE
                0x0000000010030508        0x4 /home/berkeley/nacl_sdk/pepper_42/toolchain/linux_x86_newlib/bin/../lib/gcc/x86_64-nacl/4.4.3/../../../../x86_64-nacl/lib/../lib32/libstdc++.a(eh_unex_handler.o)
                0x0000000010030508                _ZN10__cxxabiv120__unexpected_handlerE
 .data          0x000000001003050c        0x0 /home/berkeley/nacl_sdk/pepper_42/toolchain/linux_x86_newlib/bin/../lib/gcc/x86_64-nacl/4.4.3/../../../../x86_64-nacl/lib/../lib32/libstdc++.a(eh_term_handler.o)
 .data._ZN10__cxxabiv119__terminate_handlerE
                0x000000001003050c        0x4 /home/berkeley/nacl_sdk/pepper_42/toolchain/linux_x86_newlib/bin/../lib/gcc/x86_64-nacl/4.4.3/../../../../x86_64-nacl/lib/../lib32/libstdc++.a(eh_term_handler.o)
                0x000000001003050c                _ZN10__cxxabiv119__terminate_handlerE
 .data          0x0000000010030510        0x0 /home/berkeley/nacl_sdk/pepper_42/toolchain/linux_x86_newlib/bin/../lib/gcc/x86_64-nacl/4.4.3/../../../../x86_64-nacl/lib/../lib32/libstdc++.a(bad_typeid.o)
 .data          0x0000000010030510        0x0 /home/berkeley/nacl_sdk/pepper_42/toolchain/linux_x86_newlib/bin/../lib/gcc/x86_64-nacl/4.4.3/../../../../x86_64-nacl/lib/../lib32/libstdc++.a(new_handler.o)
 .data          0x0000000010030510        0x0 /home/berkeley/nacl_sdk/pepper_42/toolchain/linux_x86_newlib/bin/../lib/gcc/x86_64-nacl/4.4.3/../../../../x86_64-nacl/lib/../lib32/libstdc++.a(bad_cast.o)
 .data          0x0000000010030510        0x0 /home/berkeley/nacl_sdk/pepper_42/toolchain/linux_x86_newlib/bin/../lib/gcc/x86_64-nacl/4.4.3/../../../../x86_64-nacl/lib/../lib32/libstdc++.a(vterminate.o)
 .data          0x0000000010030510        0x0 /home/berkeley/nacl_sdk/pepper_42/toolchain/linux_x86_newlib/bin/../lib/gcc/x86_64-nacl/4.4.3/../../../../x86_64-nacl/lib/../lib32/libstdc++.a(cp-demangle.o)
 .data          0x0000000010030510        0x0 /home/berkeley/nacl_sdk/pepper_42/toolchain/linux_x86_newlib/bin/../lib/gcc/x86_64-nacl/4.4.3/../../../../x86_64-nacl/lib/../lib32/libstdc++.a(eh_type.o)
 .data          0x0000000010030510       0x18 /home/berkeley/nacl_sdk/pepper_42/toolchain/linux_x86_newlib/bin/../lib/gcc/x86_64-nacl/4.4.3/32/libgcc.a(unwind-dw2.o)
 .data          0x0000000010030528       0x14 /home/berkeley/nacl_sdk/pepper_42/toolchain/linux_x86_newlib/bin/../lib/gcc/x86_64-nacl/4.4.3/32/libgcc.a(unwind-dw2-fde-glibc.o)
 .data          0x000000001003053c        0x0 /home/berkeley/nacl_sdk/pepper_42/toolchain/linux_x86_newlib/bin/../lib/gcc/x86_64-nacl/4.4.3/../../../../x86_64-nacl/lib/../lib32/libnacl.a(_exit_710c7d0d.o)
 .data          0x000000001003053c        0x0 /home/berkeley/nacl_sdk/pepper_42/toolchain/linux_x86_newlib/bin/../lib/gcc/x86_64-nacl/4.4.3/../../../../x86_64-nacl/lib/../lib32/libnacl.a(abort_9f6b5845.o)
 .data          0x000000001003053c        0x4 /home/berkeley/nacl_sdk/pepper_42/toolchain/linux_x86_newlib/bin/../lib/gcc/x86_64-nacl/4.4.3/../../../../x86_64-nacl/lib/../lib32/libnacl.a(environ_25cd24d8.o)
                0x000000001003053c                environ
 .data          0x0000000010030540        0x0 /home/berkeley/nacl_sdk/pepper_42/toolchain/linux_x86_newlib/bin/../lib/gcc/x86_64-nacl/4.4.3/../../../../x86_64-nacl/lib/../lib32/libnacl.a(start_fa9ef7de.o)
 .data          0x0000000010030540        0x0 /home/berkeley/nacl_sdk/pepper_42/toolchain/linux_x86_newlib/bin/../lib/gcc/x86_64-nacl/4.4.3/../../../../x86_64-nacl/lib/../lib32/libnacl.a(malloc_222c4a1e.o)
 .data          0x0000000010030540       0x20 /home/berkeley/nacl_sdk/pepper_42/toolchain/linux_x86_newlib/bin/../lib/gcc/x86_64-nacl/4.4.3/../../../../x86_64-nacl/lib/../lib32/libnacl.a(nacl_irt_6de1d53f.o)
                0x0000000010030540                __libnacl_irt_fdio
 .data          0x0000000010030560        0x0 /home/berkeley/nacl_sdk/pepper_42/toolchain/linux_x86_newlib/bin/../lib/gcc/x86_64-nacl/4.4.3/../../../../x86_64-nacl/lib/../lib32/libnacl.a(pthread_initialize_minimal_4b6e776b.o)
 .data          0x0000000010030560        0x0 /home/berkeley/nacl_sdk/pepper_42/toolchain/linux_x86_newlib/bin/../lib/gcc/x86_64-nacl/4.4.3/../../../../x86_64-nacl/lib/../lib32/libnacl.a(nacl_read_tp_5748ac47.o)
 .data          0x0000000010030560        0x0 /home/berkeley/nacl_sdk/pepper_42/toolchain/linux_x86_newlib/bin/../lib/gcc/x86_64-nacl/4.4.3/../../../../x86_64-nacl/lib/../lib32/libnacl.a(mmap_767fb080.o)
 .data          0x0000000010030560        0x0 /home/berkeley/nacl_sdk/pepper_42/toolchain/linux_x86_newlib/bin/../lib/gcc/x86_64-nacl/4.4.3/../../../../x86_64-nacl/lib/../lib32/libnacl.a(sched_yield_56c375be.o)
 .data          0x0000000010030560        0x0 /home/berkeley/nacl_sdk/pepper_42/toolchain/linux_x86_newlib/bin/../lib/gcc/x86_64-nacl/4.4.3/../../../../x86_64-nacl/lib/../lib32/libnacl.a(munmap_d4f09867.o)
 .data          0x0000000010030560        0x0 /home/berkeley/nacl_sdk/pepper_42/toolchain/linux_x86_newlib/bin/../lib/gcc/x86_64-nacl/4.4.3/../../../../x86_64-nacl/lib/../lib32/libnacl.a(tls_bba1975b.o)
 .data          0x0000000010030560        0x0 /home/berkeley/nacl_sdk/pepper_42/toolchain/linux_x86_newlib/bin/../lib/gcc/x86_64-nacl/4.4.3/../../../../x86_64-nacl/lib/../lib32/libnacl.a(write_fb49787f.o)
 .data          0x0000000010030560        0x0 /home/berkeley/nacl_sdk/pepper_42/toolchain/linux_x86_newlib/bin/../lib/gcc/x86_64-nacl/4.4.3/../../../../x86_64-nacl/lib/../lib32/libnacl.a(nacl_tls_get_d2f842b5.o)
 .data          0x0000000010030560        0x0 /home/berkeley/nacl_sdk/pepper_42/toolchain/linux_x86_newlib/bin/../lib/gcc/x86_64-nacl/4.4.3/../../../../x86_64-nacl/lib/../lib32/libnacl.a(nacl_irt_init_7b4f826e.o)
 .data          0x0000000010030560        0x0 /home/berkeley/nacl_sdk/pepper_42/toolchain/linux_x86_newlib/bin/../lib/gcc/x86_64-nacl/4.4.3/../../../../x86_64-nacl/lib/../lib32/libnacl.a(sysconf_ad295ea2.o)
 .data          0x0000000010030560        0x0 /home/berkeley/nacl_sdk/pepper_42/toolchain/linux_x86_newlib/bin/../lib/gcc/x86_64-nacl/4.4.3/../../../../x86_64-nacl/lib/../lib32/libnacl.a(nacl_tls_init_eb0cd232.o)
 .data          0x0000000010030560        0x0 /home/berkeley/nacl_sdk/pepper_42/toolchain/linux_x86_newlib/bin/../lib/gcc/x86_64-nacl/4.4.3/../../../../x86_64-nacl/lib/../lib32/libcrt_common.a(lib_a-atexit.o)
 .data          0x0000000010030560        0x0 /home/berkeley/nacl_sdk/pepper_42/toolchain/linux_x86_newlib/bin/../lib/gcc/x86_64-nacl/4.4.3/../../../../x86_64-nacl/lib/../lib32/libcrt_common.a(lib_a-cxa_atexit.o)
 .data          0x0000000010030560        0x0 /home/berkeley/nacl_sdk/pepper_42/toolchain/linux_x86_newlib/bin/../lib/gcc/x86_64-nacl/4.4.3/../../../../x86_64-nacl/lib/../lib32/libcrt_common.a(lib_a-errno.o)
 .data          0x0000000010030560        0x0 /home/berkeley/nacl_sdk/pepper_42/toolchain/linux_x86_newlib/bin/../lib/gcc/x86_64-nacl/4.4.3/../../../../x86_64-nacl/lib/../lib32/libcrt_common.a(lib_a-exit.o)
 .data          0x0000000010030560        0x0 /home/berkeley/nacl_sdk/pepper_42/toolchain/linux_x86_newlib/bin/../lib/gcc/x86_64-nacl/4.4.3/../../../../x86_64-nacl/lib/../lib32/libcrt_common.a(lib_a-fini.o)
 .data          0x0000000010030560        0x0 /home/berkeley/nacl_sdk/pepper_42/toolchain/linux_x86_newlib/bin/../lib/gcc/x86_64-nacl/4.4.3/../../../../x86_64-nacl/lib/../lib32/libcrt_common.a(lib_a-fprintf.o)
 .data          0x0000000010030560        0x0 /home/berkeley/nacl_sdk/pepper_42/toolchain/linux_x86_newlib/bin/../lib/gcc/x86_64-nacl/4.4.3/../../../../x86_64-nacl/lib/../lib32/libcrt_common.a(lib_a-fputc.o)
 .data          0x0000000010030560        0x0 /home/berkeley/nacl_sdk/pepper_42/toolchain/linux_x86_newlib/bin/../lib/gcc/x86_64-nacl/4.4.3/../../../../x86_64-nacl/lib/../lib32/libcrt_common.a(lib_a-fputs.o)
 .data          0x0000000010030560        0x0 /home/berkeley/nacl_sdk/pepper_42/toolchain/linux_x86_newlib/bin/../lib/gcc/x86_64-nacl/4.4.3/../../../../x86_64-nacl/lib/../lib32/libcrt_common.a(lib_a-fvwrite.o)
 .data          0x0000000010030560        0x0 /home/berkeley/nacl_sdk/pepper_42/toolchain/linux_x86_newlib/bin/../lib/gcc/x86_64-nacl/4.4.3/../../../../x86_64-nacl/lib/../lib32/libcrt_common.a(lib_a-fwrite.o)
 .data          0x0000000010030560        0x0 /home/berkeley/nacl_sdk/pepper_42/toolchain/linux_x86_newlib/bin/../lib/gcc/x86_64-nacl/4.4.3/../../../../x86_64-nacl/lib/../lib32/libcrt_common.a(lib_a-getenv.o)
 .data          0x0000000010030560        0x0 /home/berkeley/nacl_sdk/pepper_42/toolchain/linux_x86_newlib/bin/../lib/gcc/x86_64-nacl/4.4.3/../../../../x86_64-nacl/lib/../lib32/libcrt_common.a(lib_a-getenv_r.o)
 .data          0x0000000010030560      0x470 /home/berkeley/nacl_sdk/pepper_42/toolchain/linux_x86_newlib/bin/../lib/gcc/x86_64-nacl/4.4.3/../../../../x86_64-nacl/lib/../lib32/libcrt_common.a(lib_a-impure.o)
 .data          0x00000000100309d0        0x0 /home/berkeley/nacl_sdk/pepper_42/toolchain/linux_x86_newlib/bin/../lib/gcc/x86_64-nacl/4.4.3/../../../../x86_64-nacl/lib/../lib32/libcrt_common.a(lib_a-init.o)
 .data          0x00000000100309d0        0x0 /home/berkeley/nacl_sdk/pepper_42/toolchain/linux_x86_newlib/bin/../lib/gcc/x86_64-nacl/4.4.3/../../../../x86_64-nacl/lib/../lib32/libcrt_common.a(lib_a-memchr.o)
 .data          0x00000000100309d0        0x0 /home/berkeley/nacl_sdk/pepper_42/toolchain/linux_x86_newlib/bin/../lib/gcc/x86_64-nacl/4.4.3/../../../../x86_64-nacl/lib/../lib32/libcrt_common.a(lib_a-memcpy.o)
 .data          0x00000000100309d0        0x0 /home/berkeley/nacl_sdk/pepper_42/toolchain/linux_x86_newlib/bin/../lib/gcc/x86_64-nacl/4.4.3/../../../../x86_64-nacl/lib/../lib32/libcrt_common.a(lib_a-memmove.o)
 .data          0x00000000100309d0        0x0 /home/berkeley/nacl_sdk/pepper_42/toolchain/linux_x86_newlib/bin/../lib/gcc/x86_64-nacl/4.4.3/../../../../x86_64-nacl/lib/../lib32/libcrt_common.a(lib_a-memset.o)
 .data          0x00000000100309d0        0x0 /home/berkeley/nacl_sdk/pepper_42/toolchain/linux_x86_newlib/bin/../lib/gcc/x86_64-nacl/4.4.3/../../../../x86_64-nacl/lib/../lib32/libcrt_common.a(lib_a-putc.o)
 .data          0x00000000100309d0        0x0 /home/berkeley/nacl_sdk/pepper_42/toolchain/linux_x86_newlib/bin/../lib/gcc/x86_64-nacl/4.4.3/../../../../x86_64-nacl/lib/../lib32/libcrt_common.a(lib_a-snprintf.o)
 .data          0x00000000100309d0        0x0 /home/berkeley/nacl_sdk/pepper_42/toolchain/linux_x86_newlib/bin/../lib/gcc/x86_64-nacl/4.4.3/../../../../x86_64-nacl/lib/../lib32/libcrt_common.a(lib_a-sprintf.o)
 .data          0x00000000100309d0        0x0 /home/berkeley/nacl_sdk/pepper_42/toolchain/linux_x86_newlib/bin/../lib/gcc/x86_64-nacl/4.4.3/../../../../x86_64-nacl/lib/../lib32/libcrt_common.a(lib_a-strcpy.o)
 .data          0x00000000100309d0        0x0 /home/berkeley/nacl_sdk/pepper_42/toolchain/linux_x86_newlib/bin/../lib/gcc/x86_64-nacl/4.4.3/../../../../x86_64-nacl/lib/../lib32/libcrt_common.a(lib_a-strerror.o)
 .data          0x00000000100309d0        0x0 /home/berkeley/nacl_sdk/pepper_42/toolchain/linux_x86_newlib/bin/../lib/gcc/x86_64-nacl/4.4.3/../../../../x86_64-nacl/lib/../lib32/libcrt_common.a(lib_a-strlen.o)
 .data          0x00000000100309d0        0x0 /home/berkeley/nacl_sdk/pepper_42/toolchain/linux_x86_newlib/bin/../lib/gcc/x86_64-nacl/4.4.3/../../../../x86_64-nacl/lib/../lib32/libcrt_common.a(lib_a-strncmp.o)
 .data          0x00000000100309d0        0x0 /home/berkeley/nacl_sdk/pepper_42/toolchain/linux_x86_newlib/bin/../lib/gcc/x86_64-nacl/4.4.3/../../../../x86_64-nacl/lib/../lib32/libcrt_common.a(lib_a-svfprintf.o)
 .data          0x00000000100309d0        0x0 /home/berkeley/nacl_sdk/pepper_42/toolchain/linux_x86_newlib/bin/../lib/gcc/x86_64-nacl/4.4.3/../../../../x86_64-nacl/lib/../lib32/libcrt_common.a(lib_a-u_strerr.o)
 .data          0x00000000100309d0        0x0 /home/berkeley/nacl_sdk/pepper_42/toolchain/linux_x86_newlib/bin/../lib/gcc/x86_64-nacl/4.4.3/../../../../x86_64-nacl/lib/../lib32/libcrt_common.a(lib_a-vfprintf.o)
 .data          0x00000000100309d0        0x0 /home/berkeley/nacl_sdk/pepper_42/toolchain/linux_x86_newlib/bin/../lib/gcc/x86_64-nacl/4.4.3/../../../../x86_64-nacl/lib/../lib32/libcrt_common.a(lib_a-wbuf.o)
 .data          0x00000000100309d0        0x0 /home/berkeley/nacl_sdk/pepper_42/toolchain/linux_x86_newlib/bin/../lib/gcc/x86_64-nacl/4.4.3/../../../../x86_64-nacl/lib/../lib32/libcrt_common.a(lib_a-wcrtomb.o)
 .data          0x00000000100309d0        0x0 /home/berkeley/nacl_sdk/pepper_42/toolchain/linux_x86_newlib/bin/../lib/gcc/x86_64-nacl/4.4.3/../../../../x86_64-nacl/lib/../lib32/libcrt_common.a(lib_a-wcsrtombs.o)
 .data          0x00000000100309d0        0x4 /home/berkeley/nacl_sdk/pepper_42/toolchain/linux_x86_newlib/bin/../lib/gcc/x86_64-nacl/4.4.3/../../../../x86_64-nacl/lib/../lib32/libcrt_common.a(lib_a-wctomb_r.o)
                0x00000000100309d0                __wctomb
 .data          0x00000000100309d4        0x0 /home/berkeley/nacl_sdk/pepper_42/toolchain/linux_x86_newlib/bin/../lib/gcc/x86_64-nacl/4.4.3/../../../../x86_64-nacl/lib/../lib32/libcrt_common.a(lib_a-wsetup.o)
 .data          0x00000000100309d4        0x0 /home/berkeley/nacl_sdk/pepper_42/toolchain/linux_x86_newlib/bin/../lib/gcc/x86_64-nacl/4.4.3/../../../../x86_64-nacl/lib/../lib32/libcrt_common.a(lib_a-__atexit.o)
 .data          0x00000000100309d4       0x14 /home/berkeley/nacl_sdk/pepper_42/toolchain/linux_x86_newlib/bin/../lib/gcc/x86_64-nacl/4.4.3/../../../../x86_64-nacl/lib/../lib32/libcrt_common.a(lib_a-__call_atexit.o)
                0x00000000100309d4                __atexit_lock
 .data          0x00000000100309e8        0x0 /home/berkeley/nacl_sdk/pepper_42/toolchain/linux_x86_newlib/bin/../lib/gcc/x86_64-nacl/4.4.3/../../../../x86_64-nacl/lib/../lib32/libcrt_common.a(lib_a-dtoa.o)
 .data          0x00000000100309e8       0x14 /home/berkeley/nacl_sdk/pepper_42/toolchain/linux_x86_newlib/bin/../lib/gcc/x86_64-nacl/4.4.3/../../../../x86_64-nacl/lib/../lib32/libcrt_common.a(lib_a-envlock.o)
 .data          0x00000000100309fc        0x0 /home/berkeley/nacl_sdk/pepper_42/toolchain/linux_x86_newlib/bin/../lib/gcc/x86_64-nacl/4.4.3/../../../../x86_64-nacl/lib/../lib32/libcrt_common.a(lib_a-fflush.o)
 .data          0x00000000100309fc       0x28 /home/berkeley/nacl_sdk/pepper_42/toolchain/linux_x86_newlib/bin/../lib/gcc/x86_64-nacl/4.4.3/../../../../x86_64-nacl/lib/../lib32/libcrt_common.a(lib_a-findfp.o)
 .data          0x0000000010030a24        0x0 /home/berkeley/nacl_sdk/pepper_42/toolchain/linux_x86_newlib/bin/../lib/gcc/x86_64-nacl/4.4.3/../../../../x86_64-nacl/lib/../lib32/libcrt_common.a(lib_a-fwalk.o)
 *fill*         0x0000000010030a24       0x1c 
 .data          0x0000000010030a40      0x1a0 /home/berkeley/nacl_sdk/pepper_42/toolchain/linux_x86_newlib/bin/../lib/gcc/x86_64-nacl/4.4.3/../../../../x86_64-nacl/lib/../lib32/libcrt_common.a(lib_a-locale.o)
                0x0000000010030a40                __mb_cur_max
                0x0000000010030a60                __default_locale
 .data          0x0000000010030be0        0x0 /home/berkeley/nacl_sdk/pepper_42/toolchain/linux_x86_newlib/bin/../lib/gcc/x86_64-nacl/4.4.3/../../../../x86_64-nacl/lib/../lib32/libcrt_common.a(lib_a-makebuf.o)
 .data          0x0000000010030be0        0x4 /home/berkeley/nacl_sdk/pepper_42/toolchain/linux_x86_newlib/bin/../lib/gcc/x86_64-nacl/4.4.3/../../../../x86_64-nacl/lib/../lib32/libcrt_common.a(lib_a-mbtowc_r.o)
                0x0000000010030be0                __mbtowc
 .data          0x0000000010030be4        0x0 /home/berkeley/nacl_sdk/pepper_42/toolchain/linux_x86_newlib/bin/../lib/gcc/x86_64-nacl/4.4.3/../../../../x86_64-nacl/lib/../lib32/libcrt_common.a(lib_a-mprec.o)
 .data          0x0000000010030be4        0x0 /home/berkeley/nacl_sdk/pepper_42/toolchain/linux_x86_newlib/bin/../lib/gcc/x86_64-nacl/4.4.3/../../../../x86_64-nacl/lib/../lib32/libcrt_common.a(lib_a-s_fpclassify.o)
 .data          0x0000000010030be4        0x0 /home/berkeley/nacl_sdk/pepper_42/toolchain/linux_x86_newlib/bin/../lib/gcc/x86_64-nacl/4.4.3/../../../../x86_64-nacl/lib/../lib32/libcrt_common.a(lib_a-s_frexp.o)
 .data          0x0000000010030be4        0x0 /home/berkeley/nacl_sdk/pepper_42/toolchain/linux_x86_newlib/bin/../lib/gcc/x86_64-nacl/4.4.3/../../../../x86_64-nacl/lib/../lib32/libcrt_common.a(lib_a-stdio.o)
 .data          0x0000000010030be4        0x0 /home/berkeley/nacl_sdk/pepper_42/toolchain/linux_x86_newlib/bin/../lib/gcc/x86_64-nacl/4.4.3/../../../../x86_64-nacl/lib/../lib32/libcrt_common.a(lib_a-strcasecmp.o)
 .data          0x0000000010030be4        0x0 /home/berkeley/nacl_sdk/pepper_42/toolchain/linux_x86_newlib/bin/../lib/gcc/x86_64-nacl/4.4.3/../../../../x86_64-nacl/lib/../lib32/libcrt_common.a(lib_a-strcat.o)
 .data          0x0000000010030be4        0x0 /home/berkeley/nacl_sdk/pepper_42/toolchain/linux_x86_newlib/bin/../lib/gcc/x86_64-nacl/4.4.3/../../../../x86_64-nacl/lib/../lib32/libcrt_common.a(lib_a-strchr.o)
 .data          0x0000000010030be4        0x0 /home/berkeley/nacl_sdk/pepper_42/toolchain/linux_x86_newlib/bin/../lib/gcc/x86_64-nacl/4.4.3/../../../../x86_64-nacl/lib/../lib32/libcrt_common.a(lib_a-strcmp.o)
 .data          0x0000000010030be4        0x0 /home/berkeley/nacl_sdk/pepper_42/toolchain/linux_x86_newlib/bin/../lib/gcc/x86_64-nacl/4.4.3/../../../../x86_64-nacl/lib/../lib32/libcrt_common.a(lib_a-strlcpy.o)
 .data          0x0000000010030be4        0x0 /home/berkeley/nacl_sdk/pepper_42/toolchain/linux_x86_newlib/bin/../lib/gcc/x86_64-nacl/4.4.3/../../../../x86_64-nacl/lib/../lib32/libcrt_common.a(lib_a-strncasecmp.o)
 .data          0x0000000010030be4        0x0 /home/berkeley/nacl_sdk/pepper_42/toolchain/linux_x86_newlib/bin/../lib/gcc/x86_64-nacl/4.4.3/../../../../x86_64-nacl/lib/../lib32/libcrt_common.a(lib_a-strncpy.o)
 .data          0x0000000010030be4        0x0 /home/berkeley/nacl_sdk/pepper_42/toolchain/linux_x86_newlib/bin/../lib/gcc/x86_64-nacl/4.4.3/../../../../x86_64-nacl/lib/../lib32/libcrt_common.a(lib_a-strtol.o)
 .data          0x0000000010030be4        0x0 /home/berkeley/nacl_sdk/pepper_42/toolchain/linux_x86_newlib/bin/../lib/gcc/x86_64-nacl/4.4.3/../../../../x86_64-nacl/lib/../lib32/libcrt_common.a(lib_a-svfiprintf.o)
 .data          0x0000000010030be4        0x0 /home/berkeley/nacl_sdk/pepper_42/toolchain/linux_x86_newlib/bin/../lib/gcc/x86_64-nacl/4.4.3/../../../../x86_64-nacl/lib/../lib32/libcrt_common.a(lib_a-vfiprintf.o)
 .data          0x0000000010030be4        0x0 /home/berkeley/nacl_sdk/pepper_42/toolchain/linux_x86_newlib/bin/../lib/gcc/x86_64-nacl/4.4.3/../../../../x86_64-nacl/lib/../lib32/libcrt_common.a(lib_a-wcsnrtombs.o)
 .data          0x0000000010030be4        0x4 /home/berkeley/nacl_sdk/pepper_42/toolchain/linux_x86_newlib/bin/../lib/gcc/x86_64-nacl/4.4.3/../../../../x86_64-nacl/lib/../lib32/libcrt_common.a(lib_a-ctype_.o)
                0x0000000010030be4                __ctype_ptr__
 .data          0x0000000010030be8        0x0 /home/berkeley/nacl_sdk/pepper_42/toolchain/linux_x86_newlib/bin/../lib/gcc/x86_64-nacl/4.4.3/../../../../x86_64-nacl/lib/../lib32/libcrt_common.a(lib_a-fclose.o)
 .data          0x0000000010030be8        0x0 /home/berkeley/nacl_sdk/pepper_42/toolchain/linux_x86_newlib/bin/../lib/gcc/x86_64-nacl/4.4.3/../../../../x86_64-nacl/lib/../lib32/libcrt_common.a(lib_a-fputwc.o)
 .data          0x0000000010030be8        0x0 /home/berkeley/nacl_sdk/pepper_42/toolchain/linux_x86_newlib/bin/../lib/gcc/x86_64-nacl/4.4.3/../../../../x86_64-nacl/lib/../lib32/libnacl.a(close_e9b92fbd.o)
 .data          0x0000000010030be8        0x0 /home/berkeley/nacl_sdk/pepper_42/toolchain/linux_x86_newlib/bin/../lib/gcc/x86_64-nacl/4.4.3/../../../../x86_64-nacl/lib/../lib32/libnacl.a(isatty_02f56e94.o)
 .data          0x0000000010030be8        0x0 /home/berkeley/nacl_sdk/pepper_42/toolchain/linux_x86_newlib/bin/../lib/gcc/x86_64-nacl/4.4.3/../../../../x86_64-nacl/lib/../lib32/libnacl.a(nacl_irt_fdio_b571b5e7.o)
 .data          0x0000000010030be8        0x0 /home/berkeley/nacl_sdk/pepper_42/toolchain/linux_x86_newlib/bin/../lib/gcc/x86_64-nacl/4.4.3/../../../../x86_64-nacl/lib/../lib32/libnacl.a(fstat_0540ff63.o)
 .data          0x0000000010030be8        0x0 /home/berkeley/nacl_sdk/pepper_42/toolchain/linux_x86_newlib/bin/../lib/gcc/x86_64-nacl/4.4.3/../../../../x86_64-nacl/lib/../lib32/libnacl.a(lseek_64d2d05c.o)
 .data          0x0000000010030be8        0x0 /home/berkeley/nacl_sdk/pepper_42/toolchain/linux_x86_newlib/bin/../lib/gcc/x86_64-nacl/4.4.3/../../../../x86_64-nacl/lib/../lib32/libnacl.a(read_df872e10.o)
 .data          0x0000000010030be8        0x0 /home/berkeley/nacl_sdk/pepper_42/toolchain/linux_x86_newlib/bin/../lib/gcc/x86_64-nacl/4.4.3/32/libgcc.a(_udivdi3.o)
 .data          0x0000000010030be8        0x0 /home/berkeley/nacl_sdk/pepper_42/toolchain/linux_x86_newlib/bin/../lib/gcc/x86_64-nacl/4.4.3/32/libgcc.a(_umoddi3.o)
 .data          0x0000000010030be8        0x0 /home/berkeley/nacl_sdk/pepper_42/toolchain/linux_x86_newlib/bin/../lib/gcc/x86_64-nacl/4.4.3/32/crtend.o
 .data          0x0000000010030be8        0x0 /home/berkeley/nacl_sdk/pepper_42/toolchain/linux_x86_newlib/bin/../lib/gcc/x86_64-nacl/4.4.3/../../../../x86_64-nacl/lib/../lib32/crtn.o

.data1
 *(.data1)
                0x0000000010030be8                _edata = .
                0x0000000010030be8                PROVIDE (edata, .)
                0x0000000010030be8                . = .
                0x0000000010030be8                __bss_start = .

.bss            0x0000000010030c00     0x629c
 *(.dynbss)
 *(.bss .bss.* .gnu.linkonce.b.*)
 .bss           0x0000000010030c00        0x0 /home/berkeley/nacl_sdk/pepper_42/toolchain/linux_x86_newlib/bin/../lib/gcc/x86_64-nacl/4.4.3/../../../../x86_64-nacl/lib/../lib32/crti.o
 .bss           0x0000000010030c00       0x20 /home/berkeley/nacl_sdk/pepper_42/toolchain/linux_x86_newlib/bin/../lib/gcc/x86_64-nacl/4.4.3/32/crtbegin.o
 .bss           0x0000000010030c20        0x0 newlib/Release/popcnt_x86_32.o
 .bss           0x0000000010030c20       0x4c /home/berkeley/nacl_sdk/pepper_42/lib/newlib_x86_32/Release/libppapi_cpp.a(instance_x86_32.o)
 .bss           0x0000000010030c6c        0x0 /home/berkeley/nacl_sdk/pepper_42/lib/newlib_x86_32/Release/libppapi_cpp.a(module_x86_32.o)
 .bss           0x0000000010030c6c        0x8 /home/berkeley/nacl_sdk/pepper_42/lib/newlib_x86_32/Release/libppapi_cpp.a(ppp_entrypoints_x86_32.o)
 .bss           0x0000000010030c74        0x0 /home/berkeley/nacl_sdk/pepper_42/lib/newlib_x86_32/Release/libppapi_cpp.a(resource_x86_32.o)
 *fill*         0x0000000010030c74        0x4 
 .bss           0x0000000010030c78        0xc /home/berkeley/nacl_sdk/pepper_42/lib/newlib_x86_32/Release/libppapi_cpp.a(url_loader_x86_32.o)
 *fill*         0x0000000010030c84        0x4 
 .bss           0x0000000010030c88        0xc /home/berkeley/nacl_sdk/pepper_42/lib/newlib_x86_32/Release/libppapi_cpp.a(url_response_info_x86_32.o)
 *fill*         0x0000000010030c94        0x4 
 .bss           0x0000000010030c98       0x2c /home/berkeley/nacl_sdk/pepper_42/lib/newlib_x86_32/Release/libppapi_cpp.a(var_x86_32.o)
 *fill*         0x0000000010030cc4        0x4 
 .bss           0x0000000010030cc8       0x2c /home/berkeley/nacl_sdk/pepper_42/lib/newlib_x86_32/Release/libppapi_cpp.a(view_x86_32.o)
 .bss           0x0000000010030cf4        0x0 /home/berkeley/nacl_sdk/pepper_42/lib/newlib_x86_32/Release/libppapi_cpp.a(core_x86_32.o)
 *fill*         0x0000000010030cf4        0x4 
 .bss           0x0000000010030cf8       0x2c /home/berkeley/nacl_sdk/pepper_42/lib/newlib_x86_32/Release/libppapi_cpp.a(file_ref_x86_32.o)
 *fill*         0x0000000010030d24        0x4 
 .bss           0x0000000010030d28       0x6c /home/berkeley/nacl_sdk/pepper_42/lib/newlib_x86_32/Release/libppapi_cpp.a(input_event_x86_32.o)
 .bss           0x0000000010030d94        0x0 /home/berkeley/nacl_sdk/pepper_42/toolchain/linux_x86_newlib/bin/../lib/gcc/x86_64-nacl/4.4.3/../../../../x86_64-nacl/lib/../lib32/libppapi_stub.a(plugin_main_irt_21ce9d26.o)
 .bss           0x0000000010030d94        0x0 /home/berkeley/nacl_sdk/pepper_42/toolchain/linux_x86_newlib/bin/../lib/gcc/x86_64-nacl/4.4.3/../../../../x86_64-nacl/lib/../lib32/libppapi_stub.a(ppapi_plugin_main_399d0cf7.o)
 .bss           0x0000000010030d94        0x0 /home/berkeley/nacl_sdk/pepper_42/toolchain/linux_x86_newlib/bin/../lib/gcc/x86_64-nacl/4.4.3/../../../../x86_64-nacl/lib/../lib32/libppapi_stub.a(ppapi_plugin_start_8da67623.o)
 .bss           0x0000000010030d94        0x0 /home/berkeley/nacl_sdk/pepper_42/toolchain/linux_x86_newlib/bin/../lib/gcc/x86_64-nacl/4.4.3/../../../../x86_64-nacl/lib/../lib32/libppapi_stub.a(thread_creator_ccf263e1.o)
 *fill*         0x0000000010030d94        0xc 
 .bss           0x0000000010030da0     0x1020 /home/berkeley/nacl_sdk/pepper_42/toolchain/linux_x86_newlib/bin/../lib/gcc/x86_64-nacl/4.4.3/../../../../x86_64-nacl/lib/../lib32/libpthread.a(nc_thread_7e478b15.o)
 .bss           0x0000000010031dc0        0x0 /home/berkeley/nacl_sdk/pepper_42/toolchain/linux_x86_newlib/bin/../lib/gcc/x86_64-nacl/4.4.3/../../../../x86_64-nacl/lib/../lib32/libpthread.a(nc_condvar_305aa45a.o)
 .bss           0x0000000010031dc0        0x0 /home/berkeley/nacl_sdk/pepper_42/toolchain/linux_x86_newlib/bin/../lib/gcc/x86_64-nacl/4.4.3/../../../../x86_64-nacl/lib/../lib32/libpthread.a(dynamic_annotations_33ba59cc.o)
 .bss           0x0000000010031dc0        0x0 /home/berkeley/nacl_sdk/pepper_42/toolchain/linux_x86_newlib/bin/../lib/gcc/x86_64-nacl/4.4.3/../../../../x86_64-nacl/lib/../lib32/libpthread.a(nc_mutex_86341ae1.o)
 .bss           0x0000000010031dc0        0x0 /home/berkeley/nacl_sdk/pepper_42/toolchain/linux_x86_newlib/bin/../lib/gcc/x86_64-nacl/4.4.3/../../../../x86_64-nacl/lib/../lib32/libpthread.a(nc_init_irt_d3daafc0.o)
 .bss           0x0000000010031dc0        0x0 /home/berkeley/nacl_sdk/pepper_42/toolchain/linux_x86_newlib/bin/../lib/gcc/x86_64-nacl/4.4.3/../../../../x86_64-nacl/lib/../lib32/libstdc++.a(tree.o)
 .bss           0x0000000010031dc0        0x0 /home/berkeley/nacl_sdk/pepper_42/toolchain/linux_x86_newlib/bin/../lib/gcc/x86_64-nacl/4.4.3/../../../../x86_64-nacl/lib/../lib32/libstdc++.a(string-inst.o)
 .bss._ZNSs4_Rep20_S_empty_rep_storageE
                0x0000000010031dc0       0x10 /home/berkeley/nacl_sdk/pepper_42/toolchain/linux_x86_newlib/bin/../lib/gcc/x86_64-nacl/4.4.3/../../../../x86_64-nacl/lib/../lib32/libstdc++.a(string-inst.o)
                0x0000000010031dc0                _ZNSs4_Rep20_S_empty_rep_storageE
 .bss           0x0000000010031dd0        0x0 /home/berkeley/nacl_sdk/pepper_42/toolchain/linux_x86_newlib/bin/../lib/gcc/x86_64-nacl/4.4.3/../../../../x86_64-nacl/lib/../lib32/libstdc++.a(eh_personality.o)
 .bss           0x0000000010031dd0        0x0 /home/berkeley/nacl_sdk/pepper_42/toolchain/linux_x86_newlib/bin/../lib/gcc/x86_64-nacl/4.4.3/../../../../x86_64-nacl/lib/../lib32/libstdc++.a(eh_globals.o)
 .bss._ZL4init  0x0000000010031dd0        0x8 /home/berkeley/nacl_sdk/pepper_42/toolchain/linux_x86_newlib/bin/../lib/gcc/x86_64-nacl/4.4.3/../../../../x86_64-nacl/lib/../lib32/libstdc++.a(eh_globals.o)
 .bss._ZL10eh_globals
                0x0000000010031dd8        0x8 /home/berkeley/nacl_sdk/pepper_42/toolchain/linux_x86_newlib/bin/../lib/gcc/x86_64-nacl/4.4.3/../../../../x86_64-nacl/lib/../lib32/libstdc++.a(eh_globals.o)
 .bss           0x0000000010031de0        0x0 /home/berkeley/nacl_sdk/pepper_42/toolchain/linux_x86_newlib/bin/../lib/gcc/x86_64-nacl/4.4.3/../../../../x86_64-nacl/lib/../lib32/libstdc++.a(eh_throw.o)
 .bss           0x0000000010031de0        0x0 /home/berkeley/nacl_sdk/pepper_42/toolchain/linux_x86_newlib/bin/../lib/gcc/x86_64-nacl/4.4.3/../../../../x86_64-nacl/lib/../lib32/libstdc++.a(del_op.o)
 .bss           0x0000000010031de0        0x0 /home/berkeley/nacl_sdk/pepper_42/toolchain/linux_x86_newlib/bin/../lib/gcc/x86_64-nacl/4.4.3/../../../../x86_64-nacl/lib/../lib32/libstdc++.a(eh_call.o)
 .bss           0x0000000010031de0        0x0 /home/berkeley/nacl_sdk/pepper_42/toolchain/linux_x86_newlib/bin/../lib/gcc/x86_64-nacl/4.4.3/../../../../x86_64-nacl/lib/../lib32/libstdc++.a(guard.o)
 .bss._ZN12_GLOBAL__N_1L12static_mutexE
                0x0000000010031de0        0x4 /home/berkeley/nacl_sdk/pepper_42/toolchain/linux_x86_newlib/bin/../lib/gcc/x86_64-nacl/4.4.3/../../../../x86_64-nacl/lib/../lib32/libstdc++.a(guard.o)
 .bss._ZN12_GLOBAL__N_110fake_mutexE
                0x0000000010031de4       0x14 /home/berkeley/nacl_sdk/pepper_42/toolchain/linux_x86_newlib/bin/../lib/gcc/x86_64-nacl/4.4.3/../../../../x86_64-nacl/lib/../lib32/libstdc++.a(guard.o)
 .bss           0x0000000010031df8        0x0 /home/berkeley/nacl_sdk/pepper_42/toolchain/linux_x86_newlib/bin/../lib/gcc/x86_64-nacl/4.4.3/../../../../x86_64-nacl/lib/../lib32/libstdc++.a(si_class_type_info.o)
 .bss           0x0000000010031df8        0x0 /home/berkeley/nacl_sdk/pepper_42/toolchain/linux_x86_newlib/bin/../lib/gcc/x86_64-nacl/4.4.3/../../../../x86_64-nacl/lib/../lib32/libstdc++.a(eh_terminate.o)
 .bss           0x0000000010031df8        0x0 /home/berkeley/nacl_sdk/pepper_42/toolchain/linux_x86_newlib/bin/../lib/gcc/x86_64-nacl/4.4.3/../../../../x86_64-nacl/lib/../lib32/libstdc++.a(class_type_info.o)
 .bss           0x0000000010031df8        0x0 /home/berkeley/nacl_sdk/pepper_42/toolchain/linux_x86_newlib/bin/../lib/gcc/x86_64-nacl/4.4.3/../../../../x86_64-nacl/lib/../lib32/libstdc++.a(eh_alloc.o)
 .bss._ZN12_GLOBAL__N_115emergency_mutexE
                0x0000000010031df8       0x14 /home/berkeley/nacl_sdk/pepper_42/toolchain/linux_x86_newlib/bin/../lib/gcc/x86_64-nacl/4.4.3/../../../../x86_64-nacl/lib/../lib32/libstdc++.a(eh_alloc.o)
 *fill*         0x0000000010031e0c       0x14 
 .bss._ZL17dependents_buffer
                0x0000000010031e20      0xa00 /home/berkeley/nacl_sdk/pepper_42/toolchain/linux_x86_newlib/bin/../lib/gcc/x86_64-nacl/4.4.3/../../../../x86_64-nacl/lib/../lib32/libstdc++.a(eh_alloc.o)
 .bss._ZL15dependents_used
                0x0000000010032820        0x4 /home/berkeley/nacl_sdk/pepper_42/toolchain/linux_x86_newlib/bin/../lib/gcc/x86_64-nacl/4.4.3/../../../../x86_64-nacl/lib/../lib32/libstdc++.a(eh_alloc.o)
 *fill*         0x0000000010032824       0x1c 
 .bss._ZL16emergency_buffer
                0x0000000010032840     0x4000 /home/berkeley/nacl_sdk/pepper_42/toolchain/linux_x86_newlib/bin/../lib/gcc/x86_64-nacl/4.4.3/../../../../x86_64-nacl/lib/../lib32/libstdc++.a(eh_alloc.o)
 .bss._ZL14emergency_used
                0x0000000010036840        0x4 /home/berkeley/nacl_sdk/pepper_42/toolchain/linux_x86_newlib/bin/../lib/gcc/x86_64-nacl/4.4.3/../../../../x86_64-nacl/lib/../lib32/libstdc++.a(eh_alloc.o)
 .bss           0x0000000010036844        0x0 /home/berkeley/nacl_sdk/pepper_42/toolchain/linux_x86_newlib/bin/../lib/gcc/x86_64-nacl/4.4.3/../../../../x86_64-nacl/lib/../lib32/libstdc++.a(eh_catch.o)
 .bss           0x0000000010036844        0x0 /home/berkeley/nacl_sdk/pepper_42/toolchain/linux_x86_newlib/bin/../lib/gcc/x86_64-nacl/4.4.3/../../../../x86_64-nacl/lib/../lib32/libstdc++.a(eh_exception.o)
 .bss           0x0000000010036844        0x0 /home/berkeley/nacl_sdk/pepper_42/toolchain/linux_x86_newlib/bin/../lib/gcc/x86_64-nacl/4.4.3/../../../../x86_64-nacl/lib/../lib32/libstdc++.a(pure.o)
 .bss           0x0000000010036844        0x0 /home/berkeley/nacl_sdk/pepper_42/toolchain/linux_x86_newlib/bin/../lib/gcc/x86_64-nacl/4.4.3/../../../../x86_64-nacl/lib/../lib32/libstdc++.a(new_op.o)
 .bss           0x0000000010036844        0x0 /home/berkeley/nacl_sdk/pepper_42/toolchain/linux_x86_newlib/bin/../lib/gcc/x86_64-nacl/4.4.3/../../../../x86_64-nacl/lib/../lib32/libstdc++.a(tinfo.o)
 .bss           0x0000000010036844        0x0 /home/berkeley/nacl_sdk/pepper_42/toolchain/linux_x86_newlib/bin/../lib/gcc/x86_64-nacl/4.4.3/../../../../x86_64-nacl/lib/../lib32/libstdc++.a(functexcept.o)
 .bss           0x0000000010036844        0x0 /home/berkeley/nacl_sdk/pepper_42/toolchain/linux_x86_newlib/bin/../lib/gcc/x86_64-nacl/4.4.3/../../../../x86_64-nacl/lib/../lib32/libstdc++.a(ios_failure.o)
 .bss           0x0000000010036844        0x0 /home/berkeley/nacl_sdk/pepper_42/toolchain/linux_x86_newlib/bin/../lib/gcc/x86_64-nacl/4.4.3/../../../../x86_64-nacl/lib/../lib32/libstdc++.a(stdexcept.o)
 .bss           0x0000000010036844        0x0 /home/berkeley/nacl_sdk/pepper_42/toolchain/linux_x86_newlib/bin/../lib/gcc/x86_64-nacl/4.4.3/../../../../x86_64-nacl/lib/../lib32/libstdc++.a(system_error.o)
 .bss._ZN12_GLOBAL__N_1L25generic_category_instanceE
                0x0000000010036844        0x4 /home/berkeley/nacl_sdk/pepper_42/toolchain/linux_x86_newlib/bin/../lib/gcc/x86_64-nacl/4.4.3/../../../../x86_64-nacl/lib/../lib32/libstdc++.a(system_error.o)
 .bss._ZN12_GLOBAL__N_1L24system_category_instanceE
                0x0000000010036848        0x4 /home/berkeley/nacl_sdk/pepper_42/toolchain/linux_x86_newlib/bin/../lib/gcc/x86_64-nacl/4.4.3/../../../../x86_64-nacl/lib/../lib32/libstdc++.a(system_error.o)
 .bss           0x000000001003684c        0x0 /home/berkeley/nacl_sdk/pepper_42/toolchain/linux_x86_newlib/bin/../lib/gcc/x86_64-nacl/4.4.3/../../../../x86_64-nacl/lib/../lib32/libstdc++.a(eh_unex_handler.o)
 .bss           0x000000001003684c        0x0 /home/berkeley/nacl_sdk/pepper_42/toolchain/linux_x86_newlib/bin/../lib/gcc/x86_64-nacl/4.4.3/../../../../x86_64-nacl/lib/../lib32/libstdc++.a(eh_term_handler.o)
 .bss           0x000000001003684c        0x0 /home/berkeley/nacl_sdk/pepper_42/toolchain/linux_x86_newlib/bin/../lib/gcc/x86_64-nacl/4.4.3/../../../../x86_64-nacl/lib/../lib32/libstdc++.a(bad_typeid.o)
 .bss           0x000000001003684c        0x0 /home/berkeley/nacl_sdk/pepper_42/toolchain/linux_x86_newlib/bin/../lib/gcc/x86_64-nacl/4.4.3/../../../../x86_64-nacl/lib/../lib32/libstdc++.a(new_handler.o)
 .bss.__new_handler
                0x000000001003684c        0x4 /home/berkeley/nacl_sdk/pepper_42/toolchain/linux_x86_newlib/bin/../lib/gcc/x86_64-nacl/4.4.3/../../../../x86_64-nacl/lib/../lib32/libstdc++.a(new_handler.o)
                0x000000001003684c                __new_handler
 .bss           0x0000000010036850        0x0 /home/berkeley/nacl_sdk/pepper_42/toolchain/linux_x86_newlib/bin/../lib/gcc/x86_64-nacl/4.4.3/../../../../x86_64-nacl/lib/../lib32/libstdc++.a(bad_cast.o)
 .bss           0x0000000010036850        0x0 /home/berkeley/nacl_sdk/pepper_42/toolchain/linux_x86_newlib/bin/../lib/gcc/x86_64-nacl/4.4.3/../../../../x86_64-nacl/lib/../lib32/libstdc++.a(vterminate.o)
 .bss._ZZN9__gnu_cxx27__verbose_terminate_handlerEvE11terminating
                0x0000000010036850        0x1 /home/berkeley/nacl_sdk/pepper_42/toolchain/linux_x86_newlib/bin/../lib/gcc/x86_64-nacl/4.4.3/../../../../x86_64-nacl/lib/../lib32/libstdc++.a(vterminate.o)
 *fill*         0x0000000010036851        0x3 
 .bss           0x0000000010036854        0x0 /home/berkeley/nacl_sdk/pepper_42/toolchain/linux_x86_newlib/bin/../lib/gcc/x86_64-nacl/4.4.3/../../../../x86_64-nacl/lib/../lib32/libstdc++.a(cp-demangle.o)
 .bss           0x0000000010036854        0x0 /home/berkeley/nacl_sdk/pepper_42/toolchain/linux_x86_newlib/bin/../lib/gcc/x86_64-nacl/4.4.3/../../../../x86_64-nacl/lib/../lib32/libstdc++.a(eh_type.o)
 .bss           0x0000000010036854       0x12 /home/berkeley/nacl_sdk/pepper_42/toolchain/linux_x86_newlib/bin/../lib/gcc/x86_64-nacl/4.4.3/32/libgcc.a(unwind-dw2.o)
 *fill*         0x0000000010036866        0x2 
 .bss           0x0000000010036868        0xc /home/berkeley/nacl_sdk/pepper_42/toolchain/linux_x86_newlib/bin/../lib/gcc/x86_64-nacl/4.4.3/32/libgcc.a(unwind-dw2-fde-glibc.o)
 .bss           0x0000000010036874        0x0 /home/berkeley/nacl_sdk/pepper_42/toolchain/linux_x86_newlib/bin/../lib/gcc/x86_64-nacl/4.4.3/../../../../x86_64-nacl/lib/../lib32/libnacl.a(_exit_710c7d0d.o)
 .bss           0x0000000010036874        0x0 /home/berkeley/nacl_sdk/pepper_42/toolchain/linux_x86_newlib/bin/../lib/gcc/x86_64-nacl/4.4.3/../../../../x86_64-nacl/lib/../lib32/libnacl.a(abort_9f6b5845.o)
 .bss           0x0000000010036874        0x4 /home/berkeley/nacl_sdk/pepper_42/toolchain/linux_x86_newlib/bin/../lib/gcc/x86_64-nacl/4.4.3/../../../../x86_64-nacl/lib/../lib32/libnacl.a(environ_25cd24d8.o)
 .bss           0x0000000010036878        0x0 /home/berkeley/nacl_sdk/pepper_42/toolchain/linux_x86_newlib/bin/../lib/gcc/x86_64-nacl/4.4.3/../../../../x86_64-nacl/lib/../lib32/libnacl.a(start_fa9ef7de.o)
 *fill*         0x0000000010036878        0x8 
 .bss           0x0000000010036880      0x1fc /home/berkeley/nacl_sdk/pepper_42/toolchain/linux_x86_newlib/bin/../lib/gcc/x86_64-nacl/4.4.3/../../../../x86_64-nacl/lib/../lib32/libnacl.a(malloc_222c4a1e.o)
 .bss           0x0000000010036a7c        0x0 /home/berkeley/nacl_sdk/pepper_42/toolchain/linux_x86_newlib/bin/../lib/gcc/x86_64-nacl/4.4.3/../../../../x86_64-nacl/lib/../lib32/libnacl.a(nacl_irt_6de1d53f.o)
 .bss           0x0000000010036a7c        0x0 /home/berkeley/nacl_sdk/pepper_42/toolchain/linux_x86_newlib/bin/../lib/gcc/x86_64-nacl/4.4.3/../../../../x86_64-nacl/lib/../lib32/libnacl.a(pthread_initialize_minimal_4b6e776b.o)
 .bss           0x0000000010036a7c        0x0 /home/berkeley/nacl_sdk/pepper_42/toolchain/linux_x86_newlib/bin/../lib/gcc/x86_64-nacl/4.4.3/../../../../x86_64-nacl/lib/../lib32/libnacl.a(nacl_read_tp_5748ac47.o)
 .bss           0x0000000010036a7c        0x0 /home/berkeley/nacl_sdk/pepper_42/toolchain/linux_x86_newlib/bin/../lib/gcc/x86_64-nacl/4.4.3/../../../../x86_64-nacl/lib/../lib32/libnacl.a(mmap_767fb080.o)
 .bss           0x0000000010036a7c        0x0 /home/berkeley/nacl_sdk/pepper_42/toolchain/linux_x86_newlib/bin/../lib/gcc/x86_64-nacl/4.4.3/../../../../x86_64-nacl/lib/../lib32/libnacl.a(sched_yield_56c375be.o)
 .bss           0x0000000010036a7c        0x0 /home/berkeley/nacl_sdk/pepper_42/toolchain/linux_x86_newlib/bin/../lib/gcc/x86_64-nacl/4.4.3/../../../../x86_64-nacl/lib/../lib32/libnacl.a(munmap_d4f09867.o)
 .bss           0x0000000010036a7c       0x10 /home/berkeley/nacl_sdk/pepper_42/toolchain/linux_x86_newlib/bin/../lib/gcc/x86_64-nacl/4.4.3/../../../../x86_64-nacl/lib/../lib32/libnacl.a(tls_bba1975b.o)
 .bss           0x0000000010036a8c        0x0 /home/berkeley/nacl_sdk/pepper_42/toolchain/linux_x86_newlib/bin/../lib/gcc/x86_64-nacl/4.4.3/../../../../x86_64-nacl/lib/../lib32/libnacl.a(write_fb49787f.o)
 .bss           0x0000000010036a8c        0x0 /home/berkeley/nacl_sdk/pepper_42/toolchain/linux_x86_newlib/bin/../lib/gcc/x86_64-nacl/4.4.3/../../../../x86_64-nacl/lib/../lib32/libnacl.a(nacl_tls_get_d2f842b5.o)
 .bss           0x0000000010036a8c        0x0 /home/berkeley/nacl_sdk/pepper_42/toolchain/linux_x86_newlib/bin/../lib/gcc/x86_64-nacl/4.4.3/../../../../x86_64-nacl/lib/../lib32/libnacl.a(nacl_irt_init_7b4f826e.o)
 .bss           0x0000000010036a8c        0x0 /home/berkeley/nacl_sdk/pepper_42/toolchain/linux_x86_newlib/bin/../lib/gcc/x86_64-nacl/4.4.3/../../../../x86_64-nacl/lib/../lib32/libnacl.a(sysconf_ad295ea2.o)
 .bss           0x0000000010036a8c        0x0 /home/berkeley/nacl_sdk/pepper_42/toolchain/linux_x86_newlib/bin/../lib/gcc/x86_64-nacl/4.4.3/../../../../x86_64-nacl/lib/../lib32/libnacl.a(nacl_tls_init_eb0cd232.o)
 .bss           0x0000000010036a8c        0x0 /home/berkeley/nacl_sdk/pepper_42/toolchain/linux_x86_newlib/bin/../lib/gcc/x86_64-nacl/4.4.3/../../../../x86_64-nacl/lib/../lib32/libcrt_common.a(lib_a-atexit.o)
 .bss           0x0000000010036a8c        0x0 /home/berkeley/nacl_sdk/pepper_42/toolchain/linux_x86_newlib/bin/../lib/gcc/x86_64-nacl/4.4.3/../../../../x86_64-nacl/lib/../lib32/libcrt_common.a(lib_a-cxa_atexit.o)
 .bss           0x0000000010036a8c        0x0 /home/berkeley/nacl_sdk/pepper_42/toolchain/linux_x86_newlib/bin/../lib/gcc/x86_64-nacl/4.4.3/../../../../x86_64-nacl/lib/../lib32/libcrt_common.a(lib_a-errno.o)
 .bss           0x0000000010036a8c        0x0 /home/berkeley/nacl_sdk/pepper_42/toolchain/linux_x86_newlib/bin/../lib/gcc/x86_64-nacl/4.4.3/../../../../x86_64-nacl/lib/../lib32/libcrt_common.a(lib_a-exit.o)
 .bss           0x0000000010036a8c        0x0 /home/berkeley/nacl_sdk/pepper_42/toolchain/linux_x86_newlib/bin/../lib/gcc/x86_64-nacl/4.4.3/../../../../x86_64-nacl/lib/../lib32/libcrt_common.a(lib_a-fini.o)
 .bss           0x0000000010036a8c        0x0 /home/berkeley/nacl_sdk/pepper_42/toolchain/linux_x86_newlib/bin/../lib/gcc/x86_64-nacl/4.4.3/../../../../x86_64-nacl/lib/../lib32/libcrt_common.a(lib_a-fprintf.o)
 .bss           0x0000000010036a8c        0x0 /home/berkeley/nacl_sdk/pepper_42/toolchain/linux_x86_newlib/bin/../lib/gcc/x86_64-nacl/4.4.3/../../../../x86_64-nacl/lib/../lib32/libcrt_common.a(lib_a-fputc.o)
 .bss           0x0000000010036a8c        0x0 /home/berkeley/nacl_sdk/pepper_42/toolchain/linux_x86_newlib/bin/../lib/gcc/x86_64-nacl/4.4.3/../../../../x86_64-nacl/lib/../lib32/libcrt_common.a(lib_a-fputs.o)
 .bss           0x0000000010036a8c        0x0 /home/berkeley/nacl_sdk/pepper_42/toolchain/linux_x86_newlib/bin/../lib/gcc/x86_64-nacl/4.4.3/../../../../x86_64-nacl/lib/../lib32/libcrt_common.a(lib_a-fvwrite.o)
 .bss           0x0000000010036a8c        0x0 /home/berkeley/nacl_sdk/pepper_42/toolchain/linux_x86_newlib/bin/../lib/gcc/x86_64-nacl/4.4.3/../../../../x86_64-nacl/lib/../lib32/libcrt_common.a(lib_a-fwrite.o)
 .bss           0x0000000010036a8c        0x0 /home/berkeley/nacl_sdk/pepper_42/toolchain/linux_x86_newlib/bin/../lib/gcc/x86_64-nacl/4.4.3/../../../../x86_64-nacl/lib/../lib32/libcrt_common.a(lib_a-getenv.o)
 .bss           0x0000000010036a8c        0x0 /home/berkeley/nacl_sdk/pepper_42/toolchain/linux_x86_newlib/bin/../lib/gcc/x86_64-nacl/4.4.3/../../../../x86_64-nacl/lib/../lib32/libcrt_common.a(lib_a-getenv_r.o)
 .bss           0x0000000010036a8c        0x0 /home/berkeley/nacl_sdk/pepper_42/toolchain/linux_x86_newlib/bin/../lib/gcc/x86_64-nacl/4.4.3/../../../../x86_64-nacl/lib/../lib32/libcrt_common.a(lib_a-impure.o)
 .bss           0x0000000010036a8c        0x0 /home/berkeley/nacl_sdk/pepper_42/toolchain/linux_x86_newlib/bin/../lib/gcc/x86_64-nacl/4.4.3/../../../../x86_64-nacl/lib/../lib32/libcrt_common.a(lib_a-init.o)
 .bss           0x0000000010036a8c        0x0 /home/berkeley/nacl_sdk/pepper_42/toolchain/linux_x86_newlib/bin/../lib/gcc/x86_64-nacl/4.4.3/../../../../x86_64-nacl/lib/../lib32/libcrt_common.a(lib_a-memchr.o)
 .bss           0x0000000010036a8c        0x0 /home/berkeley/nacl_sdk/pepper_42/toolchain/linux_x86_newlib/bin/../lib/gcc/x86_64-nacl/4.4.3/../../../../x86_64-nacl/lib/../lib32/libcrt_common.a(lib_a-memcpy.o)
 .bss           0x0000000010036a8c        0x0 /home/berkeley/nacl_sdk/pepper_42/toolchain/linux_x86_newlib/bin/../lib/gcc/x86_64-nacl/4.4.3/../../../../x86_64-nacl/lib/../lib32/libcrt_common.a(lib_a-memmove.o)
 .bss           0x0000000010036a8c        0x0 /home/berkeley/nacl_sdk/pepper_42/toolchain/linux_x86_newlib/bin/../lib/gcc/x86_64-nacl/4.4.3/../../../../x86_64-nacl/lib/../lib32/libcrt_common.a(lib_a-memset.o)
 .bss           0x0000000010036a8c        0x0 /home/berkeley/nacl_sdk/pepper_42/toolchain/linux_x86_newlib/bin/../lib/gcc/x86_64-nacl/4.4.3/../../../../x86_64-nacl/lib/../lib32/libcrt_common.a(lib_a-putc.o)
 .bss           0x0000000010036a8c        0x0 /home/berkeley/nacl_sdk/pepper_42/toolchain/linux_x86_newlib/bin/../lib/gcc/x86_64-nacl/4.4.3/../../../../x86_64-nacl/lib/../lib32/libcrt_common.a(lib_a-snprintf.o)
 .bss           0x0000000010036a8c        0x0 /home/berkeley/nacl_sdk/pepper_42/toolchain/linux_x86_newlib/bin/../lib/gcc/x86_64-nacl/4.4.3/../../../../x86_64-nacl/lib/../lib32/libcrt_common.a(lib_a-sprintf.o)
 .bss           0x0000000010036a8c        0x0 /home/berkeley/nacl_sdk/pepper_42/toolchain/linux_x86_newlib/bin/../lib/gcc/x86_64-nacl/4.4.3/../../../../x86_64-nacl/lib/../lib32/libcrt_common.a(lib_a-strcpy.o)
 .bss           0x0000000010036a8c        0x0 /home/berkeley/nacl_sdk/pepper_42/toolchain/linux_x86_newlib/bin/../lib/gcc/x86_64-nacl/4.4.3/../../../../x86_64-nacl/lib/../lib32/libcrt_common.a(lib_a-strerror.o)
 .bss           0x0000000010036a8c        0x0 /home/berkeley/nacl_sdk/pepper_42/toolchain/linux_x86_newlib/bin/../lib/gcc/x86_64-nacl/4.4.3/../../../../x86_64-nacl/lib/../lib32/libcrt_common.a(lib_a-strlen.o)
 .bss           0x0000000010036a8c        0x0 /home/berkeley/nacl_sdk/pepper_42/toolchain/linux_x86_newlib/bin/../lib/gcc/x86_64-nacl/4.4.3/../../../../x86_64-nacl/lib/../lib32/libcrt_common.a(lib_a-strncmp.o)
 .bss           0x0000000010036a8c        0x0 /home/berkeley/nacl_sdk/pepper_42/toolchain/linux_x86_newlib/bin/../lib/gcc/x86_64-nacl/4.4.3/../../../../x86_64-nacl/lib/../lib32/libcrt_common.a(lib_a-svfprintf.o)
 .bss           0x0000000010036a8c        0x0 /home/berkeley/nacl_sdk/pepper_42/toolchain/linux_x86_newlib/bin/../lib/gcc/x86_64-nacl/4.4.3/../../../../x86_64-nacl/lib/../lib32/libcrt_common.a(lib_a-u_strerr.o)
 .bss           0x0000000010036a8c        0x0 /home/berkeley/nacl_sdk/pepper_42/toolchain/linux_x86_newlib/bin/../lib/gcc/x86_64-nacl/4.4.3/../../../../x86_64-nacl/lib/../lib32/libcrt_common.a(lib_a-vfprintf.o)
 .bss           0x0000000010036a8c        0x0 /home/berkeley/nacl_sdk/pepper_42/toolchain/linux_x86_newlib/bin/../lib/gcc/x86_64-nacl/4.4.3/../../../../x86_64-nacl/lib/../lib32/libcrt_common.a(lib_a-wbuf.o)
 .bss           0x0000000010036a8c        0x0 /home/berkeley/nacl_sdk/pepper_42/toolchain/linux_x86_newlib/bin/../lib/gcc/x86_64-nacl/4.4.3/../../../../x86_64-nacl/lib/../lib32/libcrt_common.a(lib_a-wcrtomb.o)
 .bss           0x0000000010036a8c        0x0 /home/berkeley/nacl_sdk/pepper_42/toolchain/linux_x86_newlib/bin/../lib/gcc/x86_64-nacl/4.4.3/../../../../x86_64-nacl/lib/../lib32/libcrt_common.a(lib_a-wcsrtombs.o)
 .bss           0x0000000010036a8c        0x0 /home/berkeley/nacl_sdk/pepper_42/toolchain/linux_x86_newlib/bin/../lib/gcc/x86_64-nacl/4.4.3/../../../../x86_64-nacl/lib/../lib32/libcrt_common.a(lib_a-wctomb_r.o)
 .bss           0x0000000010036a8c        0x0 /home/berkeley/nacl_sdk/pepper_42/toolchain/linux_x86_newlib/bin/../lib/gcc/x86_64-nacl/4.4.3/../../../../x86_64-nacl/lib/../lib32/libcrt_common.a(lib_a-wsetup.o)
 .bss           0x0000000010036a8c        0x0 /home/berkeley/nacl_sdk/pepper_42/toolchain/linux_x86_newlib/bin/../lib/gcc/x86_64-nacl/4.4.3/../../../../x86_64-nacl/lib/../lib32/libcrt_common.a(lib_a-__atexit.o)
 .bss           0x0000000010036a8c        0x0 /home/berkeley/nacl_sdk/pepper_42/toolchain/linux_x86_newlib/bin/../lib/gcc/x86_64-nacl/4.4.3/../../../../x86_64-nacl/lib/../lib32/libcrt_common.a(lib_a-__call_atexit.o)
 .bss           0x0000000010036a8c        0x0 /home/berkeley/nacl_sdk/pepper_42/toolchain/linux_x86_newlib/bin/../lib/gcc/x86_64-nacl/4.4.3/../../../../x86_64-nacl/lib/../lib32/libcrt_common.a(lib_a-dtoa.o)
 .bss           0x0000000010036a8c        0x0 /home/berkeley/nacl_sdk/pepper_42/toolchain/linux_x86_newlib/bin/../lib/gcc/x86_64-nacl/4.4.3/../../../../x86_64-nacl/lib/../lib32/libcrt_common.a(lib_a-envlock.o)
 .bss           0x0000000010036a8c        0x0 /home/berkeley/nacl_sdk/pepper_42/toolchain/linux_x86_newlib/bin/../lib/gcc/x86_64-nacl/4.4.3/../../../../x86_64-nacl/lib/../lib32/libcrt_common.a(lib_a-fflush.o)
 .bss           0x0000000010036a8c        0x0 /home/berkeley/nacl_sdk/pepper_42/toolchain/linux_x86_newlib/bin/../lib/gcc/x86_64-nacl/4.4.3/../../../../x86_64-nacl/lib/../lib32/libcrt_common.a(lib_a-findfp.o)
 .bss           0x0000000010036a8c        0x0 /home/berkeley/nacl_sdk/pepper_42/toolchain/linux_x86_newlib/bin/../lib/gcc/x86_64-nacl/4.4.3/../../../../x86_64-nacl/lib/../lib32/libcrt_common.a(lib_a-fwalk.o)
 *fill*         0x0000000010036a8c       0x14 
 .bss           0x0000000010036aa0      0x2c7 /home/berkeley/nacl_sdk/pepper_42/toolchain/linux_x86_newlib/bin/../lib/gcc/x86_64-nacl/4.4.3/../../../../x86_64-nacl/lib/../lib32/libcrt_common.a(lib_a-locale.o)
                0x0000000010036aa0                __nlocale_changed
                0x0000000010036aa4                __mlocale_changed
                0x0000000010036aa8                _PathLocale
 *fill*         0x0000000010036d67        0x1 
 .bss           0x0000000010036d68        0x0 /home/berkeley/nacl_sdk/pepper_42/toolchain/linux_x86_newlib/bin/../lib/gcc/x86_64-nacl/4.4.3/../../../../x86_64-nacl/lib/../lib32/libcrt_common.a(lib_a-makebuf.o)
 .bss           0x0000000010036d68        0x0 /home/berkeley/nacl_sdk/pepper_42/toolchain/linux_x86_newlib/bin/../lib/gcc/x86_64-nacl/4.4.3/../../../../x86_64-nacl/lib/../lib32/libcrt_common.a(lib_a-mbtowc_r.o)
 .bss           0x0000000010036d68        0x0 /home/berkeley/nacl_sdk/pepper_42/toolchain/linux_x86_newlib/bin/../lib/gcc/x86_64-nacl/4.4.3/../../../../x86_64-nacl/lib/../lib32/libcrt_common.a(lib_a-mprec.o)
 .bss           0x0000000010036d68        0x0 /home/berkeley/nacl_sdk/pepper_42/toolchain/linux_x86_newlib/bin/../lib/gcc/x86_64-nacl/4.4.3/../../../../x86_64-nacl/lib/../lib32/libcrt_common.a(lib_a-s_fpclassify.o)
 .bss           0x0000000010036d68        0x0 /home/berkeley/nacl_sdk/pepper_42/toolchain/linux_x86_newlib/bin/../lib/gcc/x86_64-nacl/4.4.3/../../../../x86_64-nacl/lib/../lib32/libcrt_common.a(lib_a-s_frexp.o)
 .bss           0x0000000010036d68        0x0 /home/berkeley/nacl_sdk/pepper_42/toolchain/linux_x86_newlib/bin/../lib/gcc/x86_64-nacl/4.4.3/../../../../x86_64-nacl/lib/../lib32/libcrt_common.a(lib_a-stdio.o)
 .bss           0x0000000010036d68        0x0 /home/berkeley/nacl_sdk/pepper_42/toolchain/linux_x86_newlib/bin/../lib/gcc/x86_64-nacl/4.4.3/../../../../x86_64-nacl/lib/../lib32/libcrt_common.a(lib_a-strcasecmp.o)
 .bss           0x0000000010036d68        0x0 /home/berkeley/nacl_sdk/pepper_42/toolchain/linux_x86_newlib/bin/../lib/gcc/x86_64-nacl/4.4.3/../../../../x86_64-nacl/lib/../lib32/libcrt_common.a(lib_a-strcat.o)
 .bss           0x0000000010036d68        0x0 /home/berkeley/nacl_sdk/pepper_42/toolchain/linux_x86_newlib/bin/../lib/gcc/x86_64-nacl/4.4.3/../../../../x86_64-nacl/lib/../lib32/libcrt_common.a(lib_a-strchr.o)
 .bss           0x0000000010036d68        0x0 /home/berkeley/nacl_sdk/pepper_42/toolchain/linux_x86_newlib/bin/../lib/gcc/x86_64-nacl/4.4.3/../../../../x86_64-nacl/lib/../lib32/libcrt_common.a(lib_a-strcmp.o)
 .bss           0x0000000010036d68        0x0 /home/berkeley/nacl_sdk/pepper_42/toolchain/linux_x86_newlib/bin/../lib/gcc/x86_64-nacl/4.4.3/../../../../x86_64-nacl/lib/../lib32/libcrt_common.a(lib_a-strlcpy.o)
 .bss           0x0000000010036d68        0x0 /home/berkeley/nacl_sdk/pepper_42/toolchain/linux_x86_newlib/bin/../lib/gcc/x86_64-nacl/4.4.3/../../../../x86_64-nacl/lib/../lib32/libcrt_common.a(lib_a-strncasecmp.o)
 .bss           0x0000000010036d68        0x0 /home/berkeley/nacl_sdk/pepper_42/toolchain/linux_x86_newlib/bin/../lib/gcc/x86_64-nacl/4.4.3/../../../../x86_64-nacl/lib/../lib32/libcrt_common.a(lib_a-strncpy.o)
 .bss           0x0000000010036d68        0x0 /home/berkeley/nacl_sdk/pepper_42/toolchain/linux_x86_newlib/bin/../lib/gcc/x86_64-nacl/4.4.3/../../../../x86_64-nacl/lib/../lib32/libcrt_common.a(lib_a-strtol.o)
 .bss           0x0000000010036d68        0x0 /home/berkeley/nacl_sdk/pepper_42/toolchain/linux_x86_newlib/bin/../lib/gcc/x86_64-nacl/4.4.3/../../../../x86_64-nacl/lib/../lib32/libcrt_common.a(lib_a-svfiprintf.o)
 .bss           0x0000000010036d68        0x0 /home/berkeley/nacl_sdk/pepper_42/toolchain/linux_x86_newlib/bin/../lib/gcc/x86_64-nacl/4.4.3/../../../../x86_64-nacl/lib/../lib32/libcrt_common.a(lib_a-vfiprintf.o)
 .bss           0x0000000010036d68        0x0 /home/berkeley/nacl_sdk/pepper_42/toolchain/linux_x86_newlib/bin/../lib/gcc/x86_64-nacl/4.4.3/../../../../x86_64-nacl/lib/../lib32/libcrt_common.a(lib_a-wcsnrtombs.o)
 .bss           0x0000000010036d68        0x0 /home/berkeley/nacl_sdk/pepper_42/toolchain/linux_x86_newlib/bin/../lib/gcc/x86_64-nacl/4.4.3/../../../../x86_64-nacl/lib/../lib32/libcrt_common.a(lib_a-ctype_.o)
 .bss           0x0000000010036d68        0x0 /home/berkeley/nacl_sdk/pepper_42/toolchain/linux_x86_newlib/bin/../lib/gcc/x86_64-nacl/4.4.3/../../../../x86_64-nacl/lib/../lib32/libcrt_common.a(lib_a-fclose.o)
 .bss           0x0000000010036d68        0x0 /home/berkeley/nacl_sdk/pepper_42/toolchain/linux_x86_newlib/bin/../lib/gcc/x86_64-nacl/4.4.3/../../../../x86_64-nacl/lib/../lib32/libcrt_common.a(lib_a-fputwc.o)
 .bss           0x0000000010036d68        0x0 /home/berkeley/nacl_sdk/pepper_42/toolchain/linux_x86_newlib/bin/../lib/gcc/x86_64-nacl/4.4.3/../../../../x86_64-nacl/lib/../lib32/libnacl.a(close_e9b92fbd.o)
 .bss           0x0000000010036d68        0x0 /home/berkeley/nacl_sdk/pepper_42/toolchain/linux_x86_newlib/bin/../lib/gcc/x86_64-nacl/4.4.3/../../../../x86_64-nacl/lib/../lib32/libnacl.a(isatty_02f56e94.o)
 .bss           0x0000000010036d68        0x0 /home/berkeley/nacl_sdk/pepper_42/toolchain/linux_x86_newlib/bin/../lib/gcc/x86_64-nacl/4.4.3/../../../../x86_64-nacl/lib/../lib32/libnacl.a(nacl_irt_fdio_b571b5e7.o)
 .bss           0x0000000010036d68        0x0 /home/berkeley/nacl_sdk/pepper_42/toolchain/linux_x86_newlib/bin/../lib/gcc/x86_64-nacl/4.4.3/../../../../x86_64-nacl/lib/../lib32/libnacl.a(fstat_0540ff63.o)
 .bss           0x0000000010036d68        0x0 /home/berkeley/nacl_sdk/pepper_42/toolchain/linux_x86_newlib/bin/../lib/gcc/x86_64-nacl/4.4.3/../../../../x86_64-nacl/lib/../lib32/libnacl.a(lseek_64d2d05c.o)
 .bss           0x0000000010036d68        0x0 /home/berkeley/nacl_sdk/pepper_42/toolchain/linux_x86_newlib/bin/../lib/gcc/x86_64-nacl/4.4.3/../../../../x86_64-nacl/lib/../lib32/libnacl.a(read_df872e10.o)
 .bss           0x0000000010036d68        0x0 /home/berkeley/nacl_sdk/pepper_42/toolchain/linux_x86_newlib/bin/../lib/gcc/x86_64-nacl/4.4.3/32/libgcc.a(_udivdi3.o)
 .bss           0x0000000010036d68        0x0 /home/berkeley/nacl_sdk/pepper_42/toolchain/linux_x86_newlib/bin/../lib/gcc/x86_64-nacl/4.4.3/32/libgcc.a(_umoddi3.o)
 .bss           0x0000000010036d68        0x0 /home/berkeley/nacl_sdk/pepper_42/toolchain/linux_x86_newlib/bin/../lib/gcc/x86_64-nacl/4.4.3/32/crtend.o
 .bss           0x0000000010036d68        0x0 /home/berkeley/nacl_sdk/pepper_42/toolchain/linux_x86_newlib/bin/../lib/gcc/x86_64-nacl/4.4.3/../../../../x86_64-nacl/lib/../lib32/crtn.o
 *(COMMON)
 COMMON         0x0000000010036d68       0x40 /home/berkeley/nacl_sdk/pepper_42/toolchain/linux_x86_newlib/bin/../lib/gcc/x86_64-nacl/4.4.3/../../../../x86_64-nacl/lib/../lib32/libpthread.a(nc_thread_7e478b15.o)
                0x0000000010036d68                __nc_thread_initialized
                0x0000000010036d6c                __nc_thread_management_lock
                0x0000000010036d80                __nc_memory_block_counter
                0x0000000010036d88                __nc_initial_thread_id
                0x0000000010036d8c                __nc_thread_memory_blocks
                0x0000000010036d9c                __libnacl_irt_thread
 COMMON         0x0000000010036da8        0x8 /home/berkeley/nacl_sdk/pepper_42/toolchain/linux_x86_newlib/bin/../lib/gcc/x86_64-nacl/4.4.3/../../../../x86_64-nacl/lib/../lib32/libpthread.a(nc_init_irt_d3daafc0.o)
                0x0000000010036da8                __libnacl_irt_futex
 COMMON         0x0000000010036db0        0x4 /home/berkeley/nacl_sdk/pepper_42/toolchain/linux_x86_newlib/bin/../lib/gcc/x86_64-nacl/4.4.3/../../../../x86_64-nacl/lib/../lib32/libnacl.a(start_fa9ef7de.o)
                0x0000000010036db0                __nacl_initial_thread_stack_end
 *fill*         0x0000000010036db4        0xc 
 COMMON         0x0000000010036dc0       0xdc /home/berkeley/nacl_sdk/pepper_42/toolchain/linux_x86_newlib/bin/../lib/gcc/x86_64-nacl/4.4.3/../../../../x86_64-nacl/lib/../lib32/libnacl.a(nacl_irt_6de1d53f.o)
                0x0000000010036dc0                __nacl_irt_query
                0x0000000010036de0                __libnacl_irt_dev_filename
                0x0000000010036e20                __libnacl_irt_clock
                0x0000000010036e28                __libnacl_irt_memory
                0x0000000010036e40                __libnacl_irt_dev_fdio
                0x0000000010036e78                __libnacl_irt_basic
                0x0000000010036e90                __libnacl_irt_tls
                0x0000000010036e98                __libnacl_irt_dev_getpid
                0x0000000010036e9c                . = ALIGN ((. != 0x0)?0x4:0x1)
                0x0000000010036e9c                . = ALIGN (0x4)
                0x0000000010036e9c                . = SEGMENT_START ("ldata-segment", .)
                0x0000000010036e9c                . = ALIGN (0x4)
                0x0000000010036e9c                _end = .
                0x0000000010036e9c                PROVIDE (end, .)
                0x0000000010036e9c                . = DATA_SEGMENT_END (.)

.stab
 *(.stab)

.stabstr
 *(.stabstr)

.stab.excl
 *(.stab.excl)

.stab.exclstr
 *(.stab.exclstr)

.stab.index
 *(.stab.index)

.stab.indexstr
 *(.stab.indexstr)

.comment        0x0000000000000000       0x66
 *(.comment)
 .comment       0x0000000000000000       0x66 /home/berkeley/nacl_sdk/pepper_42/toolchain/linux_x86_newlib/bin/../lib/gcc/x86_64-nacl/4.4.3/32/crtbegin.o
                                         0x67 (size before relaxing)
 .comment       0x0000000000000000       0x67 newlib/Release/popcnt_x86_32.o
 .comment       0x0000000000000000       0x67 /home/berkeley/nacl_sdk/pepper_42/lib/newlib_x86_32/Release/libppapi_cpp.a(instance_x86_32.o)
 .comment       0x0000000000000000       0x67 /home/berkeley/nacl_sdk/pepper_42/lib/newlib_x86_32/Release/libppapi_cpp.a(module_x86_32.o)
 .comment       0x0000000000000000       0x67 /home/berkeley/nacl_sdk/pepper_42/lib/newlib_x86_32/Release/libppapi_cpp.a(ppp_entrypoints_x86_32.o)
 .comment       0x0000000000000000       0x67 /home/berkeley/nacl_sdk/pepper_42/lib/newlib_x86_32/Release/libppapi_cpp.a(resource_x86_32.o)
 .comment       0x0000000000000000       0x67 /home/berkeley/nacl_sdk/pepper_42/lib/newlib_x86_32/Release/libppapi_cpp.a(url_loader_x86_32.o)
 .comment       0x0000000000000000       0x67 /home/berkeley/nacl_sdk/pepper_42/lib/newlib_x86_32/Release/libppapi_cpp.a(url_response_info_x86_32.o)
 .comment       0x0000000000000000       0x67 /home/berkeley/nacl_sdk/pepper_42/lib/newlib_x86_32/Release/libppapi_cpp.a(var_x86_32.o)
 .comment       0x0000000000000000       0x67 /home/berkeley/nacl_sdk/pepper_42/lib/newlib_x86_32/Release/libppapi_cpp.a(view_x86_32.o)
 .comment       0x0000000000000000       0x67 /home/berkeley/nacl_sdk/pepper_42/lib/newlib_x86_32/Release/libppapi_cpp.a(core_x86_32.o)
 .comment       0x0000000000000000       0x67 /home/berkeley/nacl_sdk/pepper_42/lib/newlib_x86_32/Release/libppapi_cpp.a(file_ref_x86_32.o)
 .comment       0x0000000000000000       0x67 /home/berkeley/nacl_sdk/pepper_42/lib/newlib_x86_32/Release/libppapi_cpp.a(input_event_x86_32.o)
 .comment       0x0000000000000000       0x67 /home/berkeley/nacl_sdk/pepper_42/toolchain/linux_x86_newlib/bin/../lib/gcc/x86_64-nacl/4.4.3/../../../../x86_64-nacl/lib/../lib32/libppapi_stub.a(plugin_main_irt_21ce9d26.o)
 .comment       0x0000000000000000       0x67 /home/berkeley/nacl_sdk/pepper_42/toolchain/linux_x86_newlib/bin/../lib/gcc/x86_64-nacl/4.4.3/../../../../x86_64-nacl/lib/../lib32/libppapi_stub.a(ppapi_plugin_main_399d0cf7.o)
 .comment       0x0000000000000000       0x67 /home/berkeley/nacl_sdk/pepper_42/toolchain/linux_x86_newlib/bin/../lib/gcc/x86_64-nacl/4.4.3/../../../../x86_64-nacl/lib/../lib32/libppapi_stub.a(ppapi_plugin_start_8da67623.o)
 .comment       0x0000000000000000       0x67 /home/berkeley/nacl_sdk/pepper_42/toolchain/linux_x86_newlib/bin/../lib/gcc/x86_64-nacl/4.4.3/../../../../x86_64-nacl/lib/../lib32/libppapi_stub.a(thread_creator_ccf263e1.o)
 .comment       0x0000000000000000       0x67 /home/berkeley/nacl_sdk/pepper_42/toolchain/linux_x86_newlib/bin/../lib/gcc/x86_64-nacl/4.4.3/../../../../x86_64-nacl/lib/../lib32/libpthread.a(nc_thread_7e478b15.o)
 .comment       0x0000000000000000       0x67 /home/berkeley/nacl_sdk/pepper_42/toolchain/linux_x86_newlib/bin/../lib/gcc/x86_64-nacl/4.4.3/../../../../x86_64-nacl/lib/../lib32/libpthread.a(nc_condvar_305aa45a.o)
 .comment       0x0000000000000000       0x67 /home/berkeley/nacl_sdk/pepper_42/toolchain/linux_x86_newlib/bin/../lib/gcc/x86_64-nacl/4.4.3/../../../../x86_64-nacl/lib/../lib32/libpthread.a(dynamic_annotations_33ba59cc.o)
 .comment       0x0000000000000000       0x67 /home/berkeley/nacl_sdk/pepper_42/toolchain/linux_x86_newlib/bin/../lib/gcc/x86_64-nacl/4.4.3/../../../../x86_64-nacl/lib/../lib32/libpthread.a(nc_mutex_86341ae1.o)
 .comment       0x0000000000000000       0x67 /home/berkeley/nacl_sdk/pepper_42/toolchain/linux_x86_newlib/bin/../lib/gcc/x86_64-nacl/4.4.3/../../../../x86_64-nacl/lib/../lib32/libpthread.a(nc_init_irt_d3daafc0.o)
 .comment       0x0000000000000000       0x67 /home/berkeley/nacl_sdk/pepper_42/toolchain/linux_x86_newlib/bin/../lib/gcc/x86_64-nacl/4.4.3/../../../../x86_64-nacl/lib/../lib32/libstdc++.a(tree.o)
 .comment       0x0000000000000000       0x67 /home/berkeley/nacl_sdk/pepper_42/toolchain/linux_x86_newlib/bin/../lib/gcc/x86_64-nacl/4.4.3/../../../../x86_64-nacl/lib/../lib32/libstdc++.a(string-inst.o)
 .comment       0x0000000000000000       0x67 /home/berkeley/nacl_sdk/pepper_42/toolchain/linux_x86_newlib/bin/../lib/gcc/x86_64-nacl/4.4.3/../../../../x86_64-nacl/lib/../lib32/libstdc++.a(eh_personality.o)
 .comment       0x0000000000000000       0x67 /home/berkeley/nacl_sdk/pepper_42/toolchain/linux_x86_newlib/bin/../lib/gcc/x86_64-nacl/4.4.3/../../../../x86_64-nacl/lib/../lib32/libstdc++.a(eh_globals.o)
 .comment       0x0000000000000000       0x67 /home/berkeley/nacl_sdk/pepper_42/toolchain/linux_x86_newlib/bin/../lib/gcc/x86_64-nacl/4.4.3/../../../../x86_64-nacl/lib/../lib32/libstdc++.a(eh_throw.o)
 .comment       0x0000000000000000       0x67 /home/berkeley/nacl_sdk/pepper_42/toolchain/linux_x86_newlib/bin/../lib/gcc/x86_64-nacl/4.4.3/../../../../x86_64-nacl/lib/../lib32/libstdc++.a(del_op.o)
 .comment       0x0000000000000000       0x67 /home/berkeley/nacl_sdk/pepper_42/toolchain/linux_x86_newlib/bin/../lib/gcc/x86_64-nacl/4.4.3/../../../../x86_64-nacl/lib/../lib32/libstdc++.a(eh_call.o)
 .comment       0x0000000000000000       0x67 /home/berkeley/nacl_sdk/pepper_42/toolchain/linux_x86_newlib/bin/../lib/gcc/x86_64-nacl/4.4.3/../../../../x86_64-nacl/lib/../lib32/libstdc++.a(guard.o)
 .comment       0x0000000000000000       0x67 /home/berkeley/nacl_sdk/pepper_42/toolchain/linux_x86_newlib/bin/../lib/gcc/x86_64-nacl/4.4.3/../../../../x86_64-nacl/lib/../lib32/libstdc++.a(si_class_type_info.o)
 .comment       0x0000000000000000       0x67 /home/berkeley/nacl_sdk/pepper_42/toolchain/linux_x86_newlib/bin/../lib/gcc/x86_64-nacl/4.4.3/../../../../x86_64-nacl/lib/../lib32/libstdc++.a(eh_terminate.o)
 .comment       0x0000000000000000       0x67 /home/berkeley/nacl_sdk/pepper_42/toolchain/linux_x86_newlib/bin/../lib/gcc/x86_64-nacl/4.4.3/../../../../x86_64-nacl/lib/../lib32/libstdc++.a(class_type_info.o)
 .comment       0x0000000000000000       0x67 /home/berkeley/nacl_sdk/pepper_42/toolchain/linux_x86_newlib/bin/../lib/gcc/x86_64-nacl/4.4.3/../../../../x86_64-nacl/lib/../lib32/libstdc++.a(eh_alloc.o)
 .comment       0x0000000000000000       0x67 /home/berkeley/nacl_sdk/pepper_42/toolchain/linux_x86_newlib/bin/../lib/gcc/x86_64-nacl/4.4.3/../../../../x86_64-nacl/lib/../lib32/libstdc++.a(eh_catch.o)
 .comment       0x0000000000000000       0x67 /home/berkeley/nacl_sdk/pepper_42/toolchain/linux_x86_newlib/bin/../lib/gcc/x86_64-nacl/4.4.3/../../../../x86_64-nacl/lib/../lib32/libstdc++.a(eh_exception.o)
 .comment       0x0000000000000000       0x67 /home/berkeley/nacl_sdk/pepper_42/toolchain/linux_x86_newlib/bin/../lib/gcc/x86_64-nacl/4.4.3/../../../../x86_64-nacl/lib/../lib32/libstdc++.a(pure.o)
 .comment       0x0000000000000000       0x67 /home/berkeley/nacl_sdk/pepper_42/toolchain/linux_x86_newlib/bin/../lib/gcc/x86_64-nacl/4.4.3/../../../../x86_64-nacl/lib/../lib32/libstdc++.a(new_op.o)
 .comment       0x0000000000000000       0x67 /home/berkeley/nacl_sdk/pepper_42/toolchain/linux_x86_newlib/bin/../lib/gcc/x86_64-nacl/4.4.3/../../../../x86_64-nacl/lib/../lib32/libstdc++.a(tinfo.o)
 .comment       0x0000000000000000       0x67 /home/berkeley/nacl_sdk/pepper_42/toolchain/linux_x86_newlib/bin/../lib/gcc/x86_64-nacl/4.4.3/../../../../x86_64-nacl/lib/../lib32/libstdc++.a(functexcept.o)
 .comment       0x0000000000000000       0x67 /home/berkeley/nacl_sdk/pepper_42/toolchain/linux_x86_newlib/bin/../lib/gcc/x86_64-nacl/4.4.3/../../../../x86_64-nacl/lib/../lib32/libstdc++.a(ios_failure.o)
 .comment       0x0000000000000000       0x67 /home/berkeley/nacl_sdk/pepper_42/toolchain/linux_x86_newlib/bin/../lib/gcc/x86_64-nacl/4.4.3/../../../../x86_64-nacl/lib/../lib32/libstdc++.a(stdexcept.o)
 .comment       0x0000000000000000       0x67 /home/berkeley/nacl_sdk/pepper_42/toolchain/linux_x86_newlib/bin/../lib/gcc/x86_64-nacl/4.4.3/../../../../x86_64-nacl/lib/../lib32/libstdc++.a(system_error.o)
 .comment       0x0000000000000000       0x67 /home/berkeley/nacl_sdk/pepper_42/toolchain/linux_x86_newlib/bin/../lib/gcc/x86_64-nacl/4.4.3/../../../../x86_64-nacl/lib/../lib32/libstdc++.a(eh_unex_handler.o)
 .comment       0x0000000000000000       0x67 /home/berkeley/nacl_sdk/pepper_42/toolchain/linux_x86_newlib/bin/../lib/gcc/x86_64-nacl/4.4.3/../../../../x86_64-nacl/lib/../lib32/libstdc++.a(eh_term_handler.o)
 .comment       0x0000000000000000       0x67 /home/berkeley/nacl_sdk/pepper_42/toolchain/linux_x86_newlib/bin/../lib/gcc/x86_64-nacl/4.4.3/../../../../x86_64-nacl/lib/../lib32/libstdc++.a(bad_typeid.o)
 .comment       0x0000000000000000       0x67 /home/berkeley/nacl_sdk/pepper_42/toolchain/linux_x86_newlib/bin/../lib/gcc/x86_64-nacl/4.4.3/../../../../x86_64-nacl/lib/../lib32/libstdc++.a(new_handler.o)
 .comment       0x0000000000000000       0x67 /home/berkeley/nacl_sdk/pepper_42/toolchain/linux_x86_newlib/bin/../lib/gcc/x86_64-nacl/4.4.3/../../../../x86_64-nacl/lib/../lib32/libstdc++.a(bad_cast.o)
 .comment       0x0000000000000000       0x67 /home/berkeley/nacl_sdk/pepper_42/toolchain/linux_x86_newlib/bin/../lib/gcc/x86_64-nacl/4.4.3/../../../../x86_64-nacl/lib/../lib32/libstdc++.a(vterminate.o)
 .comment       0x0000000000000000       0x67 /home/berkeley/nacl_sdk/pepper_42/toolchain/linux_x86_newlib/bin/../lib/gcc/x86_64-nacl/4.4.3/../../../../x86_64-nacl/lib/../lib32/libstdc++.a(cp-demangle.o)
 .comment       0x0000000000000000       0x67 /home/berkeley/nacl_sdk/pepper_42/toolchain/linux_x86_newlib/bin/../lib/gcc/x86_64-nacl/4.4.3/../../../../x86_64-nacl/lib/../lib32/libstdc++.a(eh_type.o)
 .comment       0x0000000000000000       0x67 /home/berkeley/nacl_sdk/pepper_42/toolchain/linux_x86_newlib/bin/../lib/gcc/x86_64-nacl/4.4.3/32/libgcc.a(unwind-dw2.o)
 .comment       0x0000000000000000       0x67 /home/berkeley/nacl_sdk/pepper_42/toolchain/linux_x86_newlib/bin/../lib/gcc/x86_64-nacl/4.4.3/32/libgcc.a(unwind-dw2-fde-glibc.o)
 .comment       0x0000000000000000       0x67 /home/berkeley/nacl_sdk/pepper_42/toolchain/linux_x86_newlib/bin/../lib/gcc/x86_64-nacl/4.4.3/../../../../x86_64-nacl/lib/../lib32/libnacl.a(_exit_710c7d0d.o)
 .comment       0x0000000000000000       0x67 /home/berkeley/nacl_sdk/pepper_42/toolchain/linux_x86_newlib/bin/../lib/gcc/x86_64-nacl/4.4.3/../../../../x86_64-nacl/lib/../lib32/libnacl.a(abort_9f6b5845.o)
 .comment       0x0000000000000000       0x67 /home/berkeley/nacl_sdk/pepper_42/toolchain/linux_x86_newlib/bin/../lib/gcc/x86_64-nacl/4.4.3/../../../../x86_64-nacl/lib/../lib32/libnacl.a(environ_25cd24d8.o)
 .comment       0x0000000000000000       0x67 /home/berkeley/nacl_sdk/pepper_42/toolchain/linux_x86_newlib/bin/../lib/gcc/x86_64-nacl/4.4.3/../../../../x86_64-nacl/lib/../lib32/libnacl.a(start_fa9ef7de.o)
 .comment       0x0000000000000000       0x67 /home/berkeley/nacl_sdk/pepper_42/toolchain/linux_x86_newlib/bin/../lib/gcc/x86_64-nacl/4.4.3/../../../../x86_64-nacl/lib/../lib32/libnacl.a(malloc_222c4a1e.o)
 .comment       0x0000000000000000       0x67 /home/berkeley/nacl_sdk/pepper_42/toolchain/linux_x86_newlib/bin/../lib/gcc/x86_64-nacl/4.4.3/../../../../x86_64-nacl/lib/../lib32/libnacl.a(nacl_irt_6de1d53f.o)
 .comment       0x0000000000000000       0x67 /home/berkeley/nacl_sdk/pepper_42/toolchain/linux_x86_newlib/bin/../lib/gcc/x86_64-nacl/4.4.3/../../../../x86_64-nacl/lib/../lib32/libnacl.a(pthread_initialize_minimal_4b6e776b.o)
 .comment       0x0000000000000000       0x67 /home/berkeley/nacl_sdk/pepper_42/toolchain/linux_x86_newlib/bin/../lib/gcc/x86_64-nacl/4.4.3/../../../../x86_64-nacl/lib/../lib32/libnacl.a(nacl_read_tp_5748ac47.o)
 .comment       0x0000000000000000       0x67 /home/berkeley/nacl_sdk/pepper_42/toolchain/linux_x86_newlib/bin/../lib/gcc/x86_64-nacl/4.4.3/../../../../x86_64-nacl/lib/../lib32/libnacl.a(mmap_767fb080.o)
 .comment       0x0000000000000000       0x67 /home/berkeley/nacl_sdk/pepper_42/toolchain/linux_x86_newlib/bin/../lib/gcc/x86_64-nacl/4.4.3/../../../../x86_64-nacl/lib/../lib32/libnacl.a(sched_yield_56c375be.o)
 .comment       0x0000000000000000       0x67 /home/berkeley/nacl_sdk/pepper_42/toolchain/linux_x86_newlib/bin/../lib/gcc/x86_64-nacl/4.4.3/../../../../x86_64-nacl/lib/../lib32/libnacl.a(munmap_d4f09867.o)
 .comment       0x0000000000000000       0x67 /home/berkeley/nacl_sdk/pepper_42/toolchain/linux_x86_newlib/bin/../lib/gcc/x86_64-nacl/4.4.3/../../../../x86_64-nacl/lib/../lib32/libnacl.a(tls_bba1975b.o)
 .comment       0x0000000000000000       0x67 /home/berkeley/nacl_sdk/pepper_42/toolchain/linux_x86_newlib/bin/../lib/gcc/x86_64-nacl/4.4.3/../../../../x86_64-nacl/lib/../lib32/libnacl.a(write_fb49787f.o)
 .comment       0x0000000000000000       0x67 /home/berkeley/nacl_sdk/pepper_42/toolchain/linux_x86_newlib/bin/../lib/gcc/x86_64-nacl/4.4.3/../../../../x86_64-nacl/lib/../lib32/libnacl.a(nacl_tls_get_d2f842b5.o)
 .comment       0x0000000000000000       0x67 /home/berkeley/nacl_sdk/pepper_42/toolchain/linux_x86_newlib/bin/../lib/gcc/x86_64-nacl/4.4.3/../../../../x86_64-nacl/lib/../lib32/libnacl.a(nacl_irt_init_7b4f826e.o)
 .comment       0x0000000000000000       0x67 /home/berkeley/nacl_sdk/pepper_42/toolchain/linux_x86_newlib/bin/../lib/gcc/x86_64-nacl/4.4.3/../../../../x86_64-nacl/lib/../lib32/libnacl.a(sysconf_ad295ea2.o)
 .comment       0x0000000000000000       0x67 /home/berkeley/nacl_sdk/pepper_42/toolchain/linux_x86_newlib/bin/../lib/gcc/x86_64-nacl/4.4.3/../../../../x86_64-nacl/lib/../lib32/libnacl.a(nacl_tls_init_eb0cd232.o)
 .comment       0x0000000000000000       0x67 /home/berkeley/nacl_sdk/pepper_42/toolchain/linux_x86_newlib/bin/../lib/gcc/x86_64-nacl/4.4.3/../../../../x86_64-nacl/lib/../lib32/libcrt_common.a(lib_a-atexit.o)
 .comment       0x0000000000000000       0x67 /home/berkeley/nacl_sdk/pepper_42/toolchain/linux_x86_newlib/bin/../lib/gcc/x86_64-nacl/4.4.3/../../../../x86_64-nacl/lib/../lib32/libcrt_common.a(lib_a-cxa_atexit.o)
 .comment       0x0000000000000000       0x67 /home/berkeley/nacl_sdk/pepper_42/toolchain/linux_x86_newlib/bin/../lib/gcc/x86_64-nacl/4.4.3/../../../../x86_64-nacl/lib/../lib32/libcrt_common.a(lib_a-errno.o)
 .comment       0x0000000000000000       0x67 /home/berkeley/nacl_sdk/pepper_42/toolchain/linux_x86_newlib/bin/../lib/gcc/x86_64-nacl/4.4.3/../../../../x86_64-nacl/lib/../lib32/libcrt_common.a(lib_a-exit.o)
 .comment       0x0000000000000000       0x67 /home/berkeley/nacl_sdk/pepper_42/toolchain/linux_x86_newlib/bin/../lib/gcc/x86_64-nacl/4.4.3/../../../../x86_64-nacl/lib/../lib32/libcrt_common.a(lib_a-fini.o)
 .comment       0x0000000000000000       0x67 /home/berkeley/nacl_sdk/pepper_42/toolchain/linux_x86_newlib/bin/../lib/gcc/x86_64-nacl/4.4.3/../../../../x86_64-nacl/lib/../lib32/libcrt_common.a(lib_a-fprintf.o)
 .comment       0x0000000000000000       0x67 /home/berkeley/nacl_sdk/pepper_42/toolchain/linux_x86_newlib/bin/../lib/gcc/x86_64-nacl/4.4.3/../../../../x86_64-nacl/lib/../lib32/libcrt_common.a(lib_a-fputc.o)
 .comment       0x0000000000000000       0x67 /home/berkeley/nacl_sdk/pepper_42/toolchain/linux_x86_newlib/bin/../lib/gcc/x86_64-nacl/4.4.3/../../../../x86_64-nacl/lib/../lib32/libcrt_common.a(lib_a-fputs.o)
 .comment       0x0000000000000000       0x67 /home/berkeley/nacl_sdk/pepper_42/toolchain/linux_x86_newlib/bin/../lib/gcc/x86_64-nacl/4.4.3/../../../../x86_64-nacl/lib/../lib32/libcrt_common.a(lib_a-fvwrite.o)
 .comment       0x0000000000000000       0x67 /home/berkeley/nacl_sdk/pepper_42/toolchain/linux_x86_newlib/bin/../lib/gcc/x86_64-nacl/4.4.3/../../../../x86_64-nacl/lib/../lib32/libcrt_common.a(lib_a-fwrite.o)
 .comment       0x0000000000000000       0x67 /home/berkeley/nacl_sdk/pepper_42/toolchain/linux_x86_newlib/bin/../lib/gcc/x86_64-nacl/4.4.3/../../../../x86_64-nacl/lib/../lib32/libcrt_common.a(lib_a-getenv.o)
 .comment       0x0000000000000000       0x67 /home/berkeley/nacl_sdk/pepper_42/toolchain/linux_x86_newlib/bin/../lib/gcc/x86_64-nacl/4.4.3/../../../../x86_64-nacl/lib/../lib32/libcrt_common.a(lib_a-getenv_r.o)
 .comment       0x0000000000000000       0x67 /home/berkeley/nacl_sdk/pepper_42/toolchain/linux_x86_newlib/bin/../lib/gcc/x86_64-nacl/4.4.3/../../../../x86_64-nacl/lib/../lib32/libcrt_common.a(lib_a-impure.o)
 .comment       0x0000000000000000       0x67 /home/berkeley/nacl_sdk/pepper_42/toolchain/linux_x86_newlib/bin/../lib/gcc/x86_64-nacl/4.4.3/../../../../x86_64-nacl/lib/../lib32/libcrt_common.a(lib_a-init.o)
 .comment       0x0000000000000000       0x67 /home/berkeley/nacl_sdk/pepper_42/toolchain/linux_x86_newlib/bin/../lib/gcc/x86_64-nacl/4.4.3/../../../../x86_64-nacl/lib/../lib32/libcrt_common.a(lib_a-putc.o)
 .comment       0x0000000000000000       0x67 /home/berkeley/nacl_sdk/pepper_42/toolchain/linux_x86_newlib/bin/../lib/gcc/x86_64-nacl/4.4.3/../../../../x86_64-nacl/lib/../lib32/libcrt_common.a(lib_a-snprintf.o)
 .comment       0x0000000000000000       0x67 /home/berkeley/nacl_sdk/pepper_42/toolchain/linux_x86_newlib/bin/../lib/gcc/x86_64-nacl/4.4.3/../../../../x86_64-nacl/lib/../lib32/libcrt_common.a(lib_a-sprintf.o)
 .comment       0x0000000000000000       0x67 /home/berkeley/nacl_sdk/pepper_42/toolchain/linux_x86_newlib/bin/../lib/gcc/x86_64-nacl/4.4.3/../../../../x86_64-nacl/lib/../lib32/libcrt_common.a(lib_a-strcpy.o)
 .comment       0x0000000000000000       0x67 /home/berkeley/nacl_sdk/pepper_42/toolchain/linux_x86_newlib/bin/../lib/gcc/x86_64-nacl/4.4.3/../../../../x86_64-nacl/lib/../lib32/libcrt_common.a(lib_a-strerror.o)
 .comment       0x0000000000000000       0x67 /home/berkeley/nacl_sdk/pepper_42/toolchain/linux_x86_newlib/bin/../lib/gcc/x86_64-nacl/4.4.3/../../../../x86_64-nacl/lib/../lib32/libcrt_common.a(lib_a-strncmp.o)
 .comment       0x0000000000000000       0x67 /home/berkeley/nacl_sdk/pepper_42/toolchain/linux_x86_newlib/bin/../lib/gcc/x86_64-nacl/4.4.3/../../../../x86_64-nacl/lib/../lib32/libcrt_common.a(lib_a-svfprintf.o)
 .comment       0x0000000000000000       0x67 /home/berkeley/nacl_sdk/pepper_42/toolchain/linux_x86_newlib/bin/../lib/gcc/x86_64-nacl/4.4.3/../../../../x86_64-nacl/lib/../lib32/libcrt_common.a(lib_a-u_strerr.o)
 .comment       0x0000000000000000       0x67 /home/berkeley/nacl_sdk/pepper_42/toolchain/linux_x86_newlib/bin/../lib/gcc/x86_64-nacl/4.4.3/../../../../x86_64-nacl/lib/../lib32/libcrt_common.a(lib_a-vfprintf.o)
 .comment       0x0000000000000000       0x67 /home/berkeley/nacl_sdk/pepper_42/toolchain/linux_x86_newlib/bin/../lib/gcc/x86_64-nacl/4.4.3/../../../../x86_64-nacl/lib/../lib32/libcrt_common.a(lib_a-wbuf.o)
 .comment       0x0000000000000000       0x67 /home/berkeley/nacl_sdk/pepper_42/toolchain/linux_x86_newlib/bin/../lib/gcc/x86_64-nacl/4.4.3/../../../../x86_64-nacl/lib/../lib32/libcrt_common.a(lib_a-wcrtomb.o)
 .comment       0x0000000000000000       0x67 /home/berkeley/nacl_sdk/pepper_42/toolchain/linux_x86_newlib/bin/../lib/gcc/x86_64-nacl/4.4.3/../../../../x86_64-nacl/lib/../lib32/libcrt_common.a(lib_a-wcsrtombs.o)
 .comment       0x0000000000000000       0x67 /home/berkeley/nacl_sdk/pepper_42/toolchain/linux_x86_newlib/bin/../lib/gcc/x86_64-nacl/4.4.3/../../../../x86_64-nacl/lib/../lib32/libcrt_common.a(lib_a-wctomb_r.o)
 .comment       0x0000000000000000       0x67 /home/berkeley/nacl_sdk/pepper_42/toolchain/linux_x86_newlib/bin/../lib/gcc/x86_64-nacl/4.4.3/../../../../x86_64-nacl/lib/../lib32/libcrt_common.a(lib_a-wsetup.o)
 .comment       0x0000000000000000       0x67 /home/berkeley/nacl_sdk/pepper_42/toolchain/linux_x86_newlib/bin/../lib/gcc/x86_64-nacl/4.4.3/../../../../x86_64-nacl/lib/../lib32/libcrt_common.a(lib_a-__atexit.o)
 .comment       0x0000000000000000       0x67 /home/berkeley/nacl_sdk/pepper_42/toolchain/linux_x86_newlib/bin/../lib/gcc/x86_64-nacl/4.4.3/../../../../x86_64-nacl/lib/../lib32/libcrt_common.a(lib_a-__call_atexit.o)
 .comment       0x0000000000000000       0x67 /home/berkeley/nacl_sdk/pepper_42/toolchain/linux_x86_newlib/bin/../lib/gcc/x86_64-nacl/4.4.3/../../../../x86_64-nacl/lib/../lib32/libcrt_common.a(lib_a-dtoa.o)
 .comment       0x0000000000000000       0x67 /home/berkeley/nacl_sdk/pepper_42/toolchain/linux_x86_newlib/bin/../lib/gcc/x86_64-nacl/4.4.3/../../../../x86_64-nacl/lib/../lib32/libcrt_common.a(lib_a-envlock.o)
 .comment       0x0000000000000000       0x67 /home/berkeley/nacl_sdk/pepper_42/toolchain/linux_x86_newlib/bin/../lib/gcc/x86_64-nacl/4.4.3/../../../../x86_64-nacl/lib/../lib32/libcrt_common.a(lib_a-fflush.o)
 .comment       0x0000000000000000       0x67 /home/berkeley/nacl_sdk/pepper_42/toolchain/linux_x86_newlib/bin/../lib/gcc/x86_64-nacl/4.4.3/../../../../x86_64-nacl/lib/../lib32/libcrt_common.a(lib_a-findfp.o)
 .comment       0x0000000000000000       0x67 /home/berkeley/nacl_sdk/pepper_42/toolchain/linux_x86_newlib/bin/../lib/gcc/x86_64-nacl/4.4.3/../../../../x86_64-nacl/lib/../lib32/libcrt_common.a(lib_a-fwalk.o)
 .comment       0x0000000000000000       0x67 /home/berkeley/nacl_sdk/pepper_42/toolchain/linux_x86_newlib/bin/../lib/gcc/x86_64-nacl/4.4.3/../../../../x86_64-nacl/lib/../lib32/libcrt_common.a(lib_a-locale.o)
 .comment       0x0000000000000000       0x67 /home/berkeley/nacl_sdk/pepper_42/toolchain/linux_x86_newlib/bin/../lib/gcc/x86_64-nacl/4.4.3/../../../../x86_64-nacl/lib/../lib32/libcrt_common.a(lib_a-makebuf.o)
 .comment       0x0000000000000000       0x67 /home/berkeley/nacl_sdk/pepper_42/toolchain/linux_x86_newlib/bin/../lib/gcc/x86_64-nacl/4.4.3/../../../../x86_64-nacl/lib/../lib32/libcrt_common.a(lib_a-mbtowc_r.o)
 .comment       0x0000000000000000       0x67 /home/berkeley/nacl_sdk/pepper_42/toolchain/linux_x86_newlib/bin/../lib/gcc/x86_64-nacl/4.4.3/../../../../x86_64-nacl/lib/../lib32/libcrt_common.a(lib_a-mprec.o)
 .comment       0x0000000000000000       0x67 /home/berkeley/nacl_sdk/pepper_42/toolchain/linux_x86_newlib/bin/../lib/gcc/x86_64-nacl/4.4.3/../../../../x86_64-nacl/lib/../lib32/libcrt_common.a(lib_a-s_fpclassify.o)
 .comment       0x0000000000000000       0x67 /home/berkeley/nacl_sdk/pepper_42/toolchain/linux_x86_newlib/bin/../lib/gcc/x86_64-nacl/4.4.3/../../../../x86_64-nacl/lib/../lib32/libcrt_common.a(lib_a-s_frexp.o)
 .comment       0x0000000000000000       0x67 /home/berkeley/nacl_sdk/pepper_42/toolchain/linux_x86_newlib/bin/../lib/gcc/x86_64-nacl/4.4.3/../../../../x86_64-nacl/lib/../lib32/libcrt_common.a(lib_a-stdio.o)
 .comment       0x0000000000000000       0x67 /home/berkeley/nacl_sdk/pepper_42/toolchain/linux_x86_newlib/bin/../lib/gcc/x86_64-nacl/4.4.3/../../../../x86_64-nacl/lib/../lib32/libcrt_common.a(lib_a-strcasecmp.o)
 .comment       0x0000000000000000       0x67 /home/berkeley/nacl_sdk/pepper_42/toolchain/linux_x86_newlib/bin/../lib/gcc/x86_64-nacl/4.4.3/../../../../x86_64-nacl/lib/../lib32/libcrt_common.a(lib_a-strcat.o)
 .comment       0x0000000000000000       0x67 /home/berkeley/nacl_sdk/pepper_42/toolchain/linux_x86_newlib/bin/../lib/gcc/x86_64-nacl/4.4.3/../../../../x86_64-nacl/lib/../lib32/libcrt_common.a(lib_a-strcmp.o)
 .comment       0x0000000000000000       0x67 /home/berkeley/nacl_sdk/pepper_42/toolchain/linux_x86_newlib/bin/../lib/gcc/x86_64-nacl/4.4.3/../../../../x86_64-nacl/lib/../lib32/libcrt_common.a(lib_a-strlcpy.o)
 .comment       0x0000000000000000       0x67 /home/berkeley/nacl_sdk/pepper_42/toolchain/linux_x86_newlib/bin/../lib/gcc/x86_64-nacl/4.4.3/../../../../x86_64-nacl/lib/../lib32/libcrt_common.a(lib_a-strncasecmp.o)
 .comment       0x0000000000000000       0x67 /home/berkeley/nacl_sdk/pepper_42/toolchain/linux_x86_newlib/bin/../lib/gcc/x86_64-nacl/4.4.3/../../../../x86_64-nacl/lib/../lib32/libcrt_common.a(lib_a-strncpy.o)
 .comment       0x0000000000000000       0x67 /home/berkeley/nacl_sdk/pepper_42/toolchain/linux_x86_newlib/bin/../lib/gcc/x86_64-nacl/4.4.3/../../../../x86_64-nacl/lib/../lib32/libcrt_common.a(lib_a-strtol.o)
 .comment       0x0000000000000000       0x67 /home/berkeley/nacl_sdk/pepper_42/toolchain/linux_x86_newlib/bin/../lib/gcc/x86_64-nacl/4.4.3/../../../../x86_64-nacl/lib/../lib32/libcrt_common.a(lib_a-svfiprintf.o)
 .comment       0x0000000000000000       0x67 /home/berkeley/nacl_sdk/pepper_42/toolchain/linux_x86_newlib/bin/../lib/gcc/x86_64-nacl/4.4.3/../../../../x86_64-nacl/lib/../lib32/libcrt_common.a(lib_a-vfiprintf.o)
 .comment       0x0000000000000000       0x67 /home/berkeley/nacl_sdk/pepper_42/toolchain/linux_x86_newlib/bin/../lib/gcc/x86_64-nacl/4.4.3/../../../../x86_64-nacl/lib/../lib32/libcrt_common.a(lib_a-wcsnrtombs.o)
 .comment       0x0000000000000000       0x67 /home/berkeley/nacl_sdk/pepper_42/toolchain/linux_x86_newlib/bin/../lib/gcc/x86_64-nacl/4.4.3/../../../../x86_64-nacl/lib/../lib32/libcrt_common.a(lib_a-ctype_.o)
 .comment       0x0000000000000000       0x67 /home/berkeley/nacl_sdk/pepper_42/toolchain/linux_x86_newlib/bin/../lib/gcc/x86_64-nacl/4.4.3/../../../../x86_64-nacl/lib/../lib32/libcrt_common.a(lib_a-fclose.o)
 .comment       0x0000000000000000       0x67 /home/berkeley/nacl_sdk/pepper_42/toolchain/linux_x86_newlib/bin/../lib/gcc/x86_64-nacl/4.4.3/../../../../x86_64-nacl/lib/../lib32/libcrt_common.a(lib_a-fputwc.o)
 .comment       0x0000000000000000       0x67 /home/berkeley/nacl_sdk/pepper_42/toolchain/linux_x86_newlib/bin/../lib/gcc/x86_64-nacl/4.4.3/../../../../x86_64-nacl/lib/../lib32/libnacl.a(close_e9b92fbd.o)
 .comment       0x0000000000000000       0x67 /home/berkeley/nacl_sdk/pepper_42/toolchain/linux_x86_newlib/bin/../lib/gcc/x86_64-nacl/4.4.3/../../../../x86_64-nacl/lib/../lib32/libnacl.a(isatty_02f56e94.o)
 .comment       0x0000000000000000       0x67 /home/berkeley/nacl_sdk/pepper_42/toolchain/linux_x86_newlib/bin/../lib/gcc/x86_64-nacl/4.4.3/../../../../x86_64-nacl/lib/../lib32/libnacl.a(nacl_irt_fdio_b571b5e7.o)
 .comment       0x0000000000000000       0x67 /home/berkeley/nacl_sdk/pepper_42/toolchain/linux_x86_newlib/bin/../lib/gcc/x86_64-nacl/4.4.3/../../../../x86_64-nacl/lib/../lib32/libnacl.a(fstat_0540ff63.o)
 .comment       0x0000000000000000       0x67 /home/berkeley/nacl_sdk/pepper_42/toolchain/linux_x86_newlib/bin/../lib/gcc/x86_64-nacl/4.4.3/../../../../x86_64-nacl/lib/../lib32/libnacl.a(lseek_64d2d05c.o)
 .comment       0x0000000000000000       0x67 /home/berkeley/nacl_sdk/pepper_42/toolchain/linux_x86_newlib/bin/../lib/gcc/x86_64-nacl/4.4.3/../../../../x86_64-nacl/lib/../lib32/libnacl.a(read_df872e10.o)
 .comment       0x0000000000000000       0x67 /home/berkeley/nacl_sdk/pepper_42/toolchain/linux_x86_newlib/bin/../lib/gcc/x86_64-nacl/4.4.3/32/libgcc.a(_udivdi3.o)
 .comment       0x0000000000000000       0x67 /home/berkeley/nacl_sdk/pepper_42/toolchain/linux_x86_newlib/bin/../lib/gcc/x86_64-nacl/4.4.3/32/libgcc.a(_umoddi3.o)
 .comment       0x0000000000000000       0x67 /home/berkeley/nacl_sdk/pepper_42/toolchain/linux_x86_newlib/bin/../lib/gcc/x86_64-nacl/4.4.3/32/crtend.o

.debug
 *(.debug)

.line
 *(.line)

.debug_srcinfo
 *(.debug_srcinfo)

.debug_sfnames
 *(.debug_sfnames)

.debug_aranges  0x0000000000000000     0x15e8
 *(.debug_aranges)
 .debug_aranges
                0x0000000000000000       0x50 newlib/Release/popcnt_x86_32.o
 .debug_aranges
                0x0000000000000050       0x40 /home/berkeley/nacl_sdk/pepper_42/lib/newlib_x86_32/Release/libppapi_cpp.a(instance_x86_32.o)
 .debug_aranges
                0x0000000000000090       0x80 /home/berkeley/nacl_sdk/pepper_42/lib/newlib_x86_32/Release/libppapi_cpp.a(module_x86_32.o)
 .debug_aranges
                0x0000000000000110       0x20 /home/berkeley/nacl_sdk/pepper_42/lib/newlib_x86_32/Release/libppapi_cpp.a(ppp_entrypoints_x86_32.o)
 .debug_aranges
                0x0000000000000130       0x20 /home/berkeley/nacl_sdk/pepper_42/lib/newlib_x86_32/Release/libppapi_cpp.a(resource_x86_32.o)
 .debug_aranges
                0x0000000000000150       0x40 /home/berkeley/nacl_sdk/pepper_42/lib/newlib_x86_32/Release/libppapi_cpp.a(url_loader_x86_32.o)
 .debug_aranges
                0x0000000000000190       0x40 /home/berkeley/nacl_sdk/pepper_42/lib/newlib_x86_32/Release/libppapi_cpp.a(url_response_info_x86_32.o)
 .debug_aranges
                0x00000000000001d0       0x20 /home/berkeley/nacl_sdk/pepper_42/lib/newlib_x86_32/Release/libppapi_cpp.a(var_x86_32.o)
 .debug_aranges
                0x00000000000001f0       0x30 /home/berkeley/nacl_sdk/pepper_42/lib/newlib_x86_32/Release/libppapi_cpp.a(view_x86_32.o)
 .debug_aranges
                0x0000000000000220       0x20 /home/berkeley/nacl_sdk/pepper_42/lib/newlib_x86_32/Release/libppapi_cpp.a(core_x86_32.o)
 .debug_aranges
                0x0000000000000240       0x38 /home/berkeley/nacl_sdk/pepper_42/lib/newlib_x86_32/Release/libppapi_cpp.a(file_ref_x86_32.o)
 .debug_aranges
                0x0000000000000278       0x70 /home/berkeley/nacl_sdk/pepper_42/lib/newlib_x86_32/Release/libppapi_cpp.a(input_event_x86_32.o)
 .debug_aranges
                0x00000000000002e8       0x20 /home/berkeley/nacl_sdk/pepper_42/toolchain/linux_x86_newlib/bin/../lib/gcc/x86_64-nacl/4.4.3/../../../../x86_64-nacl/lib/../lib32/libppapi_stub.a(plugin_main_irt_21ce9d26.o)
 .debug_aranges
                0x0000000000000308       0x20 /home/berkeley/nacl_sdk/pepper_42/toolchain/linux_x86_newlib/bin/../lib/gcc/x86_64-nacl/4.4.3/../../../../x86_64-nacl/lib/../lib32/libppapi_stub.a(ppapi_plugin_main_399d0cf7.o)
 .debug_aranges
                0x0000000000000328       0x20 /home/berkeley/nacl_sdk/pepper_42/toolchain/linux_x86_newlib/bin/../lib/gcc/x86_64-nacl/4.4.3/../../../../x86_64-nacl/lib/../lib32/libppapi_stub.a(ppapi_plugin_start_8da67623.o)
 .debug_aranges
                0x0000000000000348       0x20 /home/berkeley/nacl_sdk/pepper_42/toolchain/linux_x86_newlib/bin/../lib/gcc/x86_64-nacl/4.4.3/../../../../x86_64-nacl/lib/../lib32/libppapi_stub.a(thread_creator_ccf263e1.o)
 .debug_aranges
                0x0000000000000368       0x20 /home/berkeley/nacl_sdk/pepper_42/toolchain/linux_x86_newlib/bin/../lib/gcc/x86_64-nacl/4.4.3/../../../../x86_64-nacl/lib/../lib32/libpthread.a(nc_thread_7e478b15.o)
 .debug_aranges
                0x0000000000000388       0x20 /home/berkeley/nacl_sdk/pepper_42/toolchain/linux_x86_newlib/bin/../lib/gcc/x86_64-nacl/4.4.3/../../../../x86_64-nacl/lib/../lib32/libpthread.a(nc_condvar_305aa45a.o)
 .debug_aranges
                0x00000000000003a8       0x20 /home/berkeley/nacl_sdk/pepper_42/toolchain/linux_x86_newlib/bin/../lib/gcc/x86_64-nacl/4.4.3/../../../../x86_64-nacl/lib/../lib32/libpthread.a(dynamic_annotations_33ba59cc.o)
 .debug_aranges
                0x00000000000003c8       0x20 /home/berkeley/nacl_sdk/pepper_42/toolchain/linux_x86_newlib/bin/../lib/gcc/x86_64-nacl/4.4.3/../../../../x86_64-nacl/lib/../lib32/libpthread.a(nc_mutex_86341ae1.o)
 .debug_aranges
                0x00000000000003e8       0x20 /home/berkeley/nacl_sdk/pepper_42/toolchain/linux_x86_newlib/bin/../lib/gcc/x86_64-nacl/4.4.3/../../../../x86_64-nacl/lib/../lib32/libpthread.a(nc_init_irt_d3daafc0.o)
 .debug_aranges
                0x0000000000000408       0x60 /home/berkeley/nacl_sdk/pepper_42/toolchain/linux_x86_newlib/bin/../lib/gcc/x86_64-nacl/4.4.3/../../../../x86_64-nacl/lib/../lib32/libstdc++.a(tree.o)
 .debug_aranges
                0x0000000000000468      0x598 /home/berkeley/nacl_sdk/pepper_42/toolchain/linux_x86_newlib/bin/../lib/gcc/x86_64-nacl/4.4.3/../../../../x86_64-nacl/lib/../lib32/libstdc++.a(string-inst.o)
 .debug_aranges
                0x0000000000000a00       0x58 /home/berkeley/nacl_sdk/pepper_42/toolchain/linux_x86_newlib/bin/../lib/gcc/x86_64-nacl/4.4.3/../../../../x86_64-nacl/lib/../lib32/libstdc++.a(eh_personality.o)
 .debug_aranges
                0x0000000000000a58       0x40 /home/berkeley/nacl_sdk/pepper_42/toolchain/linux_x86_newlib/bin/../lib/gcc/x86_64-nacl/4.4.3/../../../../x86_64-nacl/lib/../lib32/libstdc++.a(eh_globals.o)
 .debug_aranges
                0x0000000000000a98       0x30 /home/berkeley/nacl_sdk/pepper_42/toolchain/linux_x86_newlib/bin/../lib/gcc/x86_64-nacl/4.4.3/../../../../x86_64-nacl/lib/../lib32/libstdc++.a(eh_throw.o)
 .debug_aranges
                0x0000000000000ac8       0x20 /home/berkeley/nacl_sdk/pepper_42/toolchain/linux_x86_newlib/bin/../lib/gcc/x86_64-nacl/4.4.3/../../../../x86_64-nacl/lib/../lib32/libstdc++.a(del_op.o)
 .debug_aranges
                0x0000000000000ae8       0x20 /home/berkeley/nacl_sdk/pepper_42/toolchain/linux_x86_newlib/bin/../lib/gcc/x86_64-nacl/4.4.3/../../../../x86_64-nacl/lib/../lib32/libstdc++.a(eh_call.o)
 .debug_aranges
                0x0000000000000b08       0x88 /home/berkeley/nacl_sdk/pepper_42/toolchain/linux_x86_newlib/bin/../lib/gcc/x86_64-nacl/4.4.3/../../../../x86_64-nacl/lib/../lib32/libstdc++.a(guard.o)
 .debug_aranges
                0x0000000000000b90       0x48 /home/berkeley/nacl_sdk/pepper_42/toolchain/linux_x86_newlib/bin/../lib/gcc/x86_64-nacl/4.4.3/../../../../x86_64-nacl/lib/../lib32/libstdc++.a(si_class_type_info.o)
 .debug_aranges
                0x0000000000000bd8       0x48 /home/berkeley/nacl_sdk/pepper_42/toolchain/linux_x86_newlib/bin/../lib/gcc/x86_64-nacl/4.4.3/../../../../x86_64-nacl/lib/../lib32/libstdc++.a(eh_terminate.o)
 .debug_aranges
                0x0000000000000c20       0x58 /home/berkeley/nacl_sdk/pepper_42/toolchain/linux_x86_newlib/bin/../lib/gcc/x86_64-nacl/4.4.3/../../../../x86_64-nacl/lib/../lib32/libstdc++.a(class_type_info.o)
 .debug_aranges
                0x0000000000000c78       0x78 /home/berkeley/nacl_sdk/pepper_42/toolchain/linux_x86_newlib/bin/../lib/gcc/x86_64-nacl/4.4.3/../../../../x86_64-nacl/lib/../lib32/libstdc++.a(eh_alloc.o)
 .debug_aranges
                0x0000000000000cf0       0x38 /home/berkeley/nacl_sdk/pepper_42/toolchain/linux_x86_newlib/bin/../lib/gcc/x86_64-nacl/4.4.3/../../../../x86_64-nacl/lib/../lib32/libstdc++.a(eh_catch.o)
 .debug_aranges
                0x0000000000000d28       0x88 /home/berkeley/nacl_sdk/pepper_42/toolchain/linux_x86_newlib/bin/../lib/gcc/x86_64-nacl/4.4.3/../../../../x86_64-nacl/lib/../lib32/libstdc++.a(eh_exception.o)
 .debug_aranges
                0x0000000000000db0       0x20 /home/berkeley/nacl_sdk/pepper_42/toolchain/linux_x86_newlib/bin/../lib/gcc/x86_64-nacl/4.4.3/../../../../x86_64-nacl/lib/../lib32/libstdc++.a(pure.o)
 .debug_aranges
                0x0000000000000dd0       0x20 /home/berkeley/nacl_sdk/pepper_42/toolchain/linux_x86_newlib/bin/../lib/gcc/x86_64-nacl/4.4.3/../../../../x86_64-nacl/lib/../lib32/libstdc++.a(new_op.o)
 .debug_aranges
                0x0000000000000df0       0x50 /home/berkeley/nacl_sdk/pepper_42/toolchain/linux_x86_newlib/bin/../lib/gcc/x86_64-nacl/4.4.3/../../../../x86_64-nacl/lib/../lib32/libstdc++.a(tinfo.o)
 .debug_aranges
                0x0000000000000e40      0x100 /home/berkeley/nacl_sdk/pepper_42/toolchain/linux_x86_newlib/bin/../lib/gcc/x86_64-nacl/4.4.3/../../../../x86_64-nacl/lib/../lib32/libstdc++.a(functexcept.o)
 .debug_aranges
                0x0000000000000f40       0x48 /home/berkeley/nacl_sdk/pepper_42/toolchain/linux_x86_newlib/bin/../lib/gcc/x86_64-nacl/4.4.3/../../../../x86_64-nacl/lib/../lib32/libstdc++.a(ios_failure.o)
 .debug_aranges
                0x0000000000000f88      0x158 /home/berkeley/nacl_sdk/pepper_42/toolchain/linux_x86_newlib/bin/../lib/gcc/x86_64-nacl/4.4.3/../../../../x86_64-nacl/lib/../lib32/libstdc++.a(stdexcept.o)
 .debug_aranges
                0x00000000000010e0       0xb8 /home/berkeley/nacl_sdk/pepper_42/toolchain/linux_x86_newlib/bin/../lib/gcc/x86_64-nacl/4.4.3/../../../../x86_64-nacl/lib/../lib32/libstdc++.a(system_error.o)
 .debug_aranges
                0x0000000000001198       0x38 /home/berkeley/nacl_sdk/pepper_42/toolchain/linux_x86_newlib/bin/../lib/gcc/x86_64-nacl/4.4.3/../../../../x86_64-nacl/lib/../lib32/libstdc++.a(bad_typeid.o)
 .debug_aranges
                0x00000000000011d0       0x40 /home/berkeley/nacl_sdk/pepper_42/toolchain/linux_x86_newlib/bin/../lib/gcc/x86_64-nacl/4.4.3/../../../../x86_64-nacl/lib/../lib32/libstdc++.a(new_handler.o)
 .debug_aranges
                0x0000000000001210       0x38 /home/berkeley/nacl_sdk/pepper_42/toolchain/linux_x86_newlib/bin/../lib/gcc/x86_64-nacl/4.4.3/../../../../x86_64-nacl/lib/../lib32/libstdc++.a(bad_cast.o)
 .debug_aranges
                0x0000000000001248       0x20 /home/berkeley/nacl_sdk/pepper_42/toolchain/linux_x86_newlib/bin/../lib/gcc/x86_64-nacl/4.4.3/../../../../x86_64-nacl/lib/../lib32/libstdc++.a(vterminate.o)
 .debug_aranges
                0x0000000000001268       0x20 /home/berkeley/nacl_sdk/pepper_42/toolchain/linux_x86_newlib/bin/../lib/gcc/x86_64-nacl/4.4.3/../../../../x86_64-nacl/lib/../lib32/libstdc++.a(cp-demangle.o)
 .debug_aranges
                0x0000000000001288       0x20 /home/berkeley/nacl_sdk/pepper_42/toolchain/linux_x86_newlib/bin/../lib/gcc/x86_64-nacl/4.4.3/../../../../x86_64-nacl/lib/../lib32/libstdc++.a(eh_type.o)
 .debug_aranges
                0x00000000000012a8       0x20 /home/berkeley/nacl_sdk/pepper_42/toolchain/linux_x86_newlib/bin/../lib/gcc/x86_64-nacl/4.4.3/32/libgcc.a(unwind-dw2.o)
 .debug_aranges
                0x00000000000012c8       0x20 /home/berkeley/nacl_sdk/pepper_42/toolchain/linux_x86_newlib/bin/../lib/gcc/x86_64-nacl/4.4.3/32/libgcc.a(unwind-dw2-fde-glibc.o)
 .debug_aranges
                0x00000000000012e8       0x20 /home/berkeley/nacl_sdk/pepper_42/toolchain/linux_x86_newlib/bin/../lib/gcc/x86_64-nacl/4.4.3/../../../../x86_64-nacl/lib/../lib32/libnacl.a(_exit_710c7d0d.o)
 .debug_aranges
                0x0000000000001308       0x20 /home/berkeley/nacl_sdk/pepper_42/toolchain/linux_x86_newlib/bin/../lib/gcc/x86_64-nacl/4.4.3/../../../../x86_64-nacl/lib/../lib32/libnacl.a(abort_9f6b5845.o)
 .debug_aranges
                0x0000000000001328       0x20 /home/berkeley/nacl_sdk/pepper_42/toolchain/linux_x86_newlib/bin/../lib/gcc/x86_64-nacl/4.4.3/../../../../x86_64-nacl/lib/../lib32/libnacl.a(start_fa9ef7de.o)
 .debug_aranges
                0x0000000000001348       0x20 /home/berkeley/nacl_sdk/pepper_42/toolchain/linux_x86_newlib/bin/../lib/gcc/x86_64-nacl/4.4.3/../../../../x86_64-nacl/lib/../lib32/libnacl.a(malloc_222c4a1e.o)
 .debug_aranges
                0x0000000000001368       0x20 /home/berkeley/nacl_sdk/pepper_42/toolchain/linux_x86_newlib/bin/../lib/gcc/x86_64-nacl/4.4.3/../../../../x86_64-nacl/lib/../lib32/libnacl.a(nacl_irt_6de1d53f.o)
 .debug_aranges
                0x0000000000001388       0x20 /home/berkeley/nacl_sdk/pepper_42/toolchain/linux_x86_newlib/bin/../lib/gcc/x86_64-nacl/4.4.3/../../../../x86_64-nacl/lib/../lib32/libnacl.a(pthread_initialize_minimal_4b6e776b.o)
 .debug_aranges
                0x00000000000013a8       0x20 /home/berkeley/nacl_sdk/pepper_42/toolchain/linux_x86_newlib/bin/../lib/gcc/x86_64-nacl/4.4.3/../../../../x86_64-nacl/lib/../lib32/libnacl.a(nacl_read_tp_5748ac47.o)
 .debug_aranges
                0x00000000000013c8       0x20 /home/berkeley/nacl_sdk/pepper_42/toolchain/linux_x86_newlib/bin/../lib/gcc/x86_64-nacl/4.4.3/../../../../x86_64-nacl/lib/../lib32/libnacl.a(mmap_767fb080.o)
 .debug_aranges
                0x00000000000013e8       0x20 /home/berkeley/nacl_sdk/pepper_42/toolchain/linux_x86_newlib/bin/../lib/gcc/x86_64-nacl/4.4.3/../../../../x86_64-nacl/lib/../lib32/libnacl.a(sched_yield_56c375be.o)
 .debug_aranges
                0x0000000000001408       0x20 /home/berkeley/nacl_sdk/pepper_42/toolchain/linux_x86_newlib/bin/../lib/gcc/x86_64-nacl/4.4.3/../../../../x86_64-nacl/lib/../lib32/libnacl.a(munmap_d4f09867.o)
 .debug_aranges
                0x0000000000001428       0x20 /home/berkeley/nacl_sdk/pepper_42/toolchain/linux_x86_newlib/bin/../lib/gcc/x86_64-nacl/4.4.3/../../../../x86_64-nacl/lib/../lib32/libnacl.a(tls_bba1975b.o)
 .debug_aranges
                0x0000000000001448       0x20 /home/berkeley/nacl_sdk/pepper_42/toolchain/linux_x86_newlib/bin/../lib/gcc/x86_64-nacl/4.4.3/../../../../x86_64-nacl/lib/../lib32/libnacl.a(write_fb49787f.o)
 .debug_aranges
                0x0000000000001468       0x20 /home/berkeley/nacl_sdk/pepper_42/toolchain/linux_x86_newlib/bin/../lib/gcc/x86_64-nacl/4.4.3/../../../../x86_64-nacl/lib/../lib32/libnacl.a(nacl_tls_get_d2f842b5.o)
 .debug_aranges
                0x0000000000001488       0x20 /home/berkeley/nacl_sdk/pepper_42/toolchain/linux_x86_newlib/bin/../lib/gcc/x86_64-nacl/4.4.3/../../../../x86_64-nacl/lib/../lib32/libnacl.a(nacl_irt_init_7b4f826e.o)
 .debug_aranges
                0x00000000000014a8       0x20 /home/berkeley/nacl_sdk/pepper_42/toolchain/linux_x86_newlib/bin/../lib/gcc/x86_64-nacl/4.4.3/../../../../x86_64-nacl/lib/../lib32/libnacl.a(sysconf_ad295ea2.o)
 .debug_aranges
                0x00000000000014c8       0x20 /home/berkeley/nacl_sdk/pepper_42/toolchain/linux_x86_newlib/bin/../lib/gcc/x86_64-nacl/4.4.3/../../../../x86_64-nacl/lib/../lib32/libnacl.a(nacl_tls_init_eb0cd232.o)
 .debug_aranges
                0x00000000000014e8       0x20 /home/berkeley/nacl_sdk/pepper_42/toolchain/linux_x86_newlib/bin/../lib/gcc/x86_64-nacl/4.4.3/../../../../x86_64-nacl/lib/../lib32/libnacl.a(close_e9b92fbd.o)
 .debug_aranges
                0x0000000000001508       0x20 /home/berkeley/nacl_sdk/pepper_42/toolchain/linux_x86_newlib/bin/../lib/gcc/x86_64-nacl/4.4.3/../../../../x86_64-nacl/lib/../lib32/libnacl.a(isatty_02f56e94.o)
 .debug_aranges
                0x0000000000001528       0x20 /home/berkeley/nacl_sdk/pepper_42/toolchain/linux_x86_newlib/bin/../lib/gcc/x86_64-nacl/4.4.3/../../../../x86_64-nacl/lib/../lib32/libnacl.a(nacl_irt_fdio_b571b5e7.o)
 .debug_aranges
                0x0000000000001548       0x20 /home/berkeley/nacl_sdk/pepper_42/toolchain/linux_x86_newlib/bin/../lib/gcc/x86_64-nacl/4.4.3/../../../../x86_64-nacl/lib/../lib32/libnacl.a(fstat_0540ff63.o)
 .debug_aranges
                0x0000000000001568       0x20 /home/berkeley/nacl_sdk/pepper_42/toolchain/linux_x86_newlib/bin/../lib/gcc/x86_64-nacl/4.4.3/../../../../x86_64-nacl/lib/../lib32/libnacl.a(lseek_64d2d05c.o)
 .debug_aranges
                0x0000000000001588       0x20 /home/berkeley/nacl_sdk/pepper_42/toolchain/linux_x86_newlib/bin/../lib/gcc/x86_64-nacl/4.4.3/../../../../x86_64-nacl/lib/../lib32/libnacl.a(read_df872e10.o)
 .debug_aranges
                0x00000000000015a8       0x20 /home/berkeley/nacl_sdk/pepper_42/toolchain/linux_x86_newlib/bin/../lib/gcc/x86_64-nacl/4.4.3/32/libgcc.a(_udivdi3.o)
 .debug_aranges
                0x00000000000015c8       0x20 /home/berkeley/nacl_sdk/pepper_42/toolchain/linux_x86_newlib/bin/../lib/gcc/x86_64-nacl/4.4.3/32/libgcc.a(_umoddi3.o)

.debug_pubnames
                0x0000000000000000     0xa547
 *(.debug_pubnames)
 .debug_pubnames
                0x0000000000000000      0x144 newlib/Release/popcnt_x86_32.o
 .debug_pubnames
                0x0000000000000144      0xbd2 /home/berkeley/nacl_sdk/pepper_42/lib/newlib_x86_32/Release/libppapi_cpp.a(instance_x86_32.o)
 .debug_pubnames
                0x0000000000000d16      0xdf5 /home/berkeley/nacl_sdk/pepper_42/lib/newlib_x86_32/Release/libppapi_cpp.a(module_x86_32.o)
 .debug_pubnames
                0x0000000000001b0b       0x8d /home/berkeley/nacl_sdk/pepper_42/lib/newlib_x86_32/Release/libppapi_cpp.a(ppp_entrypoints_x86_32.o)
 .debug_pubnames
                0x0000000000001b98      0x1b4 /home/berkeley/nacl_sdk/pepper_42/lib/newlib_x86_32/Release/libppapi_cpp.a(resource_x86_32.o)
 .debug_pubnames
                0x0000000000001d4c      0x25f /home/berkeley/nacl_sdk/pepper_42/lib/newlib_x86_32/Release/libppapi_cpp.a(url_loader_x86_32.o)
 .debug_pubnames
                0x0000000000001fab      0x18d /home/berkeley/nacl_sdk/pepper_42/lib/newlib_x86_32/Release/libppapi_cpp.a(url_response_info_x86_32.o)
 .debug_pubnames
                0x0000000000002138      0x24f /home/berkeley/nacl_sdk/pepper_42/lib/newlib_x86_32/Release/libppapi_cpp.a(var_x86_32.o)
 .debug_pubnames
                0x0000000000002387      0x15a /home/berkeley/nacl_sdk/pepper_42/lib/newlib_x86_32/Release/libppapi_cpp.a(view_x86_32.o)
 .debug_pubnames
                0x00000000000024e1       0x4c /home/berkeley/nacl_sdk/pepper_42/lib/newlib_x86_32/Release/libppapi_cpp.a(core_x86_32.o)
 .debug_pubnames
                0x000000000000252d      0x246 /home/berkeley/nacl_sdk/pepper_42/lib/newlib_x86_32/Release/libppapi_cpp.a(file_ref_x86_32.o)
 .debug_pubnames
                0x0000000000002773      0xafd /home/berkeley/nacl_sdk/pepper_42/lib/newlib_x86_32/Release/libppapi_cpp.a(input_event_x86_32.o)
 .debug_pubnames
                0x0000000000003270       0x1b /home/berkeley/nacl_sdk/pepper_42/toolchain/linux_x86_newlib/bin/../lib/gcc/x86_64-nacl/4.4.3/../../../../x86_64-nacl/lib/../lib32/libppapi_stub.a(plugin_main_irt_21ce9d26.o)
 .debug_pubnames
                0x000000000000328b       0x26 /home/berkeley/nacl_sdk/pepper_42/toolchain/linux_x86_newlib/bin/../lib/gcc/x86_64-nacl/4.4.3/../../../../x86_64-nacl/lib/../lib32/libppapi_stub.a(ppapi_plugin_main_399d0cf7.o)
 .debug_pubnames
                0x00000000000032b1       0x27 /home/berkeley/nacl_sdk/pepper_42/toolchain/linux_x86_newlib/bin/../lib/gcc/x86_64-nacl/4.4.3/../../../../x86_64-nacl/lib/../lib32/libppapi_stub.a(ppapi_plugin_start_8da67623.o)
 .debug_pubnames
                0x00000000000032d8       0x35 /home/berkeley/nacl_sdk/pepper_42/toolchain/linux_x86_newlib/bin/../lib/gcc/x86_64-nacl/4.4.3/../../../../x86_64-nacl/lib/../lib32/libppapi_stub.a(thread_creator_ccf263e1.o)
 .debug_pubnames
                0x000000000000330d      0x473 /home/berkeley/nacl_sdk/pepper_42/toolchain/linux_x86_newlib/bin/../lib/gcc/x86_64-nacl/4.4.3/../../../../x86_64-nacl/lib/../lib32/libpthread.a(nc_thread_7e478b15.o)
 .debug_pubnames
                0x0000000000003780       0xa9 /home/berkeley/nacl_sdk/pepper_42/toolchain/linux_x86_newlib/bin/../lib/gcc/x86_64-nacl/4.4.3/../../../../x86_64-nacl/lib/../lib32/libpthread.a(nc_condvar_305aa45a.o)
 .debug_pubnames
                0x0000000000003829      0x4a6 /home/berkeley/nacl_sdk/pepper_42/toolchain/linux_x86_newlib/bin/../lib/gcc/x86_64-nacl/4.4.3/../../../../x86_64-nacl/lib/../lib32/libpthread.a(dynamic_annotations_33ba59cc.o)
 .debug_pubnames
                0x0000000000003ccf      0x12f /home/berkeley/nacl_sdk/pepper_42/toolchain/linux_x86_newlib/bin/../lib/gcc/x86_64-nacl/4.4.3/../../../../x86_64-nacl/lib/../lib32/libpthread.a(nc_mutex_86341ae1.o)
 .debug_pubnames
                0x0000000000003dfe       0x49 /home/berkeley/nacl_sdk/pepper_42/toolchain/linux_x86_newlib/bin/../lib/gcc/x86_64-nacl/4.4.3/../../../../x86_64-nacl/lib/../lib32/libpthread.a(nc_init_irt_d3daafc0.o)
 .debug_pubnames
                0x0000000000003e47      0x12a /home/berkeley/nacl_sdk/pepper_42/toolchain/linux_x86_newlib/bin/../lib/gcc/x86_64-nacl/4.4.3/../../../../x86_64-nacl/lib/../lib32/libstdc++.a(tree.o)
 .debug_pubnames
                0x0000000000003f71     0x3ea9 /home/berkeley/nacl_sdk/pepper_42/toolchain/linux_x86_newlib/bin/../lib/gcc/x86_64-nacl/4.4.3/../../../../x86_64-nacl/lib/../lib32/libstdc++.a(string-inst.o)
 .debug_pubnames
                0x0000000000007e1a       0x5d /home/berkeley/nacl_sdk/pepper_42/toolchain/linux_x86_newlib/bin/../lib/gcc/x86_64-nacl/4.4.3/../../../../x86_64-nacl/lib/../lib32/libstdc++.a(eh_personality.o)
 .debug_pubnames
                0x0000000000007e77       0x85 /home/berkeley/nacl_sdk/pepper_42/toolchain/linux_x86_newlib/bin/../lib/gcc/x86_64-nacl/4.4.3/../../../../x86_64-nacl/lib/../lib32/libstdc++.a(eh_globals.o)
 .debug_pubnames
                0x0000000000007efc       0x4c /home/berkeley/nacl_sdk/pepper_42/toolchain/linux_x86_newlib/bin/../lib/gcc/x86_64-nacl/4.4.3/../../../../x86_64-nacl/lib/../lib32/libstdc++.a(eh_throw.o)
 .debug_pubnames
                0x0000000000007f48       0x26 /home/berkeley/nacl_sdk/pepper_42/toolchain/linux_x86_newlib/bin/../lib/gcc/x86_64-nacl/4.4.3/../../../../x86_64-nacl/lib/../lib32/libstdc++.a(del_op.o)
 .debug_pubnames
                0x0000000000007f6e       0x2b /home/berkeley/nacl_sdk/pepper_42/toolchain/linux_x86_newlib/bin/../lib/gcc/x86_64-nacl/4.4.3/../../../../x86_64-nacl/lib/../lib32/libstdc++.a(eh_call.o)
 .debug_pubnames
                0x0000000000007f99      0x29f /home/berkeley/nacl_sdk/pepper_42/toolchain/linux_x86_newlib/bin/../lib/gcc/x86_64-nacl/4.4.3/../../../../x86_64-nacl/lib/../lib32/libstdc++.a(guard.o)
 .debug_pubnames
                0x0000000000008238      0x166 /home/berkeley/nacl_sdk/pepper_42/toolchain/linux_x86_newlib/bin/../lib/gcc/x86_64-nacl/4.4.3/../../../../x86_64-nacl/lib/../lib32/libstdc++.a(si_class_type_info.o)
 .debug_pubnames
                0x000000000000839e       0xa1 /home/berkeley/nacl_sdk/pepper_42/toolchain/linux_x86_newlib/bin/../lib/gcc/x86_64-nacl/4.4.3/../../../../x86_64-nacl/lib/../lib32/libstdc++.a(eh_terminate.o)
 .debug_pubnames
                0x000000000000843f      0x1a8 /home/berkeley/nacl_sdk/pepper_42/toolchain/linux_x86_newlib/bin/../lib/gcc/x86_64-nacl/4.4.3/../../../../x86_64-nacl/lib/../lib32/libstdc++.a(class_type_info.o)
 .debug_pubnames
                0x00000000000085e7      0x261 /home/berkeley/nacl_sdk/pepper_42/toolchain/linux_x86_newlib/bin/../lib/gcc/x86_64-nacl/4.4.3/../../../../x86_64-nacl/lib/../lib32/libstdc++.a(eh_alloc.o)
 .debug_pubnames
                0x0000000000008848       0x98 /home/berkeley/nacl_sdk/pepper_42/toolchain/linux_x86_newlib/bin/../lib/gcc/x86_64-nacl/4.4.3/../../../../x86_64-nacl/lib/../lib32/libstdc++.a(eh_catch.o)
 .debug_pubnames
                0x00000000000088e0      0x25e /home/berkeley/nacl_sdk/pepper_42/toolchain/linux_x86_newlib/bin/../lib/gcc/x86_64-nacl/4.4.3/../../../../x86_64-nacl/lib/../lib32/libstdc++.a(eh_exception.o)
 .debug_pubnames
                0x0000000000008b3e       0x35 /home/berkeley/nacl_sdk/pepper_42/toolchain/linux_x86_newlib/bin/../lib/gcc/x86_64-nacl/4.4.3/../../../../x86_64-nacl/lib/../lib32/libstdc++.a(pure.o)
 .debug_pubnames
                0x0000000000008b73       0x23 /home/berkeley/nacl_sdk/pepper_42/toolchain/linux_x86_newlib/bin/../lib/gcc/x86_64-nacl/4.4.3/../../../../x86_64-nacl/lib/../lib32/libstdc++.a(new_op.o)
 .debug_pubnames
                0x0000000000008b96       0xf5 /home/berkeley/nacl_sdk/pepper_42/toolchain/linux_x86_newlib/bin/../lib/gcc/x86_64-nacl/4.4.3/../../../../x86_64-nacl/lib/../lib32/libstdc++.a(tinfo.o)
 .debug_pubnames
                0x0000000000008c8b      0x3f9 /home/berkeley/nacl_sdk/pepper_42/toolchain/linux_x86_newlib/bin/../lib/gcc/x86_64-nacl/4.4.3/../../../../x86_64-nacl/lib/../lib32/libstdc++.a(functexcept.o)
 .debug_pubnames
                0x0000000000009084       0xea /home/berkeley/nacl_sdk/pepper_42/toolchain/linux_x86_newlib/bin/../lib/gcc/x86_64-nacl/4.4.3/../../../../x86_64-nacl/lib/../lib32/libstdc++.a(ios_failure.o)
 .debug_pubnames
                0x000000000000916e      0x5f6 /home/berkeley/nacl_sdk/pepper_42/toolchain/linux_x86_newlib/bin/../lib/gcc/x86_64-nacl/4.4.3/../../../../x86_64-nacl/lib/../lib32/libstdc++.a(stdexcept.o)
 .debug_pubnames
                0x0000000000009764      0x1ac /home/berkeley/nacl_sdk/pepper_42/toolchain/linux_x86_newlib/bin/../lib/gcc/x86_64-nacl/4.4.3/../../../../x86_64-nacl/lib/../lib32/libstdc++.a(system_error.o)
 .debug_pubnames
                0x0000000000009910       0x37 /home/berkeley/nacl_sdk/pepper_42/toolchain/linux_x86_newlib/bin/../lib/gcc/x86_64-nacl/4.4.3/../../../../x86_64-nacl/lib/../lib32/libstdc++.a(eh_unex_handler.o)
 .debug_pubnames
                0x0000000000009947       0x36 /home/berkeley/nacl_sdk/pepper_42/toolchain/linux_x86_newlib/bin/../lib/gcc/x86_64-nacl/4.4.3/../../../../x86_64-nacl/lib/../lib32/libstdc++.a(eh_term_handler.o)
 .debug_pubnames
                0x000000000000997d       0x8f /home/berkeley/nacl_sdk/pepper_42/toolchain/linux_x86_newlib/bin/../lib/gcc/x86_64-nacl/4.4.3/../../../../x86_64-nacl/lib/../lib32/libstdc++.a(bad_typeid.o)
 .debug_pubnames
                0x0000000000009a0c       0xc4 /home/berkeley/nacl_sdk/pepper_42/toolchain/linux_x86_newlib/bin/../lib/gcc/x86_64-nacl/4.4.3/../../../../x86_64-nacl/lib/../lib32/libstdc++.a(new_handler.o)
 .debug_pubnames
                0x0000000000009ad0       0x81 /home/berkeley/nacl_sdk/pepper_42/toolchain/linux_x86_newlib/bin/../lib/gcc/x86_64-nacl/4.4.3/../../../../x86_64-nacl/lib/../lib32/libstdc++.a(bad_cast.o)
 .debug_pubnames
                0x0000000000009b51       0x3d /home/berkeley/nacl_sdk/pepper_42/toolchain/linux_x86_newlib/bin/../lib/gcc/x86_64-nacl/4.4.3/../../../../x86_64-nacl/lib/../lib32/libstdc++.a(vterminate.o)
 .debug_pubnames
                0x0000000000009b8e       0x47 /home/berkeley/nacl_sdk/pepper_42/toolchain/linux_x86_newlib/bin/../lib/gcc/x86_64-nacl/4.4.3/../../../../x86_64-nacl/lib/../lib32/libstdc++.a(cp-demangle.o)
 .debug_pubnames
                0x0000000000009bd5       0x3f /home/berkeley/nacl_sdk/pepper_42/toolchain/linux_x86_newlib/bin/../lib/gcc/x86_64-nacl/4.4.3/../../../../x86_64-nacl/lib/../lib32/libstdc++.a(eh_type.o)
 .debug_pubnames
                0x0000000000009c14      0x1c7 /home/berkeley/nacl_sdk/pepper_42/toolchain/linux_x86_newlib/bin/../lib/gcc/x86_64-nacl/4.4.3/32/libgcc.a(unwind-dw2.o)
 .debug_pubnames
                0x0000000000009ddb      0x12c /home/berkeley/nacl_sdk/pepper_42/toolchain/linux_x86_newlib/bin/../lib/gcc/x86_64-nacl/4.4.3/32/libgcc.a(unwind-dw2-fde-glibc.o)
 .debug_pubnames
                0x0000000000009f07       0x1c /home/berkeley/nacl_sdk/pepper_42/toolchain/linux_x86_newlib/bin/../lib/gcc/x86_64-nacl/4.4.3/../../../../x86_64-nacl/lib/../lib32/libnacl.a(_exit_710c7d0d.o)
 .debug_pubnames
                0x0000000000009f23       0x1c /home/berkeley/nacl_sdk/pepper_42/toolchain/linux_x86_newlib/bin/../lib/gcc/x86_64-nacl/4.4.3/../../../../x86_64-nacl/lib/../lib32/libnacl.a(abort_9f6b5845.o)
 .debug_pubnames
                0x0000000000009f3f       0x1e /home/berkeley/nacl_sdk/pepper_42/toolchain/linux_x86_newlib/bin/../lib/gcc/x86_64-nacl/4.4.3/../../../../x86_64-nacl/lib/../lib32/libnacl.a(environ_25cd24d8.o)
 .debug_pubnames
                0x0000000000009f5d       0x41 /home/berkeley/nacl_sdk/pepper_42/toolchain/linux_x86_newlib/bin/../lib/gcc/x86_64-nacl/4.4.3/../../../../x86_64-nacl/lib/../lib32/libnacl.a(start_fa9ef7de.o)
 .debug_pubnames
                0x0000000000009f9e      0x1b7 /home/berkeley/nacl_sdk/pepper_42/toolchain/linux_x86_newlib/bin/../lib/gcc/x86_64-nacl/4.4.3/../../../../x86_64-nacl/lib/../lib32/libnacl.a(malloc_222c4a1e.o)
 .debug_pubnames
                0x000000000000a155      0x148 /home/berkeley/nacl_sdk/pepper_42/toolchain/linux_x86_newlib/bin/../lib/gcc/x86_64-nacl/4.4.3/../../../../x86_64-nacl/lib/../lib32/libnacl.a(nacl_irt_6de1d53f.o)
 .debug_pubnames
                0x000000000000a29d       0x33 /home/berkeley/nacl_sdk/pepper_42/toolchain/linux_x86_newlib/bin/../lib/gcc/x86_64-nacl/4.4.3/../../../../x86_64-nacl/lib/../lib32/libnacl.a(pthread_initialize_minimal_4b6e776b.o)
 .debug_pubnames
                0x000000000000a2d0       0x25 /home/berkeley/nacl_sdk/pepper_42/toolchain/linux_x86_newlib/bin/../lib/gcc/x86_64-nacl/4.4.3/../../../../x86_64-nacl/lib/../lib32/libnacl.a(nacl_read_tp_5748ac47.o)
 .debug_pubnames
                0x000000000000a2f5       0x1b /home/berkeley/nacl_sdk/pepper_42/toolchain/linux_x86_newlib/bin/../lib/gcc/x86_64-nacl/4.4.3/../../../../x86_64-nacl/lib/../lib32/libnacl.a(mmap_767fb080.o)
 .debug_pubnames
                0x000000000000a310       0x22 /home/berkeley/nacl_sdk/pepper_42/toolchain/linux_x86_newlib/bin/../lib/gcc/x86_64-nacl/4.4.3/../../../../x86_64-nacl/lib/../lib32/libnacl.a(sched_yield_56c375be.o)
 .debug_pubnames
                0x000000000000a332       0x1d /home/berkeley/nacl_sdk/pepper_42/toolchain/linux_x86_newlib/bin/../lib/gcc/x86_64-nacl/4.4.3/../../../../x86_64-nacl/lib/../lib32/libnacl.a(munmap_d4f09867.o)
 .debug_pubnames
                0x000000000000a34f       0x50 /home/berkeley/nacl_sdk/pepper_42/toolchain/linux_x86_newlib/bin/../lib/gcc/x86_64-nacl/4.4.3/../../../../x86_64-nacl/lib/../lib32/libnacl.a(tls_bba1975b.o)
 .debug_pubnames
                0x000000000000a39f       0x1c /home/berkeley/nacl_sdk/pepper_42/toolchain/linux_x86_newlib/bin/../lib/gcc/x86_64-nacl/4.4.3/../../../../x86_64-nacl/lib/../lib32/libnacl.a(write_fb49787f.o)
 .debug_pubnames
                0x000000000000a3bb       0x23 /home/berkeley/nacl_sdk/pepper_42/toolchain/linux_x86_newlib/bin/../lib/gcc/x86_64-nacl/4.4.3/../../../../x86_64-nacl/lib/../lib32/libnacl.a(nacl_tls_get_d2f842b5.o)
 .debug_pubnames
                0x000000000000a3de       0x29 /home/berkeley/nacl_sdk/pepper_42/toolchain/linux_x86_newlib/bin/../lib/gcc/x86_64-nacl/4.4.3/../../../../x86_64-nacl/lib/../lib32/libnacl.a(nacl_irt_init_7b4f826e.o)
 .debug_pubnames
                0x000000000000a407       0x1e /home/berkeley/nacl_sdk/pepper_42/toolchain/linux_x86_newlib/bin/../lib/gcc/x86_64-nacl/4.4.3/../../../../x86_64-nacl/lib/../lib32/libnacl.a(sysconf_ad295ea2.o)
 .debug_pubnames
                0x000000000000a425       0x24 /home/berkeley/nacl_sdk/pepper_42/toolchain/linux_x86_newlib/bin/../lib/gcc/x86_64-nacl/4.4.3/../../../../x86_64-nacl/lib/../lib32/libnacl.a(nacl_tls_init_eb0cd232.o)
 .debug_pubnames
                0x000000000000a449       0x1c /home/berkeley/nacl_sdk/pepper_42/toolchain/linux_x86_newlib/bin/../lib/gcc/x86_64-nacl/4.4.3/../../../../x86_64-nacl/lib/../lib32/libnacl.a(close_e9b92fbd.o)
 .debug_pubnames
                0x000000000000a465       0x1d /home/berkeley/nacl_sdk/pepper_42/toolchain/linux_x86_newlib/bin/../lib/gcc/x86_64-nacl/4.4.3/../../../../x86_64-nacl/lib/../lib32/libnacl.a(isatty_02f56e94.o)
 .debug_pubnames
                0x000000000000a482       0x32 /home/berkeley/nacl_sdk/pepper_42/toolchain/linux_x86_newlib/bin/../lib/gcc/x86_64-nacl/4.4.3/../../../../x86_64-nacl/lib/../lib32/libnacl.a(nacl_irt_fdio_b571b5e7.o)
 .debug_pubnames
                0x000000000000a4b4       0x1c /home/berkeley/nacl_sdk/pepper_42/toolchain/linux_x86_newlib/bin/../lib/gcc/x86_64-nacl/4.4.3/../../../../x86_64-nacl/lib/../lib32/libnacl.a(fstat_0540ff63.o)
 .debug_pubnames
                0x000000000000a4d0       0x1c /home/berkeley/nacl_sdk/pepper_42/toolchain/linux_x86_newlib/bin/../lib/gcc/x86_64-nacl/4.4.3/../../../../x86_64-nacl/lib/../lib32/libnacl.a(lseek_64d2d05c.o)
 .debug_pubnames
                0x000000000000a4ec       0x1b /home/berkeley/nacl_sdk/pepper_42/toolchain/linux_x86_newlib/bin/../lib/gcc/x86_64-nacl/4.4.3/../../../../x86_64-nacl/lib/../lib32/libnacl.a(read_df872e10.o)
 .debug_pubnames
                0x000000000000a507       0x20 /home/berkeley/nacl_sdk/pepper_42/toolchain/linux_x86_newlib/bin/../lib/gcc/x86_64-nacl/4.4.3/32/libgcc.a(_udivdi3.o)
 .debug_pubnames
                0x000000000000a527       0x20 /home/berkeley/nacl_sdk/pepper_42/toolchain/linux_x86_newlib/bin/../lib/gcc/x86_64-nacl/4.4.3/32/libgcc.a(_umoddi3.o)

.debug_info     0x0000000000000000    0x710e9
 *(.debug_info .gnu.linkonce.wi.*)
 .debug_info    0x0000000000000000     0x1ab1 newlib/Release/popcnt_x86_32.o
 .debug_info    0x0000000000001ab1     0x95b5 /home/berkeley/nacl_sdk/pepper_42/lib/newlib_x86_32/Release/libppapi_cpp.a(instance_x86_32.o)
 .debug_info    0x000000000000b066     0xb6d3 /home/berkeley/nacl_sdk/pepper_42/lib/newlib_x86_32/Release/libppapi_cpp.a(module_x86_32.o)
 .debug_info    0x0000000000016739     0x180d /home/berkeley/nacl_sdk/pepper_42/lib/newlib_x86_32/Release/libppapi_cpp.a(ppp_entrypoints_x86_32.o)
 .debug_info    0x0000000000017f46     0x22bc /home/berkeley/nacl_sdk/pepper_42/lib/newlib_x86_32/Release/libppapi_cpp.a(resource_x86_32.o)
 .debug_info    0x000000000001a202     0x3093 /home/berkeley/nacl_sdk/pepper_42/lib/newlib_x86_32/Release/libppapi_cpp.a(url_loader_x86_32.o)
 .debug_info    0x000000000001d295     0x1fc0 /home/berkeley/nacl_sdk/pepper_42/lib/newlib_x86_32/Release/libppapi_cpp.a(url_response_info_x86_32.o)
 .debug_info    0x000000000001f255     0x50c6 /home/berkeley/nacl_sdk/pepper_42/lib/newlib_x86_32/Release/libppapi_cpp.a(var_x86_32.o)
 .debug_info    0x000000000002431b     0x30ad /home/berkeley/nacl_sdk/pepper_42/lib/newlib_x86_32/Release/libppapi_cpp.a(view_x86_32.o)
 .debug_info    0x00000000000273c8     0x1a63 /home/berkeley/nacl_sdk/pepper_42/lib/newlib_x86_32/Release/libppapi_cpp.a(core_x86_32.o)
 .debug_info    0x0000000000028e2b     0x4694 /home/berkeley/nacl_sdk/pepper_42/lib/newlib_x86_32/Release/libppapi_cpp.a(file_ref_x86_32.o)
 .debug_info    0x000000000002d4bf     0x66db /home/berkeley/nacl_sdk/pepper_42/lib/newlib_x86_32/Release/libppapi_cpp.a(input_event_x86_32.o)
 .debug_info    0x0000000000033b9a       0x8f /home/berkeley/nacl_sdk/pepper_42/toolchain/linux_x86_newlib/bin/../lib/gcc/x86_64-nacl/4.4.3/../../../../x86_64-nacl/lib/../lib32/libppapi_stub.a(plugin_main_irt_21ce9d26.o)
 .debug_info    0x0000000000033c29      0x150 /home/berkeley/nacl_sdk/pepper_42/toolchain/linux_x86_newlib/bin/../lib/gcc/x86_64-nacl/4.4.3/../../../../x86_64-nacl/lib/../lib32/libppapi_stub.a(ppapi_plugin_main_399d0cf7.o)
 .debug_info    0x0000000000033d79      0x3ea /home/berkeley/nacl_sdk/pepper_42/toolchain/linux_x86_newlib/bin/../lib/gcc/x86_64-nacl/4.4.3/../../../../x86_64-nacl/lib/../lib32/libppapi_stub.a(ppapi_plugin_start_8da67623.o)
 .debug_info    0x0000000000034163      0x2e2 /home/berkeley/nacl_sdk/pepper_42/toolchain/linux_x86_newlib/bin/../lib/gcc/x86_64-nacl/4.4.3/../../../../x86_64-nacl/lib/../lib32/libppapi_stub.a(thread_creator_ccf263e1.o)
 .debug_info    0x0000000000034445     0x1403 /home/berkeley/nacl_sdk/pepper_42/toolchain/linux_x86_newlib/bin/../lib/gcc/x86_64-nacl/4.4.3/../../../../x86_64-nacl/lib/../lib32/libpthread.a(nc_thread_7e478b15.o)
 .debug_info    0x0000000000035848      0x5c5 /home/berkeley/nacl_sdk/pepper_42/toolchain/linux_x86_newlib/bin/../lib/gcc/x86_64-nacl/4.4.3/../../../../x86_64-nacl/lib/../lib32/libpthread.a(nc_condvar_305aa45a.o)
 .debug_info    0x0000000000035e0d      0xaf8 /home/berkeley/nacl_sdk/pepper_42/toolchain/linux_x86_newlib/bin/../lib/gcc/x86_64-nacl/4.4.3/../../../../x86_64-nacl/lib/../lib32/libpthread.a(dynamic_annotations_33ba59cc.o)
 .debug_info    0x0000000000036905      0x7f2 /home/berkeley/nacl_sdk/pepper_42/toolchain/linux_x86_newlib/bin/../lib/gcc/x86_64-nacl/4.4.3/../../../../x86_64-nacl/lib/../lib32/libpthread.a(nc_mutex_86341ae1.o)
 .debug_info    0x00000000000370f7      0x234 /home/berkeley/nacl_sdk/pepper_42/toolchain/linux_x86_newlib/bin/../lib/gcc/x86_64-nacl/4.4.3/../../../../x86_64-nacl/lib/../lib32/libpthread.a(nc_init_irt_d3daafc0.o)
 .debug_info    0x000000000003732b      0x951 /home/berkeley/nacl_sdk/pepper_42/toolchain/linux_x86_newlib/bin/../lib/gcc/x86_64-nacl/4.4.3/../../../../x86_64-nacl/lib/../lib32/libstdc++.a(tree.o)
 .debug_info    0x0000000000037c7c     0xc735 /home/berkeley/nacl_sdk/pepper_42/toolchain/linux_x86_newlib/bin/../lib/gcc/x86_64-nacl/4.4.3/../../../../x86_64-nacl/lib/../lib32/libstdc++.a(string-inst.o)
 .debug_info    0x00000000000443b1     0x16c7 /home/berkeley/nacl_sdk/pepper_42/toolchain/linux_x86_newlib/bin/../lib/gcc/x86_64-nacl/4.4.3/../../../../x86_64-nacl/lib/../lib32/libstdc++.a(eh_personality.o)
 .debug_info    0x0000000000045a78      0x9fd /home/berkeley/nacl_sdk/pepper_42/toolchain/linux_x86_newlib/bin/../lib/gcc/x86_64-nacl/4.4.3/../../../../x86_64-nacl/lib/../lib32/libstdc++.a(eh_globals.o)
 .debug_info    0x0000000000046475      0x51e /home/berkeley/nacl_sdk/pepper_42/toolchain/linux_x86_newlib/bin/../lib/gcc/x86_64-nacl/4.4.3/../../../../x86_64-nacl/lib/../lib32/libstdc++.a(eh_throw.o)
 .debug_info    0x0000000000046993      0x44c /home/berkeley/nacl_sdk/pepper_42/toolchain/linux_x86_newlib/bin/../lib/gcc/x86_64-nacl/4.4.3/../../../../x86_64-nacl/lib/../lib32/libstdc++.a(del_op.o)
 .debug_info    0x0000000000046ddf      0x6ea /home/berkeley/nacl_sdk/pepper_42/toolchain/linux_x86_newlib/bin/../lib/gcc/x86_64-nacl/4.4.3/../../../../x86_64-nacl/lib/../lib32/libstdc++.a(eh_call.o)
 .debug_info    0x00000000000474c9      0xe59 /home/berkeley/nacl_sdk/pepper_42/toolchain/linux_x86_newlib/bin/../lib/gcc/x86_64-nacl/4.4.3/../../../../x86_64-nacl/lib/../lib32/libstdc++.a(guard.o)
 .debug_info    0x0000000000048322      0x699 /home/berkeley/nacl_sdk/pepper_42/toolchain/linux_x86_newlib/bin/../lib/gcc/x86_64-nacl/4.4.3/../../../../x86_64-nacl/lib/../lib32/libstdc++.a(si_class_type_info.o)
 .debug_info    0x00000000000489bb      0x640 /home/berkeley/nacl_sdk/pepper_42/toolchain/linux_x86_newlib/bin/../lib/gcc/x86_64-nacl/4.4.3/../../../../x86_64-nacl/lib/../lib32/libstdc++.a(eh_terminate.o)
 .debug_info    0x0000000000048ffb      0x7bf /home/berkeley/nacl_sdk/pepper_42/toolchain/linux_x86_newlib/bin/../lib/gcc/x86_64-nacl/4.4.3/../../../../x86_64-nacl/lib/../lib32/libstdc++.a(class_type_info.o)
 .debug_info    0x00000000000497ba     0x14f0 /home/berkeley/nacl_sdk/pepper_42/toolchain/linux_x86_newlib/bin/../lib/gcc/x86_64-nacl/4.4.3/../../../../x86_64-nacl/lib/../lib32/libstdc++.a(eh_alloc.o)
 .debug_info    0x000000000004acaa      0x8be /home/berkeley/nacl_sdk/pepper_42/toolchain/linux_x86_newlib/bin/../lib/gcc/x86_64-nacl/4.4.3/../../../../x86_64-nacl/lib/../lib32/libstdc++.a(eh_catch.o)
 .debug_info    0x000000000004b568      0x528 /home/berkeley/nacl_sdk/pepper_42/toolchain/linux_x86_newlib/bin/../lib/gcc/x86_64-nacl/4.4.3/../../../../x86_64-nacl/lib/../lib32/libstdc++.a(eh_exception.o)
 .debug_info    0x000000000004ba90      0x127 /home/berkeley/nacl_sdk/pepper_42/toolchain/linux_x86_newlib/bin/../lib/gcc/x86_64-nacl/4.4.3/../../../../x86_64-nacl/lib/../lib32/libstdc++.a(pure.o)
 .debug_info    0x000000000004bbb7      0x528 /home/berkeley/nacl_sdk/pepper_42/toolchain/linux_x86_newlib/bin/../lib/gcc/x86_64-nacl/4.4.3/../../../../x86_64-nacl/lib/../lib32/libstdc++.a(new_op.o)
 .debug_info    0x000000000004c0df      0x46e /home/berkeley/nacl_sdk/pepper_42/toolchain/linux_x86_newlib/bin/../lib/gcc/x86_64-nacl/4.4.3/../../../../x86_64-nacl/lib/../lib32/libstdc++.a(tinfo.o)
 .debug_info    0x000000000004c54d     0x5b49 /home/berkeley/nacl_sdk/pepper_42/toolchain/linux_x86_newlib/bin/../lib/gcc/x86_64-nacl/4.4.3/../../../../x86_64-nacl/lib/../lib32/libstdc++.a(functexcept.o)
 .debug_info    0x0000000000052096     0x4176 /home/berkeley/nacl_sdk/pepper_42/toolchain/linux_x86_newlib/bin/../lib/gcc/x86_64-nacl/4.4.3/../../../../x86_64-nacl/lib/../lib32/libstdc++.a(ios_failure.o)
 .debug_info    0x000000000005620c     0x40de /home/berkeley/nacl_sdk/pepper_42/toolchain/linux_x86_newlib/bin/../lib/gcc/x86_64-nacl/4.4.3/../../../../x86_64-nacl/lib/../lib32/libstdc++.a(stdexcept.o)
 .debug_info    0x000000000005a2ea     0x4179 /home/berkeley/nacl_sdk/pepper_42/toolchain/linux_x86_newlib/bin/../lib/gcc/x86_64-nacl/4.4.3/../../../../x86_64-nacl/lib/../lib32/libstdc++.a(system_error.o)
 .debug_info    0x000000000005e463       0xfe /home/berkeley/nacl_sdk/pepper_42/toolchain/linux_x86_newlib/bin/../lib/gcc/x86_64-nacl/4.4.3/../../../../x86_64-nacl/lib/../lib32/libstdc++.a(eh_unex_handler.o)
 .debug_info    0x000000000005e561       0xfe /home/berkeley/nacl_sdk/pepper_42/toolchain/linux_x86_newlib/bin/../lib/gcc/x86_64-nacl/4.4.3/../../../../x86_64-nacl/lib/../lib32/libstdc++.a(eh_term_handler.o)
 .debug_info    0x000000000005e65f      0x180 /home/berkeley/nacl_sdk/pepper_42/toolchain/linux_x86_newlib/bin/../lib/gcc/x86_64-nacl/4.4.3/../../../../x86_64-nacl/lib/../lib32/libstdc++.a(bad_typeid.o)
 .debug_info    0x000000000005e7df      0x24f /home/berkeley/nacl_sdk/pepper_42/toolchain/linux_x86_newlib/bin/../lib/gcc/x86_64-nacl/4.4.3/../../../../x86_64-nacl/lib/../lib32/libstdc++.a(new_handler.o)
 .debug_info    0x000000000005ea2e      0x180 /home/berkeley/nacl_sdk/pepper_42/toolchain/linux_x86_newlib/bin/../lib/gcc/x86_64-nacl/4.4.3/../../../../x86_64-nacl/lib/../lib32/libstdc++.a(bad_cast.o)
 .debug_info    0x000000000005ebae     0x122b /home/berkeley/nacl_sdk/pepper_42/toolchain/linux_x86_newlib/bin/../lib/gcc/x86_64-nacl/4.4.3/../../../../x86_64-nacl/lib/../lib32/libstdc++.a(vterminate.o)
 .debug_info    0x000000000005fdd9     0x355d /home/berkeley/nacl_sdk/pepper_42/toolchain/linux_x86_newlib/bin/../lib/gcc/x86_64-nacl/4.4.3/../../../../x86_64-nacl/lib/../lib32/libstdc++.a(cp-demangle.o)
 .debug_info    0x0000000000063336      0x490 /home/berkeley/nacl_sdk/pepper_42/toolchain/linux_x86_newlib/bin/../lib/gcc/x86_64-nacl/4.4.3/../../../../x86_64-nacl/lib/../lib32/libstdc++.a(eh_type.o)
 .debug_info    0x00000000000637c6     0x3587 /home/berkeley/nacl_sdk/pepper_42/toolchain/linux_x86_newlib/bin/../lib/gcc/x86_64-nacl/4.4.3/32/libgcc.a(unwind-dw2.o)
 .debug_info    0x0000000000066d4d     0x1b92 /home/berkeley/nacl_sdk/pepper_42/toolchain/linux_x86_newlib/bin/../lib/gcc/x86_64-nacl/4.4.3/32/libgcc.a(unwind-dw2-fde-glibc.o)
 .debug_info    0x00000000000688df      0x23c /home/berkeley/nacl_sdk/pepper_42/toolchain/linux_x86_newlib/bin/../lib/gcc/x86_64-nacl/4.4.3/../../../../x86_64-nacl/lib/../lib32/libnacl.a(_exit_710c7d0d.o)
 .debug_info    0x0000000000068b1b       0xb6 /home/berkeley/nacl_sdk/pepper_42/toolchain/linux_x86_newlib/bin/../lib/gcc/x86_64-nacl/4.4.3/../../../../x86_64-nacl/lib/../lib32/libnacl.a(abort_9f6b5845.o)
 .debug_info    0x0000000000068bd1       0x6f /home/berkeley/nacl_sdk/pepper_42/toolchain/linux_x86_newlib/bin/../lib/gcc/x86_64-nacl/4.4.3/../../../../x86_64-nacl/lib/../lib32/libnacl.a(environ_25cd24d8.o)
 .debug_info    0x0000000000068c40      0x32c /home/berkeley/nacl_sdk/pepper_42/toolchain/linux_x86_newlib/bin/../lib/gcc/x86_64-nacl/4.4.3/../../../../x86_64-nacl/lib/../lib32/libnacl.a(start_fa9ef7de.o)
 .debug_info    0x0000000000068f6c     0x3fa9 /home/berkeley/nacl_sdk/pepper_42/toolchain/linux_x86_newlib/bin/../lib/gcc/x86_64-nacl/4.4.3/../../../../x86_64-nacl/lib/../lib32/libnacl.a(malloc_222c4a1e.o)
 .debug_info    0x000000000006cf15      0xd0f /home/berkeley/nacl_sdk/pepper_42/toolchain/linux_x86_newlib/bin/../lib/gcc/x86_64-nacl/4.4.3/../../../../x86_64-nacl/lib/../lib32/libnacl.a(nacl_irt_6de1d53f.o)
 .debug_info    0x000000000006dc24       0xd4 /home/berkeley/nacl_sdk/pepper_42/toolchain/linux_x86_newlib/bin/../lib/gcc/x86_64-nacl/4.4.3/../../../../x86_64-nacl/lib/../lib32/libnacl.a(pthread_initialize_minimal_4b6e776b.o)
 .debug_info    0x000000000006dcf8       0x91 /home/berkeley/nacl_sdk/pepper_42/toolchain/linux_x86_newlib/bin/../lib/gcc/x86_64-nacl/4.4.3/../../../../x86_64-nacl/lib/../lib32/libnacl.a(nacl_read_tp_5748ac47.o)
 .debug_info    0x000000000006dd89      0x1f0 /home/berkeley/nacl_sdk/pepper_42/toolchain/linux_x86_newlib/bin/../lib/gcc/x86_64-nacl/4.4.3/../../../../x86_64-nacl/lib/../lib32/libnacl.a(mmap_767fb080.o)
 .debug_info    0x000000000006df79      0x241 /home/berkeley/nacl_sdk/pepper_42/toolchain/linux_x86_newlib/bin/../lib/gcc/x86_64-nacl/4.4.3/../../../../x86_64-nacl/lib/../lib32/libnacl.a(sched_yield_56c375be.o)
 .debug_info    0x000000000006e1ba      0x1a1 /home/berkeley/nacl_sdk/pepper_42/toolchain/linux_x86_newlib/bin/../lib/gcc/x86_64-nacl/4.4.3/../../../../x86_64-nacl/lib/../lib32/libnacl.a(munmap_d4f09867.o)
 .debug_info    0x000000000006e35b      0x73b /home/berkeley/nacl_sdk/pepper_42/toolchain/linux_x86_newlib/bin/../lib/gcc/x86_64-nacl/4.4.3/../../../../x86_64-nacl/lib/../lib32/libnacl.a(tls_bba1975b.o)
 .debug_info    0x000000000006ea96      0x2c0 /home/berkeley/nacl_sdk/pepper_42/toolchain/linux_x86_newlib/bin/../lib/gcc/x86_64-nacl/4.4.3/../../../../x86_64-nacl/lib/../lib32/libnacl.a(write_fb49787f.o)
 .debug_info    0x000000000006ed56       0xec /home/berkeley/nacl_sdk/pepper_42/toolchain/linux_x86_newlib/bin/../lib/gcc/x86_64-nacl/4.4.3/../../../../x86_64-nacl/lib/../lib32/libnacl.a(nacl_tls_get_d2f842b5.o)
 .debug_info    0x000000000006ee42      0x6b2 /home/berkeley/nacl_sdk/pepper_42/toolchain/linux_x86_newlib/bin/../lib/gcc/x86_64-nacl/4.4.3/../../../../x86_64-nacl/lib/../lib32/libnacl.a(nacl_irt_init_7b4f826e.o)
 .debug_info    0x000000000006f4f4      0x25e /home/berkeley/nacl_sdk/pepper_42/toolchain/linux_x86_newlib/bin/../lib/gcc/x86_64-nacl/4.4.3/../../../../x86_64-nacl/lib/../lib32/libnacl.a(sysconf_ad295ea2.o)
 .debug_info    0x000000000006f752       0xff /home/berkeley/nacl_sdk/pepper_42/toolchain/linux_x86_newlib/bin/../lib/gcc/x86_64-nacl/4.4.3/../../../../x86_64-nacl/lib/../lib32/libnacl.a(nacl_tls_init_eb0cd232.o)
 .debug_info    0x000000000006f851      0x295 /home/berkeley/nacl_sdk/pepper_42/toolchain/linux_x86_newlib/bin/../lib/gcc/x86_64-nacl/4.4.3/../../../../x86_64-nacl/lib/../lib32/libnacl.a(close_e9b92fbd.o)
 .debug_info    0x000000000006fae6      0x338 /home/berkeley/nacl_sdk/pepper_42/toolchain/linux_x86_newlib/bin/../lib/gcc/x86_64-nacl/4.4.3/../../../../x86_64-nacl/lib/../lib32/libnacl.a(isatty_02f56e94.o)
 .debug_info    0x000000000006fe1e      0x304 /home/berkeley/nacl_sdk/pepper_42/toolchain/linux_x86_newlib/bin/../lib/gcc/x86_64-nacl/4.4.3/../../../../x86_64-nacl/lib/../lib32/libnacl.a(nacl_irt_fdio_b571b5e7.o)
 .debug_info    0x0000000000070122      0x49b /home/berkeley/nacl_sdk/pepper_42/toolchain/linux_x86_newlib/bin/../lib/gcc/x86_64-nacl/4.4.3/../../../../x86_64-nacl/lib/../lib32/libnacl.a(fstat_0540ff63.o)
 .debug_info    0x00000000000705bd      0x2d6 /home/berkeley/nacl_sdk/pepper_42/toolchain/linux_x86_newlib/bin/../lib/gcc/x86_64-nacl/4.4.3/../../../../x86_64-nacl/lib/../lib32/libnacl.a(lseek_64d2d05c.o)
 .debug_info    0x0000000000070893      0x2c0 /home/berkeley/nacl_sdk/pepper_42/toolchain/linux_x86_newlib/bin/../lib/gcc/x86_64-nacl/4.4.3/../../../../x86_64-nacl/lib/../lib32/libnacl.a(read_df872e10.o)
 .debug_info    0x0000000000070b53      0x2c6 /home/berkeley/nacl_sdk/pepper_42/toolchain/linux_x86_newlib/bin/../lib/gcc/x86_64-nacl/4.4.3/32/libgcc.a(_udivdi3.o)
 .debug_info    0x0000000000070e19      0x2d0 /home/berkeley/nacl_sdk/pepper_42/toolchain/linux_x86_newlib/bin/../lib/gcc/x86_64-nacl/4.4.3/32/libgcc.a(_umoddi3.o)

.debug_abbrev   0x0000000000000000     0xcb6c
 *(.debug_abbrev)
 .debug_abbrev  0x0000000000000000      0x448 newlib/Release/popcnt_x86_32.o
 .debug_abbrev  0x0000000000000448      0x82e /home/berkeley/nacl_sdk/pepper_42/lib/newlib_x86_32/Release/libppapi_cpp.a(instance_x86_32.o)
 .debug_abbrev  0x0000000000000c76      0x855 /home/berkeley/nacl_sdk/pepper_42/lib/newlib_x86_32/Release/libppapi_cpp.a(module_x86_32.o)
 .debug_abbrev  0x00000000000014cb      0x2dc /home/berkeley/nacl_sdk/pepper_42/lib/newlib_x86_32/Release/libppapi_cpp.a(ppp_entrypoints_x86_32.o)
 .debug_abbrev  0x00000000000017a7      0x444 /home/berkeley/nacl_sdk/pepper_42/lib/newlib_x86_32/Release/libppapi_cpp.a(resource_x86_32.o)
 .debug_abbrev  0x0000000000001beb      0x4be /home/berkeley/nacl_sdk/pepper_42/lib/newlib_x86_32/Release/libppapi_cpp.a(url_loader_x86_32.o)
 .debug_abbrev  0x00000000000020a9      0x3db /home/berkeley/nacl_sdk/pepper_42/lib/newlib_x86_32/Release/libppapi_cpp.a(url_response_info_x86_32.o)
 .debug_abbrev  0x0000000000002484      0x72a /home/berkeley/nacl_sdk/pepper_42/lib/newlib_x86_32/Release/libppapi_cpp.a(var_x86_32.o)
 .debug_abbrev  0x0000000000002bae      0x48b /home/berkeley/nacl_sdk/pepper_42/lib/newlib_x86_32/Release/libppapi_cpp.a(view_x86_32.o)
 .debug_abbrev  0x0000000000003039      0x36a /home/berkeley/nacl_sdk/pepper_42/lib/newlib_x86_32/Release/libppapi_cpp.a(core_x86_32.o)
 .debug_abbrev  0x00000000000033a3      0x61e /home/berkeley/nacl_sdk/pepper_42/lib/newlib_x86_32/Release/libppapi_cpp.a(file_ref_x86_32.o)
 .debug_abbrev  0x00000000000039c1      0x70b /home/berkeley/nacl_sdk/pepper_42/lib/newlib_x86_32/Release/libppapi_cpp.a(input_event_x86_32.o)
 .debug_abbrev  0x00000000000040cc       0x4a /home/berkeley/nacl_sdk/pepper_42/toolchain/linux_x86_newlib/bin/../lib/gcc/x86_64-nacl/4.4.3/../../../../x86_64-nacl/lib/../lib32/libppapi_stub.a(plugin_main_irt_21ce9d26.o)
 .debug_abbrev  0x0000000000004116       0xbb /home/berkeley/nacl_sdk/pepper_42/toolchain/linux_x86_newlib/bin/../lib/gcc/x86_64-nacl/4.4.3/../../../../x86_64-nacl/lib/../lib32/libppapi_stub.a(ppapi_plugin_main_399d0cf7.o)
 .debug_abbrev  0x00000000000041d1      0x1ad /home/berkeley/nacl_sdk/pepper_42/toolchain/linux_x86_newlib/bin/../lib/gcc/x86_64-nacl/4.4.3/../../../../x86_64-nacl/lib/../lib32/libppapi_stub.a(ppapi_plugin_start_8da67623.o)
 .debug_abbrev  0x000000000000437e      0x109 /home/berkeley/nacl_sdk/pepper_42/toolchain/linux_x86_newlib/bin/../lib/gcc/x86_64-nacl/4.4.3/../../../../x86_64-nacl/lib/../lib32/libppapi_stub.a(thread_creator_ccf263e1.o)
 .debug_abbrev  0x0000000000004487      0x44f /home/berkeley/nacl_sdk/pepper_42/toolchain/linux_x86_newlib/bin/../lib/gcc/x86_64-nacl/4.4.3/../../../../x86_64-nacl/lib/../lib32/libpthread.a(nc_thread_7e478b15.o)
 .debug_abbrev  0x00000000000048d6      0x19c /home/berkeley/nacl_sdk/pepper_42/toolchain/linux_x86_newlib/bin/../lib/gcc/x86_64-nacl/4.4.3/../../../../x86_64-nacl/lib/../lib32/libpthread.a(nc_condvar_305aa45a.o)
 .debug_abbrev  0x0000000000004a72       0xfc /home/berkeley/nacl_sdk/pepper_42/toolchain/linux_x86_newlib/bin/../lib/gcc/x86_64-nacl/4.4.3/../../../../x86_64-nacl/lib/../lib32/libpthread.a(dynamic_annotations_33ba59cc.o)
 .debug_abbrev  0x0000000000004b6e      0x222 /home/berkeley/nacl_sdk/pepper_42/toolchain/linux_x86_newlib/bin/../lib/gcc/x86_64-nacl/4.4.3/../../../../x86_64-nacl/lib/../lib32/libpthread.a(nc_mutex_86341ae1.o)
 .debug_abbrev  0x0000000000004d90       0xed /home/berkeley/nacl_sdk/pepper_42/toolchain/linux_x86_newlib/bin/../lib/gcc/x86_64-nacl/4.4.3/../../../../x86_64-nacl/lib/../lib32/libpthread.a(nc_init_irt_d3daafc0.o)
 .debug_abbrev  0x0000000000004e7d      0x2eb /home/berkeley/nacl_sdk/pepper_42/toolchain/linux_x86_newlib/bin/../lib/gcc/x86_64-nacl/4.4.3/../../../../x86_64-nacl/lib/../lib32/libstdc++.a(tree.o)
 .debug_abbrev  0x0000000000005168      0x7a9 /home/berkeley/nacl_sdk/pepper_42/toolchain/linux_x86_newlib/bin/../lib/gcc/x86_64-nacl/4.4.3/../../../../x86_64-nacl/lib/../lib32/libstdc++.a(string-inst.o)
 .debug_abbrev  0x0000000000005911      0x4af /home/berkeley/nacl_sdk/pepper_42/toolchain/linux_x86_newlib/bin/../lib/gcc/x86_64-nacl/4.4.3/../../../../x86_64-nacl/lib/../lib32/libstdc++.a(eh_personality.o)
 .debug_abbrev  0x0000000000005dc0      0x2fa /home/berkeley/nacl_sdk/pepper_42/toolchain/linux_x86_newlib/bin/../lib/gcc/x86_64-nacl/4.4.3/../../../../x86_64-nacl/lib/../lib32/libstdc++.a(eh_globals.o)
 .debug_abbrev  0x00000000000060ba      0x22a /home/berkeley/nacl_sdk/pepper_42/toolchain/linux_x86_newlib/bin/../lib/gcc/x86_64-nacl/4.4.3/../../../../x86_64-nacl/lib/../lib32/libstdc++.a(eh_throw.o)
 .debug_abbrev  0x00000000000062e4      0x125 /home/berkeley/nacl_sdk/pepper_42/toolchain/linux_x86_newlib/bin/../lib/gcc/x86_64-nacl/4.4.3/../../../../x86_64-nacl/lib/../lib32/libstdc++.a(del_op.o)
 .debug_abbrev  0x0000000000006409      0x1f3 /home/berkeley/nacl_sdk/pepper_42/toolchain/linux_x86_newlib/bin/../lib/gcc/x86_64-nacl/4.4.3/../../../../x86_64-nacl/lib/../lib32/libstdc++.a(eh_call.o)
 .debug_abbrev  0x00000000000065fc      0x4b1 /home/berkeley/nacl_sdk/pepper_42/toolchain/linux_x86_newlib/bin/../lib/gcc/x86_64-nacl/4.4.3/../../../../x86_64-nacl/lib/../lib32/libstdc++.a(guard.o)
 .debug_abbrev  0x0000000000006aad      0x2f5 /home/berkeley/nacl_sdk/pepper_42/toolchain/linux_x86_newlib/bin/../lib/gcc/x86_64-nacl/4.4.3/../../../../x86_64-nacl/lib/../lib32/libstdc++.a(si_class_type_info.o)
 .debug_abbrev  0x0000000000006da2      0x1d2 /home/berkeley/nacl_sdk/pepper_42/toolchain/linux_x86_newlib/bin/../lib/gcc/x86_64-nacl/4.4.3/../../../../x86_64-nacl/lib/../lib32/libstdc++.a(eh_terminate.o)
 .debug_abbrev  0x0000000000006f74      0x374 /home/berkeley/nacl_sdk/pepper_42/toolchain/linux_x86_newlib/bin/../lib/gcc/x86_64-nacl/4.4.3/../../../../x86_64-nacl/lib/../lib32/libstdc++.a(class_type_info.o)
 .debug_abbrev  0x00000000000072e8      0x478 /home/berkeley/nacl_sdk/pepper_42/toolchain/linux_x86_newlib/bin/../lib/gcc/x86_64-nacl/4.4.3/../../../../x86_64-nacl/lib/../lib32/libstdc++.a(eh_alloc.o)
 .debug_abbrev  0x0000000000007760      0x284 /home/berkeley/nacl_sdk/pepper_42/toolchain/linux_x86_newlib/bin/../lib/gcc/x86_64-nacl/4.4.3/../../../../x86_64-nacl/lib/../lib32/libstdc++.a(eh_catch.o)
 .debug_abbrev  0x00000000000079e4      0x1df /home/berkeley/nacl_sdk/pepper_42/toolchain/linux_x86_newlib/bin/../lib/gcc/x86_64-nacl/4.4.3/../../../../x86_64-nacl/lib/../lib32/libstdc++.a(eh_exception.o)
 .debug_abbrev  0x0000000000007bc3       0xb1 /home/berkeley/nacl_sdk/pepper_42/toolchain/linux_x86_newlib/bin/../lib/gcc/x86_64-nacl/4.4.3/../../../../x86_64-nacl/lib/../lib32/libstdc++.a(pure.o)
 .debug_abbrev  0x0000000000007c74      0x1b7 /home/berkeley/nacl_sdk/pepper_42/toolchain/linux_x86_newlib/bin/../lib/gcc/x86_64-nacl/4.4.3/../../../../x86_64-nacl/lib/../lib32/libstdc++.a(new_op.o)
 .debug_abbrev  0x0000000000007e2b      0x230 /home/berkeley/nacl_sdk/pepper_42/toolchain/linux_x86_newlib/bin/../lib/gcc/x86_64-nacl/4.4.3/../../../../x86_64-nacl/lib/../lib32/libstdc++.a(tinfo.o)
 .debug_abbrev  0x000000000000805b      0x73b /home/berkeley/nacl_sdk/pepper_42/toolchain/linux_x86_newlib/bin/../lib/gcc/x86_64-nacl/4.4.3/../../../../x86_64-nacl/lib/../lib32/libstdc++.a(functexcept.o)
 .debug_abbrev  0x0000000000008796      0x690 /home/berkeley/nacl_sdk/pepper_42/toolchain/linux_x86_newlib/bin/../lib/gcc/x86_64-nacl/4.4.3/../../../../x86_64-nacl/lib/../lib32/libstdc++.a(ios_failure.o)
 .debug_abbrev  0x0000000000008e26      0x577 /home/berkeley/nacl_sdk/pepper_42/toolchain/linux_x86_newlib/bin/../lib/gcc/x86_64-nacl/4.4.3/../../../../x86_64-nacl/lib/../lib32/libstdc++.a(stdexcept.o)
 .debug_abbrev  0x000000000000939d      0x69a /home/berkeley/nacl_sdk/pepper_42/toolchain/linux_x86_newlib/bin/../lib/gcc/x86_64-nacl/4.4.3/../../../../x86_64-nacl/lib/../lib32/libstdc++.a(system_error.o)
 .debug_abbrev  0x0000000000009a37       0xb1 /home/berkeley/nacl_sdk/pepper_42/toolchain/linux_x86_newlib/bin/../lib/gcc/x86_64-nacl/4.4.3/../../../../x86_64-nacl/lib/../lib32/libstdc++.a(eh_unex_handler.o)
 .debug_abbrev  0x0000000000009ae8       0xb1 /home/berkeley/nacl_sdk/pepper_42/toolchain/linux_x86_newlib/bin/../lib/gcc/x86_64-nacl/4.4.3/../../../../x86_64-nacl/lib/../lib32/libstdc++.a(eh_term_handler.o)
 .debug_abbrev  0x0000000000009b99      0x10e /home/berkeley/nacl_sdk/pepper_42/toolchain/linux_x86_newlib/bin/../lib/gcc/x86_64-nacl/4.4.3/../../../../x86_64-nacl/lib/../lib32/libstdc++.a(bad_typeid.o)
 .debug_abbrev  0x0000000000009ca7      0x1af /home/berkeley/nacl_sdk/pepper_42/toolchain/linux_x86_newlib/bin/../lib/gcc/x86_64-nacl/4.4.3/../../../../x86_64-nacl/lib/../lib32/libstdc++.a(new_handler.o)
 .debug_abbrev  0x0000000000009e56      0x10e /home/berkeley/nacl_sdk/pepper_42/toolchain/linux_x86_newlib/bin/../lib/gcc/x86_64-nacl/4.4.3/../../../../x86_64-nacl/lib/../lib32/libstdc++.a(bad_cast.o)
 .debug_abbrev  0x0000000000009f64      0x2c6 /home/berkeley/nacl_sdk/pepper_42/toolchain/linux_x86_newlib/bin/../lib/gcc/x86_64-nacl/4.4.3/../../../../x86_64-nacl/lib/../lib32/libstdc++.a(vterminate.o)
 .debug_abbrev  0x000000000000a22a      0x2fb /home/berkeley/nacl_sdk/pepper_42/toolchain/linux_x86_newlib/bin/../lib/gcc/x86_64-nacl/4.4.3/../../../../x86_64-nacl/lib/../lib32/libstdc++.a(cp-demangle.o)
 .debug_abbrev  0x000000000000a525      0x1b8 /home/berkeley/nacl_sdk/pepper_42/toolchain/linux_x86_newlib/bin/../lib/gcc/x86_64-nacl/4.4.3/../../../../x86_64-nacl/lib/../lib32/libstdc++.a(eh_type.o)
 .debug_abbrev  0x000000000000a6dd      0x506 /home/berkeley/nacl_sdk/pepper_42/toolchain/linux_x86_newlib/bin/../lib/gcc/x86_64-nacl/4.4.3/32/libgcc.a(unwind-dw2.o)
 .debug_abbrev  0x000000000000abe3      0x455 /home/berkeley/nacl_sdk/pepper_42/toolchain/linux_x86_newlib/bin/../lib/gcc/x86_64-nacl/4.4.3/32/libgcc.a(unwind-dw2-fde-glibc.o)
 .debug_abbrev  0x000000000000b038       0xcb /home/berkeley/nacl_sdk/pepper_42/toolchain/linux_x86_newlib/bin/../lib/gcc/x86_64-nacl/4.4.3/../../../../x86_64-nacl/lib/../lib32/libnacl.a(_exit_710c7d0d.o)
 .debug_abbrev  0x000000000000b103       0x72 /home/berkeley/nacl_sdk/pepper_42/toolchain/linux_x86_newlib/bin/../lib/gcc/x86_64-nacl/4.4.3/../../../../x86_64-nacl/lib/../lib32/libnacl.a(abort_9f6b5845.o)
 .debug_abbrev  0x000000000000b175       0x63 /home/berkeley/nacl_sdk/pepper_42/toolchain/linux_x86_newlib/bin/../lib/gcc/x86_64-nacl/4.4.3/../../../../x86_64-nacl/lib/../lib32/libnacl.a(environ_25cd24d8.o)
 .debug_abbrev  0x000000000000b1d8      0x197 /home/berkeley/nacl_sdk/pepper_42/toolchain/linux_x86_newlib/bin/../lib/gcc/x86_64-nacl/4.4.3/../../../../x86_64-nacl/lib/../lib32/libnacl.a(start_fa9ef7de.o)
 .debug_abbrev  0x000000000000b36f      0x3d8 /home/berkeley/nacl_sdk/pepper_42/toolchain/linux_x86_newlib/bin/../lib/gcc/x86_64-nacl/4.4.3/../../../../x86_64-nacl/lib/../lib32/libnacl.a(malloc_222c4a1e.o)
 .debug_abbrev  0x000000000000b747      0x1ff /home/berkeley/nacl_sdk/pepper_42/toolchain/linux_x86_newlib/bin/../lib/gcc/x86_64-nacl/4.4.3/../../../../x86_64-nacl/lib/../lib32/libnacl.a(nacl_irt_6de1d53f.o)
 .debug_abbrev  0x000000000000b946       0x89 /home/berkeley/nacl_sdk/pepper_42/toolchain/linux_x86_newlib/bin/../lib/gcc/x86_64-nacl/4.4.3/../../../../x86_64-nacl/lib/../lib32/libnacl.a(pthread_initialize_minimal_4b6e776b.o)
 .debug_abbrev  0x000000000000b9cf       0x51 /home/berkeley/nacl_sdk/pepper_42/toolchain/linux_x86_newlib/bin/../lib/gcc/x86_64-nacl/4.4.3/../../../../x86_64-nacl/lib/../lib32/libnacl.a(nacl_read_tp_5748ac47.o)
 .debug_abbrev  0x000000000000ba20       0xd7 /home/berkeley/nacl_sdk/pepper_42/toolchain/linux_x86_newlib/bin/../lib/gcc/x86_64-nacl/4.4.3/../../../../x86_64-nacl/lib/../lib32/libnacl.a(mmap_767fb080.o)
 .debug_abbrev  0x000000000000baf7       0xcd /home/berkeley/nacl_sdk/pepper_42/toolchain/linux_x86_newlib/bin/../lib/gcc/x86_64-nacl/4.4.3/../../../../x86_64-nacl/lib/../lib32/libnacl.a(sched_yield_56c375be.o)
 .debug_abbrev  0x000000000000bbc4       0xc8 /home/berkeley/nacl_sdk/pepper_42/toolchain/linux_x86_newlib/bin/../lib/gcc/x86_64-nacl/4.4.3/../../../../x86_64-nacl/lib/../lib32/libnacl.a(munmap_d4f09867.o)
 .debug_abbrev  0x000000000000bc8c      0x220 /home/berkeley/nacl_sdk/pepper_42/toolchain/linux_x86_newlib/bin/../lib/gcc/x86_64-nacl/4.4.3/../../../../x86_64-nacl/lib/../lib32/libnacl.a(tls_bba1975b.o)
 .debug_abbrev  0x000000000000beac       0xf4 /home/berkeley/nacl_sdk/pepper_42/toolchain/linux_x86_newlib/bin/../lib/gcc/x86_64-nacl/4.4.3/../../../../x86_64-nacl/lib/../lib32/libnacl.a(write_fb49787f.o)
 .debug_abbrev  0x000000000000bfa0       0xa4 /home/berkeley/nacl_sdk/pepper_42/toolchain/linux_x86_newlib/bin/../lib/gcc/x86_64-nacl/4.4.3/../../../../x86_64-nacl/lib/../lib32/libnacl.a(nacl_tls_get_d2f842b5.o)
 .debug_abbrev  0x000000000000c044      0x1d9 /home/berkeley/nacl_sdk/pepper_42/toolchain/linux_x86_newlib/bin/../lib/gcc/x86_64-nacl/4.4.3/../../../../x86_64-nacl/lib/../lib32/libnacl.a(nacl_irt_init_7b4f826e.o)
 .debug_abbrev  0x000000000000c21d       0xdc /home/berkeley/nacl_sdk/pepper_42/toolchain/linux_x86_newlib/bin/../lib/gcc/x86_64-nacl/4.4.3/../../../../x86_64-nacl/lib/../lib32/libnacl.a(sysconf_ad295ea2.o)
 .debug_abbrev  0x000000000000c2f9       0xb5 /home/berkeley/nacl_sdk/pepper_42/toolchain/linux_x86_newlib/bin/../lib/gcc/x86_64-nacl/4.4.3/../../../../x86_64-nacl/lib/../lib32/libnacl.a(nacl_tls_init_eb0cd232.o)
 .debug_abbrev  0x000000000000c3ae       0xe5 /home/berkeley/nacl_sdk/pepper_42/toolchain/linux_x86_newlib/bin/../lib/gcc/x86_64-nacl/4.4.3/../../../../x86_64-nacl/lib/../lib32/libnacl.a(close_e9b92fbd.o)
 .debug_abbrev  0x000000000000c493       0xe5 /home/berkeley/nacl_sdk/pepper_42/toolchain/linux_x86_newlib/bin/../lib/gcc/x86_64-nacl/4.4.3/../../../../x86_64-nacl/lib/../lib32/libnacl.a(isatty_02f56e94.o)
 .debug_abbrev  0x000000000000c578       0xc3 /home/berkeley/nacl_sdk/pepper_42/toolchain/linux_x86_newlib/bin/../lib/gcc/x86_64-nacl/4.4.3/../../../../x86_64-nacl/lib/../lib32/libnacl.a(nacl_irt_fdio_b571b5e7.o)
 .debug_abbrev  0x000000000000c63b       0xe5 /home/berkeley/nacl_sdk/pepper_42/toolchain/linux_x86_newlib/bin/../lib/gcc/x86_64-nacl/4.4.3/../../../../x86_64-nacl/lib/../lib32/libnacl.a(fstat_0540ff63.o)
 .debug_abbrev  0x000000000000c720       0xe5 /home/berkeley/nacl_sdk/pepper_42/toolchain/linux_x86_newlib/bin/../lib/gcc/x86_64-nacl/4.4.3/../../../../x86_64-nacl/lib/../lib32/libnacl.a(lseek_64d2d05c.o)
 .debug_abbrev  0x000000000000c805       0xf4 /home/berkeley/nacl_sdk/pepper_42/toolchain/linux_x86_newlib/bin/../lib/gcc/x86_64-nacl/4.4.3/../../../../x86_64-nacl/lib/../lib32/libnacl.a(read_df872e10.o)
 .debug_abbrev  0x000000000000c8f9      0x132 /home/berkeley/nacl_sdk/pepper_42/toolchain/linux_x86_newlib/bin/../lib/gcc/x86_64-nacl/4.4.3/32/libgcc.a(_udivdi3.o)
 .debug_abbrev  0x000000000000ca2b      0x141 /home/berkeley/nacl_sdk/pepper_42/toolchain/linux_x86_newlib/bin/../lib/gcc/x86_64-nacl/4.4.3/32/libgcc.a(_umoddi3.o)

.debug_line     0x0000000000000000    0x1bd6d
 *(.debug_line .debug_line.* .debug_line_end)
 .debug_line    0x0000000000000000      0x6c2 newlib/Release/popcnt_x86_32.o
 .debug_line    0x00000000000006c2     0x1345 /home/berkeley/nacl_sdk/pepper_42/lib/newlib_x86_32/Release/libppapi_cpp.a(instance_x86_32.o)
 .debug_line    0x0000000000001a07     0x133c /home/berkeley/nacl_sdk/pepper_42/lib/newlib_x86_32/Release/libppapi_cpp.a(module_x86_32.o)
 .debug_line    0x0000000000002d43      0x725 /home/berkeley/nacl_sdk/pepper_42/lib/newlib_x86_32/Release/libppapi_cpp.a(ppp_entrypoints_x86_32.o)
 .debug_line    0x0000000000003468      0x8aa /home/berkeley/nacl_sdk/pepper_42/lib/newlib_x86_32/Release/libppapi_cpp.a(resource_x86_32.o)
 .debug_line    0x0000000000003d12      0xbe6 /home/berkeley/nacl_sdk/pepper_42/lib/newlib_x86_32/Release/libppapi_cpp.a(url_loader_x86_32.o)
 .debug_line    0x00000000000048f8      0x886 /home/berkeley/nacl_sdk/pepper_42/lib/newlib_x86_32/Release/libppapi_cpp.a(url_response_info_x86_32.o)
 .debug_line    0x000000000000517e      0xdb2 /home/berkeley/nacl_sdk/pepper_42/lib/newlib_x86_32/Release/libppapi_cpp.a(var_x86_32.o)
 .debug_line    0x0000000000005f30      0xb2a /home/berkeley/nacl_sdk/pepper_42/lib/newlib_x86_32/Release/libppapi_cpp.a(view_x86_32.o)
 .debug_line    0x0000000000006a5a      0x74d /home/berkeley/nacl_sdk/pepper_42/lib/newlib_x86_32/Release/libppapi_cpp.a(core_x86_32.o)
 .debug_line    0x00000000000071a7      0xf2f /home/berkeley/nacl_sdk/pepper_42/lib/newlib_x86_32/Release/libppapi_cpp.a(file_ref_x86_32.o)
 .debug_line    0x00000000000080d6     0x192f /home/berkeley/nacl_sdk/pepper_42/lib/newlib_x86_32/Release/libppapi_cpp.a(input_event_x86_32.o)
 .debug_line    0x0000000000009a05       0x44 /home/berkeley/nacl_sdk/pepper_42/toolchain/linux_x86_newlib/bin/../lib/gcc/x86_64-nacl/4.4.3/../../../../x86_64-nacl/lib/../lib32/libppapi_stub.a(plugin_main_irt_21ce9d26.o)
 .debug_line    0x0000000000009a49      0x20b /home/berkeley/nacl_sdk/pepper_42/toolchain/linux_x86_newlib/bin/../lib/gcc/x86_64-nacl/4.4.3/../../../../x86_64-nacl/lib/../lib32/libppapi_stub.a(ppapi_plugin_main_399d0cf7.o)
 .debug_line    0x0000000000009c54      0x3db /home/berkeley/nacl_sdk/pepper_42/toolchain/linux_x86_newlib/bin/../lib/gcc/x86_64-nacl/4.4.3/../../../../x86_64-nacl/lib/../lib32/libppapi_stub.a(ppapi_plugin_start_8da67623.o)
 .debug_line    0x000000000000a02f      0x217 /home/berkeley/nacl_sdk/pepper_42/toolchain/linux_x86_newlib/bin/../lib/gcc/x86_64-nacl/4.4.3/../../../../x86_64-nacl/lib/../lib32/libppapi_stub.a(thread_creator_ccf263e1.o)
 .debug_line    0x000000000000a246      0x785 /home/berkeley/nacl_sdk/pepper_42/toolchain/linux_x86_newlib/bin/../lib/gcc/x86_64-nacl/4.4.3/../../../../x86_64-nacl/lib/../lib32/libpthread.a(nc_thread_7e478b15.o)
 .debug_line    0x000000000000a9cb      0x2a2 /home/berkeley/nacl_sdk/pepper_42/toolchain/linux_x86_newlib/bin/../lib/gcc/x86_64-nacl/4.4.3/../../../../x86_64-nacl/lib/../lib32/libpthread.a(nc_condvar_305aa45a.o)
 .debug_line    0x000000000000ac6d       0xd3 /home/berkeley/nacl_sdk/pepper_42/toolchain/linux_x86_newlib/bin/../lib/gcc/x86_64-nacl/4.4.3/../../../../x86_64-nacl/lib/../lib32/libpthread.a(dynamic_annotations_33ba59cc.o)
 .debug_line    0x000000000000ad40      0x34b /home/berkeley/nacl_sdk/pepper_42/toolchain/linux_x86_newlib/bin/../lib/gcc/x86_64-nacl/4.4.3/../../../../x86_64-nacl/lib/../lib32/libpthread.a(nc_mutex_86341ae1.o)
 .debug_line    0x000000000000b08b      0x220 /home/berkeley/nacl_sdk/pepper_42/toolchain/linux_x86_newlib/bin/../lib/gcc/x86_64-nacl/4.4.3/../../../../x86_64-nacl/lib/../lib32/libpthread.a(nc_init_irt_d3daafc0.o)
 .debug_line    0x000000000000b2ab      0x683 /home/berkeley/nacl_sdk/pepper_42/toolchain/linux_x86_newlib/bin/../lib/gcc/x86_64-nacl/4.4.3/../../../../x86_64-nacl/lib/../lib32/libstdc++.a(tree.o)
 .debug_line    0x000000000000b92e     0x28d4 /home/berkeley/nacl_sdk/pepper_42/toolchain/linux_x86_newlib/bin/../lib/gcc/x86_64-nacl/4.4.3/../../../../x86_64-nacl/lib/../lib32/libstdc++.a(string-inst.o)
 .debug_line    0x000000000000e202      0x679 /home/berkeley/nacl_sdk/pepper_42/toolchain/linux_x86_newlib/bin/../lib/gcc/x86_64-nacl/4.4.3/../../../../x86_64-nacl/lib/../lib32/libstdc++.a(eh_personality.o)
 .debug_line    0x000000000000e87b      0x436 /home/berkeley/nacl_sdk/pepper_42/toolchain/linux_x86_newlib/bin/../lib/gcc/x86_64-nacl/4.4.3/../../../../x86_64-nacl/lib/../lib32/libstdc++.a(eh_globals.o)
 .debug_line    0x000000000000ecb1      0x2de /home/berkeley/nacl_sdk/pepper_42/toolchain/linux_x86_newlib/bin/../lib/gcc/x86_64-nacl/4.4.3/../../../../x86_64-nacl/lib/../lib32/libstdc++.a(eh_throw.o)
 .debug_line    0x000000000000ef8f      0x228 /home/berkeley/nacl_sdk/pepper_42/toolchain/linux_x86_newlib/bin/../lib/gcc/x86_64-nacl/4.4.3/../../../../x86_64-nacl/lib/../lib32/libstdc++.a(del_op.o)
 .debug_line    0x000000000000f1b7      0x257 /home/berkeley/nacl_sdk/pepper_42/toolchain/linux_x86_newlib/bin/../lib/gcc/x86_64-nacl/4.4.3/../../../../x86_64-nacl/lib/../lib32/libstdc++.a(eh_call.o)
 .debug_line    0x000000000000f40e      0x658 /home/berkeley/nacl_sdk/pepper_42/toolchain/linux_x86_newlib/bin/../lib/gcc/x86_64-nacl/4.4.3/../../../../x86_64-nacl/lib/../lib32/libstdc++.a(guard.o)
 .debug_line    0x000000000000fa66      0x28c /home/berkeley/nacl_sdk/pepper_42/toolchain/linux_x86_newlib/bin/../lib/gcc/x86_64-nacl/4.4.3/../../../../x86_64-nacl/lib/../lib32/libstdc++.a(si_class_type_info.o)
 .debug_line    0x000000000000fcf2      0x2b9 /home/berkeley/nacl_sdk/pepper_42/toolchain/linux_x86_newlib/bin/../lib/gcc/x86_64-nacl/4.4.3/../../../../x86_64-nacl/lib/../lib32/libstdc++.a(eh_terminate.o)
 .debug_line    0x000000000000ffab      0x2a9 /home/berkeley/nacl_sdk/pepper_42/toolchain/linux_x86_newlib/bin/../lib/gcc/x86_64-nacl/4.4.3/../../../../x86_64-nacl/lib/../lib32/libstdc++.a(class_type_info.o)
 .debug_line    0x0000000000010254      0x7a5 /home/berkeley/nacl_sdk/pepper_42/toolchain/linux_x86_newlib/bin/../lib/gcc/x86_64-nacl/4.4.3/../../../../x86_64-nacl/lib/../lib32/libstdc++.a(eh_alloc.o)
 .debug_line    0x00000000000109f9      0x2f0 /home/berkeley/nacl_sdk/pepper_42/toolchain/linux_x86_newlib/bin/../lib/gcc/x86_64-nacl/4.4.3/../../../../x86_64-nacl/lib/../lib32/libstdc++.a(eh_catch.o)
 .debug_line    0x0000000000010ce9      0x1af /home/berkeley/nacl_sdk/pepper_42/toolchain/linux_x86_newlib/bin/../lib/gcc/x86_64-nacl/4.4.3/../../../../x86_64-nacl/lib/../lib32/libstdc++.a(eh_exception.o)
 .debug_line    0x0000000000010e98      0x1c8 /home/berkeley/nacl_sdk/pepper_42/toolchain/linux_x86_newlib/bin/../lib/gcc/x86_64-nacl/4.4.3/../../../../x86_64-nacl/lib/../lib32/libstdc++.a(pure.o)
 .debug_line    0x0000000000011060      0x258 /home/berkeley/nacl_sdk/pepper_42/toolchain/linux_x86_newlib/bin/../lib/gcc/x86_64-nacl/4.4.3/../../../../x86_64-nacl/lib/../lib32/libstdc++.a(new_op.o)
 .debug_line    0x00000000000112b8      0x1c5 /home/berkeley/nacl_sdk/pepper_42/toolchain/linux_x86_newlib/bin/../lib/gcc/x86_64-nacl/4.4.3/../../../../x86_64-nacl/lib/../lib32/libstdc++.a(tinfo.o)
 .debug_line    0x000000000001147d      0xd80 /home/berkeley/nacl_sdk/pepper_42/toolchain/linux_x86_newlib/bin/../lib/gcc/x86_64-nacl/4.4.3/../../../../x86_64-nacl/lib/../lib32/libstdc++.a(functexcept.o)
 .debug_line    0x00000000000121fd      0x868 /home/berkeley/nacl_sdk/pepper_42/toolchain/linux_x86_newlib/bin/../lib/gcc/x86_64-nacl/4.4.3/../../../../x86_64-nacl/lib/../lib32/libstdc++.a(ios_failure.o)
 .debug_line    0x0000000000012a65      0xac3 /home/berkeley/nacl_sdk/pepper_42/toolchain/linux_x86_newlib/bin/../lib/gcc/x86_64-nacl/4.4.3/../../../../x86_64-nacl/lib/../lib32/libstdc++.a(stdexcept.o)
 .debug_line    0x0000000000013528      0x96d /home/berkeley/nacl_sdk/pepper_42/toolchain/linux_x86_newlib/bin/../lib/gcc/x86_64-nacl/4.4.3/../../../../x86_64-nacl/lib/../lib32/libstdc++.a(system_error.o)
 .debug_line    0x0000000000013e95      0x1c1 /home/berkeley/nacl_sdk/pepper_42/toolchain/linux_x86_newlib/bin/../lib/gcc/x86_64-nacl/4.4.3/../../../../x86_64-nacl/lib/../lib32/libstdc++.a(eh_unex_handler.o)
 .debug_line    0x0000000000014056      0x1c1 /home/berkeley/nacl_sdk/pepper_42/toolchain/linux_x86_newlib/bin/../lib/gcc/x86_64-nacl/4.4.3/../../../../x86_64-nacl/lib/../lib32/libstdc++.a(eh_term_handler.o)
 .debug_line    0x0000000000014217       0xe8 /home/berkeley/nacl_sdk/pepper_42/toolchain/linux_x86_newlib/bin/../lib/gcc/x86_64-nacl/4.4.3/../../../../x86_64-nacl/lib/../lib32/libstdc++.a(bad_typeid.o)
 .debug_line    0x00000000000142ff      0x185 /home/berkeley/nacl_sdk/pepper_42/toolchain/linux_x86_newlib/bin/../lib/gcc/x86_64-nacl/4.4.3/../../../../x86_64-nacl/lib/../lib32/libstdc++.a(new_handler.o)
 .debug_line    0x0000000000014484       0xe6 /home/berkeley/nacl_sdk/pepper_42/toolchain/linux_x86_newlib/bin/../lib/gcc/x86_64-nacl/4.4.3/../../../../x86_64-nacl/lib/../lib32/libstdc++.a(bad_cast.o)
 .debug_line    0x000000000001456a      0x3ce /home/berkeley/nacl_sdk/pepper_42/toolchain/linux_x86_newlib/bin/../lib/gcc/x86_64-nacl/4.4.3/../../../../x86_64-nacl/lib/../lib32/libstdc++.a(vterminate.o)
 .debug_line    0x0000000000014938     0x12dc /home/berkeley/nacl_sdk/pepper_42/toolchain/linux_x86_newlib/bin/../lib/gcc/x86_64-nacl/4.4.3/../../../../x86_64-nacl/lib/../lib32/libstdc++.a(cp-demangle.o)
 .debug_line    0x0000000000015c14      0x1e4 /home/berkeley/nacl_sdk/pepper_42/toolchain/linux_x86_newlib/bin/../lib/gcc/x86_64-nacl/4.4.3/../../../../x86_64-nacl/lib/../lib32/libstdc++.a(eh_type.o)
 .debug_line    0x0000000000015df8      0xf59 /home/berkeley/nacl_sdk/pepper_42/toolchain/linux_x86_newlib/bin/../lib/gcc/x86_64-nacl/4.4.3/32/libgcc.a(unwind-dw2.o)
 .debug_line    0x0000000000016d51      0x8e0 /home/berkeley/nacl_sdk/pepper_42/toolchain/linux_x86_newlib/bin/../lib/gcc/x86_64-nacl/4.4.3/32/libgcc.a(unwind-dw2-fde-glibc.o)
 .debug_line    0x0000000000017631      0x2da /home/berkeley/nacl_sdk/pepper_42/toolchain/linux_x86_newlib/bin/../lib/gcc/x86_64-nacl/4.4.3/../../../../x86_64-nacl/lib/../lib32/libnacl.a(_exit_710c7d0d.o)
 .debug_line    0x000000000001790b       0xe3 /home/berkeley/nacl_sdk/pepper_42/toolchain/linux_x86_newlib/bin/../lib/gcc/x86_64-nacl/4.4.3/../../../../x86_64-nacl/lib/../lib32/libnacl.a(abort_9f6b5845.o)
 .debug_line    0x00000000000179ee       0x30 /home/berkeley/nacl_sdk/pepper_42/toolchain/linux_x86_newlib/bin/../lib/gcc/x86_64-nacl/4.4.3/../../../../x86_64-nacl/lib/../lib32/libnacl.a(environ_25cd24d8.o)
 .debug_line    0x0000000000017a1e      0x2ef /home/berkeley/nacl_sdk/pepper_42/toolchain/linux_x86_newlib/bin/../lib/gcc/x86_64-nacl/4.4.3/../../../../x86_64-nacl/lib/../lib32/libnacl.a(start_fa9ef7de.o)
 .debug_line    0x0000000000017d0d      0xcf7 /home/berkeley/nacl_sdk/pepper_42/toolchain/linux_x86_newlib/bin/../lib/gcc/x86_64-nacl/4.4.3/../../../../x86_64-nacl/lib/../lib32/libnacl.a(malloc_222c4a1e.o)
 .debug_line    0x0000000000018a04      0x39d /home/berkeley/nacl_sdk/pepper_42/toolchain/linux_x86_newlib/bin/../lib/gcc/x86_64-nacl/4.4.3/../../../../x86_64-nacl/lib/../lib32/libnacl.a(nacl_irt_6de1d53f.o)
 .debug_line    0x0000000000018da1       0xef /home/berkeley/nacl_sdk/pepper_42/toolchain/linux_x86_newlib/bin/../lib/gcc/x86_64-nacl/4.4.3/../../../../x86_64-nacl/lib/../lib32/libnacl.a(pthread_initialize_minimal_4b6e776b.o)
 .debug_line    0x0000000000018e90       0x40 /home/berkeley/nacl_sdk/pepper_42/toolchain/linux_x86_newlib/bin/../lib/gcc/x86_64-nacl/4.4.3/../../../../x86_64-nacl/lib/../lib32/libnacl.a(nacl_read_tp_5748ac47.o)
 .debug_line    0x0000000000018ed0      0x36a /home/berkeley/nacl_sdk/pepper_42/toolchain/linux_x86_newlib/bin/../lib/gcc/x86_64-nacl/4.4.3/../../../../x86_64-nacl/lib/../lib32/libnacl.a(mmap_767fb080.o)
 .debug_line    0x000000000001923a      0x2e8 /home/berkeley/nacl_sdk/pepper_42/toolchain/linux_x86_newlib/bin/../lib/gcc/x86_64-nacl/4.4.3/../../../../x86_64-nacl/lib/../lib32/libnacl.a(sched_yield_56c375be.o)
 .debug_line    0x0000000000019522      0x352 /home/berkeley/nacl_sdk/pepper_42/toolchain/linux_x86_newlib/bin/../lib/gcc/x86_64-nacl/4.4.3/../../../../x86_64-nacl/lib/../lib32/libnacl.a(munmap_d4f09867.o)
 .debug_line    0x0000000000019874      0x326 /home/berkeley/nacl_sdk/pepper_42/toolchain/linux_x86_newlib/bin/../lib/gcc/x86_64-nacl/4.4.3/../../../../x86_64-nacl/lib/../lib32/libnacl.a(tls_bba1975b.o)
 .debug_line    0x0000000000019b9a      0x355 /home/berkeley/nacl_sdk/pepper_42/toolchain/linux_x86_newlib/bin/../lib/gcc/x86_64-nacl/4.4.3/../../../../x86_64-nacl/lib/../lib32/libnacl.a(write_fb49787f.o)
 .debug_line    0x0000000000019eef       0xb1 /home/berkeley/nacl_sdk/pepper_42/toolchain/linux_x86_newlib/bin/../lib/gcc/x86_64-nacl/4.4.3/../../../../x86_64-nacl/lib/../lib32/libnacl.a(nacl_tls_get_d2f842b5.o)
 .debug_line    0x0000000000019fa0      0x3c9 /home/berkeley/nacl_sdk/pepper_42/toolchain/linux_x86_newlib/bin/../lib/gcc/x86_64-nacl/4.4.3/../../../../x86_64-nacl/lib/../lib32/libnacl.a(nacl_irt_init_7b4f826e.o)
 .debug_line    0x000000000001a369      0x2e6 /home/berkeley/nacl_sdk/pepper_42/toolchain/linux_x86_newlib/bin/../lib/gcc/x86_64-nacl/4.4.3/../../../../x86_64-nacl/lib/../lib32/libnacl.a(sysconf_ad295ea2.o)
 .debug_line    0x000000000001a64f       0xb2 /home/berkeley/nacl_sdk/pepper_42/toolchain/linux_x86_newlib/bin/../lib/gcc/x86_64-nacl/4.4.3/../../../../x86_64-nacl/lib/../lib32/libnacl.a(nacl_tls_init_eb0cd232.o)
 .debug_line    0x000000000001a701      0x353 /home/berkeley/nacl_sdk/pepper_42/toolchain/linux_x86_newlib/bin/../lib/gcc/x86_64-nacl/4.4.3/../../../../x86_64-nacl/lib/../lib32/libnacl.a(close_e9b92fbd.o)
 .debug_line    0x000000000001aa54      0x375 /home/berkeley/nacl_sdk/pepper_42/toolchain/linux_x86_newlib/bin/../lib/gcc/x86_64-nacl/4.4.3/../../../../x86_64-nacl/lib/../lib32/libnacl.a(isatty_02f56e94.o)
 .debug_line    0x000000000001adc9      0x368 /home/berkeley/nacl_sdk/pepper_42/toolchain/linux_x86_newlib/bin/../lib/gcc/x86_64-nacl/4.4.3/../../../../x86_64-nacl/lib/../lib32/libnacl.a(nacl_irt_fdio_b571b5e7.o)
 .debug_line    0x000000000001b131      0x368 /home/berkeley/nacl_sdk/pepper_42/toolchain/linux_x86_newlib/bin/../lib/gcc/x86_64-nacl/4.4.3/../../../../x86_64-nacl/lib/../lib32/libnacl.a(fstat_0540ff63.o)
 .debug_line    0x000000000001b499      0x36c /home/berkeley/nacl_sdk/pepper_42/toolchain/linux_x86_newlib/bin/../lib/gcc/x86_64-nacl/4.4.3/../../../../x86_64-nacl/lib/../lib32/libnacl.a(lseek_64d2d05c.o)
 .debug_line    0x000000000001b805      0x354 /home/berkeley/nacl_sdk/pepper_42/toolchain/linux_x86_newlib/bin/../lib/gcc/x86_64-nacl/4.4.3/../../../../x86_64-nacl/lib/../lib32/libnacl.a(read_df872e10.o)
 .debug_line    0x000000000001bb59      0x102 /home/berkeley/nacl_sdk/pepper_42/toolchain/linux_x86_newlib/bin/../lib/gcc/x86_64-nacl/4.4.3/32/libgcc.a(_udivdi3.o)
 .debug_line    0x000000000001bc5b      0x112 /home/berkeley/nacl_sdk/pepper_42/toolchain/linux_x86_newlib/bin/../lib/gcc/x86_64-nacl/4.4.3/32/libgcc.a(_umoddi3.o)

.debug_frame    0x0000000000000000      0x450
 *(.debug_frame)
 .debug_frame   0x0000000000000000      0x450 /home/berkeley/nacl_sdk/pepper_42/toolchain/linux_x86_newlib/bin/../lib/gcc/x86_64-nacl/4.4.3/../../../../x86_64-nacl/lib/../lib32/libstdc++.a(cp-demangle.o)

.debug_str      0x0000000000000000    0x1e872
 *(.debug_str)
 .debug_str     0x0000000000000000      0xbca newlib/Release/popcnt_x86_32.o
                                        0xe23 (size before relaxing)
 .debug_str     0x0000000000000bca     0x6945 /home/berkeley/nacl_sdk/pepper_42/lib/newlib_x86_32/Release/libppapi_cpp.a(instance_x86_32.o)
                                       0x7911 (size before relaxing)
 .debug_str     0x000000000000750f     0x7631 /home/berkeley/nacl_sdk/pepper_42/lib/newlib_x86_32/Release/libppapi_cpp.a(module_x86_32.o)
                                       0xaa70 (size before relaxing)
 .debug_str     0x000000000000eb40       0xdb /home/berkeley/nacl_sdk/pepper_42/lib/newlib_x86_32/Release/libppapi_cpp.a(ppp_entrypoints_x86_32.o)
                                       0x1019 (size before relaxing)
 .debug_str     0x000000000000ec1b      0x174 /home/berkeley/nacl_sdk/pepper_42/lib/newlib_x86_32/Release/libppapi_cpp.a(resource_x86_32.o)
                                        0xf77 (size before relaxing)
 .debug_str     0x000000000000ed8f     0x1049 /home/berkeley/nacl_sdk/pepper_42/lib/newlib_x86_32/Release/libppapi_cpp.a(url_loader_x86_32.o)
                                       0x24f5 (size before relaxing)
 .debug_str     0x000000000000fdd8       0xbe /home/berkeley/nacl_sdk/pepper_42/lib/newlib_x86_32/Release/libppapi_cpp.a(url_response_info_x86_32.o)
                                       0x14ac (size before relaxing)
 .debug_str     0x000000000000fe96      0x493 /home/berkeley/nacl_sdk/pepper_42/lib/newlib_x86_32/Release/libppapi_cpp.a(var_x86_32.o)
                                       0x2a65 (size before relaxing)
 .debug_str     0x0000000000010329      0x13f /home/berkeley/nacl_sdk/pepper_42/lib/newlib_x86_32/Release/libppapi_cpp.a(view_x86_32.o)
                                       0x1583 (size before relaxing)
 .debug_str     0x0000000000010468       0x1e /home/berkeley/nacl_sdk/pepper_42/lib/newlib_x86_32/Release/libppapi_cpp.a(core_x86_32.o)
                                        0xeea (size before relaxing)
 .debug_str     0x0000000000010486     0x1996 /home/berkeley/nacl_sdk/pepper_42/lib/newlib_x86_32/Release/libppapi_cpp.a(file_ref_x86_32.o)
                                       0x3375 (size before relaxing)
 .debug_str     0x0000000000011e1c     0x1aec /home/berkeley/nacl_sdk/pepper_42/lib/newlib_x86_32/Release/libppapi_cpp.a(input_event_x86_32.o)
                                       0x32fa (size before relaxing)
 .debug_str     0x0000000000013908       0xcd /home/berkeley/nacl_sdk/pepper_42/toolchain/linux_x86_newlib/bin/../lib/gcc/x86_64-nacl/4.4.3/../../../../x86_64-nacl/lib/../lib32/libppapi_stub.a(plugin_main_irt_21ce9d26.o)
                                        0x156 (size before relaxing)
 .debug_str     0x00000000000139d5       0x50 /home/berkeley/nacl_sdk/pepper_42/toolchain/linux_x86_newlib/bin/../lib/gcc/x86_64-nacl/4.4.3/../../../../x86_64-nacl/lib/../lib32/libppapi_stub.a(ppapi_plugin_main_399d0cf7.o)
                                        0x1e3 (size before relaxing)
 .debug_str     0x0000000000013a25       0xf9 /home/berkeley/nacl_sdk/pepper_42/toolchain/linux_x86_newlib/bin/../lib/gcc/x86_64-nacl/4.4.3/../../../../x86_64-nacl/lib/../lib32/libppapi_stub.a(ppapi_plugin_start_8da67623.o)
                                        0x302 (size before relaxing)
 .debug_str     0x0000000000013b1e       0x64 /home/berkeley/nacl_sdk/pepper_42/toolchain/linux_x86_newlib/bin/../lib/gcc/x86_64-nacl/4.4.3/../../../../x86_64-nacl/lib/../lib32/libppapi_stub.a(thread_creator_ccf263e1.o)
                                        0x2a6 (size before relaxing)
 .debug_str     0x0000000000013b82      0x906 /home/berkeley/nacl_sdk/pepper_42/toolchain/linux_x86_newlib/bin/../lib/gcc/x86_64-nacl/4.4.3/../../../../x86_64-nacl/lib/../lib32/libpthread.a(nc_thread_7e478b15.o)
                                        0xb83 (size before relaxing)
 .debug_str     0x0000000000014488      0x123 /home/berkeley/nacl_sdk/pepper_42/toolchain/linux_x86_newlib/bin/../lib/gcc/x86_64-nacl/4.4.3/../../../../x86_64-nacl/lib/../lib32/libpthread.a(nc_condvar_305aa45a.o)
                                        0x477 (size before relaxing)
 .debug_str     0x00000000000145ab      0x48c /home/berkeley/nacl_sdk/pepper_42/toolchain/linux_x86_newlib/bin/../lib/gcc/x86_64-nacl/4.4.3/../../../../x86_64-nacl/lib/../lib32/libpthread.a(dynamic_annotations_33ba59cc.o)
                                        0x611 (size before relaxing)
 .debug_str     0x0000000000014a37      0x1b2 /home/berkeley/nacl_sdk/pepper_42/toolchain/linux_x86_newlib/bin/../lib/gcc/x86_64-nacl/4.4.3/../../../../x86_64-nacl/lib/../lib32/libpthread.a(nc_mutex_86341ae1.o)
                                        0x637 (size before relaxing)
 .debug_str     0x0000000000014be9       0x29 /home/berkeley/nacl_sdk/pepper_42/toolchain/linux_x86_newlib/bin/../lib/gcc/x86_64-nacl/4.4.3/../../../../x86_64-nacl/lib/../lib32/libpthread.a(nc_init_irt_d3daafc0.o)
                                        0x235 (size before relaxing)
 .debug_str     0x0000000000014c12      0x2f6 /home/berkeley/nacl_sdk/pepper_42/toolchain/linux_x86_newlib/bin/../lib/gcc/x86_64-nacl/4.4.3/../../../../x86_64-nacl/lib/../lib32/libstdc++.a(tree.o)
                                        0x537 (size before relaxing)
 .debug_str     0x0000000000014f08     0x1a7e /home/berkeley/nacl_sdk/pepper_42/toolchain/linux_x86_newlib/bin/../lib/gcc/x86_64-nacl/4.4.3/../../../../x86_64-nacl/lib/../lib32/libstdc++.a(string-inst.o)
                                       0x3e8e (size before relaxing)
 .debug_str     0x0000000000016986      0x852 /home/berkeley/nacl_sdk/pepper_42/toolchain/linux_x86_newlib/bin/../lib/gcc/x86_64-nacl/4.4.3/../../../../x86_64-nacl/lib/../lib32/libstdc++.a(eh_personality.o)
                                        0xafe (size before relaxing)
 .debug_str     0x00000000000171d8      0x18b /home/berkeley/nacl_sdk/pepper_42/toolchain/linux_x86_newlib/bin/../lib/gcc/x86_64-nacl/4.4.3/../../../../x86_64-nacl/lib/../lib32/libstdc++.a(eh_globals.o)
                                        0x71a (size before relaxing)
 .debug_str     0x0000000000017363      0x19e /home/berkeley/nacl_sdk/pepper_42/toolchain/linux_x86_newlib/bin/../lib/gcc/x86_64-nacl/4.4.3/../../../../x86_64-nacl/lib/../lib32/libstdc++.a(eh_throw.o)
                                        0x5e9 (size before relaxing)
 .debug_str     0x0000000000017501       0x71 /home/berkeley/nacl_sdk/pepper_42/toolchain/linux_x86_newlib/bin/../lib/gcc/x86_64-nacl/4.4.3/../../../../x86_64-nacl/lib/../lib32/libstdc++.a(del_op.o)
                                        0x2aa (size before relaxing)
 .debug_str     0x0000000000017572       0x80 /home/berkeley/nacl_sdk/pepper_42/toolchain/linux_x86_newlib/bin/../lib/gcc/x86_64-nacl/4.4.3/../../../../x86_64-nacl/lib/../lib32/libstdc++.a(eh_call.o)
                                        0x594 (size before relaxing)
 .debug_str     0x00000000000175f2      0x420 /home/berkeley/nacl_sdk/pepper_42/toolchain/linux_x86_newlib/bin/../lib/gcc/x86_64-nacl/4.4.3/../../../../x86_64-nacl/lib/../lib32/libstdc++.a(guard.o)
                                        0x758 (size before relaxing)
 .debug_str     0x0000000000017a12      0x4c8 /home/berkeley/nacl_sdk/pepper_42/toolchain/linux_x86_newlib/bin/../lib/gcc/x86_64-nacl/4.4.3/../../../../x86_64-nacl/lib/../lib32/libstdc++.a(si_class_type_info.o)
                                        0x655 (size before relaxing)
 .debug_str     0x0000000000017eda      0x142 /home/berkeley/nacl_sdk/pepper_42/toolchain/linux_x86_newlib/bin/../lib/gcc/x86_64-nacl/4.4.3/../../../../x86_64-nacl/lib/../lib32/libstdc++.a(eh_terminate.o)
                                        0x489 (size before relaxing)
 .debug_str     0x000000000001801c      0x2bc /home/berkeley/nacl_sdk/pepper_42/toolchain/linux_x86_newlib/bin/../lib/gcc/x86_64-nacl/4.4.3/../../../../x86_64-nacl/lib/../lib32/libstdc++.a(class_type_info.o)
                                        0x6c7 (size before relaxing)
 .debug_str     0x00000000000182d8      0x267 /home/berkeley/nacl_sdk/pepper_42/toolchain/linux_x86_newlib/bin/../lib/gcc/x86_64-nacl/4.4.3/../../../../x86_64-nacl/lib/../lib32/libstdc++.a(eh_alloc.o)
                                        0xa89 (size before relaxing)
 .debug_str     0x000000000001853f      0x104 /home/berkeley/nacl_sdk/pepper_42/toolchain/linux_x86_newlib/bin/../lib/gcc/x86_64-nacl/4.4.3/../../../../x86_64-nacl/lib/../lib32/libstdc++.a(eh_catch.o)
                                        0x663 (size before relaxing)
 .debug_str     0x0000000000018643      0x198 /home/berkeley/nacl_sdk/pepper_42/toolchain/linux_x86_newlib/bin/../lib/gcc/x86_64-nacl/4.4.3/../../../../x86_64-nacl/lib/../lib32/libstdc++.a(eh_exception.o)
                                        0x309 (size before relaxing)
 .debug_str     0x00000000000187db       0x7b /home/berkeley/nacl_sdk/pepper_42/toolchain/linux_x86_newlib/bin/../lib/gcc/x86_64-nacl/4.4.3/../../../../x86_64-nacl/lib/../lib32/libstdc++.a(pure.o)
                                        0x250 (size before relaxing)
 .debug_str     0x0000000000018856       0x7e /home/berkeley/nacl_sdk/pepper_42/toolchain/linux_x86_newlib/bin/../lib/gcc/x86_64-nacl/4.4.3/../../../../x86_64-nacl/lib/../lib32/libstdc++.a(new_op.o)
                                        0x2e1 (size before relaxing)
 .debug_str     0x00000000000188d4      0x1b9 /home/berkeley/nacl_sdk/pepper_42/toolchain/linux_x86_newlib/bin/../lib/gcc/x86_64-nacl/4.4.3/../../../../x86_64-nacl/lib/../lib32/libstdc++.a(tinfo.o)
                                        0x3f4 (size before relaxing)
 .debug_str     0x0000000000018a8d     0x1425 /home/berkeley/nacl_sdk/pepper_42/toolchain/linux_x86_newlib/bin/../lib/gcc/x86_64-nacl/4.4.3/../../../../x86_64-nacl/lib/../lib32/libstdc++.a(functexcept.o)
                                       0x3bf5 (size before relaxing)
 .debug_str     0x0000000000019eb2       0xa1 /home/berkeley/nacl_sdk/pepper_42/toolchain/linux_x86_newlib/bin/../lib/gcc/x86_64-nacl/4.4.3/../../../../x86_64-nacl/lib/../lib32/libstdc++.a(ios_failure.o)
                                       0x3074 (size before relaxing)
 .debug_str     0x0000000000019f53       0xbb /home/berkeley/nacl_sdk/pepper_42/toolchain/linux_x86_newlib/bin/../lib/gcc/x86_64-nacl/4.4.3/../../../../x86_64-nacl/lib/../lib32/libstdc++.a(stdexcept.o)
                                       0x21c7 (size before relaxing)
 .debug_str     0x000000000001a00e      0x4dc /home/berkeley/nacl_sdk/pepper_42/toolchain/linux_x86_newlib/bin/../lib/gcc/x86_64-nacl/4.4.3/../../../../x86_64-nacl/lib/../lib32/libstdc++.a(system_error.o)
                                       0x2c8c (size before relaxing)
 .debug_str     0x000000000001a4ea       0x73 /home/berkeley/nacl_sdk/pepper_42/toolchain/linux_x86_newlib/bin/../lib/gcc/x86_64-nacl/4.4.3/../../../../x86_64-nacl/lib/../lib32/libstdc++.a(eh_unex_handler.o)
                                        0x256 (size before relaxing)
 .debug_str     0x000000000001a55d       0x73 /home/berkeley/nacl_sdk/pepper_42/toolchain/linux_x86_newlib/bin/../lib/gcc/x86_64-nacl/4.4.3/../../../../x86_64-nacl/lib/../lib32/libstdc++.a(eh_term_handler.o)
                                        0x253 (size before relaxing)
 .debug_str     0x000000000001a5d0       0x94 /home/berkeley/nacl_sdk/pepper_42/toolchain/linux_x86_newlib/bin/../lib/gcc/x86_64-nacl/4.4.3/../../../../x86_64-nacl/lib/../lib32/libstdc++.a(bad_typeid.o)
                                        0x1a8 (size before relaxing)
 .debug_str     0x000000000001a664       0xca /home/berkeley/nacl_sdk/pepper_42/toolchain/linux_x86_newlib/bin/../lib/gcc/x86_64-nacl/4.4.3/../../../../x86_64-nacl/lib/../lib32/libstdc++.a(new_handler.o)
                                        0x22b (size before relaxing)
 .debug_str     0x000000000001a72e       0x8d /home/berkeley/nacl_sdk/pepper_42/toolchain/linux_x86_newlib/bin/../lib/gcc/x86_64-nacl/4.4.3/../../../../x86_64-nacl/lib/../lib32/libstdc++.a(bad_cast.o)
                                        0x19f (size before relaxing)
 .debug_str     0x000000000001a7bb      0x177 /home/berkeley/nacl_sdk/pepper_42/toolchain/linux_x86_newlib/bin/../lib/gcc/x86_64-nacl/4.4.3/../../../../x86_64-nacl/lib/../lib32/libstdc++.a(vterminate.o)
                                        0x83f (size before relaxing)
 .debug_str     0x000000000001a932     0x110a /home/berkeley/nacl_sdk/pepper_42/toolchain/linux_x86_newlib/bin/../lib/gcc/x86_64-nacl/4.4.3/../../../../x86_64-nacl/lib/../lib32/libstdc++.a(cp-demangle.o)
                                       0x13cc (size before relaxing)
 .debug_str     0x000000000001ba3c       0x88 /home/berkeley/nacl_sdk/pepper_42/toolchain/linux_x86_newlib/bin/../lib/gcc/x86_64-nacl/4.4.3/../../../../x86_64-nacl/lib/../lib32/libstdc++.a(eh_type.o)
                                        0x52e (size before relaxing)
 .debug_str     0x000000000001bac4     0x18d4 /home/berkeley/nacl_sdk/pepper_42/toolchain/linux_x86_newlib/bin/../lib/gcc/x86_64-nacl/4.4.3/32/libgcc.a(unwind-dw2.o)
                                       0x1dd9 (size before relaxing)
 .debug_str     0x000000000001d398      0x3ec /home/berkeley/nacl_sdk/pepper_42/toolchain/linux_x86_newlib/bin/../lib/gcc/x86_64-nacl/4.4.3/32/libgcc.a(unwind-dw2-fde-glibc.o)
                                        0xe9b (size before relaxing)
 .debug_str     0x000000000001d784       0xa4 /home/berkeley/nacl_sdk/pepper_42/toolchain/linux_x86_newlib/bin/../lib/gcc/x86_64-nacl/4.4.3/../../../../x86_64-nacl/lib/../lib32/libnacl.a(_exit_710c7d0d.o)
                                        0x1ef (size before relaxing)
 .debug_str     0x000000000001d828        0x8 /home/berkeley/nacl_sdk/pepper_42/toolchain/linux_x86_newlib/bin/../lib/gcc/x86_64-nacl/4.4.3/../../../../x86_64-nacl/lib/../lib32/libnacl.a(abort_9f6b5845.o)
                                        0x14b (size before relaxing)
 .debug_str     0x000000000001d830       0x16 /home/berkeley/nacl_sdk/pepper_42/toolchain/linux_x86_newlib/bin/../lib/gcc/x86_64-nacl/4.4.3/../../../../x86_64-nacl/lib/../lib32/libnacl.a(environ_25cd24d8.o)
                                         0xcf (size before relaxing)
 .debug_str     0x000000000001d846      0x112 /home/berkeley/nacl_sdk/pepper_42/toolchain/linux_x86_newlib/bin/../lib/gcc/x86_64-nacl/4.4.3/../../../../x86_64-nacl/lib/../lib32/libnacl.a(start_fa9ef7de.o)
                                        0x2ba (size before relaxing)
 .debug_str     0x000000000001d958      0x694 /home/berkeley/nacl_sdk/pepper_42/toolchain/linux_x86_newlib/bin/../lib/gcc/x86_64-nacl/4.4.3/../../../../x86_64-nacl/lib/../lib32/libnacl.a(malloc_222c4a1e.o)
                                        0xd16 (size before relaxing)
 .debug_str     0x000000000001dfec      0x298 /home/berkeley/nacl_sdk/pepper_42/toolchain/linux_x86_newlib/bin/../lib/gcc/x86_64-nacl/4.4.3/../../../../x86_64-nacl/lib/../lib32/libnacl.a(nacl_irt_6de1d53f.o)
                                        0x5c4 (size before relaxing)
 .debug_str     0x000000000001e284       0x3a /home/berkeley/nacl_sdk/pepper_42/toolchain/linux_x86_newlib/bin/../lib/gcc/x86_64-nacl/4.4.3/../../../../x86_64-nacl/lib/../lib32/libnacl.a(pthread_initialize_minimal_4b6e776b.o)
                                        0x19b (size before relaxing)
 .debug_str     0x000000000001e2be       0x1e /home/berkeley/nacl_sdk/pepper_42/toolchain/linux_x86_newlib/bin/../lib/gcc/x86_64-nacl/4.4.3/../../../../x86_64-nacl/lib/../lib32/libnacl.a(nacl_read_tp_5748ac47.o)
                                        0x153 (size before relaxing)
 .debug_str     0x000000000001e2dc       0x11 /home/berkeley/nacl_sdk/pepper_42/toolchain/linux_x86_newlib/bin/../lib/gcc/x86_64-nacl/4.4.3/../../../../x86_64-nacl/lib/../lib32/libnacl.a(mmap_767fb080.o)
                                        0x1d5 (size before relaxing)
 .debug_str     0x000000000001e2ed        0xe /home/berkeley/nacl_sdk/pepper_42/toolchain/linux_x86_newlib/bin/../lib/gcc/x86_64-nacl/4.4.3/../../../../x86_64-nacl/lib/../lib32/libnacl.a(sched_yield_56c375be.o)
                                        0x1ee (size before relaxing)
 .debug_str     0x000000000001e2fb        0x9 /home/berkeley/nacl_sdk/pepper_42/toolchain/linux_x86_newlib/bin/../lib/gcc/x86_64-nacl/4.4.3/../../../../x86_64-nacl/lib/../lib32/libnacl.a(munmap_d4f09867.o)
                                        0x1b3 (size before relaxing)
 .debug_str     0x000000000001e304      0x2ca /home/berkeley/nacl_sdk/pepper_42/toolchain/linux_x86_newlib/bin/../lib/gcc/x86_64-nacl/4.4.3/../../../../x86_64-nacl/lib/../lib32/libnacl.a(tls_bba1975b.o)
                                        0x4b2 (size before relaxing)
 .debug_str     0x000000000001e5ce        0x8 /home/berkeley/nacl_sdk/pepper_42/toolchain/linux_x86_newlib/bin/../lib/gcc/x86_64-nacl/4.4.3/../../../../x86_64-nacl/lib/../lib32/libnacl.a(write_fb49787f.o)
                                        0x1d4 (size before relaxing)
 .debug_str     0x000000000001e5d6       0x1c /home/berkeley/nacl_sdk/pepper_42/toolchain/linux_x86_newlib/bin/../lib/gcc/x86_64-nacl/4.4.3/../../../../x86_64-nacl/lib/../lib32/libnacl.a(nacl_tls_get_d2f842b5.o)
                                        0x181 (size before relaxing)
 .debug_str     0x000000000001e5f2       0x65 /home/berkeley/nacl_sdk/pepper_42/toolchain/linux_x86_newlib/bin/../lib/gcc/x86_64-nacl/4.4.3/../../../../x86_64-nacl/lib/../lib32/libnacl.a(nacl_irt_init_7b4f826e.o)
                                        0x392 (size before relaxing)
 .debug_str     0x000000000001e657        0xa /home/berkeley/nacl_sdk/pepper_42/toolchain/linux_x86_newlib/bin/../lib/gcc/x86_64-nacl/4.4.3/../../../../x86_64-nacl/lib/../lib32/libnacl.a(sysconf_ad295ea2.o)
                                        0x1f5 (size before relaxing)
 .debug_str     0x000000000001e661       0x29 /home/berkeley/nacl_sdk/pepper_42/toolchain/linux_x86_newlib/bin/../lib/gcc/x86_64-nacl/4.4.3/../../../../x86_64-nacl/lib/../lib32/libnacl.a(nacl_tls_init_eb0cd232.o)
                                        0x18e (size before relaxing)
 .debug_str     0x000000000001e68a        0x8 /home/berkeley/nacl_sdk/pepper_42/toolchain/linux_x86_newlib/bin/../lib/gcc/x86_64-nacl/4.4.3/../../../../x86_64-nacl/lib/../lib32/libnacl.a(close_e9b92fbd.o)
                                        0x1c7 (size before relaxing)
 .debug_str     0x000000000001e692        0x9 /home/berkeley/nacl_sdk/pepper_42/toolchain/linux_x86_newlib/bin/../lib/gcc/x86_64-nacl/4.4.3/../../../../x86_64-nacl/lib/../lib32/libnacl.a(isatty_02f56e94.o)
                                        0x208 (size before relaxing)
 .debug_str     0x000000000001e69b       0x2c /home/berkeley/nacl_sdk/pepper_42/toolchain/linux_x86_newlib/bin/../lib/gcc/x86_64-nacl/4.4.3/../../../../x86_64-nacl/lib/../lib32/libnacl.a(nacl_irt_fdio_b571b5e7.o)
                                        0x21e (size before relaxing)
 .debug_str     0x000000000001e6c7       0xdd /home/berkeley/nacl_sdk/pepper_42/toolchain/linux_x86_newlib/bin/../lib/gcc/x86_64-nacl/4.4.3/../../../../x86_64-nacl/lib/../lib32/libnacl.a(fstat_0540ff63.o)
                                        0x328 (size before relaxing)
 .debug_str     0x000000000001e7a4        0xe /home/berkeley/nacl_sdk/pepper_42/toolchain/linux_x86_newlib/bin/../lib/gcc/x86_64-nacl/4.4.3/../../../../x86_64-nacl/lib/../lib32/libnacl.a(lseek_64d2d05c.o)
                                        0x1ef (size before relaxing)
 .debug_str     0x0000000000000000        0xe /home/berkeley/nacl_sdk/pepper_42/toolchain/linux_x86_newlib/bin/../lib/gcc/x86_64-nacl/4.4.3/../../../../x86_64-nacl/lib/../lib32/libnacl.a(read_df872e10.o)
                                        0x1d2 (size before relaxing)
 .debug_str     0x000000000001e7b2       0xb6 /home/berkeley/nacl_sdk/pepper_42/toolchain/linux_x86_newlib/bin/../lib/gcc/x86_64-nacl/4.4.3/32/libgcc.a(_udivdi3.o)
                                        0x221 (size before relaxing)
 .debug_str     0x000000000001e868        0xa /home/berkeley/nacl_sdk/pepper_42/toolchain/linux_x86_newlib/bin/../lib/gcc/x86_64-nacl/4.4.3/32/libgcc.a(_umoddi3.o)
                                        0x221 (size before relaxing)

.debug_loc      0x0000000000000000    0x222c0
 *(.debug_loc)
 .debug_loc     0x0000000000000000      0x276 newlib/Release/popcnt_x86_32.o
 .debug_loc     0x0000000000000276     0x157b /home/berkeley/nacl_sdk/pepper_42/lib/newlib_x86_32/Release/libppapi_cpp.a(instance_x86_32.o)
 .debug_loc     0x00000000000017f1     0x18c7 /home/berkeley/nacl_sdk/pepper_42/lib/newlib_x86_32/Release/libppapi_cpp.a(module_x86_32.o)
 .debug_loc     0x00000000000030b8      0x1ac /home/berkeley/nacl_sdk/pepper_42/lib/newlib_x86_32/Release/libppapi_cpp.a(ppp_entrypoints_x86_32.o)
 .debug_loc     0x0000000000003264      0x545 /home/berkeley/nacl_sdk/pepper_42/lib/newlib_x86_32/Release/libppapi_cpp.a(resource_x86_32.o)
 .debug_loc     0x00000000000037a9      0x719 /home/berkeley/nacl_sdk/pepper_42/lib/newlib_x86_32/Release/libppapi_cpp.a(url_loader_x86_32.o)
 .debug_loc     0x0000000000003ec2      0x1b8 /home/berkeley/nacl_sdk/pepper_42/lib/newlib_x86_32/Release/libppapi_cpp.a(url_response_info_x86_32.o)
 .debug_loc     0x000000000000407a      0xf4a /home/berkeley/nacl_sdk/pepper_42/lib/newlib_x86_32/Release/libppapi_cpp.a(var_x86_32.o)
 .debug_loc     0x0000000000004fc4      0x6c5 /home/berkeley/nacl_sdk/pepper_42/lib/newlib_x86_32/Release/libppapi_cpp.a(view_x86_32.o)
 .debug_loc     0x0000000000005689       0x58 /home/berkeley/nacl_sdk/pepper_42/lib/newlib_x86_32/Release/libppapi_cpp.a(core_x86_32.o)
 .debug_loc     0x00000000000056e1      0xef1 /home/berkeley/nacl_sdk/pepper_42/lib/newlib_x86_32/Release/libppapi_cpp.a(file_ref_x86_32.o)
 .debug_loc     0x00000000000065d2     0x3387 /home/berkeley/nacl_sdk/pepper_42/lib/newlib_x86_32/Release/libppapi_cpp.a(input_event_x86_32.o)
 .debug_loc     0x0000000000009959       0x2c /home/berkeley/nacl_sdk/pepper_42/toolchain/linux_x86_newlib/bin/../lib/gcc/x86_64-nacl/4.4.3/../../../../x86_64-nacl/lib/../lib32/libppapi_stub.a(plugin_main_irt_21ce9d26.o)
 .debug_loc     0x0000000000009985       0x20 /home/berkeley/nacl_sdk/pepper_42/toolchain/linux_x86_newlib/bin/../lib/gcc/x86_64-nacl/4.4.3/../../../../x86_64-nacl/lib/../lib32/libppapi_stub.a(ppapi_plugin_main_399d0cf7.o)
 .debug_loc     0x00000000000099a5       0xd0 /home/berkeley/nacl_sdk/pepper_42/toolchain/linux_x86_newlib/bin/../lib/gcc/x86_64-nacl/4.4.3/../../../../x86_64-nacl/lib/../lib32/libppapi_stub.a(ppapi_plugin_start_8da67623.o)
 .debug_loc     0x0000000000009a75       0x60 /home/berkeley/nacl_sdk/pepper_42/toolchain/linux_x86_newlib/bin/../lib/gcc/x86_64-nacl/4.4.3/../../../../x86_64-nacl/lib/../lib32/libppapi_stub.a(thread_creator_ccf263e1.o)
 .debug_loc     0x0000000000009ad5      0xbcd /home/berkeley/nacl_sdk/pepper_42/toolchain/linux_x86_newlib/bin/../lib/gcc/x86_64-nacl/4.4.3/../../../../x86_64-nacl/lib/../lib32/libpthread.a(nc_thread_7e478b15.o)
 .debug_loc     0x000000000000a6a2      0x18c /home/berkeley/nacl_sdk/pepper_42/toolchain/linux_x86_newlib/bin/../lib/gcc/x86_64-nacl/4.4.3/../../../../x86_64-nacl/lib/../lib32/libpthread.a(nc_condvar_305aa45a.o)
 .debug_loc     0x000000000000a82e       0x72 /home/berkeley/nacl_sdk/pepper_42/toolchain/linux_x86_newlib/bin/../lib/gcc/x86_64-nacl/4.4.3/../../../../x86_64-nacl/lib/../lib32/libpthread.a(dynamic_annotations_33ba59cc.o)
 .debug_loc     0x000000000000a8a0      0x2ff /home/berkeley/nacl_sdk/pepper_42/toolchain/linux_x86_newlib/bin/../lib/gcc/x86_64-nacl/4.4.3/../../../../x86_64-nacl/lib/../lib32/libpthread.a(nc_mutex_86341ae1.o)
 .debug_loc     0x000000000000ab9f       0x20 /home/berkeley/nacl_sdk/pepper_42/toolchain/linux_x86_newlib/bin/../lib/gcc/x86_64-nacl/4.4.3/../../../../x86_64-nacl/lib/../lib32/libpthread.a(nc_init_irt_d3daafc0.o)
 .debug_loc     0x000000000000abbf      0xc2f /home/berkeley/nacl_sdk/pepper_42/toolchain/linux_x86_newlib/bin/../lib/gcc/x86_64-nacl/4.4.3/../../../../x86_64-nacl/lib/../lib32/libstdc++.a(tree.o)
 .debug_loc     0x000000000000b7ee     0x5351 /home/berkeley/nacl_sdk/pepper_42/toolchain/linux_x86_newlib/bin/../lib/gcc/x86_64-nacl/4.4.3/../../../../x86_64-nacl/lib/../lib32/libstdc++.a(string-inst.o)
 .debug_loc     0x0000000000010b3f     0x113c /home/berkeley/nacl_sdk/pepper_42/toolchain/linux_x86_newlib/bin/../lib/gcc/x86_64-nacl/4.4.3/../../../../x86_64-nacl/lib/../lib32/libstdc++.a(eh_personality.o)
 .debug_loc     0x0000000000011c7b      0x217 /home/berkeley/nacl_sdk/pepper_42/toolchain/linux_x86_newlib/bin/../lib/gcc/x86_64-nacl/4.4.3/../../../../x86_64-nacl/lib/../lib32/libstdc++.a(eh_globals.o)
 .debug_loc     0x0000000000011e92      0x15e /home/berkeley/nacl_sdk/pepper_42/toolchain/linux_x86_newlib/bin/../lib/gcc/x86_64-nacl/4.4.3/../../../../x86_64-nacl/lib/../lib32/libstdc++.a(eh_throw.o)
 .debug_loc     0x0000000000011ff0       0x56 /home/berkeley/nacl_sdk/pepper_42/toolchain/linux_x86_newlib/bin/../lib/gcc/x86_64-nacl/4.4.3/../../../../x86_64-nacl/lib/../lib32/libstdc++.a(del_op.o)
 .debug_loc     0x0000000000012046       0x4b /home/berkeley/nacl_sdk/pepper_42/toolchain/linux_x86_newlib/bin/../lib/gcc/x86_64-nacl/4.4.3/../../../../x86_64-nacl/lib/../lib32/libstdc++.a(eh_call.o)
 .debug_loc     0x0000000000012091      0x31f /home/berkeley/nacl_sdk/pepper_42/toolchain/linux_x86_newlib/bin/../lib/gcc/x86_64-nacl/4.4.3/../../../../x86_64-nacl/lib/../lib32/libstdc++.a(guard.o)
 .debug_loc     0x00000000000123b0      0x4f7 /home/berkeley/nacl_sdk/pepper_42/toolchain/linux_x86_newlib/bin/../lib/gcc/x86_64-nacl/4.4.3/../../../../x86_64-nacl/lib/../lib32/libstdc++.a(si_class_type_info.o)
 .debug_loc     0x00000000000128a7      0x14e /home/berkeley/nacl_sdk/pepper_42/toolchain/linux_x86_newlib/bin/../lib/gcc/x86_64-nacl/4.4.3/../../../../x86_64-nacl/lib/../lib32/libstdc++.a(eh_terminate.o)
 .debug_loc     0x00000000000129f5      0x460 /home/berkeley/nacl_sdk/pepper_42/toolchain/linux_x86_newlib/bin/../lib/gcc/x86_64-nacl/4.4.3/../../../../x86_64-nacl/lib/../lib32/libstdc++.a(class_type_info.o)
 .debug_loc     0x0000000000012e55      0x4e6 /home/berkeley/nacl_sdk/pepper_42/toolchain/linux_x86_newlib/bin/../lib/gcc/x86_64-nacl/4.4.3/../../../../x86_64-nacl/lib/../lib32/libstdc++.a(eh_alloc.o)
 .debug_loc     0x000000000001333b      0x1f7 /home/berkeley/nacl_sdk/pepper_42/toolchain/linux_x86_newlib/bin/../lib/gcc/x86_64-nacl/4.4.3/../../../../x86_64-nacl/lib/../lib32/libstdc++.a(eh_catch.o)
 .debug_loc     0x0000000000013532      0x268 /home/berkeley/nacl_sdk/pepper_42/toolchain/linux_x86_newlib/bin/../lib/gcc/x86_64-nacl/4.4.3/../../../../x86_64-nacl/lib/../lib32/libstdc++.a(eh_exception.o)
 .debug_loc     0x000000000001379a       0x2c /home/berkeley/nacl_sdk/pepper_42/toolchain/linux_x86_newlib/bin/../lib/gcc/x86_64-nacl/4.4.3/../../../../x86_64-nacl/lib/../lib32/libstdc++.a(pure.o)
 .debug_loc     0x00000000000137c6       0x92 /home/berkeley/nacl_sdk/pepper_42/toolchain/linux_x86_newlib/bin/../lib/gcc/x86_64-nacl/4.4.3/../../../../x86_64-nacl/lib/../lib32/libstdc++.a(new_op.o)
 .debug_loc     0x0000000000013858      0x134 /home/berkeley/nacl_sdk/pepper_42/toolchain/linux_x86_newlib/bin/../lib/gcc/x86_64-nacl/4.4.3/../../../../x86_64-nacl/lib/../lib32/libstdc++.a(tinfo.o)
 .debug_loc     0x000000000001398c      0x7ff /home/berkeley/nacl_sdk/pepper_42/toolchain/linux_x86_newlib/bin/../lib/gcc/x86_64-nacl/4.4.3/../../../../x86_64-nacl/lib/../lib32/libstdc++.a(functexcept.o)
 .debug_loc     0x000000000001418b      0x2d1 /home/berkeley/nacl_sdk/pepper_42/toolchain/linux_x86_newlib/bin/../lib/gcc/x86_64-nacl/4.4.3/../../../../x86_64-nacl/lib/../lib32/libstdc++.a(ios_failure.o)
 .debug_loc     0x000000000001445c      0xa72 /home/berkeley/nacl_sdk/pepper_42/toolchain/linux_x86_newlib/bin/../lib/gcc/x86_64-nacl/4.4.3/../../../../x86_64-nacl/lib/../lib32/libstdc++.a(stdexcept.o)
 .debug_loc     0x0000000000014ece      0x4b5 /home/berkeley/nacl_sdk/pepper_42/toolchain/linux_x86_newlib/bin/../lib/gcc/x86_64-nacl/4.4.3/../../../../x86_64-nacl/lib/../lib32/libstdc++.a(system_error.o)
 .debug_loc     0x0000000000015383       0xb0 /home/berkeley/nacl_sdk/pepper_42/toolchain/linux_x86_newlib/bin/../lib/gcc/x86_64-nacl/4.4.3/../../../../x86_64-nacl/lib/../lib32/libstdc++.a(bad_typeid.o)
 .debug_loc     0x0000000000015433       0xef /home/berkeley/nacl_sdk/pepper_42/toolchain/linux_x86_newlib/bin/../lib/gcc/x86_64-nacl/4.4.3/../../../../x86_64-nacl/lib/../lib32/libstdc++.a(new_handler.o)
 .debug_loc     0x0000000000015522       0xb0 /home/berkeley/nacl_sdk/pepper_42/toolchain/linux_x86_newlib/bin/../lib/gcc/x86_64-nacl/4.4.3/../../../../x86_64-nacl/lib/../lib32/libstdc++.a(bad_cast.o)
 .debug_loc     0x00000000000155d2       0xbc /home/berkeley/nacl_sdk/pepper_42/toolchain/linux_x86_newlib/bin/../lib/gcc/x86_64-nacl/4.4.3/../../../../x86_64-nacl/lib/../lib32/libstdc++.a(vterminate.o)
 .debug_loc     0x000000000001568e     0x2f99 /home/berkeley/nacl_sdk/pepper_42/toolchain/linux_x86_newlib/bin/../lib/gcc/x86_64-nacl/4.4.3/../../../../x86_64-nacl/lib/../lib32/libstdc++.a(cp-demangle.o)
 .debug_loc     0x0000000000018627       0x5d /home/berkeley/nacl_sdk/pepper_42/toolchain/linux_x86_newlib/bin/../lib/gcc/x86_64-nacl/4.4.3/../../../../x86_64-nacl/lib/../lib32/libstdc++.a(eh_type.o)
 .debug_loc     0x0000000000018684     0x2dce /home/berkeley/nacl_sdk/pepper_42/toolchain/linux_x86_newlib/bin/../lib/gcc/x86_64-nacl/4.4.3/32/libgcc.a(unwind-dw2.o)
 .debug_loc     0x000000000001b452     0x151c /home/berkeley/nacl_sdk/pepper_42/toolchain/linux_x86_newlib/bin/../lib/gcc/x86_64-nacl/4.4.3/32/libgcc.a(unwind-dw2-fde-glibc.o)
 .debug_loc     0x000000000001c96e       0x20 /home/berkeley/nacl_sdk/pepper_42/toolchain/linux_x86_newlib/bin/../lib/gcc/x86_64-nacl/4.4.3/../../../../x86_64-nacl/lib/../lib32/libnacl.a(_exit_710c7d0d.o)
 .debug_loc     0x000000000001c98e       0x20 /home/berkeley/nacl_sdk/pepper_42/toolchain/linux_x86_newlib/bin/../lib/gcc/x86_64-nacl/4.4.3/../../../../x86_64-nacl/lib/../lib32/libnacl.a(abort_9f6b5845.o)
 .debug_loc     0x000000000001c9ae       0x51 /home/berkeley/nacl_sdk/pepper_42/toolchain/linux_x86_newlib/bin/../lib/gcc/x86_64-nacl/4.4.3/../../../../x86_64-nacl/lib/../lib32/libnacl.a(start_fa9ef7de.o)
 .debug_loc     0x000000000001c9ff     0x4c5b /home/berkeley/nacl_sdk/pepper_42/toolchain/linux_x86_newlib/bin/../lib/gcc/x86_64-nacl/4.4.3/../../../../x86_64-nacl/lib/../lib32/libnacl.a(malloc_222c4a1e.o)
 .debug_loc     0x000000000002165a      0x141 /home/berkeley/nacl_sdk/pepper_42/toolchain/linux_x86_newlib/bin/../lib/gcc/x86_64-nacl/4.4.3/../../../../x86_64-nacl/lib/../lib32/libnacl.a(nacl_irt_6de1d53f.o)
 .debug_loc     0x000000000002179b       0xa6 /home/berkeley/nacl_sdk/pepper_42/toolchain/linux_x86_newlib/bin/../lib/gcc/x86_64-nacl/4.4.3/../../../../x86_64-nacl/lib/../lib32/libnacl.a(pthread_initialize_minimal_4b6e776b.o)
 .debug_loc     0x0000000000021841       0x20 /home/berkeley/nacl_sdk/pepper_42/toolchain/linux_x86_newlib/bin/../lib/gcc/x86_64-nacl/4.4.3/../../../../x86_64-nacl/lib/../lib32/libnacl.a(nacl_read_tp_5748ac47.o)
 .debug_loc     0x0000000000021861       0x7b /home/berkeley/nacl_sdk/pepper_42/toolchain/linux_x86_newlib/bin/../lib/gcc/x86_64-nacl/4.4.3/../../../../x86_64-nacl/lib/../lib32/libnacl.a(mmap_767fb080.o)
 .debug_loc     0x00000000000218dc       0x4a /home/berkeley/nacl_sdk/pepper_42/toolchain/linux_x86_newlib/bin/../lib/gcc/x86_64-nacl/4.4.3/../../../../x86_64-nacl/lib/../lib32/libnacl.a(sched_yield_56c375be.o)
 .debug_loc     0x0000000000021926       0x4a /home/berkeley/nacl_sdk/pepper_42/toolchain/linux_x86_newlib/bin/../lib/gcc/x86_64-nacl/4.4.3/../../../../x86_64-nacl/lib/../lib32/libnacl.a(munmap_d4f09867.o)
 .debug_loc     0x0000000000021970      0x146 /home/berkeley/nacl_sdk/pepper_42/toolchain/linux_x86_newlib/bin/../lib/gcc/x86_64-nacl/4.4.3/../../../../x86_64-nacl/lib/../lib32/libnacl.a(tls_bba1975b.o)
 .debug_loc     0x0000000000021ab6       0x5e /home/berkeley/nacl_sdk/pepper_42/toolchain/linux_x86_newlib/bin/../lib/gcc/x86_64-nacl/4.4.3/../../../../x86_64-nacl/lib/../lib32/libnacl.a(write_fb49787f.o)
 .debug_loc     0x0000000000021b14       0x20 /home/berkeley/nacl_sdk/pepper_42/toolchain/linux_x86_newlib/bin/../lib/gcc/x86_64-nacl/4.4.3/../../../../x86_64-nacl/lib/../lib32/libnacl.a(nacl_tls_get_d2f842b5.o)
 .debug_loc     0x0000000000021b34       0x57 /home/berkeley/nacl_sdk/pepper_42/toolchain/linux_x86_newlib/bin/../lib/gcc/x86_64-nacl/4.4.3/../../../../x86_64-nacl/lib/../lib32/libnacl.a(nacl_irt_init_7b4f826e.o)
 .debug_loc     0x0000000000021b8b       0x5e /home/berkeley/nacl_sdk/pepper_42/toolchain/linux_x86_newlib/bin/../lib/gcc/x86_64-nacl/4.4.3/../../../../x86_64-nacl/lib/../lib32/libnacl.a(sysconf_ad295ea2.o)
 .debug_loc     0x0000000000021be9       0x20 /home/berkeley/nacl_sdk/pepper_42/toolchain/linux_x86_newlib/bin/../lib/gcc/x86_64-nacl/4.4.3/../../../../x86_64-nacl/lib/../lib32/libnacl.a(nacl_tls_init_eb0cd232.o)
 .debug_loc     0x0000000000021c09       0x4a /home/berkeley/nacl_sdk/pepper_42/toolchain/linux_x86_newlib/bin/../lib/gcc/x86_64-nacl/4.4.3/../../../../x86_64-nacl/lib/../lib32/libnacl.a(close_e9b92fbd.o)
 .debug_loc     0x0000000000021c53       0x69 /home/berkeley/nacl_sdk/pepper_42/toolchain/linux_x86_newlib/bin/../lib/gcc/x86_64-nacl/4.4.3/../../../../x86_64-nacl/lib/../lib32/libnacl.a(isatty_02f56e94.o)
 .debug_loc     0x0000000000021cbc       0x20 /home/berkeley/nacl_sdk/pepper_42/toolchain/linux_x86_newlib/bin/../lib/gcc/x86_64-nacl/4.4.3/../../../../x86_64-nacl/lib/../lib32/libnacl.a(nacl_irt_fdio_b571b5e7.o)
 .debug_loc     0x0000000000021cdc       0x4a /home/berkeley/nacl_sdk/pepper_42/toolchain/linux_x86_newlib/bin/../lib/gcc/x86_64-nacl/4.4.3/../../../../x86_64-nacl/lib/../lib32/libnacl.a(fstat_0540ff63.o)
 .debug_loc     0x0000000000021d26       0x5f /home/berkeley/nacl_sdk/pepper_42/toolchain/linux_x86_newlib/bin/../lib/gcc/x86_64-nacl/4.4.3/../../../../x86_64-nacl/lib/../lib32/libnacl.a(lseek_64d2d05c.o)
 .debug_loc     0x0000000000021d85       0x5e /home/berkeley/nacl_sdk/pepper_42/toolchain/linux_x86_newlib/bin/../lib/gcc/x86_64-nacl/4.4.3/../../../../x86_64-nacl/lib/../lib32/libnacl.a(read_df872e10.o)
 .debug_loc     0x0000000000021de3      0x23e /home/berkeley/nacl_sdk/pepper_42/toolchain/linux_x86_newlib/bin/../lib/gcc/x86_64-nacl/4.4.3/32/libgcc.a(_udivdi3.o)
 .debug_loc     0x0000000000022021      0x29f /home/berkeley/nacl_sdk/pepper_42/toolchain/linux_x86_newlib/bin/../lib/gcc/x86_64-nacl/4.4.3/32/libgcc.a(_umoddi3.o)

.debug_macinfo
 *(.debug_macinfo)

.debug_weaknames
 *(.debug_weaknames)

.debug_funcnames
 *(.debug_funcnames)

.debug_typenames
 *(.debug_typenames)

.debug_varnames
 *(.debug_varnames)

.debug_pubtypes
 *(.debug_pubtypes)

.debug_ranges   0x0000000000000000     0xf350
 *(.debug_ranges)
 .debug_ranges  0x0000000000000000      0x128 newlib/Release/popcnt_x86_32.o
 .debug_ranges  0x0000000000000128     0x1528 /home/berkeley/nacl_sdk/pepper_42/lib/newlib_x86_32/Release/libppapi_cpp.a(instance_x86_32.o)
 .debug_ranges  0x0000000000001650     0x10d0 /home/berkeley/nacl_sdk/pepper_42/lib/newlib_x86_32/Release/libppapi_cpp.a(module_x86_32.o)
 .debug_ranges  0x0000000000002720       0x18 /home/berkeley/nacl_sdk/pepper_42/lib/newlib_x86_32/Release/libppapi_cpp.a(ppp_entrypoints_x86_32.o)
 .debug_ranges  0x0000000000002738       0x90 /home/berkeley/nacl_sdk/pepper_42/lib/newlib_x86_32/Release/libppapi_cpp.a(resource_x86_32.o)
 .debug_ranges  0x00000000000027c8      0x708 /home/berkeley/nacl_sdk/pepper_42/lib/newlib_x86_32/Release/libppapi_cpp.a(url_loader_x86_32.o)
 .debug_ranges  0x0000000000002ed0      0x180 /home/berkeley/nacl_sdk/pepper_42/lib/newlib_x86_32/Release/libppapi_cpp.a(url_response_info_x86_32.o)
 .debug_ranges  0x0000000000003050      0xa20 /home/berkeley/nacl_sdk/pepper_42/lib/newlib_x86_32/Release/libppapi_cpp.a(var_x86_32.o)
 .debug_ranges  0x0000000000003a70      0xc90 /home/berkeley/nacl_sdk/pepper_42/lib/newlib_x86_32/Release/libppapi_cpp.a(view_x86_32.o)
 .debug_ranges  0x0000000000004700     0x15b8 /home/berkeley/nacl_sdk/pepper_42/lib/newlib_x86_32/Release/libppapi_cpp.a(file_ref_x86_32.o)
 .debug_ranges  0x0000000000005cb8     0x1b38 /home/berkeley/nacl_sdk/pepper_42/lib/newlib_x86_32/Release/libppapi_cpp.a(input_event_x86_32.o)
 .debug_ranges  0x00000000000077f0      0x220 /home/berkeley/nacl_sdk/pepper_42/toolchain/linux_x86_newlib/bin/../lib/gcc/x86_64-nacl/4.4.3/../../../../x86_64-nacl/lib/../lib32/libpthread.a(nc_thread_7e478b15.o)
 .debug_ranges  0x0000000000007a10       0x20 /home/berkeley/nacl_sdk/pepper_42/toolchain/linux_x86_newlib/bin/../lib/gcc/x86_64-nacl/4.4.3/../../../../x86_64-nacl/lib/../lib32/libpthread.a(nc_mutex_86341ae1.o)
 .debug_ranges  0x0000000000007a30      0x500 /home/berkeley/nacl_sdk/pepper_42/toolchain/linux_x86_newlib/bin/../lib/gcc/x86_64-nacl/4.4.3/../../../../x86_64-nacl/lib/../lib32/libstdc++.a(tree.o)
 .debug_ranges  0x0000000000007f30     0x24f8 /home/berkeley/nacl_sdk/pepper_42/toolchain/linux_x86_newlib/bin/../lib/gcc/x86_64-nacl/4.4.3/../../../../x86_64-nacl/lib/../lib32/libstdc++.a(string-inst.o)
 .debug_ranges  0x000000000000a428      0x320 /home/berkeley/nacl_sdk/pepper_42/toolchain/linux_x86_newlib/bin/../lib/gcc/x86_64-nacl/4.4.3/../../../../x86_64-nacl/lib/../lib32/libstdc++.a(eh_personality.o)
 .debug_ranges  0x000000000000a748       0xd8 /home/berkeley/nacl_sdk/pepper_42/toolchain/linux_x86_newlib/bin/../lib/gcc/x86_64-nacl/4.4.3/../../../../x86_64-nacl/lib/../lib32/libstdc++.a(eh_globals.o)
 .debug_ranges  0x000000000000a820       0x48 /home/berkeley/nacl_sdk/pepper_42/toolchain/linux_x86_newlib/bin/../lib/gcc/x86_64-nacl/4.4.3/../../../../x86_64-nacl/lib/../lib32/libstdc++.a(eh_throw.o)
 .debug_ranges  0x000000000000a868       0x18 /home/berkeley/nacl_sdk/pepper_42/toolchain/linux_x86_newlib/bin/../lib/gcc/x86_64-nacl/4.4.3/../../../../x86_64-nacl/lib/../lib32/libstdc++.a(del_op.o)
 .debug_ranges  0x000000000000a880       0x18 /home/berkeley/nacl_sdk/pepper_42/toolchain/linux_x86_newlib/bin/../lib/gcc/x86_64-nacl/4.4.3/../../../../x86_64-nacl/lib/../lib32/libstdc++.a(eh_call.o)
 .debug_ranges  0x000000000000a898      0x148 /home/berkeley/nacl_sdk/pepper_42/toolchain/linux_x86_newlib/bin/../lib/gcc/x86_64-nacl/4.4.3/../../../../x86_64-nacl/lib/../lib32/libstdc++.a(guard.o)
 .debug_ranges  0x000000000000a9e0       0x58 /home/berkeley/nacl_sdk/pepper_42/toolchain/linux_x86_newlib/bin/../lib/gcc/x86_64-nacl/4.4.3/../../../../x86_64-nacl/lib/../lib32/libstdc++.a(si_class_type_info.o)
 .debug_ranges  0x000000000000aa38       0x80 /home/berkeley/nacl_sdk/pepper_42/toolchain/linux_x86_newlib/bin/../lib/gcc/x86_64-nacl/4.4.3/../../../../x86_64-nacl/lib/../lib32/libstdc++.a(eh_terminate.o)
 .debug_ranges  0x000000000000aab8       0x68 /home/berkeley/nacl_sdk/pepper_42/toolchain/linux_x86_newlib/bin/../lib/gcc/x86_64-nacl/4.4.3/../../../../x86_64-nacl/lib/../lib32/libstdc++.a(class_type_info.o)
 .debug_ranges  0x000000000000ab20      0x430 /home/berkeley/nacl_sdk/pepper_42/toolchain/linux_x86_newlib/bin/../lib/gcc/x86_64-nacl/4.4.3/../../../../x86_64-nacl/lib/../lib32/libstdc++.a(eh_alloc.o)
 .debug_ranges  0x000000000000af50       0x78 /home/berkeley/nacl_sdk/pepper_42/toolchain/linux_x86_newlib/bin/../lib/gcc/x86_64-nacl/4.4.3/../../../../x86_64-nacl/lib/../lib32/libstdc++.a(eh_catch.o)
 .debug_ranges  0x000000000000afc8       0x80 /home/berkeley/nacl_sdk/pepper_42/toolchain/linux_x86_newlib/bin/../lib/gcc/x86_64-nacl/4.4.3/../../../../x86_64-nacl/lib/../lib32/libstdc++.a(eh_exception.o)
 .debug_ranges  0x000000000000b048       0x18 /home/berkeley/nacl_sdk/pepper_42/toolchain/linux_x86_newlib/bin/../lib/gcc/x86_64-nacl/4.4.3/../../../../x86_64-nacl/lib/../lib32/libstdc++.a(pure.o)
 .debug_ranges  0x000000000000b060       0x50 /home/berkeley/nacl_sdk/pepper_42/toolchain/linux_x86_newlib/bin/../lib/gcc/x86_64-nacl/4.4.3/../../../../x86_64-nacl/lib/../lib32/libstdc++.a(new_op.o)
 .debug_ranges  0x000000000000b0b0       0x48 /home/berkeley/nacl_sdk/pepper_42/toolchain/linux_x86_newlib/bin/../lib/gcc/x86_64-nacl/4.4.3/../../../../x86_64-nacl/lib/../lib32/libstdc++.a(tinfo.o)
 .debug_ranges  0x000000000000b0f8      0x4e0 /home/berkeley/nacl_sdk/pepper_42/toolchain/linux_x86_newlib/bin/../lib/gcc/x86_64-nacl/4.4.3/../../../../x86_64-nacl/lib/../lib32/libstdc++.a(functexcept.o)
 .debug_ranges  0x000000000000b5d8      0x178 /home/berkeley/nacl_sdk/pepper_42/toolchain/linux_x86_newlib/bin/../lib/gcc/x86_64-nacl/4.4.3/../../../../x86_64-nacl/lib/../lib32/libstdc++.a(ios_failure.o)
 .debug_ranges  0x000000000000b750      0x3c0 /home/berkeley/nacl_sdk/pepper_42/toolchain/linux_x86_newlib/bin/../lib/gcc/x86_64-nacl/4.4.3/../../../../x86_64-nacl/lib/../lib32/libstdc++.a(stdexcept.o)
 .debug_ranges  0x000000000000bb10       0xd8 /home/berkeley/nacl_sdk/pepper_42/toolchain/linux_x86_newlib/bin/../lib/gcc/x86_64-nacl/4.4.3/../../../../x86_64-nacl/lib/../lib32/libstdc++.a(system_error.o)
 .debug_ranges  0x000000000000bbe8       0x30 /home/berkeley/nacl_sdk/pepper_42/toolchain/linux_x86_newlib/bin/../lib/gcc/x86_64-nacl/4.4.3/../../../../x86_64-nacl/lib/../lib32/libstdc++.a(bad_typeid.o)
 .debug_ranges  0x000000000000bc18       0x58 /home/berkeley/nacl_sdk/pepper_42/toolchain/linux_x86_newlib/bin/../lib/gcc/x86_64-nacl/4.4.3/../../../../x86_64-nacl/lib/../lib32/libstdc++.a(new_handler.o)
 .debug_ranges  0x000000000000bc70       0x30 /home/berkeley/nacl_sdk/pepper_42/toolchain/linux_x86_newlib/bin/../lib/gcc/x86_64-nacl/4.4.3/../../../../x86_64-nacl/lib/../lib32/libstdc++.a(bad_cast.o)
 .debug_ranges  0x000000000000bca0       0x68 /home/berkeley/nacl_sdk/pepper_42/toolchain/linux_x86_newlib/bin/../lib/gcc/x86_64-nacl/4.4.3/../../../../x86_64-nacl/lib/../lib32/libstdc++.a(vterminate.o)
 .debug_ranges  0x000000000000bd08     0x1090 /home/berkeley/nacl_sdk/pepper_42/toolchain/linux_x86_newlib/bin/../lib/gcc/x86_64-nacl/4.4.3/../../../../x86_64-nacl/lib/../lib32/libstdc++.a(cp-demangle.o)
 .debug_ranges  0x000000000000cd98       0x30 /home/berkeley/nacl_sdk/pepper_42/toolchain/linux_x86_newlib/bin/../lib/gcc/x86_64-nacl/4.4.3/../../../../x86_64-nacl/lib/../lib32/libstdc++.a(eh_type.o)
 .debug_ranges  0x000000000000cdc8      0x9e8 /home/berkeley/nacl_sdk/pepper_42/toolchain/linux_x86_newlib/bin/../lib/gcc/x86_64-nacl/4.4.3/32/libgcc.a(unwind-dw2.o)
 .debug_ranges  0x000000000000d7b0      0x3a8 /home/berkeley/nacl_sdk/pepper_42/toolchain/linux_x86_newlib/bin/../lib/gcc/x86_64-nacl/4.4.3/32/libgcc.a(unwind-dw2-fde-glibc.o)
 .debug_ranges  0x000000000000db58       0x30 /home/berkeley/nacl_sdk/pepper_42/toolchain/linux_x86_newlib/bin/../lib/gcc/x86_64-nacl/4.4.3/../../../../x86_64-nacl/lib/../lib32/libnacl.a(start_fa9ef7de.o)
 .debug_ranges  0x000000000000db88     0x15e0 /home/berkeley/nacl_sdk/pepper_42/toolchain/linux_x86_newlib/bin/../lib/gcc/x86_64-nacl/4.4.3/../../../../x86_64-nacl/lib/../lib32/libnacl.a(malloc_222c4a1e.o)
 .debug_ranges  0x000000000000f168       0xd8 /home/berkeley/nacl_sdk/pepper_42/toolchain/linux_x86_newlib/bin/../lib/gcc/x86_64-nacl/4.4.3/../../../../x86_64-nacl/lib/../lib32/libnacl.a(tls_bba1975b.o)
 .debug_ranges  0x000000000000f240       0x18 /home/berkeley/nacl_sdk/pepper_42/toolchain/linux_x86_newlib/bin/../lib/gcc/x86_64-nacl/4.4.3/../../../../x86_64-nacl/lib/../lib32/libnacl.a(nacl_irt_init_7b4f826e.o)
 .debug_ranges  0x000000000000f258       0x70 /home/berkeley/nacl_sdk/pepper_42/toolchain/linux_x86_newlib/bin/../lib/gcc/x86_64-nacl/4.4.3/32/libgcc.a(_udivdi3.o)
 .debug_ranges  0x000000000000f2c8       0x88 /home/berkeley/nacl_sdk/pepper_42/toolchain/linux_x86_newlib/bin/../lib/gcc/x86_64-nacl/4.4.3/32/libgcc.a(_umoddi3.o)

.debug_macro
 *(.debug_macro)

.gnu.attributes
 *(.gnu.attributes)

/DISCARD/
 *(.note.GNU-stack)
 *(.gnu_debuglink)
 *(.gnu.lto_*)
OUTPUT(newlib/Release/part2_unstripped_x86_32.nexe elf32-i386-nacl)
